
/home/frank/hesl/test_riscv/chipyard/chipyard/build/accum.riscv:     file format elf64-littleriscv


Disassembly of section .text:

0000000080000000 <_start>:
    80000000:	4081                	li	ra,0
    80000002:	4101                	li	sp,0
    80000004:	4181                	li	gp,0
    80000006:	4201                	li	tp,0
    80000008:	4281                	li	t0,0
    8000000a:	4301                	li	t1,0
    8000000c:	4381                	li	t2,0
    8000000e:	4401                	li	s0,0
    80000010:	4481                	li	s1,0
    80000012:	4501                	li	a0,0
    80000014:	4581                	li	a1,0
    80000016:	4601                	li	a2,0
    80000018:	4681                	li	a3,0
    8000001a:	4701                	li	a4,0
    8000001c:	4781                	li	a5,0
    8000001e:	4801                	li	a6,0
    80000020:	4881                	li	a7,0
    80000022:	4901                	li	s2,0
    80000024:	4981                	li	s3,0
    80000026:	4a01                	li	s4,0
    80000028:	4a81                	li	s5,0
    8000002a:	4b01                	li	s6,0
    8000002c:	4b81                	li	s7,0
    8000002e:	4c01                	li	s8,0
    80000030:	4c81                	li	s9,0
    80000032:	4d01                	li	s10,0
    80000034:	4d81                	li	s11,0
    80000036:	4e01                	li	t3,0
    80000038:	4e81                	li	t4,0
    8000003a:	4f01                	li	t5,0
    8000003c:	4f81                	li	t6,0
    8000003e:	62f9                	lui	t0,0x1e
    80000040:	6002829b          	addiw	t0,t0,1536 # 1e600 <__stack_size+0x16600>
    80000044:	3002a073          	csrs	mstatus,t0
    80000048:	00000297          	auipc	t0,0x0
    8000004c:	09028293          	addi	t0,t0,144 # 800000d8 <_start+0xd8>
    80000050:	30529073          	csrw	mtvec,t0
    80000054:	00301073          	fscsr	zero
    80000058:	f0000053          	fmv.w.x	ft0,zero
    8000005c:	f00000d3          	fmv.w.x	ft1,zero
    80000060:	f0000153          	fmv.w.x	ft2,zero
    80000064:	f00001d3          	fmv.w.x	ft3,zero
    80000068:	f0000253          	fmv.w.x	ft4,zero
    8000006c:	f00002d3          	fmv.w.x	ft5,zero
    80000070:	f0000353          	fmv.w.x	ft6,zero
    80000074:	f00003d3          	fmv.w.x	ft7,zero
    80000078:	f0000453          	fmv.w.x	fs0,zero
    8000007c:	f00004d3          	fmv.w.x	fs1,zero
    80000080:	f0000553          	fmv.w.x	fa0,zero
    80000084:	f00005d3          	fmv.w.x	fa1,zero
    80000088:	f0000653          	fmv.w.x	fa2,zero
    8000008c:	f00006d3          	fmv.w.x	fa3,zero
    80000090:	f0000753          	fmv.w.x	fa4,zero
    80000094:	f00007d3          	fmv.w.x	fa5,zero
    80000098:	f0000853          	fmv.w.x	fa6,zero
    8000009c:	f00008d3          	fmv.w.x	fa7,zero
    800000a0:	f0000953          	fmv.w.x	fs2,zero
    800000a4:	f00009d3          	fmv.w.x	fs3,zero
    800000a8:	f0000a53          	fmv.w.x	fs4,zero
    800000ac:	f0000ad3          	fmv.w.x	fs5,zero
    800000b0:	f0000b53          	fmv.w.x	fs6,zero
    800000b4:	f0000bd3          	fmv.w.x	fs7,zero
    800000b8:	f0000c53          	fmv.w.x	fs8,zero
    800000bc:	f0000cd3          	fmv.w.x	fs9,zero
    800000c0:	f0000d53          	fmv.w.x	fs10,zero
    800000c4:	f0000dd3          	fmv.w.x	fs11,zero
    800000c8:	f0000e53          	fmv.w.x	ft8,zero
    800000cc:	f0000ed3          	fmv.w.x	ft9,zero
    800000d0:	f0000f53          	fmv.w.x	ft10,zero
    800000d4:	f0000fd3          	fmv.w.x	ft11,zero
    800000d8:	00001197          	auipc	gp,0x1
    800000dc:	6e018193          	addi	gp,gp,1760 # 800017b8 <__global_pointer$>
    800000e0:	f1402473          	csrr	s0,mhartid
    800000e4:	00f00293          	li	t0,15
    800000e8:	00022217          	auipc	tp,0x22
    800000ec:	f1820213          	addi	tp,tp,-232 # 80022000 <__heap_end>
    800000f0:	005412b3          	sll	t0,s0,t0
    800000f4:	9216                	add	tp,tp,t0
    800000f6:	62a1                	lui	t0,0x8
    800000f8:	00028293          	mv	t0,t0
    800000fc:	00520133          	add	sp,tp,t0
    80000100:	00000297          	auipc	t0,0x0
    80000104:	04428293          	addi	t0,t0,68 # 80000144 <trap_entry>
    80000108:	30529073          	csrw	mtvec,t0
    8000010c:	1a2000ef          	jal	800002ae <__init_tls>
    80000110:	00000293          	li	t0,0
    80000114:	00540463          	beq	s0,t0,8000011c <_start+0x11c>
    80000118:	0f80006f          	j	80000210 <_start_secondary>
    8000011c:	82818293          	addi	t0,gp,-2008 # 80000fe0 <htif_lock>
    80000120:	b9018313          	addi	t1,gp,-1136 # 80001348 <_end>
    80000124:	0062f763          	bgeu	t0,t1,80000132 <_start+0x132>
    80000128:	0002b023          	sd	zero,0(t0)
    8000012c:	02a1                	addi	t0,t0,8
    8000012e:	fe62ede3          	bltu	t0,t1,80000128 <_start+0x128>
    80000132:	00000517          	auipc	a0,0x0
    80000136:	75e50513          	addi	a0,a0,1886 # 80000890 <__libc_fini_array>
    8000013a:	216000ef          	jal	80000350 <atexit>
    8000013e:	6f4000ef          	jal	80000832 <__libc_init_array>
    80000142:	a075                	j	800001ee <_start_main>

0000000080000144 <trap_entry>:
    80000144:	34011073          	csrw	mscratch,sp
    80000148:	7111                	addi	sp,sp,-256
    8000014a:	e406                	sd	ra,8(sp)
    8000014c:	340020f3          	csrr	ra,mscratch
    80000150:	e806                	sd	ra,16(sp)
    80000152:	ec0e                	sd	gp,24(sp)
    80000154:	f012                	sd	tp,32(sp)
    80000156:	f416                	sd	t0,40(sp)
    80000158:	f81a                	sd	t1,48(sp)
    8000015a:	fc1e                	sd	t2,56(sp)
    8000015c:	e0a2                	sd	s0,64(sp)
    8000015e:	e4a6                	sd	s1,72(sp)
    80000160:	e8aa                	sd	a0,80(sp)
    80000162:	ecae                	sd	a1,88(sp)
    80000164:	f0b2                	sd	a2,96(sp)
    80000166:	f4b6                	sd	a3,104(sp)
    80000168:	f8ba                	sd	a4,112(sp)
    8000016a:	fcbe                	sd	a5,120(sp)
    8000016c:	e142                	sd	a6,128(sp)
    8000016e:	e546                	sd	a7,136(sp)
    80000170:	e94a                	sd	s2,144(sp)
    80000172:	ed4e                	sd	s3,152(sp)
    80000174:	f152                	sd	s4,160(sp)
    80000176:	f556                	sd	s5,168(sp)
    80000178:	f95a                	sd	s6,176(sp)
    8000017a:	fd5e                	sd	s7,184(sp)
    8000017c:	e1e2                	sd	s8,192(sp)
    8000017e:	e5e6                	sd	s9,200(sp)
    80000180:	e9ea                	sd	s10,208(sp)
    80000182:	edee                	sd	s11,216(sp)
    80000184:	f1f2                	sd	t3,224(sp)
    80000186:	f5f6                	sd	t4,232(sp)
    80000188:	f9fa                	sd	t5,240(sp)
    8000018a:	fdfe                	sd	t6,248(sp)
    8000018c:	34102573          	csrr	a0,mepc
    80000190:	342025f3          	csrr	a1,mcause
    80000194:	34302673          	csrr	a2,mtval
    80000198:	868a                	mv	a3,sp
    8000019a:	0fe000ef          	jal	80000298 <handle_trap>
    8000019e:	34151073          	csrw	mepc,a0
    800001a2:	6289                	lui	t0,0x2
    800001a4:	8002829b          	addiw	t0,t0,-2048 # 1800 <__stack_align+0x17f0>
    800001a8:	3002a073          	csrs	mstatus,t0
    800001ac:	60a2                	ld	ra,8(sp)
    800001ae:	61e2                	ld	gp,24(sp)
    800001b0:	7202                	ld	tp,32(sp)
    800001b2:	72a2                	ld	t0,40(sp)
    800001b4:	7342                	ld	t1,48(sp)
    800001b6:	73e2                	ld	t2,56(sp)
    800001b8:	6406                	ld	s0,64(sp)
    800001ba:	64a6                	ld	s1,72(sp)
    800001bc:	6546                	ld	a0,80(sp)
    800001be:	65e6                	ld	a1,88(sp)
    800001c0:	7606                	ld	a2,96(sp)
    800001c2:	76a6                	ld	a3,104(sp)
    800001c4:	7746                	ld	a4,112(sp)
    800001c6:	77e6                	ld	a5,120(sp)
    800001c8:	680a                	ld	a6,128(sp)
    800001ca:	68aa                	ld	a7,136(sp)
    800001cc:	694a                	ld	s2,144(sp)
    800001ce:	69ea                	ld	s3,152(sp)
    800001d0:	7a0a                	ld	s4,160(sp)
    800001d2:	7aaa                	ld	s5,168(sp)
    800001d4:	7b4a                	ld	s6,176(sp)
    800001d6:	7bea                	ld	s7,184(sp)
    800001d8:	6c0e                	ld	s8,192(sp)
    800001da:	6cae                	ld	s9,200(sp)
    800001dc:	6d4e                	ld	s10,208(sp)
    800001de:	6dee                	ld	s11,216(sp)
    800001e0:	7e0e                	ld	t3,224(sp)
    800001e2:	7eae                	ld	t4,232(sp)
    800001e4:	7f4e                	ld	t5,240(sp)
    800001e6:	7fee                	ld	t6,248(sp)
    800001e8:	6142                	ld	sp,16(sp)
    800001ea:	30200073          	mret

00000000800001ee <_start_main>:
    800001ee:	52fd                	li	t0,-1
    800001f0:	0110000f          	fence	w,w
    800001f4:	8651a023          	sw	t0,-1952(gp) # 80001018 <__boot_sync>
    800001f8:	4505                	li	a0,1
    800001fa:	00001597          	auipc	a1,0x1
    800001fe:	cae58593          	addi	a1,a1,-850 # 80000ea8 <argv>
    80000202:	00001617          	auipc	a2,0x1
    80000206:	dbe63603          	ld	a2,-578(a2) # 80000fc0 <environ>
    8000020a:	02a000ef          	jal	80000234 <main>
    8000020e:	a2b1                	j	8000035a <exit>

0000000080000210 <_start_secondary>:
    80000210:	8601a283          	lw	t0,-1952(gp) # 80001018 <__boot_sync>
    80000214:	fe028ee3          	beqz	t0,80000210 <_start_secondary>
    80000218:	0220000f          	fence	r,r
    8000021c:	4505                	li	a0,1
    8000021e:	00001597          	auipc	a1,0x1
    80000222:	c8a58593          	addi	a1,a1,-886 # 80000ea8 <argv>
    80000226:	00001617          	auipc	a2,0x1
    8000022a:	d9a63603          	ld	a2,-614(a2) # 80000fc0 <environ>
    8000022e:	0ae000ef          	jal	800002dc <__main>
    80000232:	a225                	j	8000035a <exit>

0000000080000234 <main>:
    80000234:	0ff0000f          	fence
    80000238:	00001597          	auipc	a1,0x1
    8000023c:	d8058593          	addi	a1,a1,-640 # 80000fb8 <data>
    80000240:	00000613          	li	a2,0
    80000244:	04c5b00b          	.insn	4, 0x04c5b00b
    80000248:	00200593          	li	a1,2
    8000024c:	06c5b00b          	.insn	4, 0x06c5b00b
    80000250:	00000593          	li	a1,0
    80000254:	02c5f50b          	.insn	4, 0x02c5f50b
    80000258:	00001797          	auipc	a5,0x1
    8000025c:	d607b783          	ld	a5,-672(a5) # 80000fb8 <data>
    80000260:	00050713          	mv	a4,a0
    80000264:	00278793          	addi	a5,a5,2
    80000268:	00100513          	li	a0,1
    8000026c:	02e79463          	bne	a5,a4,80000294 <main+0x60>
    80000270:	00300593          	li	a1,3
    80000274:	00c5b00b          	.insn	4, 0x00c5b00b
    80000278:	00100593          	li	a1,1
    8000027c:	06c5b00b          	.insn	4, 0x06c5b00b
    80000280:	00000593          	li	a1,0
    80000284:	02c5f50b          	.insn	4, 0x02c5f50b
    80000288:	ffc50513          	addi	a0,a0,-4
    8000028c:	00a03533          	snez	a0,a0
    80000290:	00151513          	slli	a0,a0,0x1
    80000294:	00008067          	ret

0000000080000298 <handle_trap>:
    80000298:	1141                	addi	sp,sp,-16
    8000029a:	02159513          	slli	a0,a1,0x21
    8000029e:	e406                	sd	ra,8(sp)
    800002a0:	9105                	srli	a0,a0,0x21
    800002a2:	0005d463          	bgez	a1,800002aa <handle_trap+0x12>
    800002a6:	40a0053b          	negw	a0,a0
    800002aa:	038000ef          	jal	800002e2 <_exit>

00000000800002ae <__init_tls>:
    800002ae:	1141                	addi	sp,sp,-16
    800002b0:	00000613          	li	a2,0
    800002b4:	00001597          	auipc	a1,0x1
    800002b8:	bee58593          	addi	a1,a1,-1042 # 80000ea2 <__tbss_end>
    800002bc:	8512                	mv	a0,tp
    800002be:	e022                	sd	s0,0(sp)
    800002c0:	e406                	sd	ra,8(sp)
    800002c2:	8412                	mv	s0,tp
    800002c4:	612000ef          	jal	800008d6 <memcpy>
    800002c8:	00000513          	li	a0,0
    800002cc:	9522                	add	a0,a0,s0
    800002ce:	6402                	ld	s0,0(sp)
    800002d0:	60a2                	ld	ra,8(sp)
    800002d2:	00000613          	li	a2,0
    800002d6:	4581                	li	a1,0
    800002d8:	0141                	addi	sp,sp,16
    800002da:	a3f5                	j	800008c6 <memset>

00000000800002dc <__main>:
    800002dc:	10500073          	wfi
    800002e0:	bff5                	j	800002dc <__main>

00000000800002e2 <_exit>:
    800002e2:	0015179b          	slliw	a5,a0,0x1
    800002e6:	0017e793          	ori	a5,a5,1
    800002ea:	2781                	sext.w	a5,a5
    800002ec:	07c2                	slli	a5,a5,0x10
    800002ee:	83c1                	srli	a5,a5,0x10
    800002f0:	00001717          	auipc	a4,0x1
    800002f4:	c1070713          	addi	a4,a4,-1008 # 80000f00 <tohost>
    800002f8:	00001697          	auipc	a3,0x1
    800002fc:	c006b823          	sd	zero,-1008(a3) # 80000f08 <fromhost>
    80000300:	e31c                	sd	a5,0(a4)
    80000302:	bfdd                	j	800002f8 <_exit+0x16>

0000000080000304 <htif_syscall>:
    80000304:	7139                	addi	sp,sp,-64
    80000306:	e036                	sd	a3,0(sp)
    80000308:	e42a                	sd	a0,8(sp)
    8000030a:	fff007b7          	lui	a5,0xfff00
    8000030e:	e82e                	sd	a1,16(sp)
    80000310:	83c1                	srli	a5,a5,0x10
    80000312:	ec32                	sd	a2,24(sp)
    80000314:	860a                	mv	a2,sp
    80000316:	8e7d                	and	a2,a2,a5
    80000318:	82818713          	addi	a4,gp,-2008 # 80000fe0 <htif_lock>
    8000031c:	56fd                	li	a3,-1
    8000031e:	431c                	lw	a5,0(a4)
    80000320:	fffd                	bnez	a5,8000031e <htif_syscall+0x1a>
    80000322:	0cd727af          	amoswap.w.aq	a5,a3,(a4)
    80000326:	ffe5                	bnez	a5,8000031e <htif_syscall+0x1a>
    80000328:	0110000f          	fence	w,w
    8000032c:	00001697          	auipc	a3,0x1
    80000330:	bd468693          	addi	a3,a3,-1068 # 80000f00 <tohost>
    80000334:	e290                	sd	a2,0(a3)
    80000336:	669c                	ld	a5,8(a3)
    80000338:	dffd                	beqz	a5,80000336 <htif_syscall+0x32>
    8000033a:	00001797          	auipc	a5,0x1
    8000033e:	bc07b723          	sd	zero,-1074(a5) # 80000f08 <fromhost>
    80000342:	0a07202f          	amoswap.w.rl	zero,zero,(a4)
    80000346:	0220000f          	fence	r,r
    8000034a:	6502                	ld	a0,0(sp)
    8000034c:	6121                	addi	sp,sp,64
    8000034e:	8082                	ret

0000000080000350 <atexit>:
    80000350:	85aa                	mv	a1,a0
    80000352:	4681                	li	a3,0
    80000354:	4601                	li	a2,0
    80000356:	4501                	li	a0,0
    80000358:	ab51                	j	800008ec <__register_exitproc>

000000008000035a <exit>:
    8000035a:	1141                	addi	sp,sp,-16
    8000035c:	e022                	sd	s0,0(sp)
    8000035e:	e406                	sd	ra,8(sp)
    80000360:	00000797          	auipc	a5,0x0
    80000364:	60278793          	addi	a5,a5,1538 # 80000962 <__call_exitprocs>
    80000368:	842a                	mv	s0,a0
    8000036a:	c781                	beqz	a5,80000372 <exit+0x18>
    8000036c:	4581                	li	a1,0
    8000036e:	5f4000ef          	jal	80000962 <__call_exitprocs>
    80000372:	8381b783          	ld	a5,-1992(gp) # 80000ff0 <__stdio_exit_handler>
    80000376:	c391                	beqz	a5,8000037a <exit+0x20>
    80000378:	9782                	jalr	a5
    8000037a:	8522                	mv	a0,s0
    8000037c:	f67ff0ef          	jal	800002e2 <_exit>

0000000080000380 <__fp_lock>:
    80000380:	4501                	li	a0,0
    80000382:	8082                	ret

0000000080000384 <std>:
    80000384:	1141                	addi	sp,sp,-16
    80000386:	e022                	sd	s0,0(sp)
    80000388:	e406                	sd	ra,8(sp)
    8000038a:	842a                	mv	s0,a0
    8000038c:	00b51823          	sh	a1,16(a0)
    80000390:	00c51923          	sh	a2,18(a0)
    80000394:	00053023          	sd	zero,0(a0)
    80000398:	00053423          	sd	zero,8(a0)
    8000039c:	0a052623          	sw	zero,172(a0)
    800003a0:	00053c23          	sd	zero,24(a0)
    800003a4:	02052023          	sw	zero,32(a0)
    800003a8:	02052423          	sw	zero,40(a0)
    800003ac:	4621                	li	a2,8
    800003ae:	4581                	li	a1,0
    800003b0:	0a450513          	addi	a0,a0,164
    800003b4:	512000ef          	jal	800008c6 <memset>
    800003b8:	00000797          	auipc	a5,0x0
    800003bc:	23e78793          	addi	a5,a5,574 # 800005f6 <__sread>
    800003c0:	e03c                	sd	a5,64(s0)
    800003c2:	00000797          	auipc	a5,0x0
    800003c6:	26a78793          	addi	a5,a5,618 # 8000062c <__swrite>
    800003ca:	e43c                	sd	a5,72(s0)
    800003cc:	00000797          	auipc	a5,0x0
    800003d0:	2b078793          	addi	a5,a5,688 # 8000067c <__sseek>
    800003d4:	e83c                	sd	a5,80(s0)
    800003d6:	00000797          	auipc	a5,0x0
    800003da:	2de78793          	addi	a5,a5,734 # 800006b4 <__sclose>
    800003de:	60a2                	ld	ra,8(sp)
    800003e0:	fc00                	sd	s0,56(s0)
    800003e2:	ec3c                	sd	a5,88(s0)
    800003e4:	6402                	ld	s0,0(sp)
    800003e6:	0141                	addi	sp,sp,16
    800003e8:	8082                	ret

00000000800003ea <stdio_exit_handler>:
    800003ea:	00001617          	auipc	a2,0x1
    800003ee:	b2660613          	addi	a2,a2,-1242 # 80000f10 <__sglue>
    800003f2:	00001597          	auipc	a1,0x1
    800003f6:	9a658593          	addi	a1,a1,-1626 # 80000d98 <_fflush_r>
    800003fa:	00001517          	auipc	a0,0x1
    800003fe:	b2e50513          	addi	a0,a0,-1234 # 80000f28 <_impure_data>
    80000402:	a269                	j	8000058c <_fwalk_sglue>

0000000080000404 <cleanup_stdio>:
    80000404:	650c                	ld	a1,8(a0)
    80000406:	1141                	addi	sp,sp,-16
    80000408:	e022                	sd	s0,0(sp)
    8000040a:	e406                	sd	ra,8(sp)
    8000040c:	00001797          	auipc	a5,0x1
    80000410:	c1478793          	addi	a5,a5,-1004 # 80001020 <__sf>
    80000414:	842a                	mv	s0,a0
    80000416:	00f58463          	beq	a1,a5,8000041e <cleanup_stdio+0x1a>
    8000041a:	17f000ef          	jal	80000d98 <_fflush_r>
    8000041e:	680c                	ld	a1,16(s0)
    80000420:	00001797          	auipc	a5,0x1
    80000424:	cb078793          	addi	a5,a5,-848 # 800010d0 <__sf+0xb0>
    80000428:	00f58563          	beq	a1,a5,80000432 <cleanup_stdio+0x2e>
    8000042c:	8522                	mv	a0,s0
    8000042e:	16b000ef          	jal	80000d98 <_fflush_r>
    80000432:	6c0c                	ld	a1,24(s0)
    80000434:	9c818793          	addi	a5,gp,-1592 # 80001180 <__sf+0x160>
    80000438:	00f58863          	beq	a1,a5,80000448 <cleanup_stdio+0x44>
    8000043c:	8522                	mv	a0,s0
    8000043e:	6402                	ld	s0,0(sp)
    80000440:	60a2                	ld	ra,8(sp)
    80000442:	0141                	addi	sp,sp,16
    80000444:	1550006f          	j	80000d98 <_fflush_r>
    80000448:	60a2                	ld	ra,8(sp)
    8000044a:	6402                	ld	s0,0(sp)
    8000044c:	0141                	addi	sp,sp,16
    8000044e:	8082                	ret

0000000080000450 <global_stdio_init.part.0>:
    80000450:	1141                	addi	sp,sp,-16
    80000452:	00000797          	auipc	a5,0x0
    80000456:	f9878793          	addi	a5,a5,-104 # 800003ea <stdio_exit_handler>
    8000045a:	4601                	li	a2,0
    8000045c:	4591                	li	a1,4
    8000045e:	00001517          	auipc	a0,0x1
    80000462:	bc250513          	addi	a0,a0,-1086 # 80001020 <__sf>
    80000466:	e406                	sd	ra,8(sp)
    80000468:	82f1bc23          	sd	a5,-1992(gp) # 80000ff0 <__stdio_exit_handler>
    8000046c:	f19ff0ef          	jal	80000384 <std>
    80000470:	4605                	li	a2,1
    80000472:	45a5                	li	a1,9
    80000474:	00001517          	auipc	a0,0x1
    80000478:	c5c50513          	addi	a0,a0,-932 # 800010d0 <__sf+0xb0>
    8000047c:	f09ff0ef          	jal	80000384 <std>
    80000480:	60a2                	ld	ra,8(sp)
    80000482:	4609                	li	a2,2
    80000484:	45c9                	li	a1,18
    80000486:	9c818513          	addi	a0,gp,-1592 # 80001180 <__sf+0x160>
    8000048a:	0141                	addi	sp,sp,16
    8000048c:	bde5                	j	80000384 <std>

000000008000048e <__fp_unlock>:
    8000048e:	4501                	li	a0,0
    80000490:	8082                	ret

0000000080000492 <__sfp>:
    80000492:	1101                	addi	sp,sp,-32
    80000494:	e04a                	sd	s2,0(sp)
    80000496:	ec06                	sd	ra,24(sp)
    80000498:	e822                	sd	s0,16(sp)
    8000049a:	e426                	sd	s1,8(sp)
    8000049c:	8381b783          	ld	a5,-1992(gp) # 80000ff0 <__stdio_exit_handler>
    800004a0:	892a                	mv	s2,a0
    800004a2:	e399                	bnez	a5,800004a8 <__sfp+0x16>
    800004a4:	fadff0ef          	jal	80000450 <global_stdio_init.part.0>
    800004a8:	00001497          	auipc	s1,0x1
    800004ac:	a6848493          	addi	s1,s1,-1432 # 80000f10 <__sglue>
    800004b0:	6880                	ld	s0,16(s1)
    800004b2:	449c                	lw	a5,8(s1)
    800004b4:	37fd                	addiw	a5,a5,-1
    800004b6:	0207d163          	bgez	a5,800004d8 <__sfp+0x46>
    800004ba:	609c                	ld	a5,0(s1)
    800004bc:	e7c1                	bnez	a5,80000544 <__sfp+0xb2>
    800004be:	2d800593          	li	a1,728
    800004c2:	854a                	mv	a0,s2
    800004c4:	660000ef          	jal	80000b24 <_malloc_r>
    800004c8:	842a                	mv	s0,a0
    800004ca:	e12d                	bnez	a0,8000052c <__sfp+0x9a>
    800004cc:	0004b023          	sd	zero,0(s1)
    800004d0:	47b1                	li	a5,12
    800004d2:	00f92023          	sw	a5,0(s2)
    800004d6:	a089                	j	80000518 <__sfp+0x86>
    800004d8:	01041703          	lh	a4,16(s0)
    800004dc:	e729                	bnez	a4,80000526 <__sfp+0x94>
    800004de:	77c1                	lui	a5,0xffff0
    800004e0:	0785                	addi	a5,a5,1 # ffffffffffff0001 <__heap_end+0xffffffff7ffce001>
    800004e2:	0a042623          	sw	zero,172(s0)
    800004e6:	00043023          	sd	zero,0(s0)
    800004ea:	00043423          	sd	zero,8(s0)
    800004ee:	c81c                	sw	a5,16(s0)
    800004f0:	00043c23          	sd	zero,24(s0)
    800004f4:	02042023          	sw	zero,32(s0)
    800004f8:	02042423          	sw	zero,40(s0)
    800004fc:	4621                	li	a2,8
    800004fe:	4581                	li	a1,0
    80000500:	0a440513          	addi	a0,s0,164
    80000504:	3c2000ef          	jal	800008c6 <memset>
    80000508:	06043023          	sd	zero,96(s0)
    8000050c:	06042423          	sw	zero,104(s0)
    80000510:	08043023          	sd	zero,128(s0)
    80000514:	08042423          	sw	zero,136(s0)
    80000518:	60e2                	ld	ra,24(sp)
    8000051a:	8522                	mv	a0,s0
    8000051c:	6442                	ld	s0,16(sp)
    8000051e:	64a2                	ld	s1,8(sp)
    80000520:	6902                	ld	s2,0(sp)
    80000522:	6105                	addi	sp,sp,32
    80000524:	8082                	ret
    80000526:	0b040413          	addi	s0,s0,176
    8000052a:	b769                	j	800004b4 <__sfp+0x22>
    8000052c:	4791                	li	a5,4
    8000052e:	00053023          	sd	zero,0(a0)
    80000532:	c51c                	sw	a5,8(a0)
    80000534:	0561                	addi	a0,a0,24
    80000536:	e808                	sd	a0,16(s0)
    80000538:	2c000613          	li	a2,704
    8000053c:	4581                	li	a1,0
    8000053e:	388000ef          	jal	800008c6 <memset>
    80000542:	e080                	sd	s0,0(s1)
    80000544:	6084                	ld	s1,0(s1)
    80000546:	b7ad                	j	800004b0 <__sfp+0x1e>

0000000080000548 <__sinit>:
    80000548:	613c                	ld	a5,64(a0)
    8000054a:	eb91                	bnez	a5,8000055e <__sinit+0x16>
    8000054c:	00000797          	auipc	a5,0x0
    80000550:	eb878793          	addi	a5,a5,-328 # 80000404 <cleanup_stdio>
    80000554:	e13c                	sd	a5,64(a0)
    80000556:	8381b783          	ld	a5,-1992(gp) # 80000ff0 <__stdio_exit_handler>
    8000055a:	e391                	bnez	a5,8000055e <__sinit+0x16>
    8000055c:	bdd5                	j	80000450 <global_stdio_init.part.0>
    8000055e:	8082                	ret

0000000080000560 <__sfp_lock_acquire>:
    80000560:	8082                	ret

0000000080000562 <__sfp_lock_release>:
    80000562:	8082                	ret

0000000080000564 <__fp_lock_all>:
    80000564:	00001617          	auipc	a2,0x1
    80000568:	9ac60613          	addi	a2,a2,-1620 # 80000f10 <__sglue>
    8000056c:	00000597          	auipc	a1,0x0
    80000570:	e1458593          	addi	a1,a1,-492 # 80000380 <__fp_lock>
    80000574:	4501                	li	a0,0
    80000576:	a819                	j	8000058c <_fwalk_sglue>

0000000080000578 <__fp_unlock_all>:
    80000578:	00001617          	auipc	a2,0x1
    8000057c:	99860613          	addi	a2,a2,-1640 # 80000f10 <__sglue>
    80000580:	00000597          	auipc	a1,0x0
    80000584:	f0e58593          	addi	a1,a1,-242 # 8000048e <__fp_unlock>
    80000588:	4501                	li	a0,0
    8000058a:	a009                	j	8000058c <_fwalk_sglue>

000000008000058c <_fwalk_sglue>:
    8000058c:	715d                	addi	sp,sp,-80
    8000058e:	e0a2                	sd	s0,64(sp)
    80000590:	fc26                	sd	s1,56(sp)
    80000592:	f44e                	sd	s3,40(sp)
    80000594:	f052                	sd	s4,32(sp)
    80000596:	e85a                	sd	s6,16(sp)
    80000598:	e45e                	sd	s7,8(sp)
    8000059a:	e486                	sd	ra,72(sp)
    8000059c:	f84a                	sd	s2,48(sp)
    8000059e:	ec56                	sd	s5,24(sp)
    800005a0:	89aa                	mv	s3,a0
    800005a2:	8a2e                	mv	s4,a1
    800005a4:	8432                	mv	s0,a2
    800005a6:	4481                	li	s1,0
    800005a8:	4b05                	li	s6,1
    800005aa:	5bfd                	li	s7,-1
    800005ac:	01043903          	ld	s2,16(s0)
    800005b0:	00842a83          	lw	s5,8(s0)
    800005b4:	3afd                	addiw	s5,s5,-1
    800005b6:	020ad063          	bgez	s5,800005d6 <_fwalk_sglue+0x4a>
    800005ba:	6000                	ld	s0,0(s0)
    800005bc:	f865                	bnez	s0,800005ac <_fwalk_sglue+0x20>
    800005be:	60a6                	ld	ra,72(sp)
    800005c0:	6406                	ld	s0,64(sp)
    800005c2:	7942                	ld	s2,48(sp)
    800005c4:	79a2                	ld	s3,40(sp)
    800005c6:	7a02                	ld	s4,32(sp)
    800005c8:	6ae2                	ld	s5,24(sp)
    800005ca:	6b42                	ld	s6,16(sp)
    800005cc:	6ba2                	ld	s7,8(sp)
    800005ce:	8526                	mv	a0,s1
    800005d0:	74e2                	ld	s1,56(sp)
    800005d2:	6161                	addi	sp,sp,80
    800005d4:	8082                	ret
    800005d6:	01095783          	lhu	a5,16(s2)
    800005da:	00fb7b63          	bgeu	s6,a5,800005f0 <_fwalk_sglue+0x64>
    800005de:	01291783          	lh	a5,18(s2)
    800005e2:	01778763          	beq	a5,s7,800005f0 <_fwalk_sglue+0x64>
    800005e6:	85ca                	mv	a1,s2
    800005e8:	854e                	mv	a0,s3
    800005ea:	9a02                	jalr	s4
    800005ec:	8cc9                	or	s1,s1,a0
    800005ee:	2481                	sext.w	s1,s1
    800005f0:	0b090913          	addi	s2,s2,176
    800005f4:	b7c1                	j	800005b4 <_fwalk_sglue+0x28>

00000000800005f6 <__sread>:
    800005f6:	1141                	addi	sp,sp,-16
    800005f8:	e022                	sd	s0,0(sp)
    800005fa:	842e                	mv	s0,a1
    800005fc:	01259583          	lh	a1,18(a1)
    80000600:	e406                	sd	ra,8(sp)
    80000602:	1d8000ef          	jal	800007da <_read_r>
    80000606:	00054963          	bltz	a0,80000618 <__sread+0x22>
    8000060a:	6c5c                	ld	a5,152(s0)
    8000060c:	97aa                	add	a5,a5,a0
    8000060e:	ec5c                	sd	a5,152(s0)
    80000610:	60a2                	ld	ra,8(sp)
    80000612:	6402                	ld	s0,0(sp)
    80000614:	0141                	addi	sp,sp,16
    80000616:	8082                	ret
    80000618:	01045783          	lhu	a5,16(s0)
    8000061c:	777d                	lui	a4,0xfffff
    8000061e:	177d                	addi	a4,a4,-1 # ffffffffffffefff <__heap_end+0xffffffff7ffdcfff>
    80000620:	8ff9                	and	a5,a5,a4
    80000622:	00f41823          	sh	a5,16(s0)
    80000626:	b7ed                	j	80000610 <__sread+0x1a>

0000000080000628 <__seofread>:
    80000628:	4501                	li	a0,0
    8000062a:	8082                	ret

000000008000062c <__swrite>:
    8000062c:	0105d783          	lhu	a5,16(a1)
    80000630:	7179                	addi	sp,sp,-48
    80000632:	f022                	sd	s0,32(sp)
    80000634:	ec26                	sd	s1,24(sp)
    80000636:	e84a                	sd	s2,16(sp)
    80000638:	e44e                	sd	s3,8(sp)
    8000063a:	f406                	sd	ra,40(sp)
    8000063c:	1007f793          	andi	a5,a5,256
    80000640:	84aa                	mv	s1,a0
    80000642:	842e                	mv	s0,a1
    80000644:	8932                	mv	s2,a2
    80000646:	89b6                	mv	s3,a3
    80000648:	c799                	beqz	a5,80000656 <__swrite+0x2a>
    8000064a:	01259583          	lh	a1,18(a1)
    8000064e:	4689                	li	a3,2
    80000650:	4601                	li	a2,0
    80000652:	15c000ef          	jal	800007ae <_lseek_r>
    80000656:	01045783          	lhu	a5,16(s0)
    8000065a:	777d                	lui	a4,0xfffff
    8000065c:	177d                	addi	a4,a4,-1 # ffffffffffffefff <__heap_end+0xffffffff7ffdcfff>
    8000065e:	8ff9                	and	a5,a5,a4
    80000660:	01241583          	lh	a1,18(s0)
    80000664:	00f41823          	sh	a5,16(s0)
    80000668:	7402                	ld	s0,32(sp)
    8000066a:	70a2                	ld	ra,40(sp)
    8000066c:	86ce                	mv	a3,s3
    8000066e:	864a                	mv	a2,s2
    80000670:	69a2                	ld	s3,8(sp)
    80000672:	6942                	ld	s2,16(sp)
    80000674:	8526                	mv	a0,s1
    80000676:	64e2                	ld	s1,24(sp)
    80000678:	6145                	addi	sp,sp,48
    8000067a:	a271                	j	80000806 <_write_r>

000000008000067c <__sseek>:
    8000067c:	1141                	addi	sp,sp,-16
    8000067e:	e022                	sd	s0,0(sp)
    80000680:	842e                	mv	s0,a1
    80000682:	01259583          	lh	a1,18(a1)
    80000686:	e406                	sd	ra,8(sp)
    80000688:	126000ef          	jal	800007ae <_lseek_r>
    8000068c:	577d                	li	a4,-1
    8000068e:	01045783          	lhu	a5,16(s0)
    80000692:	00e51b63          	bne	a0,a4,800006a8 <__sseek+0x2c>
    80000696:	777d                	lui	a4,0xfffff
    80000698:	177d                	addi	a4,a4,-1 # ffffffffffffefff <__heap_end+0xffffffff7ffdcfff>
    8000069a:	8ff9                	and	a5,a5,a4
    8000069c:	00f41823          	sh	a5,16(s0)
    800006a0:	60a2                	ld	ra,8(sp)
    800006a2:	6402                	ld	s0,0(sp)
    800006a4:	0141                	addi	sp,sp,16
    800006a6:	8082                	ret
    800006a8:	6705                	lui	a4,0x1
    800006aa:	8fd9                	or	a5,a5,a4
    800006ac:	00f41823          	sh	a5,16(s0)
    800006b0:	ec48                	sd	a0,152(s0)
    800006b2:	b7fd                	j	800006a0 <__sseek+0x24>

00000000800006b4 <__sclose>:
    800006b4:	01259583          	lh	a1,18(a1)
    800006b8:	a009                	j	800006ba <_close_r>

00000000800006ba <_close_r>:
    800006ba:	1141                	addi	sp,sp,-16
    800006bc:	e022                	sd	s0,0(sp)
    800006be:	842a                	mv	s0,a0
    800006c0:	852e                	mv	a0,a1
    800006c2:	8401a023          	sw	zero,-1984(gp) # 80000ff8 <errno>
    800006c6:	e406                	sd	ra,8(sp)
    800006c8:	756000ef          	jal	80000e1e <_close>
    800006cc:	57fd                	li	a5,-1
    800006ce:	00f51663          	bne	a0,a5,800006da <_close_r+0x20>
    800006d2:	8401a783          	lw	a5,-1984(gp) # 80000ff8 <errno>
    800006d6:	c391                	beqz	a5,800006da <_close_r+0x20>
    800006d8:	c01c                	sw	a5,0(s0)
    800006da:	60a2                	ld	ra,8(sp)
    800006dc:	6402                	ld	s0,0(sp)
    800006de:	0141                	addi	sp,sp,16
    800006e0:	8082                	ret

00000000800006e2 <_reclaim_reent>:
    800006e2:	8101b783          	ld	a5,-2032(gp) # 80000fc8 <_impure_ptr>
    800006e6:	0ca78363          	beq	a5,a0,800007ac <_reclaim_reent+0xca>
    800006ea:	7d1c                	ld	a5,56(a0)
    800006ec:	7179                	addi	sp,sp,-48
    800006ee:	f022                	sd	s0,32(sp)
    800006f0:	f406                	sd	ra,40(sp)
    800006f2:	ec26                	sd	s1,24(sp)
    800006f4:	e84a                	sd	s2,16(sp)
    800006f6:	e44e                	sd	s3,8(sp)
    800006f8:	842a                	mv	s0,a0
    800006fa:	cb8d                	beqz	a5,8000072c <_reclaim_reent+0x4a>
    800006fc:	6f9c                	ld	a5,24(a5)
    800006fe:	c38d                	beqz	a5,80000720 <_reclaim_reent+0x3e>
    80000700:	4481                	li	s1,0
    80000702:	20000913          	li	s2,512
    80000706:	7c1c                	ld	a5,56(s0)
    80000708:	6f9c                	ld	a5,24(a5)
    8000070a:	97a6                	add	a5,a5,s1
    8000070c:	638c                	ld	a1,0(a5)
    8000070e:	e1c9                	bnez	a1,80000790 <_reclaim_reent+0xae>
    80000710:	04a1                	addi	s1,s1,8
    80000712:	ff249ae3          	bne	s1,s2,80000706 <_reclaim_reent+0x24>
    80000716:	7c1c                	ld	a5,56(s0)
    80000718:	8522                	mv	a0,s0
    8000071a:	6f8c                	ld	a1,24(a5)
    8000071c:	30e000ef          	jal	80000a2a <_free_r>
    80000720:	7c1c                	ld	a5,56(s0)
    80000722:	638c                	ld	a1,0(a5)
    80000724:	c581                	beqz	a1,8000072c <_reclaim_reent+0x4a>
    80000726:	8522                	mv	a0,s0
    80000728:	302000ef          	jal	80000a2a <_free_r>
    8000072c:	740c                	ld	a1,40(s0)
    8000072e:	c581                	beqz	a1,80000736 <_reclaim_reent+0x54>
    80000730:	8522                	mv	a0,s0
    80000732:	2f8000ef          	jal	80000a2a <_free_r>
    80000736:	7c0c                	ld	a1,56(s0)
    80000738:	c581                	beqz	a1,80000740 <_reclaim_reent+0x5e>
    8000073a:	8522                	mv	a0,s0
    8000073c:	2ee000ef          	jal	80000a2a <_free_r>
    80000740:	6c2c                	ld	a1,88(s0)
    80000742:	c581                	beqz	a1,8000074a <_reclaim_reent+0x68>
    80000744:	8522                	mv	a0,s0
    80000746:	2e4000ef          	jal	80000a2a <_free_r>
    8000074a:	702c                	ld	a1,96(s0)
    8000074c:	c581                	beqz	a1,80000754 <_reclaim_reent+0x72>
    8000074e:	8522                	mv	a0,s0
    80000750:	2da000ef          	jal	80000a2a <_free_r>
    80000754:	742c                	ld	a1,104(s0)
    80000756:	c581                	beqz	a1,8000075e <_reclaim_reent+0x7c>
    80000758:	8522                	mv	a0,s0
    8000075a:	2d0000ef          	jal	80000a2a <_free_r>
    8000075e:	644c                	ld	a1,136(s0)
    80000760:	c581                	beqz	a1,80000768 <_reclaim_reent+0x86>
    80000762:	8522                	mv	a0,s0
    80000764:	2c6000ef          	jal	80000a2a <_free_r>
    80000768:	604c                	ld	a1,128(s0)
    8000076a:	c581                	beqz	a1,80000772 <_reclaim_reent+0x90>
    8000076c:	8522                	mv	a0,s0
    8000076e:	2bc000ef          	jal	80000a2a <_free_r>
    80000772:	682c                	ld	a1,80(s0)
    80000774:	c581                	beqz	a1,8000077c <_reclaim_reent+0x9a>
    80000776:	8522                	mv	a0,s0
    80000778:	2b2000ef          	jal	80000a2a <_free_r>
    8000077c:	603c                	ld	a5,64(s0)
    8000077e:	c385                	beqz	a5,8000079e <_reclaim_reent+0xbc>
    80000780:	8522                	mv	a0,s0
    80000782:	7402                	ld	s0,32(sp)
    80000784:	70a2                	ld	ra,40(sp)
    80000786:	64e2                	ld	s1,24(sp)
    80000788:	6942                	ld	s2,16(sp)
    8000078a:	69a2                	ld	s3,8(sp)
    8000078c:	6145                	addi	sp,sp,48
    8000078e:	8782                	jr	a5
    80000790:	0005b983          	ld	s3,0(a1)
    80000794:	8522                	mv	a0,s0
    80000796:	294000ef          	jal	80000a2a <_free_r>
    8000079a:	85ce                	mv	a1,s3
    8000079c:	bf8d                	j	8000070e <_reclaim_reent+0x2c>
    8000079e:	70a2                	ld	ra,40(sp)
    800007a0:	7402                	ld	s0,32(sp)
    800007a2:	64e2                	ld	s1,24(sp)
    800007a4:	6942                	ld	s2,16(sp)
    800007a6:	69a2                	ld	s3,8(sp)
    800007a8:	6145                	addi	sp,sp,48
    800007aa:	8082                	ret
    800007ac:	8082                	ret

00000000800007ae <_lseek_r>:
    800007ae:	1141                	addi	sp,sp,-16
    800007b0:	e022                	sd	s0,0(sp)
    800007b2:	842a                	mv	s0,a0
    800007b4:	852e                	mv	a0,a1
    800007b6:	85b2                	mv	a1,a2
    800007b8:	8636                	mv	a2,a3
    800007ba:	8401a023          	sw	zero,-1984(gp) # 80000ff8 <errno>
    800007be:	e406                	sd	ra,8(sp)
    800007c0:	672000ef          	jal	80000e32 <_lseek>
    800007c4:	57fd                	li	a5,-1
    800007c6:	00f51663          	bne	a0,a5,800007d2 <_lseek_r+0x24>
    800007ca:	8401a783          	lw	a5,-1984(gp) # 80000ff8 <errno>
    800007ce:	c391                	beqz	a5,800007d2 <_lseek_r+0x24>
    800007d0:	c01c                	sw	a5,0(s0)
    800007d2:	60a2                	ld	ra,8(sp)
    800007d4:	6402                	ld	s0,0(sp)
    800007d6:	0141                	addi	sp,sp,16
    800007d8:	8082                	ret

00000000800007da <_read_r>:
    800007da:	1141                	addi	sp,sp,-16
    800007dc:	e022                	sd	s0,0(sp)
    800007de:	842a                	mv	s0,a0
    800007e0:	852e                	mv	a0,a1
    800007e2:	85b2                	mv	a1,a2
    800007e4:	8636                	mv	a2,a3
    800007e6:	8401a023          	sw	zero,-1984(gp) # 80000ff8 <errno>
    800007ea:	e406                	sd	ra,8(sp)
    800007ec:	65a000ef          	jal	80000e46 <_read>
    800007f0:	57fd                	li	a5,-1
    800007f2:	00f51663          	bne	a0,a5,800007fe <_read_r+0x24>
    800007f6:	8401a783          	lw	a5,-1984(gp) # 80000ff8 <errno>
    800007fa:	c391                	beqz	a5,800007fe <_read_r+0x24>
    800007fc:	c01c                	sw	a5,0(s0)
    800007fe:	60a2                	ld	ra,8(sp)
    80000800:	6402                	ld	s0,0(sp)
    80000802:	0141                	addi	sp,sp,16
    80000804:	8082                	ret

0000000080000806 <_write_r>:
    80000806:	1141                	addi	sp,sp,-16
    80000808:	e022                	sd	s0,0(sp)
    8000080a:	842a                	mv	s0,a0
    8000080c:	852e                	mv	a0,a1
    8000080e:	85b2                	mv	a1,a2
    80000810:	8636                	mv	a2,a3
    80000812:	8401a023          	sw	zero,-1984(gp) # 80000ff8 <errno>
    80000816:	e406                	sd	ra,8(sp)
    80000818:	67c000ef          	jal	80000e94 <_write>
    8000081c:	57fd                	li	a5,-1
    8000081e:	00f51663          	bne	a0,a5,8000082a <_write_r+0x24>
    80000822:	8401a783          	lw	a5,-1984(gp) # 80000ff8 <errno>
    80000826:	c391                	beqz	a5,8000082a <_write_r+0x24>
    80000828:	c01c                	sw	a5,0(s0)
    8000082a:	60a2                	ld	ra,8(sp)
    8000082c:	6402                	ld	s0,0(sp)
    8000082e:	0141                	addi	sp,sp,16
    80000830:	8082                	ret

0000000080000832 <__libc_init_array>:
    80000832:	1101                	addi	sp,sp,-32
    80000834:	e822                	sd	s0,16(sp)
    80000836:	e426                	sd	s1,8(sp)
    80000838:	00000417          	auipc	s0,0x0
    8000083c:	6b840413          	addi	s0,s0,1720 # 80000ef0 <__fini_array_end>
    80000840:	00000497          	auipc	s1,0x0
    80000844:	6b048493          	addi	s1,s1,1712 # 80000ef0 <__fini_array_end>
    80000848:	8c81                	sub	s1,s1,s0
    8000084a:	e04a                	sd	s2,0(sp)
    8000084c:	ec06                	sd	ra,24(sp)
    8000084e:	848d                	srai	s1,s1,0x3
    80000850:	4901                	li	s2,0
    80000852:	02991563          	bne	s2,s1,8000087c <__libc_init_array+0x4a>
    80000856:	00000417          	auipc	s0,0x0
    8000085a:	69a40413          	addi	s0,s0,1690 # 80000ef0 <__fini_array_end>
    8000085e:	00000497          	auipc	s1,0x0
    80000862:	69248493          	addi	s1,s1,1682 # 80000ef0 <__fini_array_end>
    80000866:	8c81                	sub	s1,s1,s0
    80000868:	848d                	srai	s1,s1,0x3
    8000086a:	4901                	li	s2,0
    8000086c:	00991d63          	bne	s2,s1,80000886 <__libc_init_array+0x54>
    80000870:	60e2                	ld	ra,24(sp)
    80000872:	6442                	ld	s0,16(sp)
    80000874:	64a2                	ld	s1,8(sp)
    80000876:	6902                	ld	s2,0(sp)
    80000878:	6105                	addi	sp,sp,32
    8000087a:	8082                	ret
    8000087c:	601c                	ld	a5,0(s0)
    8000087e:	0905                	addi	s2,s2,1
    80000880:	0421                	addi	s0,s0,8
    80000882:	9782                	jalr	a5
    80000884:	b7f9                	j	80000852 <__libc_init_array+0x20>
    80000886:	601c                	ld	a5,0(s0)
    80000888:	0905                	addi	s2,s2,1
    8000088a:	0421                	addi	s0,s0,8
    8000088c:	9782                	jalr	a5
    8000088e:	bff9                	j	8000086c <__libc_init_array+0x3a>

0000000080000890 <__libc_fini_array>:
    80000890:	1101                	addi	sp,sp,-32
    80000892:	e822                	sd	s0,16(sp)
    80000894:	e426                	sd	s1,8(sp)
    80000896:	00000417          	auipc	s0,0x0
    8000089a:	65a40413          	addi	s0,s0,1626 # 80000ef0 <__fini_array_end>
    8000089e:	00000497          	auipc	s1,0x0
    800008a2:	65248493          	addi	s1,s1,1618 # 80000ef0 <__fini_array_end>
    800008a6:	8c05                	sub	s0,s0,s1
    800008a8:	ec06                	sd	ra,24(sp)
    800008aa:	840d                	srai	s0,s0,0x3
    800008ac:	e411                	bnez	s0,800008b8 <__libc_fini_array+0x28>
    800008ae:	60e2                	ld	ra,24(sp)
    800008b0:	6442                	ld	s0,16(sp)
    800008b2:	64a2                	ld	s1,8(sp)
    800008b4:	6105                	addi	sp,sp,32
    800008b6:	8082                	ret
    800008b8:	147d                	addi	s0,s0,-1
    800008ba:	00341793          	slli	a5,s0,0x3
    800008be:	97a6                	add	a5,a5,s1
    800008c0:	639c                	ld	a5,0(a5)
    800008c2:	9782                	jalr	a5
    800008c4:	b7e5                	j	800008ac <__libc_fini_array+0x1c>

00000000800008c6 <memset>:
    800008c6:	832a                	mv	t1,a0
    800008c8:	c611                	beqz	a2,800008d4 <memset+0xe>
    800008ca:	00b30023          	sb	a1,0(t1)
    800008ce:	167d                	addi	a2,a2,-1
    800008d0:	0305                	addi	t1,t1,1
    800008d2:	fe65                	bnez	a2,800008ca <memset+0x4>
    800008d4:	8082                	ret

00000000800008d6 <memcpy>:
    800008d6:	832a                	mv	t1,a0
    800008d8:	ca09                	beqz	a2,800008ea <memcpy+0x14>
    800008da:	00058383          	lb	t2,0(a1)
    800008de:	00730023          	sb	t2,0(t1)
    800008e2:	167d                	addi	a2,a2,-1
    800008e4:	0305                	addi	t1,t1,1
    800008e6:	0585                	addi	a1,a1,1
    800008e8:	fa6d                	bnez	a2,800008da <memcpy+0x4>
    800008ea:	8082                	ret

00000000800008ec <__register_exitproc>:
    800008ec:	88aa                	mv	a7,a0
    800008ee:	84818513          	addi	a0,gp,-1976 # 80001000 <__atexit>
    800008f2:	6118                	ld	a4,0(a0)
    800008f4:	ef01                	bnez	a4,8000090c <__register_exitproc+0x20>
    800008f6:	a7818793          	addi	a5,gp,-1416 # 80001230 <__atexit0>
    800008fa:	e11c                	sd	a5,0(a0)
    800008fc:	00000713          	li	a4,0
    80000900:	c701                	beqz	a4,80000908 <__register_exitproc+0x1c>
    80000902:	6318                	ld	a4,0(a4)
    80000904:	10e7b823          	sd	a4,272(a5)
    80000908:	a7818713          	addi	a4,gp,-1416 # 80001230 <__atexit0>
    8000090c:	471c                	lw	a5,8(a4)
    8000090e:	487d                	li	a6,31
    80000910:	557d                	li	a0,-1
    80000912:	04f84763          	blt	a6,a5,80000960 <__register_exitproc+0x74>
    80000916:	02088d63          	beqz	a7,80000950 <__register_exitproc+0x64>
    8000091a:	11073803          	ld	a6,272(a4) # 1110 <__stack_align+0x1100>
    8000091e:	04080163          	beqz	a6,80000960 <__register_exitproc+0x74>
    80000922:	00379513          	slli	a0,a5,0x3
    80000926:	9542                	add	a0,a0,a6
    80000928:	e110                	sd	a2,0(a0)
    8000092a:	20082303          	lw	t1,512(a6)
    8000092e:	4605                	li	a2,1
    80000930:	00f6163b          	sllw	a2,a2,a5
    80000934:	00c36333          	or	t1,t1,a2
    80000938:	20682023          	sw	t1,512(a6)
    8000093c:	10d53023          	sd	a3,256(a0)
    80000940:	4689                	li	a3,2
    80000942:	00d89763          	bne	a7,a3,80000950 <__register_exitproc+0x64>
    80000946:	20482683          	lw	a3,516(a6)
    8000094a:	8ed1                	or	a3,a3,a2
    8000094c:	20d82223          	sw	a3,516(a6)
    80000950:	0017869b          	addiw	a3,a5,1
    80000954:	0789                	addi	a5,a5,2
    80000956:	078e                	slli	a5,a5,0x3
    80000958:	c714                	sw	a3,8(a4)
    8000095a:	973e                	add	a4,a4,a5
    8000095c:	e30c                	sd	a1,0(a4)
    8000095e:	4501                	li	a0,0
    80000960:	8082                	ret

0000000080000962 <__call_exitprocs>:
    80000962:	711d                	addi	sp,sp,-96
    80000964:	f852                	sd	s4,48(sp)
    80000966:	f456                	sd	s5,40(sp)
    80000968:	f05a                	sd	s6,32(sp)
    8000096a:	ec5e                	sd	s7,24(sp)
    8000096c:	ec86                	sd	ra,88(sp)
    8000096e:	e8a2                	sd	s0,80(sp)
    80000970:	e4a6                	sd	s1,72(sp)
    80000972:	e0ca                	sd	s2,64(sp)
    80000974:	fc4e                	sd	s3,56(sp)
    80000976:	e862                	sd	s8,16(sp)
    80000978:	e466                	sd	s9,8(sp)
    8000097a:	8aaa                	mv	s5,a0
    8000097c:	8a2e                	mv	s4,a1
    8000097e:	84818b13          	addi	s6,gp,-1976 # 80001000 <__atexit>
    80000982:	4b85                	li	s7,1
    80000984:	000b3483          	ld	s1,0(s6)
    80000988:	cc81                	beqz	s1,800009a0 <__call_exitprocs+0x3e>
    8000098a:	4480                	lw	s0,8(s1)
    8000098c:	1104b983          	ld	s3,272(s1)
    80000990:	fff4091b          	addiw	s2,s0,-1
    80000994:	040e                	slli	s0,s0,0x3
    80000996:	00898cb3          	add	s9,s3,s0
    8000099a:	9426                	add	s0,s0,s1
    8000099c:	00095f63          	bgez	s2,800009ba <__call_exitprocs+0x58>
    800009a0:	60e6                	ld	ra,88(sp)
    800009a2:	6446                	ld	s0,80(sp)
    800009a4:	64a6                	ld	s1,72(sp)
    800009a6:	6906                	ld	s2,64(sp)
    800009a8:	79e2                	ld	s3,56(sp)
    800009aa:	7a42                	ld	s4,48(sp)
    800009ac:	7aa2                	ld	s5,40(sp)
    800009ae:	7b02                	ld	s6,32(sp)
    800009b0:	6be2                	ld	s7,24(sp)
    800009b2:	6c42                	ld	s8,16(sp)
    800009b4:	6ca2                	ld	s9,8(sp)
    800009b6:	6125                	addi	sp,sp,96
    800009b8:	8082                	ret
    800009ba:	000a0c63          	beqz	s4,800009d2 <__call_exitprocs+0x70>
    800009be:	00099663          	bnez	s3,800009ca <__call_exitprocs+0x68>
    800009c2:	397d                	addiw	s2,s2,-1
    800009c4:	1ce1                	addi	s9,s9,-8
    800009c6:	1461                	addi	s0,s0,-8
    800009c8:	bfd1                	j	8000099c <__call_exitprocs+0x3a>
    800009ca:	0f8cb783          	ld	a5,248(s9)
    800009ce:	ff479ae3          	bne	a5,s4,800009c2 <__call_exitprocs+0x60>
    800009d2:	449c                	lw	a5,8(s1)
    800009d4:	6418                	ld	a4,8(s0)
    800009d6:	37fd                	addiw	a5,a5,-1
    800009d8:	03279963          	bne	a5,s2,80000a0a <__call_exitprocs+0xa8>
    800009dc:	0124a423          	sw	s2,8(s1)
    800009e0:	d36d                	beqz	a4,800009c2 <__call_exitprocs+0x60>
    800009e2:	0084ac03          	lw	s8,8(s1)
    800009e6:	00098963          	beqz	s3,800009f8 <__call_exitprocs+0x96>
    800009ea:	2009a783          	lw	a5,512(s3)
    800009ee:	012b96bb          	sllw	a3,s7,s2
    800009f2:	8ff5                	and	a5,a5,a3
    800009f4:	2781                	sext.w	a5,a5
    800009f6:	ef89                	bnez	a5,80000a10 <__call_exitprocs+0xae>
    800009f8:	9702                	jalr	a4
    800009fa:	4498                	lw	a4,8(s1)
    800009fc:	000b3783          	ld	a5,0(s6)
    80000a00:	f98712e3          	bne	a4,s8,80000984 <__call_exitprocs+0x22>
    80000a04:	faf48fe3          	beq	s1,a5,800009c2 <__call_exitprocs+0x60>
    80000a08:	bfb5                	j	80000984 <__call_exitprocs+0x22>
    80000a0a:	00043423          	sd	zero,8(s0)
    80000a0e:	bfc9                	j	800009e0 <__call_exitprocs+0x7e>
    80000a10:	2049a783          	lw	a5,516(s3)
    80000a14:	ff8cb583          	ld	a1,-8(s9)
    80000a18:	8ff5                	and	a5,a5,a3
    80000a1a:	2781                	sext.w	a5,a5
    80000a1c:	e781                	bnez	a5,80000a24 <__call_exitprocs+0xc2>
    80000a1e:	8556                	mv	a0,s5
    80000a20:	9702                	jalr	a4
    80000a22:	bfe1                	j	800009fa <__call_exitprocs+0x98>
    80000a24:	852e                	mv	a0,a1
    80000a26:	9702                	jalr	a4
    80000a28:	bfc9                	j	800009fa <__call_exitprocs+0x98>

0000000080000a2a <_free_r>:
    80000a2a:	cdd9                	beqz	a1,80000ac8 <_free_r+0x9e>
    80000a2c:	ff85b783          	ld	a5,-8(a1)
    80000a30:	1101                	addi	sp,sp,-32
    80000a32:	e822                	sd	s0,16(sp)
    80000a34:	ec06                	sd	ra,24(sp)
    80000a36:	ff858413          	addi	s0,a1,-8
    80000a3a:	0007d363          	bgez	a5,80000a40 <_free_r+0x16>
    80000a3e:	943e                	add	s0,s0,a5
    80000a40:	e42a                	sd	a0,8(sp)
    80000a42:	212000ef          	jal	80000c54 <__malloc_lock>
    80000a46:	85818713          	addi	a4,gp,-1960 # 80001010 <__malloc_free_list>
    80000a4a:	631c                	ld	a5,0(a4)
    80000a4c:	6522                	ld	a0,8(sp)
    80000a4e:	eb81                	bnez	a5,80000a5e <_free_r+0x34>
    80000a50:	00043423          	sd	zero,8(s0)
    80000a54:	e300                	sd	s0,0(a4)
    80000a56:	6442                	ld	s0,16(sp)
    80000a58:	60e2                	ld	ra,24(sp)
    80000a5a:	6105                	addi	sp,sp,32
    80000a5c:	aaed                	j	80000c56 <__malloc_unlock>
    80000a5e:	00f47d63          	bgeu	s0,a5,80000a78 <_free_r+0x4e>
    80000a62:	6010                	ld	a2,0(s0)
    80000a64:	00c406b3          	add	a3,s0,a2
    80000a68:	00d79663          	bne	a5,a3,80000a74 <_free_r+0x4a>
    80000a6c:	6394                	ld	a3,0(a5)
    80000a6e:	679c                	ld	a5,8(a5)
    80000a70:	96b2                	add	a3,a3,a2
    80000a72:	e014                	sd	a3,0(s0)
    80000a74:	e41c                	sd	a5,8(s0)
    80000a76:	bff9                	j	80000a54 <_free_r+0x2a>
    80000a78:	873e                	mv	a4,a5
    80000a7a:	679c                	ld	a5,8(a5)
    80000a7c:	c399                	beqz	a5,80000a82 <_free_r+0x58>
    80000a7e:	fef47de3          	bgeu	s0,a5,80000a78 <_free_r+0x4e>
    80000a82:	6314                	ld	a3,0(a4)
    80000a84:	00d70633          	add	a2,a4,a3
    80000a88:	00861f63          	bne	a2,s0,80000aa6 <_free_r+0x7c>
    80000a8c:	6010                	ld	a2,0(s0)
    80000a8e:	96b2                	add	a3,a3,a2
    80000a90:	e314                	sd	a3,0(a4)
    80000a92:	00d70633          	add	a2,a4,a3
    80000a96:	fcc790e3          	bne	a5,a2,80000a56 <_free_r+0x2c>
    80000a9a:	6390                	ld	a2,0(a5)
    80000a9c:	679c                	ld	a5,8(a5)
    80000a9e:	96b2                	add	a3,a3,a2
    80000aa0:	e314                	sd	a3,0(a4)
    80000aa2:	e71c                	sd	a5,8(a4)
    80000aa4:	bf4d                	j	80000a56 <_free_r+0x2c>
    80000aa6:	00c47563          	bgeu	s0,a2,80000ab0 <_free_r+0x86>
    80000aaa:	47b1                	li	a5,12
    80000aac:	c11c                	sw	a5,0(a0)
    80000aae:	b765                	j	80000a56 <_free_r+0x2c>
    80000ab0:	6010                	ld	a2,0(s0)
    80000ab2:	00c406b3          	add	a3,s0,a2
    80000ab6:	00d79663          	bne	a5,a3,80000ac2 <_free_r+0x98>
    80000aba:	6394                	ld	a3,0(a5)
    80000abc:	679c                	ld	a5,8(a5)
    80000abe:	96b2                	add	a3,a3,a2
    80000ac0:	e014                	sd	a3,0(s0)
    80000ac2:	e41c                	sd	a5,8(s0)
    80000ac4:	e700                	sd	s0,8(a4)
    80000ac6:	bf41                	j	80000a56 <_free_r+0x2c>
    80000ac8:	8082                	ret

0000000080000aca <sbrk_aligned>:
    80000aca:	1101                	addi	sp,sp,-32
    80000acc:	e04a                	sd	s2,0(sp)
    80000ace:	85018913          	addi	s2,gp,-1968 # 80001008 <__malloc_sbrk_start>
    80000ad2:	00093783          	ld	a5,0(s2)
    80000ad6:	e822                	sd	s0,16(sp)
    80000ad8:	e426                	sd	s1,8(sp)
    80000ada:	ec06                	sd	ra,24(sp)
    80000adc:	84aa                	mv	s1,a0
    80000ade:	842e                	mv	s0,a1
    80000ae0:	e791                	bnez	a5,80000aec <sbrk_aligned+0x22>
    80000ae2:	4581                	li	a1,0
    80000ae4:	312000ef          	jal	80000df6 <_sbrk_r>
    80000ae8:	00a93023          	sd	a0,0(s2)
    80000aec:	85a2                	mv	a1,s0
    80000aee:	8526                	mv	a0,s1
    80000af0:	306000ef          	jal	80000df6 <_sbrk_r>
    80000af4:	597d                	li	s2,-1
    80000af6:	01251a63          	bne	a0,s2,80000b0a <sbrk_aligned+0x40>
    80000afa:	547d                	li	s0,-1
    80000afc:	60e2                	ld	ra,24(sp)
    80000afe:	8522                	mv	a0,s0
    80000b00:	6442                	ld	s0,16(sp)
    80000b02:	64a2                	ld	s1,8(sp)
    80000b04:	6902                	ld	s2,0(sp)
    80000b06:	6105                	addi	sp,sp,32
    80000b08:	8082                	ret
    80000b0a:	00750413          	addi	s0,a0,7
    80000b0e:	9861                	andi	s0,s0,-8
    80000b10:	fe8506e3          	beq	a0,s0,80000afc <sbrk_aligned+0x32>
    80000b14:	40a405b3          	sub	a1,s0,a0
    80000b18:	8526                	mv	a0,s1
    80000b1a:	2dc000ef          	jal	80000df6 <_sbrk_r>
    80000b1e:	fd251fe3          	bne	a0,s2,80000afc <sbrk_aligned+0x32>
    80000b22:	bfe1                	j	80000afa <sbrk_aligned+0x30>

0000000080000b24 <_malloc_r>:
    80000b24:	00758793          	addi	a5,a1,7
    80000b28:	7179                	addi	sp,sp,-48
    80000b2a:	9be1                	andi	a5,a5,-8
    80000b2c:	ec26                	sd	s1,24(sp)
    80000b2e:	e84a                	sd	s2,16(sp)
    80000b30:	f406                	sd	ra,40(sp)
    80000b32:	f022                	sd	s0,32(sp)
    80000b34:	e44e                	sd	s3,8(sp)
    80000b36:	e052                	sd	s4,0(sp)
    80000b38:	07a1                	addi	a5,a5,8
    80000b3a:	4741                	li	a4,16
    80000b3c:	892a                	mv	s2,a0
    80000b3e:	44c1                	li	s1,16
    80000b40:	00e7e363          	bltu	a5,a4,80000b46 <_malloc_r+0x22>
    80000b44:	84be                	mv	s1,a5
    80000b46:	80000737          	lui	a4,0x80000
    80000b4a:	fff74713          	not	a4,a4
    80000b4e:	00f76463          	bltu	a4,a5,80000b56 <_malloc_r+0x32>
    80000b52:	00b4fe63          	bgeu	s1,a1,80000b6e <_malloc_r+0x4a>
    80000b56:	47b1                	li	a5,12
    80000b58:	00f92023          	sw	a5,0(s2)
    80000b5c:	4501                	li	a0,0
    80000b5e:	70a2                	ld	ra,40(sp)
    80000b60:	7402                	ld	s0,32(sp)
    80000b62:	64e2                	ld	s1,24(sp)
    80000b64:	6942                	ld	s2,16(sp)
    80000b66:	69a2                	ld	s3,8(sp)
    80000b68:	6a02                	ld	s4,0(sp)
    80000b6a:	6145                	addi	sp,sp,48
    80000b6c:	8082                	ret
    80000b6e:	854a                	mv	a0,s2
    80000b70:	0e4000ef          	jal	80000c54 <__malloc_lock>
    80000b74:	85818993          	addi	s3,gp,-1960 # 80001010 <__malloc_free_list>
    80000b78:	0009b783          	ld	a5,0(s3)
    80000b7c:	843e                	mv	s0,a5
    80000b7e:	ec21                	bnez	s0,80000bd6 <_malloc_r+0xb2>
    80000b80:	85a6                	mv	a1,s1
    80000b82:	854a                	mv	a0,s2
    80000b84:	f47ff0ef          	jal	80000aca <sbrk_aligned>
    80000b88:	57fd                	li	a5,-1
    80000b8a:	842a                	mv	s0,a0
    80000b8c:	0af51f63          	bne	a0,a5,80000c4a <_malloc_r+0x126>
    80000b90:	0009b403          	ld	s0,0(s3)
    80000b94:	87a2                	mv	a5,s0
    80000b96:	efd1                	bnez	a5,80000c32 <_malloc_r+0x10e>
    80000b98:	c055                	beqz	s0,80000c3c <_malloc_r+0x118>
    80000b9a:	00043a03          	ld	s4,0(s0)
    80000b9e:	4581                	li	a1,0
    80000ba0:	854a                	mv	a0,s2
    80000ba2:	9a22                	add	s4,s4,s0
    80000ba4:	252000ef          	jal	80000df6 <_sbrk_r>
    80000ba8:	08aa1a63          	bne	s4,a0,80000c3c <_malloc_r+0x118>
    80000bac:	601c                	ld	a5,0(s0)
    80000bae:	854a                	mv	a0,s2
    80000bb0:	8c9d                	sub	s1,s1,a5
    80000bb2:	85a6                	mv	a1,s1
    80000bb4:	f17ff0ef          	jal	80000aca <sbrk_aligned>
    80000bb8:	57fd                	li	a5,-1
    80000bba:	08f50163          	beq	a0,a5,80000c3c <_malloc_r+0x118>
    80000bbe:	601c                	ld	a5,0(s0)
    80000bc0:	97a6                	add	a5,a5,s1
    80000bc2:	e01c                	sd	a5,0(s0)
    80000bc4:	0009b783          	ld	a5,0(s3)
    80000bc8:	c3d9                	beqz	a5,80000c4e <_malloc_r+0x12a>
    80000bca:	6798                	ld	a4,8(a5)
    80000bcc:	06871663          	bne	a4,s0,80000c38 <_malloc_r+0x114>
    80000bd0:	0007b423          	sd	zero,8(a5)
    80000bd4:	a015                	j	80000bf8 <_malloc_r+0xd4>
    80000bd6:	6014                	ld	a3,0(s0)
    80000bd8:	9e85                	subw	a3,a3,s1
    80000bda:	0406c963          	bltz	a3,80000c2c <_malloc_r+0x108>
    80000bde:	473d                	li	a4,15
    80000be0:	02d75e63          	bge	a4,a3,80000c1c <_malloc_r+0xf8>
    80000be4:	e004                	sd	s1,0(s0)
    80000be6:	00940733          	add	a4,s0,s1
    80000bea:	02879763          	bne	a5,s0,80000c18 <_malloc_r+0xf4>
    80000bee:	00e9b023          	sd	a4,0(s3)
    80000bf2:	641c                	ld	a5,8(s0)
    80000bf4:	e314                	sd	a3,0(a4)
    80000bf6:	e71c                	sd	a5,8(a4)
    80000bf8:	854a                	mv	a0,s2
    80000bfa:	05c000ef          	jal	80000c56 <__malloc_unlock>
    80000bfe:	00f40513          	addi	a0,s0,15
    80000c02:	00840793          	addi	a5,s0,8
    80000c06:	9961                	andi	a0,a0,-8
    80000c08:	40f507bb          	subw	a5,a0,a5
    80000c0c:	dba9                	beqz	a5,80000b5e <_malloc_r+0x3a>
    80000c0e:	943e                	add	s0,s0,a5
    80000c10:	40f007bb          	negw	a5,a5
    80000c14:	e01c                	sd	a5,0(s0)
    80000c16:	b7a1                	j	80000b5e <_malloc_r+0x3a>
    80000c18:	e798                	sd	a4,8(a5)
    80000c1a:	bfe1                	j	80000bf2 <_malloc_r+0xce>
    80000c1c:	6418                	ld	a4,8(s0)
    80000c1e:	00879563          	bne	a5,s0,80000c28 <_malloc_r+0x104>
    80000c22:	00e9b023          	sd	a4,0(s3)
    80000c26:	bfc9                	j	80000bf8 <_malloc_r+0xd4>
    80000c28:	e798                	sd	a4,8(a5)
    80000c2a:	b7f9                	j	80000bf8 <_malloc_r+0xd4>
    80000c2c:	87a2                	mv	a5,s0
    80000c2e:	6400                	ld	s0,8(s0)
    80000c30:	b7b9                	j	80000b7e <_malloc_r+0x5a>
    80000c32:	843e                	mv	s0,a5
    80000c34:	679c                	ld	a5,8(a5)
    80000c36:	b785                	j	80000b96 <_malloc_r+0x72>
    80000c38:	87ba                	mv	a5,a4
    80000c3a:	b779                	j	80000bc8 <_malloc_r+0xa4>
    80000c3c:	47b1                	li	a5,12
    80000c3e:	00f92023          	sw	a5,0(s2)
    80000c42:	854a                	mv	a0,s2
    80000c44:	012000ef          	jal	80000c56 <__malloc_unlock>
    80000c48:	bf11                	j	80000b5c <_malloc_r+0x38>
    80000c4a:	e104                	sd	s1,0(a0)
    80000c4c:	b775                	j	80000bf8 <_malloc_r+0xd4>
    80000c4e:	00003423          	sd	zero,8(zero) # 8 <__boot_hart+0x8>
    80000c52:	9002                	ebreak

0000000080000c54 <__malloc_lock>:
    80000c54:	8082                	ret

0000000080000c56 <__malloc_unlock>:
    80000c56:	8082                	ret

0000000080000c58 <__sflush_r>:
    80000c58:	01059783          	lh	a5,16(a1)
    80000c5c:	7179                	addi	sp,sp,-48
    80000c5e:	f022                	sd	s0,32(sp)
    80000c60:	ec26                	sd	s1,24(sp)
    80000c62:	f406                	sd	ra,40(sp)
    80000c64:	e84a                	sd	s2,16(sp)
    80000c66:	e44e                	sd	s3,8(sp)
    80000c68:	0087f713          	andi	a4,a5,8
    80000c6c:	84aa                	mv	s1,a0
    80000c6e:	842e                	mv	s0,a1
    80000c70:	eb69                	bnez	a4,80000d42 <__sflush_r+0xea>
    80000c72:	4598                	lw	a4,8(a1)
    80000c74:	00e04563          	bgtz	a4,80000c7e <__sflush_r+0x26>
    80000c78:	5db8                	lw	a4,120(a1)
    80000c7a:	0ae05b63          	blez	a4,80000d30 <__sflush_r+0xd8>
    80000c7e:	6838                	ld	a4,80(s0)
    80000c80:	cb45                	beqz	a4,80000d30 <__sflush_r+0xd8>
    80000c82:	0004a903          	lw	s2,0(s1)
    80000c86:	03379693          	slli	a3,a5,0x33
    80000c8a:	0004a023          	sw	zero,0(s1)
    80000c8e:	7c0c                	ld	a1,56(s0)
    80000c90:	0606de63          	bgez	a3,80000d0c <__sflush_r+0xb4>
    80000c94:	6c50                	ld	a2,152(s0)
    80000c96:	01045783          	lhu	a5,16(s0)
    80000c9a:	8b91                	andi	a5,a5,4
    80000c9c:	c799                	beqz	a5,80000caa <__sflush_r+0x52>
    80000c9e:	441c                	lw	a5,8(s0)
    80000ca0:	8e1d                	sub	a2,a2,a5
    80000ca2:	703c                	ld	a5,96(s0)
    80000ca4:	c399                	beqz	a5,80000caa <__sflush_r+0x52>
    80000ca6:	5c3c                	lw	a5,120(s0)
    80000ca8:	8e1d                	sub	a2,a2,a5
    80000caa:	683c                	ld	a5,80(s0)
    80000cac:	7c0c                	ld	a1,56(s0)
    80000cae:	4681                	li	a3,0
    80000cb0:	8526                	mv	a0,s1
    80000cb2:	9782                	jalr	a5
    80000cb4:	577d                	li	a4,-1
    80000cb6:	01045783          	lhu	a5,16(s0)
    80000cba:	00e51d63          	bne	a0,a4,80000cd4 <__sflush_r+0x7c>
    80000cbe:	4094                	lw	a3,0(s1)
    80000cc0:	4775                	li	a4,29
    80000cc2:	06d76963          	bltu	a4,a3,80000d34 <__sflush_r+0xdc>
    80000cc6:	20400737          	lui	a4,0x20400
    80000cca:	0705                	addi	a4,a4,1 # 20400001 <__heap_size+0x203e0001>
    80000ccc:	00d75733          	srl	a4,a4,a3
    80000cd0:	8b05                	andi	a4,a4,1
    80000cd2:	c32d                	beqz	a4,80000d34 <__sflush_r+0xdc>
    80000cd4:	6c18                	ld	a4,24(s0)
    80000cd6:	00042423          	sw	zero,8(s0)
    80000cda:	e018                	sd	a4,0(s0)
    80000cdc:	03379713          	slli	a4,a5,0x33
    80000ce0:	00075863          	bgez	a4,80000cf0 <__sflush_r+0x98>
    80000ce4:	57fd                	li	a5,-1
    80000ce6:	00f51463          	bne	a0,a5,80000cee <__sflush_r+0x96>
    80000cea:	409c                	lw	a5,0(s1)
    80000cec:	e391                	bnez	a5,80000cf0 <__sflush_r+0x98>
    80000cee:	ec48                	sd	a0,152(s0)
    80000cf0:	702c                	ld	a1,96(s0)
    80000cf2:	0124a023          	sw	s2,0(s1)
    80000cf6:	cd8d                	beqz	a1,80000d30 <__sflush_r+0xd8>
    80000cf8:	07c40793          	addi	a5,s0,124
    80000cfc:	00f58563          	beq	a1,a5,80000d06 <__sflush_r+0xae>
    80000d00:	8526                	mv	a0,s1
    80000d02:	d29ff0ef          	jal	80000a2a <_free_r>
    80000d06:	06043023          	sd	zero,96(s0)
    80000d0a:	a01d                	j	80000d30 <__sflush_r+0xd8>
    80000d0c:	4601                	li	a2,0
    80000d0e:	4685                	li	a3,1
    80000d10:	8526                	mv	a0,s1
    80000d12:	9702                	jalr	a4
    80000d14:	57fd                	li	a5,-1
    80000d16:	862a                	mv	a2,a0
    80000d18:	f6f51fe3          	bne	a0,a5,80000c96 <__sflush_r+0x3e>
    80000d1c:	409c                	lw	a5,0(s1)
    80000d1e:	dfa5                	beqz	a5,80000c96 <__sflush_r+0x3e>
    80000d20:	4775                	li	a4,29
    80000d22:	00e78563          	beq	a5,a4,80000d2c <__sflush_r+0xd4>
    80000d26:	4759                	li	a4,22
    80000d28:	04e79663          	bne	a5,a4,80000d74 <__sflush_r+0x11c>
    80000d2c:	0124a023          	sw	s2,0(s1)
    80000d30:	4501                	li	a0,0
    80000d32:	a881                	j	80000d82 <__sflush_r+0x12a>
    80000d34:	0407e793          	ori	a5,a5,64
    80000d38:	0107979b          	slliw	a5,a5,0x10
    80000d3c:	4107d79b          	sraiw	a5,a5,0x10
    80000d40:	a835                	j	80000d7c <__sflush_r+0x124>
    80000d42:	0185b983          	ld	s3,24(a1)
    80000d46:	fe0985e3          	beqz	s3,80000d30 <__sflush_r+0xd8>
    80000d4a:	0005b903          	ld	s2,0(a1)
    80000d4e:	8b8d                	andi	a5,a5,3
    80000d50:	0135b023          	sd	s3,0(a1)
    80000d54:	4139093b          	subw	s2,s2,s3
    80000d58:	4701                	li	a4,0
    80000d5a:	e391                	bnez	a5,80000d5e <__sflush_r+0x106>
    80000d5c:	5198                	lw	a4,32(a1)
    80000d5e:	c458                	sw	a4,12(s0)
    80000d60:	fd2058e3          	blez	s2,80000d30 <__sflush_r+0xd8>
    80000d64:	643c                	ld	a5,72(s0)
    80000d66:	7c0c                	ld	a1,56(s0)
    80000d68:	86ca                	mv	a3,s2
    80000d6a:	864e                	mv	a2,s3
    80000d6c:	8526                	mv	a0,s1
    80000d6e:	9782                	jalr	a5
    80000d70:	02a04063          	bgtz	a0,80000d90 <__sflush_r+0x138>
    80000d74:	01041783          	lh	a5,16(s0)
    80000d78:	0407e793          	ori	a5,a5,64
    80000d7c:	00f41823          	sh	a5,16(s0)
    80000d80:	557d                	li	a0,-1
    80000d82:	70a2                	ld	ra,40(sp)
    80000d84:	7402                	ld	s0,32(sp)
    80000d86:	64e2                	ld	s1,24(sp)
    80000d88:	6942                	ld	s2,16(sp)
    80000d8a:	69a2                	ld	s3,8(sp)
    80000d8c:	6145                	addi	sp,sp,48
    80000d8e:	8082                	ret
    80000d90:	99aa                	add	s3,s3,a0
    80000d92:	40a9093b          	subw	s2,s2,a0
    80000d96:	b7e9                	j	80000d60 <__sflush_r+0x108>

0000000080000d98 <_fflush_r>:
    80000d98:	6d9c                	ld	a5,24(a1)
    80000d9a:	cb8d                	beqz	a5,80000dcc <_fflush_r+0x34>
    80000d9c:	1101                	addi	sp,sp,-32
    80000d9e:	e822                	sd	s0,16(sp)
    80000da0:	ec06                	sd	ra,24(sp)
    80000da2:	842a                	mv	s0,a0
    80000da4:	c519                	beqz	a0,80000db2 <_fflush_r+0x1a>
    80000da6:	613c                	ld	a5,64(a0)
    80000da8:	e789                	bnez	a5,80000db2 <_fflush_r+0x1a>
    80000daa:	e42e                	sd	a1,8(sp)
    80000dac:	f9cff0ef          	jal	80000548 <__sinit>
    80000db0:	65a2                	ld	a1,8(sp)
    80000db2:	01059783          	lh	a5,16(a1)
    80000db6:	c791                	beqz	a5,80000dc2 <_fflush_r+0x2a>
    80000db8:	8522                	mv	a0,s0
    80000dba:	6442                	ld	s0,16(sp)
    80000dbc:	60e2                	ld	ra,24(sp)
    80000dbe:	6105                	addi	sp,sp,32
    80000dc0:	bd61                	j	80000c58 <__sflush_r>
    80000dc2:	60e2                	ld	ra,24(sp)
    80000dc4:	6442                	ld	s0,16(sp)
    80000dc6:	4501                	li	a0,0
    80000dc8:	6105                	addi	sp,sp,32
    80000dca:	8082                	ret
    80000dcc:	4501                	li	a0,0
    80000dce:	8082                	ret

0000000080000dd0 <fflush>:
    80000dd0:	85aa                	mv	a1,a0
    80000dd2:	ed19                	bnez	a0,80000df0 <fflush+0x20>
    80000dd4:	00000617          	auipc	a2,0x0
    80000dd8:	13c60613          	addi	a2,a2,316 # 80000f10 <__sglue>
    80000ddc:	00000597          	auipc	a1,0x0
    80000de0:	fbc58593          	addi	a1,a1,-68 # 80000d98 <_fflush_r>
    80000de4:	00000517          	auipc	a0,0x0
    80000de8:	14450513          	addi	a0,a0,324 # 80000f28 <_impure_data>
    80000dec:	fa0ff06f          	j	8000058c <_fwalk_sglue>
    80000df0:	8101b503          	ld	a0,-2032(gp) # 80000fc8 <_impure_ptr>
    80000df4:	b755                	j	80000d98 <_fflush_r>

0000000080000df6 <_sbrk_r>:
    80000df6:	1141                	addi	sp,sp,-16
    80000df8:	e022                	sd	s0,0(sp)
    80000dfa:	842a                	mv	s0,a0
    80000dfc:	852e                	mv	a0,a1
    80000dfe:	8401a023          	sw	zero,-1984(gp) # 80000ff8 <errno>
    80000e02:	e406                	sd	ra,8(sp)
    80000e04:	058000ef          	jal	80000e5c <_sbrk>
    80000e08:	57fd                	li	a5,-1
    80000e0a:	00f51663          	bne	a0,a5,80000e16 <_sbrk_r+0x20>
    80000e0e:	8401a783          	lw	a5,-1984(gp) # 80000ff8 <errno>
    80000e12:	c391                	beqz	a5,80000e16 <_sbrk_r+0x20>
    80000e14:	c01c                	sw	a5,0(s0)
    80000e16:	60a2                	ld	ra,8(sp)
    80000e18:	6402                	ld	s0,0(sp)
    80000e1a:	0141                	addi	sp,sp,16
    80000e1c:	8082                	ret

0000000080000e1e <_close>:
    80000e1e:	1141                	addi	sp,sp,-16
    80000e20:	e406                	sd	ra,8(sp)
    80000e22:	07a000ef          	jal	80000e9c <__errno>
    80000e26:	60a2                	ld	ra,8(sp)
    80000e28:	47a5                	li	a5,9
    80000e2a:	c11c                	sw	a5,0(a0)
    80000e2c:	557d                	li	a0,-1
    80000e2e:	0141                	addi	sp,sp,16
    80000e30:	8082                	ret

0000000080000e32 <_lseek>:
    80000e32:	1141                	addi	sp,sp,-16
    80000e34:	e406                	sd	ra,8(sp)
    80000e36:	066000ef          	jal	80000e9c <__errno>
    80000e3a:	60a2                	ld	ra,8(sp)
    80000e3c:	47a5                	li	a5,9
    80000e3e:	c11c                	sw	a5,0(a0)
    80000e40:	557d                	li	a0,-1
    80000e42:	0141                	addi	sp,sp,16
    80000e44:	8082                	ret

0000000080000e46 <_read>:
    80000e46:	1141                	addi	sp,sp,-16
    80000e48:	e406                	sd	ra,8(sp)
    80000e4a:	052000ef          	jal	80000e9c <__errno>
    80000e4e:	60a2                	ld	ra,8(sp)
    80000e50:	05800793          	li	a5,88
    80000e54:	c11c                	sw	a5,0(a0)
    80000e56:	557d                	li	a0,-1
    80000e58:	0141                	addi	sp,sp,16
    80000e5a:	8082                	ret

0000000080000e5c <_sbrk>:
    80000e5c:	82018713          	addi	a4,gp,-2016 # 80000fd8 <curbrk>
    80000e60:	631c                	ld	a5,0(a4)
    80000e62:	b9018693          	addi	a3,gp,-1136 # 80001348 <_end>
    80000e66:	953e                	add	a0,a0,a5
    80000e68:	00d56b63          	bltu	a0,a3,80000e7e <_sbrk+0x22>
    80000e6c:	00021697          	auipc	a3,0x21
    80000e70:	19468693          	addi	a3,a3,404 # 80022000 <__heap_end>
    80000e74:	00d57563          	bgeu	a0,a3,80000e7e <_sbrk+0x22>
    80000e78:	e308                	sd	a0,0(a4)
    80000e7a:	853e                	mv	a0,a5
    80000e7c:	8082                	ret
    80000e7e:	1141                	addi	sp,sp,-16
    80000e80:	e406                	sd	ra,8(sp)
    80000e82:	01a000ef          	jal	80000e9c <__errno>
    80000e86:	60a2                	ld	ra,8(sp)
    80000e88:	47b1                	li	a5,12
    80000e8a:	c11c                	sw	a5,0(a0)
    80000e8c:	57fd                	li	a5,-1
    80000e8e:	853e                	mv	a0,a5
    80000e90:	0141                	addi	sp,sp,16
    80000e92:	8082                	ret

0000000080000e94 <_write>:
    80000e94:	04000693          	li	a3,64
    80000e98:	c6cff06f          	j	80000304 <htif_syscall>

0000000080000e9c <__errno>:
    80000e9c:	8101b503          	ld	a0,-2032(gp) # 80000fc8 <_impure_ptr>
    80000ea0:	8082                	ret

Disassembly of section .rodata:

0000000080000ea8 <argv>:
    80000ea8:	0eb8                	addi	a4,sp,856
    80000eaa:	8000                	.insn	2, 0x8000
	...

0000000080000eb8 <name>:
    80000eb8:	70696863          	bltu	s2,t1,800015c8 <_end+0x280>
    80000ebc:	6179                	addi	sp,sp,464
    80000ebe:	6472                	ld	s0,280(sp)
	...

Disassembly of section .eh_frame:

0000000080000ec8 <.eh_frame>:
    80000ec8:	0010                	.insn	2, 0x0010
    80000eca:	0000                	unimp
    80000ecc:	0000                	unimp
    80000ece:	0000                	unimp
    80000ed0:	00527a03          	.insn	4, 0x00527a03
    80000ed4:	7c01                	lui	s8,0xfffe0
    80000ed6:	0101                	addi	sp,sp,0
    80000ed8:	00020d1b          	sext.w	s10,tp
    80000edc:	0010                	.insn	2, 0x0010
    80000ede:	0000                	unimp
    80000ee0:	0018                	.insn	2, 0x0018
    80000ee2:	0000                	unimp
    80000ee4:	f11c                	sd	a5,32(a0)
    80000ee6:	ffff                	.insn	2, 0xffff
    80000ee8:	0144                	addi	s1,sp,132
    80000eea:	0000                	unimp
    80000eec:	0000                	unimp
	...

Disassembly of section .htif:

0000000080000f00 <tohost>:
	...

0000000080000f08 <fromhost>:
	...

Disassembly of section .data.__sglue:

0000000080000f10 <__sglue>:
	...
    80000f18:	00000003          	lb	zero,0(zero) # 0 <__boot_hart>
    80000f1c:	0000                	unimp
    80000f1e:	0000                	unimp
    80000f20:	1020                	addi	s0,sp,40
    80000f22:	8000                	.insn	2, 0x8000
    80000f24:	0000                	unimp
	...

Disassembly of section .data._impure_data:

0000000080000f28 <_impure_data>:
	...
    80000f30:	1020                	addi	s0,sp,40
    80000f32:	8000                	.insn	2, 0x8000
    80000f34:	0000                	unimp
    80000f36:	0000                	unimp
    80000f38:	10d0                	addi	a2,sp,100
    80000f3a:	8000                	.insn	2, 0x8000
    80000f3c:	0000                	unimp
    80000f3e:	0000                	unimp
    80000f40:	1180                	addi	s0,sp,224
    80000f42:	8000                	.insn	2, 0x8000
	...

Disassembly of section .sdata:

0000000080000fb8 <data>:
    80000fb8:	3421                	addiw	s0,s0,-24
    80000fba:	0000                	unimp
    80000fbc:	0000                	unimp
	...

0000000080000fc0 <environ>:
    80000fc0:	0fe8                	addi	a0,sp,988
    80000fc2:	8000                	.insn	2, 0x8000
    80000fc4:	0000                	unimp
	...

0000000080000fc8 <_impure_ptr>:
    80000fc8:	0f28                	addi	a0,sp,920
    80000fca:	8000                	.insn	2, 0x8000
    80000fcc:	0000                	unimp
	...

0000000080000fd0 <__atexit_dummy>:
    80000fd0:	0962                	slli	s2,s2,0x18
    80000fd2:	8000                	.insn	2, 0x8000
    80000fd4:	0000                	unimp
	...

0000000080000fd8 <curbrk>:
    80000fd8:	1348                	addi	a0,sp,420
    80000fda:	8000                	.insn	2, 0x8000
    80000fdc:	0000                	unimp
	...

Disassembly of section .debug_info:

0000000000000000 <.debug_info>:
       0:	03b2                	slli	t2,t2,0xc
       2:	0000                	unimp
       4:	0005                	c.nop	1
       6:	0801                	addi	a6,a6,0
       8:	0000                	unimp
       a:	0000                	unimp
       c:	710d                	addi	sp,sp,-352
       e:	0000                	unimp
      10:	0c00                	addi	s0,sp,528
      12:	0000                	unimp
      14:	0000                	unimp
      16:	003c                	addi	a5,sp,8
      18:	0000                	unimp
      1a:	001c                	.insn	2, 0x001c
	...
      28:	0000                	unimp
      2a:	0104                	addi	s1,sp,128
      2c:	3506                	fld	fa0,96(sp)
      2e:	0000                	unimp
      30:	0400                	addi	s0,sp,512
      32:	0801                	addi	a6,a6,0
      34:	00000033          	add	zero,zero,zero
      38:	0204                	addi	s1,sp,256
      3a:	1705                	addi	a4,a4,-31
      3c:	0001                	nop
      3e:	0400                	addi	s0,sp,512
      40:	0702                	c.slli64	a4
      42:	0041                	c.nop	16
      44:	0000                	unimp
      46:	040e                	slli	s0,s0,0x3
      48:	6905                	lui	s2,0x1
      4a:	746e                	ld	s0,248(sp)
      4c:	0400                	addi	s0,sp,512
      4e:	0704                	addi	s1,sp,896
      50:	02b6                	slli	t0,t0,0xd
      52:	0000                	unimp
      54:	0804                	addi	s1,sp,16
      56:	d905                	beqz	a0,ffffffffffffff86 <__heap_end+0xffffffff7ffddf86>
      58:	0001                	nop
      5a:	0700                	addi	s0,sp,896
      5c:	0121                	addi	sp,sp,8
      5e:	0000                	unimp
      60:	6902                	ld	s2,0(sp)
      62:	6719                	lui	a4,0x6
      64:	0000                	unimp
      66:	0400                	addi	s0,sp,512
      68:	0708                	addi	a0,sp,896
      6a:	02b1                	addi	t0,t0,12
      6c:	0000                	unimp
      6e:	00000507          	.insn	4, 0x0507
      72:	0200                	addi	s0,sp,256
      74:	1ae8                	addi	a0,sp,380
      76:	00000067          	jr	zero # 0 <__boot_hart>
      7a:	00012307          	flw	ft6,0(sp)
      7e:	0300                	addi	s0,sp,384
      80:	143c                	addi	a5,sp,552
      82:	0000005b          	.insn	4, 0x005b
      86:	00000707          	.insn	4, 0x0707
      8a:	0300                	addi	s0,sp,384
      8c:	1552                	slli	a0,a0,0x34
      8e:	006e                	c.slli	zero,0x1b
      90:	0000                	unimp
      92:	0000240f          	.insn	4, 0x240f
      96:	0100                	addi	s0,sp,128
      98:	0f1a                	slli	t5,t5,0x6
      9a:	00000067          	jr	zero # 0 <__boot_hart>
      9e:	0309                	addi	t1,t1,2
      a0:	0fb8                	addi	a4,sp,984
      a2:	8000                	.insn	2, 0x8000
      a4:	0000                	unimp
      a6:	0000                	unimp
      a8:	fb10                	sd	a2,48(a4)
      aa:	0002                	c.slli64	zero
      ac:	0100                	addi	s0,sp,128
      ae:	051c                	addi	a5,sp,640
      b0:	0046                	c.slli	zero,0x11
      b2:	0000                	unimp
      b4:	0234                	addi	a3,sp,264
      b6:	8000                	.insn	2, 0x8000
      b8:	0000                	unimp
      ba:	0000                	unimp
      bc:	0064                	addi	s1,sp,12
      be:	0000                	unimp
      c0:	0000                	unimp
      c2:	0000                	unimp
      c4:	9c01                	subw	s0,s0,s0
      c6:	02bd                	addi	t0,t0,15
      c8:	0000                	unimp
      ca:	5911                	li	s2,-28
      cc:	0000                	unimp
      ce:	0100                	addi	s0,sp,128
      d0:	101e                	c.slli	zero,0x27
      d2:	00000067          	jr	zero # 0 <__boot_hart>
      d6:	000c                	.insn	2, 0x000c
      d8:	0000                	unimp
      da:	f608                	sd	a0,40(a2)
      dc:	0002                	c.slli64	zero
      de:	3400                	fld	fs0,40(s0)
      e0:	0002                	c.slli64	zero
      e2:	0080                	addi	s0,sp,64
      e4:	0000                	unimp
      e6:	1400                	addi	s0,sp,544
      e8:	0000                	unimp
      ea:	0000                	unimp
      ec:	0000                	unimp
      ee:	2000                	fld	fs0,0(s0)
      f0:	0000012b          	.insn	4, 0x012b
      f4:	0b02                	c.slli64	s6
      f6:	2c000003          	lb	zero,704(zero) # 2c0 <__stack_align+0x2b0>
      fa:	0000                	unimp
      fc:	0200                	addi	s0,sp,256
      fe:	0300                	addi	s0,sp,384
     100:	0000                	unimp
     102:	0042                	c.slli	zero,0x10
     104:	0000                	unimp
     106:	1605                	addi	a2,a2,-31
     108:	38000003          	lb	zero,896(zero) # 380 <__stack_align+0x370>
     10c:	0002                	c.slli64	zero
     10e:	0080                	addi	s0,sp,64
     110:	0000                	unimp
     112:	1000                	addi	s0,sp,32
     114:	0000                	unimp
     116:	0000                	unimp
     118:	0000                	unimp
     11a:	0100                	addi	s0,sp,128
     11c:	00000317          	auipc	t1,0x0
     120:	5b01                	li	s6,-32
     122:	2201                	sext.w	tp,tp
     124:	01000003          	lb	zero,16(zero) # 10 <__stack_align>
     128:	005c                	addi	a5,sp,4
     12a:	0800                	addi	s0,sp,16
     12c:	02bd                	addi	t0,t0,15
     12e:	0000                	unimp
     130:	0248                	addi	a0,sp,260
     132:	8000                	.insn	2, 0x8000
     134:	0000                	unimp
     136:	0000                	unimp
     138:	0008                	.insn	2, 0x0008
     13a:	0000                	unimp
     13c:	0000                	unimp
     13e:	0000                	unimp
     140:	7c21                	lui	s8,0xfffe8
     142:	0001                	nop
     144:	0200                	addi	s0,sp,256
     146:	02d2                	slli	t0,t0,0x14
     148:	0000                	unimp
     14a:	0050                	addi	a2,sp,4
     14c:	0000                	unimp
     14e:	c702                	sw	zero,140(sp)
     150:	0002                	c.slli64	zero
     152:	5e00                	lw	s0,56(a2)
     154:	0000                	unimp
     156:	0500                	addi	s0,sp,640
     158:	02dd                	addi	t0,t0,23
     15a:	0000                	unimp
     15c:	0248                	addi	a0,sp,260
     15e:	8000                	.insn	2, 0x8000
     160:	0000                	unimp
     162:	0000                	unimp
     164:	0008                	.insn	2, 0x0008
     166:	0000                	unimp
     168:	0000                	unimp
     16a:	0000                	unimp
     16c:	de01                	beqz	a2,84 <__stack_align+0x74>
     16e:	0002                	c.slli64	zero
     170:	0100                	addi	s0,sp,128
     172:	02e9015b          	.insn	4, 0x02e9015b
     176:	0000                	unimp
     178:	5c01                	li	s8,-32
     17a:	0000                	unimp
     17c:	3112                	fld	ft2,288(sp)
     17e:	50000003          	lb	zero,1280(zero) # 500 <__stack_align+0x4f0>
     182:	0002                	c.slli64	zero
     184:	0080                	addi	s0,sp,64
     186:	0000                	unimp
     188:	0c00                	addi	s0,sp,528
     18a:	0000                	unimp
     18c:	0100                	addi	s0,sp,128
     18e:	0b22                	slli	s6,s6,0x8
     190:	01c8                	addi	a0,sp,196
     192:	0000                	unimp
     194:	4202                	lw	tp,0(sp)
     196:	6c000003          	lb	zero,1728(zero) # 6c0 <__stack_align+0x6b0>
     19a:	0000                	unimp
     19c:	1300                	addi	s0,sp,416
     19e:	000c                	.insn	2, 0x000c
     1a0:	0000                	unimp
     1a2:	4d0a                	lw	s10,128(sp)
     1a4:	14000003          	lb	zero,320(zero) # 140 <__stack_align+0x130>
     1a8:	0358                	addi	a4,sp,388
     1aa:	0000                	unimp
     1ac:	000c                	.insn	2, 0x000c
     1ae:	0000                	unimp
     1b0:	5901                	li	s2,-32
     1b2:	01000003          	lb	zero,16(zero) # 10 <__stack_align>
     1b6:	015a                	slli	sp,sp,0x16
     1b8:	0365                	addi	t1,t1,25 # 135 <__stack_align+0x125>
     1ba:	0000                	unimp
     1bc:	5b01                	li	s6,-32
     1be:	7001                	c.lui	zero,0xfffe0
     1c0:	01000003          	lb	zero,16(zero) # 10 <__stack_align>
     1c4:	005c                	addi	a5,sp,4
     1c6:	0000                	unimp
     1c8:	7d08                	ld	a0,56(a0)
     1ca:	70000003          	lb	zero,1792(zero) # 700 <__stack_align+0x6f0>
     1ce:	0002                	c.slli64	zero
     1d0:	0080                	addi	s0,sp,64
     1d2:	0000                	unimp
     1d4:	0800                	addi	s0,sp,16
     1d6:	0000                	unimp
     1d8:	0000                	unimp
     1da:	0000                	unimp
     1dc:	2700                	fld	fs0,8(a4)
     1de:	0219                	addi	tp,tp,6 # 6 <__boot_hart+0x6>
     1e0:	0000                	unimp
     1e2:	9102                	jalr	sp
     1e4:	7a000003          	lb	zero,1952(zero) # 7a0 <__stack_align+0x790>
     1e8:	0000                	unimp
     1ea:	0200                	addi	s0,sp,256
     1ec:	0386                	slli	t2,t2,0x1
     1ee:	0000                	unimp
     1f0:	0088                	addi	a0,sp,64
     1f2:	0000                	unimp
     1f4:	9c05                	subw	s0,s0,s1
     1f6:	70000003          	lb	zero,1792(zero) # 700 <__stack_align+0x6f0>
     1fa:	0002                	c.slli64	zero
     1fc:	0080                	addi	s0,sp,64
     1fe:	0000                	unimp
     200:	0800                	addi	s0,sp,16
     202:	0000                	unimp
     204:	0000                	unimp
     206:	0000                	unimp
     208:	0100                	addi	s0,sp,128
     20a:	039d                	addi	t2,t2,7
     20c:	0000                	unimp
     20e:	5b01                	li	s6,-32
     210:	a801                	j	220 <__stack_align+0x210>
     212:	01000003          	lb	zero,16(zero) # 10 <__stack_align>
     216:	005c                	addi	a5,sp,4
     218:	0800                	addi	s0,sp,16
     21a:	02bd                	addi	t0,t0,15
     21c:	0000                	unimp
     21e:	0278                	addi	a4,sp,268
     220:	8000                	.insn	2, 0x8000
     222:	0000                	unimp
     224:	0000                	unimp
     226:	0008                	.insn	2, 0x0008
     228:	0000                	unimp
     22a:	0000                	unimp
     22c:	0000                	unimp
     22e:	6a28                	ld	a0,80(a2)
     230:	0002                	c.slli64	zero
     232:	0200                	addi	s0,sp,256
     234:	02d2                	slli	t0,t0,0x14
     236:	0000                	unimp
     238:	0096                	slli	ra,ra,0x5
     23a:	0000                	unimp
     23c:	c702                	sw	zero,140(sp)
     23e:	0002                	c.slli64	zero
     240:	a400                	fsd	fs0,8(s0)
     242:	0000                	unimp
     244:	0500                	addi	s0,sp,640
     246:	02dd                	addi	t0,t0,23
     248:	0000                	unimp
     24a:	0278                	addi	a4,sp,268
     24c:	8000                	.insn	2, 0x8000
     24e:	0000                	unimp
     250:	0000                	unimp
     252:	0008                	.insn	2, 0x0008
     254:	0000                	unimp
     256:	0000                	unimp
     258:	0000                	unimp
     25a:	de01                	beqz	a2,172 <__stack_align+0x162>
     25c:	0002                	c.slli64	zero
     25e:	0100                	addi	s0,sp,128
     260:	02e9015b          	.insn	4, 0x02e9015b
     264:	0000                	unimp
     266:	5c01                	li	s8,-32
     268:	0000                	unimp
     26a:	3115                	addiw	sp,sp,-27
     26c:	80000003          	lb	zero,-2048(zero) # fffffffffffff800 <__heap_end+0xffffffff7ffdd800>
     270:	0002                	c.slli64	zero
     272:	0080                	addi	s0,sp,64
     274:	0000                	unimp
     276:	0800                	addi	s0,sp,16
     278:	0000                	unimp
     27a:	0000                	unimp
     27c:	0000                	unimp
     27e:	0100                	addi	s0,sp,128
     280:	0b29                	addi	s6,s6,10
     282:	4202                	lw	tp,0(sp)
     284:	b2000003          	lb	zero,-1248(zero) # fffffffffffffb20 <__heap_end+0xffffffff7ffddb20>
     288:	0000                	unimp
     28a:	0a00                	addi	s0,sp,272
     28c:	034d                	addi	t1,t1,19
     28e:	0000                	unimp
     290:	5805                	li	a6,-31
     292:	80000003          	lb	zero,-2048(zero) # fffffffffffff800 <__heap_end+0xffffffff7ffdd800>
     296:	0002                	c.slli64	zero
     298:	0080                	addi	s0,sp,64
     29a:	0000                	unimp
     29c:	0800                	addi	s0,sp,16
     29e:	0000                	unimp
     2a0:	0000                	unimp
     2a2:	0000                	unimp
     2a4:	0100                	addi	s0,sp,128
     2a6:	0359                	addi	t1,t1,22
     2a8:	0000                	unimp
     2aa:	5a01                	li	s4,-32
     2ac:	6501                	.insn	2, 0x6501
     2ae:	01000003          	lb	zero,16(zero) # 10 <__stack_align>
     2b2:	0370015b          	.insn	4, 0x0370015b
     2b6:	0000                	unimp
     2b8:	5c01                	li	s8,-32
     2ba:	0000                	unimp
     2bc:	0b00                	addi	s0,sp,400
     2be:	0029                	c.nop	10
     2c0:	0000                	unimp
     2c2:	f615                	bnez	a2,1ee <__stack_align+0x1de>
     2c4:	0002                	c.slli64	zero
     2c6:	0600                	addi	s0,sp,768
     2c8:	6469                	lui	s0,0x1a
     2ca:	0078                	addi	a4,sp,12
     2cc:	2215                	addiw	tp,tp,5 # 5 <__boot_hart+0x5>
     2ce:	0046                	c.slli	zero,0x11
     2d0:	0000                	unimp
     2d2:	1d0c                	addi	a1,sp,688
     2d4:	0000                	unimp
     2d6:	1500                	addi	s0,sp,672
     2d8:	6735                	lui	a4,0xd
     2da:	0000                	unimp
     2dc:	0900                	addi	s0,sp,144
     2de:	00000003          	lb	zero,0(zero) # 0 <__boot_hart>
     2e2:	1700                	addi	s0,sp,928
     2e4:	7a02                	ld	s4,32(sp)
     2e6:	0000                	unimp
     2e8:	0300                	addi	s0,sp,384
     2ea:	0054                	addi	a3,sp,4
     2ec:	0000                	unimp
     2ee:	007a0217          	auipc	tp,0x7a0
     2f2:	0000                	unimp
     2f4:	0000                	unimp
     2f6:	00012c0b          	.insn	4, 0x00012c0b
     2fa:	0f00                	addi	s0,sp,912
     2fc:	0000032f          	.insn	4, 0x032f
     300:	6906                	ld	s2,64(sp)
     302:	7864                	ld	s1,240(s0)
     304:	0f00                	addi	s0,sp,912
     306:	00004623          	.insn	4, 0x4623
     30a:	0600                	addi	s0,sp,768
     30c:	7470                	ld	a2,232(s0)
     30e:	0072                	c.slli	zero,0x1c
     310:	032f2e0f          	.insn	4, 0x032f2e0f
     314:	0000                	unimp
     316:	0309                	addi	t1,t1,2
     318:	0000                	unimp
     31a:	0000                	unimp
     31c:	0212                	slli	tp,tp,0x4
     31e:	007a                	c.slli	zero,0x1e
     320:	0000                	unimp
     322:	00005403          	lhu	s0,0(zero) # 0 <__boot_hart>
     326:	1200                	addi	s0,sp,288
     328:	7a02                	ld	s4,32(sp)
     32a:	0000                	unimp
     32c:	0000                	unimp
     32e:	1600                	addi	s0,sp,800
     330:	1708                	addi	a0,sp,928
     332:	0060                	addi	s0,sp,12
     334:	0000                	unimp
     336:	0801                	addi	a6,a6,0
     338:	671d                	lui	a4,0x7
     33a:	0000                	unimp
     33c:	0300                	addi	s0,sp,384
     33e:	037d                	addi	t1,t1,31
     340:	0000                	unimp
     342:	6906                	ld	s2,64(sp)
     344:	7864                	ld	s1,240(s0)
     346:	0800                	addi	s0,sp,16
     348:	462c                	lw	a1,72(a2)
     34a:	0000                	unimp
     34c:	0300                	addi	s0,sp,384
     34e:	0000006b          	.insn	4, 0x006b
     352:	100a                	c.slli	zero,0x22
     354:	00000067          	jr	zero # 0 <__boot_hart>
     358:	1809                	addi	a6,a6,-30
     35a:	6472                	ld	s0,280(sp)
     35c:	005f 0b01 7a02      	.insn	6, 0x7a020b01005f
     362:	0000                	unimp
     364:	0300                	addi	s0,sp,384
     366:	0000                	unimp
     368:	0000                	unimp
     36a:	007a020b          	.insn	4, 0x007a020b
     36e:	0000                	unimp
     370:	00005403          	lhu	s0,0(zero) # 0 <__boot_hart>
     374:	0b00                	addi	s0,sp,400
     376:	7a02                	ld	s4,32(sp)
     378:	0000                	unimp
     37a:	0000                	unimp
     37c:	1900                	addi	s0,sp,176
     37e:	0011                	c.nop	4
     380:	0000                	unimp
     382:	0301                	addi	t1,t1,0
     384:	0314                	addi	a3,sp,384
     386:	6906                	ld	s2,64(sp)
     388:	7864                	ld	s1,240(s0)
     38a:	0300                	addi	s0,sp,384
     38c:	4624                	lw	s1,72(a2)
     38e:	0000                	unimp
     390:	0c00                	addi	s0,sp,528
     392:	0024                	addi	s1,sp,8
     394:	0000                	unimp
     396:	00673703          	ld	a4,6(a4) # 7006 <__stack_size_min+0x1006>
     39a:	0000                	unimp
     39c:	0309                	addi	t1,t1,2
     39e:	0000                	unimp
     3a0:	0000                	unimp
     3a2:	0205                	addi	tp,tp,1 # 7a02ef <__heap_size+0x7802ef>
     3a4:	007a                	c.slli	zero,0x1e
     3a6:	0000                	unimp
     3a8:	00005403          	lhu	s0,0(zero) # 0 <__boot_hart>
     3ac:	0500                	addi	s0,sp,640
     3ae:	7a02                	ld	s4,32(sp)
     3b0:	0000                	unimp
     3b2:	0000                	unimp
     3b4:	0000                	unimp
     3b6:	0025                	c.nop	9
     3b8:	0000                	unimp
     3ba:	0005                	c.nop	1
     3bc:	0801                	addi	a6,a6,0
     3be:	016e                	slli	sp,sp,0x1b
     3c0:	0000                	unimp
     3c2:	b701                	j	2c2 <__stack_align+0x2b2>
     3c4:	0001                	nop
     3c6:	0000                	unimp
     3c8:	0000                	unimp
     3ca:	0080                	addi	s0,sp,64
     3cc:	0000                	unimp
     3ce:	9800                	.insn	2, 0x9800
     3d0:	3704                	fld	fs1,40(a4)
     3d2:	0001                	nop
     3d4:	4600                	lw	s0,8(a2)
     3d6:	0001                	nop
     3d8:	8e00                	.insn	2, 0x8e00
     3da:	0001                	nop
     3dc:	0100                	addi	s0,sp,128
     3de:	2480                	fld	fs0,8(s1)
     3e0:	0000                	unimp
     3e2:	0500                	addi	s0,sp,640
     3e4:	0100                	addi	s0,sp,128
     3e6:	8208                	.insn	2, 0x8208
     3e8:	0001                	nop
     3ea:	0100                	addi	s0,sp,128
     3ec:	05e9                	addi	a1,a1,26
     3ee:	0000                	unimp
     3f0:	01ee                	slli	gp,gp,0x1b
     3f2:	8000                	.insn	2, 0x8000
     3f4:	0000                	unimp
     3f6:	0000                	unimp
     3f8:	9a62                	add	s4,s4,s8
     3fa:	0001                	nop
     3fc:	4600                	lw	s0,8(a2)
     3fe:	0001                	nop
     400:	8e00                	.insn	2, 0x8e00
     402:	0001                	nop
     404:	0100                	addi	s0,sp,128
     406:	3680                	fld	fs0,40(a3)
     408:	0001                	nop
     40a:	0500                	addi	s0,sp,640
     40c:	0100                	addi	s0,sp,128
     40e:	9608                	.insn	2, 0x9608
     410:	0001                	nop
     412:	0400                	addi	s0,sp,512
     414:	01e2                	slli	gp,gp,0x18
     416:	0000                	unimp
     418:	ee1d                	bnez	a2,456 <__stack_align+0x446>
     41a:	0001                	nop
     41c:	8d00                	.insn	2, 0x8d00
     41e:	0001                	nop
     420:	9800                	.insn	2, 0x9800
     422:	0002                	c.slli64	zero
     424:	0080                	addi	s0,sp,64
     426:	0000                	unimp
     428:	1600                	addi	s0,sp,800
     42a:	0000                	unimp
     42c:	0000                	unimp
     42e:	0000                	unimp
     430:	4900                	lw	s0,16(a0)
     432:	0006                	c.slli	zero,0x1
     434:	0100                	addi	s0,sp,128
     436:	0601                	addi	a2,a2,0
     438:	0035                	c.nop	13
     43a:	0000                	unimp
     43c:	0101                	addi	sp,sp,0
     43e:	3308                	fld	fa0,32(a4)
     440:	0000                	unimp
     442:	0100                	addi	s0,sp,128
     444:	0502                	c.slli64	a0
     446:	00000117          	auipc	sp,0x0
     44a:	0201                	addi	tp,tp,0 # 0 <__boot_hart>
     44c:	00004107          	.insn	4, 0x4107
     450:	0500                	addi	s0,sp,640
     452:	0504                	addi	s1,sp,640
     454:	6e69                	lui	t3,0x1a
     456:	0074                	addi	a3,sp,12
     458:	0401                	addi	s0,s0,0 # 1a000 <__stack_size+0x12000>
     45a:	0002b607          	fld	fa2,0(t0)
     45e:	0100                	addi	s0,sp,128
     460:	0508                	addi	a0,sp,640
     462:	01d9                	addi	gp,gp,22 # 800017ce <__global_pointer$+0x16>
     464:	0000                	unimp
     466:	0801                	addi	a6,a6,0
     468:	0002b107          	fld	ft2,0(t0)
     46c:	0200                	addi	s0,sp,256
     46e:	01c4                	addi	s1,sp,196
     470:	0000                	unimp
     472:	e602                	sd	zero,264(sp)
     474:	5819                	li	a6,-26
     476:	0000                	unimp
     478:	0200                	addi	s0,sp,256
     47a:	0005                	c.nop	1
     47c:	0000                	unimp
     47e:	e802                	sd	zero,16(sp)
     480:	5f1a                	lw	t5,164(sp)
     482:	0000                	unimp
     484:	0200                	addi	s0,sp,256
     486:	01c6                	slli	gp,gp,0x11
     488:	0000                	unimp
     48a:	66144d03          	lbu	s10,1633(s0)
     48e:	0000                	unimp
     490:	0200                	addi	s0,sp,256
     492:	00000007          	.insn	4, 0x0007
     496:	72155203          	lhu	tp,1825(a0)
     49a:	0000                	unimp
     49c:	0100                	addi	s0,sp,128
     49e:	0508                	addi	a0,sp,640
     4a0:	01d4                	addi	a3,sp,196
     4a2:	0000                	unimp
     4a4:	1001                	c.nop	-32
     4a6:	7504                	ld	s1,40(a0)
     4a8:	0002                	c.slli64	zero
     4aa:	0100                	addi	s0,sp,128
     4ac:	0801                	addi	a6,a6,0
     4ae:	003c                	addi	a5,sp,8
     4b0:	0000                	unimp
     4b2:	be06                	fsd	ft1,312(sp)
     4b4:	0001                	nop
     4b6:	0400                	addi	s0,sp,512
     4b8:	0d41                	addi	s10,s10,16
     4ba:	00bd                	addi	ra,ra,15
     4bc:	0000                	unimp
     4be:	00004a07          	.insn	4, 0x4a07
     4c2:	0000                	unimp
     4c4:	ac08                	fsd	fa0,24(s0)
     4c6:	0001                	nop
     4c8:	0100                	addi	s0,sp,128
     4ca:	1c04                	addi	s1,sp,560
     4cc:	0298                	addi	a4,sp,320
     4ce:	8000                	.insn	2, 0x8000
     4d0:	0000                	unimp
     4d2:	0000                	unimp
     4d4:	0016                	c.slli	zero,0x5
     4d6:	0000                	unimp
     4d8:	0000                	unimp
     4da:	0000                	unimp
     4dc:	9c01                	subw	s0,s0,s0
     4de:	00000133          	add	sp,zero,zero
     4e2:	6509                	lui	a0,0x2
     4e4:	6370                	ld	a2,192(a4)
     4e6:	0100                	addi	s0,sp,128
     4e8:	3204                	fld	fs1,32(a2)
     4ea:	008a                	slli	ra,ra,0x2
     4ec:	0000                	unimp
     4ee:	00cc                	addi	a1,sp,68
     4f0:	0000                	unimp
     4f2:	0001b803          	ld	a6,0(gp) # 800017b8 <__global_pointer$>
     4f6:	4100                	lw	s0,0(a0)
     4f8:	008a                	slli	ra,ra,0x2
     4fa:	0000                	unimp
     4fc:	00da                	slli	ra,ra,0x16
     4fe:	0000                	unimp
     500:	00028103          	lb	sp,0(t0)
     504:	5200                	lw	s0,32(a2)
     506:	008a                	slli	ra,ra,0x2
     508:	0000                	unimp
     50a:	00e8                	addi	a0,sp,76
     50c:	0000                	unimp
     50e:	0001cf03          	lbu	t5,0(gp) # 800017b8 <__global_pointer$>
     512:	6200                	ld	s0,0(a2)
     514:	00000133          	add	sp,zero,zero
     518:	00f6                	slli	ra,ra,0x1d
     51a:	0000                	unimp
     51c:	700a                	.insn	2, 0x700a
     51e:	0002                	c.slli64	zero
     520:	0100                	addi	s0,sp,128
     522:	004a0907          	.insn	4, 0x004a0907
     526:	0000                	unimp
     528:	0104                	addi	s1,sp,128
     52a:	0000                	unimp
     52c:	0002ae0b          	.insn	4, 0x0002ae0b
     530:	0080                	addi	s0,sp,64
     532:	0000                	unimp
     534:	ab00                	fsd	fs0,16(a4)
     536:	0000                	unimp
     538:	0000                	unimp
     53a:	080c                	addi	a1,sp,16
     53c:	008a                	slli	ra,ra,0x2
     53e:	0000                	unimp
     540:	6500                	ld	s0,8(a0)
     542:	0001                	nop
     544:	0500                	addi	s0,sp,640
     546:	0100                	addi	s0,sp,128
     548:	5008                	lw	a0,32(s0)
     54a:	0002                	c.slli64	zero
     54c:	0800                	addi	s0,sp,16
     54e:	01e2                	slli	gp,gp,0x18
     550:	0000                	unimp
     552:	131d                	addi	t1,t1,-25
     554:	0002                	c.slli64	zero
     556:	8d00                	.insn	2, 0x8d00
     558:	0001                	nop
     55a:	ae00                	fsd	fs0,24(a2)
     55c:	0002                	c.slli64	zero
     55e:	0080                	addi	s0,sp,64
     560:	0000                	unimp
     562:	2e00                	fld	fs0,24(a2)
	...
     56c:	01000007          	.insn	4, 0x01000007
     570:	0508                	addi	a0,sp,640
     572:	01d9                	addi	gp,gp,22 # 800017ce <__global_pointer$+0x16>
     574:	0000                	unimp
     576:	b509                	j	378 <__stack_align+0x368>
     578:	03000003          	lb	zero,48(zero) # 30 <__stack_align+0x20>
     57c:	17d6                	slli	a5,a5,0x35
     57e:	0041                	c.nop	16
     580:	0000                	unimp
     582:	0801                	addi	a6,a6,0
     584:	0002b107          	fld	ft2,0(t0)
     588:	0a00                	addi	s0,sp,272
     58a:	0504                	addi	s1,sp,640
     58c:	6e69                	lui	t3,0x1a
     58e:	0074                	addi	a3,sp,12
     590:	0801                	addi	a6,a6,0
     592:	d405                	beqz	s0,4ba <__stack_align+0x4aa>
     594:	0001                	nop
     596:	0100                	addi	s0,sp,128
     598:	0410                	addi	a2,sp,512
     59a:	0275                	addi	tp,tp,29 # 1d <__stack_align+0xd>
     59c:	0000                	unimp
     59e:	0401                	addi	s0,s0,0
     5a0:	0002b607          	fld	fa2,0(t0)
     5a4:	0100                	addi	s0,sp,128
     5a6:	0601                	addi	a2,a2,0
     5a8:	0035                	c.nop	13
     5aa:	0000                	unimp
     5ac:	0101                	addi	sp,sp,0 # 446 <__stack_align+0x436>
     5ae:	3308                	fld	fa0,32(a4)
     5b0:	0000                	unimp
     5b2:	0100                	addi	s0,sp,128
     5b4:	0502                	c.slli64	a0
     5b6:	00000117          	auipc	sp,0x0
     5ba:	0201                	addi	tp,tp,0 # 0 <__boot_hart>
     5bc:	00004107          	.insn	4, 0x4107
     5c0:	0b00                	addi	s0,sp,400
     5c2:	0408                	addi	a0,sp,512
     5c4:	0080                	addi	s0,sp,64
     5c6:	0000                	unimp
     5c8:	8c05                	sub	s0,s0,s1
     5ca:	0000                	unimp
     5cc:	0100                	addi	s0,sp,128
     5ce:	0801                	addi	a6,a6,0
     5d0:	003c                	addi	a5,sp,8
     5d2:	0000                	unimp
     5d4:	0801                	addi	a6,a6,0
     5d6:	0002ac07          	flw	fs8,0(t0)
     5da:	0600                	addi	s0,sp,768
     5dc:	02f2                	slli	t0,t0,0x1c
     5de:	0000                	unimp
     5e0:	8021                	srli	s0,s0,0x8
     5e2:	0000                	unimp
     5e4:	b800                	fsd	fs0,48(s0)
     5e6:	0000                	unimp
     5e8:	0200                	addi	s0,sp,256
     5ea:	0080                	addi	s0,sp,64
     5ec:	0000                	unimp
     5ee:	4802                	lw	a6,0(sp)
     5f0:	0000                	unimp
     5f2:	0200                	addi	s0,sp,256
     5f4:	0035                	c.nop	13
     5f6:	0000                	unimp
     5f8:	0600                	addi	s0,sp,768
     5fa:	02dd                	addi	t0,t0,23
     5fc:	0000                	unimp
     5fe:	801f 0000 d600      	.insn	6, 0xd6000000801f
     604:	0000                	unimp
     606:	0200                	addi	s0,sp,256
     608:	0082                	c.slli64	ra
     60a:	0000                	unimp
     60c:	db02                	sw	zero,180(sp)
     60e:	0000                	unimp
     610:	0200                	addi	s0,sp,256
     612:	0035                	c.nop	13
     614:	0000                	unimp
     616:	0500                	addi	s0,sp,640
     618:	00e0                	addi	s0,sp,76
     61a:	0000                	unimp
     61c:	d604                	sw	s1,40(a2)
     61e:	0000                	unimp
     620:	0c00                	addi	s0,sp,528
     622:	860d                	srai	a2,a2,0x3
     624:	0002                	c.slli64	zero
     626:	0100                	addi	s0,sp,128
     628:	02ae0603          	lb	a2,42(t3) # 1a02a <__stack_size+0x1202a>
     62c:	8000                	.insn	2, 0x8000
     62e:	0000                	unimp
     630:	0000                	unimp
     632:	002e                	c.slli	zero,0xb
     634:	0000                	unimp
     636:	0000                	unimp
     638:	0000                	unimp
     63a:	9c01                	subw	s0,s0,s0
     63c:	0161                	addi	sp,sp,24 # 5ce <__stack_align+0x5be>
     63e:	0000                	unimp
     640:	c30e                	sw	gp,132(sp)
     642:	0002                	c.slli64	zero
     644:	0100                	addi	s0,sp,128
     646:	1405                	addi	s0,s0,-31
     648:	00000087          	.insn	4, 0x0087
     64c:	5401                	li	s0,-32
     64e:	0002e403          	lwu	s0,0(t0)
     652:	0600                	addi	s0,sp,768
     654:	0161                	addi	sp,sp,24
     656:	0000                	unimp
     658:	00029e03          	lh	t3,0(t0)
     65c:	0700                	addi	s0,sp,896
     65e:	0161                	addi	sp,sp,24
     660:	0000                	unimp
     662:	00029103          	lh	sp,0(t0)
     666:	0800                	addi	s0,sp,16
     668:	0161                	addi	sp,sp,24
     66a:	0000                	unimp
     66c:	0002d103          	lhu	sp,0(t0)
     670:	0900                	addi	s0,sp,144
     672:	0161                	addi	sp,sp,24
     674:	0000                	unimp
     676:	0002c80f          	.insn	4, 0x0002c80f
     67a:	0080                	addi	s0,sp,64
     67c:	0000                	unimp
     67e:	b800                	fsd	fs0,48(s0)
     680:	0000                	unimp
     682:	4d00                	lw	s0,24(a0)
     684:	0001                	nop
     686:	0700                	addi	s0,sp,896
     688:	5a01                	li	s4,-32
     68a:	7802                	ld	a6,32(sp)
     68c:	0000                	unimp
     68e:	dc10                	sw	a2,56(s0)
     690:	0002                	c.slli64	zero
     692:	0080                	addi	s0,sp,64
     694:	0000                	unimp
     696:	9a00                	.insn	2, 0x9a00
     698:	0000                	unimp
     69a:	0700                	addi	s0,sp,896
     69c:	5b01                	li	s6,-32
     69e:	3001                	.insn	2, 0x3001
     6a0:	0000                	unimp
     6a2:	8c11                	sub	s0,s0,a2
     6a4:	0000                	unimp
     6a6:	1200                	addi	s0,sp,288
     6a8:	0000                	unimp
     6aa:	0045                	c.nop	17
     6ac:	0000                	unimp
     6ae:	0005                	c.nop	1
     6b0:	0801                	addi	a6,a6,0
     6b2:	00000333          	add	t1,zero,zero
     6b6:	e201                	bnez	a2,6b6 <__stack_align+0x6a6>
     6b8:	0001                	nop
     6ba:	1d00                	addi	s0,sp,688
     6bc:	0304                	addi	s1,sp,384
     6be:	0000                	unimp
     6c0:	018d                	addi	gp,gp,3 # 800017bb <__global_pointer$+0x3>
     6c2:	0000                	unimp
     6c4:	02dc                	addi	a5,sp,324
     6c6:	8000                	.insn	2, 0x8000
     6c8:	0000                	unimp
     6ca:	0000                	unimp
     6cc:	0006                	c.slli	zero,0x1
     6ce:	0000                	unimp
     6d0:	0000                	unimp
     6d2:	0000                	unimp
     6d4:	07df 0000 f902      	.insn	6, 0xf902000007df
     6da:	0002                	c.slli64	zero
     6dc:	0100                	addi	s0,sp,128
     6de:	02dc2707          	flw	fa4,45(s8) # fffffffffffe802d <__heap_end+0xffffffff7ffc602d>
     6e2:	8000                	.insn	2, 0x8000
     6e4:	0000                	unimp
     6e6:	0000                	unimp
     6e8:	0006                	c.slli	zero,0x1
     6ea:	0000                	unimp
     6ec:	0000                	unimp
     6ee:	0000                	unimp
     6f0:	9c01                	subw	s0,s0,s0
     6f2:	e000                	sd	s0,0(s0)
     6f4:	0000                	unimp
     6f6:	0500                	addi	s0,sp,640
     6f8:	0100                	addi	s0,sp,128
     6fa:	6308                	ld	a0,0(a4)
     6fc:	04000003          	lb	zero,64(zero) # 40 <__stack_align+0x30>
     700:	01e2                	slli	gp,gp,0x18
     702:	0000                	unimp
     704:	131d                	addi	t1,t1,-25
     706:	8d000003          	lb	zero,-1840(zero) # fffffffffffff8d0 <__heap_end+0xffffffff7ffdd8d0>
     70a:	0001                	nop
     70c:	e200                	sd	s0,0(a2)
     70e:	0002                	c.slli64	zero
     710:	0080                	addi	s0,sp,64
     712:	0000                	unimp
     714:	2200                	fld	fs0,0(a2)
     716:	0000                	unimp
     718:	0000                	unimp
     71a:	0000                	unimp
     71c:	4900                	lw	s0,16(a0)
     71e:	0008                	.insn	2, 0x0008
     720:	0100                	addi	s0,sp,128
     722:	0508                	addi	a0,sp,640
     724:	01d9                	addi	gp,gp,22 # 800017ce <__global_pointer$+0x16>
     726:	0000                	unimp
     728:	0801                	addi	a6,a6,0
     72a:	0002b107          	fld	ft2,0(t0)
     72e:	0500                	addi	s0,sp,640
     730:	0504                	addi	s1,sp,640
     732:	6e69                	lui	t3,0x1a
     734:	0074                	addi	a3,sp,12
     736:	0801                	addi	a6,a6,0
     738:	d405                	beqz	s0,660 <__stack_align+0x650>
     73a:	0001                	nop
     73c:	0100                	addi	s0,sp,128
     73e:	0410                	addi	a2,sp,512
     740:	0275                	addi	tp,tp,29 # 1d <__stack_align+0xd>
     742:	0000                	unimp
     744:	0101                	addi	sp,sp,0
     746:	3506                	fld	fa0,96(sp)
     748:	0000                	unimp
     74a:	0100                	addi	s0,sp,128
     74c:	0801                	addi	a6,a6,0
     74e:	00000033          	add	zero,zero,zero
     752:	0201                	addi	tp,tp,0 # 0 <__boot_hart>
     754:	1705                	addi	a4,a4,-31
     756:	0001                	nop
     758:	0100                	addi	s0,sp,128
     75a:	0702                	c.slli64	a4
     75c:	0041                	c.nop	16
     75e:	0000                	unimp
     760:	0401                	addi	s0,s0,0
     762:	0002b607          	fld	fa2,0(t0)
     766:	0200                	addi	s0,sp,256
     768:	0121                	addi	sp,sp,8
     76a:	0000                	unimp
     76c:	6902                	ld	s2,0(sp)
     76e:	3519                	addiw	a0,a0,-26 # 1fe6 <__stack_align+0x1fd6>
     770:	0000                	unimp
     772:	0200                	addi	s0,sp,256
     774:	00000123          	sb	zero,2(zero) # 2 <__boot_hart+0x2>
     778:	74143c03          	ld	s8,1857(s0)
     77c:	0000                	unimp
     77e:	0600                	addi	s0,sp,768
     780:	0080                	addi	s0,sp,64
     782:	0000                	unimp
     784:	0101                	addi	sp,sp,0
     786:	3c08                	fld	fa0,56(s0)
     788:	0000                	unimp
     78a:	0300                	addi	s0,sp,384
     78c:	0300                	addi	s0,sp,384
     78e:	0000                	unimp
     790:	8c06                	mv	s8,ra
     792:	0000                	unimp
     794:	0300                	addi	s0,sp,384
     796:	00000307          	.insn	4, 0x0307
     79a:	00008c07          	.insn	4, 0x8c07
     79e:	0700                	addi	s0,sp,896
     7a0:	01be                	slli	gp,gp,0xf
     7a2:	0000                	unimp
     7a4:	0401                	addi	s0,s0,0
     7a6:	e221                	bnez	a2,7e6 <__stack_align+0x7d6>
     7a8:	0002                	c.slli64	zero
     7aa:	0080                	addi	s0,sp,64
     7ac:	0000                	unimp
     7ae:	2200                	fld	fs0,0(a2)
     7b0:	0000                	unimp
     7b2:	0000                	unimp
     7b4:	0000                	unimp
     7b6:	0100                	addi	s0,sp,128
     7b8:	089c                	addi	a5,sp,80
     7ba:	0270                	addi	a2,sp,268
     7bc:	0000                	unimp
     7be:	0401                	addi	s0,s0,0
     7c0:	00003c2b          	.insn	4, 0x3c2b
     7c4:	0100                	addi	s0,sp,128
     7c6:	095a                	slli	s2,s2,0x16
     7c8:	00646d63          	bltu	s0,t1,7e2 <__stack_align+0x7d2>
     7cc:	0601                	addi	a2,a2,0
     7ce:	800e                	c.mv	zero,gp
     7d0:	0000                	unimp
     7d2:	0100                	addi	s0,sp,128
     7d4:	005f 3c00 0003      	.insn	6, 0x00033c00005f
     7da:	0500                	addi	s0,sp,640
     7dc:	0100                	addi	s0,sp,128
     7de:	f608                	sd	a0,40(a2)
     7e0:	12000003          	lb	zero,288(zero) # 120 <__stack_align+0x110>
     7e4:	01e2                	slli	gp,gp,0x18
     7e6:	0000                	unimp
     7e8:	2f1d                	addiw	t5,t5,7
     7ea:	8d000003          	lb	zero,-1840(zero) # fffffffffffff8d0 <__heap_end+0xffffffff7ffdd8d0>
     7ee:	0001                	nop
     7f0:	0400                	addi	s0,sp,512
     7f2:	00800003          	lb	zero,8(zero) # 8 <__boot_hart+0x8>
     7f6:	0000                	unimp
     7f8:	4c00                	lw	s0,24(s0)
     7fa:	0000                	unimp
     7fc:	0000                	unimp
     7fe:	0000                	unimp
     800:	0800                	addi	s0,sp,16
     802:	0009                	c.nop	2
     804:	0200                	addi	s0,sp,256
     806:	0601                	addi	a2,a2,0
     808:	0035                	c.nop	13
     80a:	0000                	unimp
     80c:	0102                	c.slli64	sp
     80e:	3308                	fld	fa0,32(a4)
     810:	0000                	unimp
     812:	0200                	addi	s0,sp,256
     814:	0502                	c.slli64	a0
     816:	00000117          	auipc	sp,0x0
     81a:	0202                	c.slli64	tp
     81c:	00004107          	.insn	4, 0x4107
     820:	0100                	addi	s0,sp,128
     822:	0000031b          	sext.w	t1,zero
     826:	4d04                	lw	s1,24(a0)
     828:	5618                	lw	a4,40(a2)
     82a:	0000                	unimp
     82c:	1300                	addi	s0,sp,416
     82e:	0504                	addi	s1,sp,640
     830:	6e69                	lui	t3,0x1a
     832:	0074                	addi	a3,sp,12
     834:	0402                	c.slli64	s0
     836:	0002b607          	fld	fa2,0(t0)
     83a:	0200                	addi	s0,sp,256
     83c:	0508                	addi	a0,sp,640
     83e:	01d9                	addi	gp,gp,22 # 800017ce <__global_pointer$+0x16>
     840:	0000                	unimp
     842:	2101                	sext.w	sp,sp
     844:	0001                	nop
     846:	0400                	addi	s0,sp,512
     848:	1969                	addi	s2,s2,-6 # ffa <__stack_align+0xfea>
     84a:	00000077          	.insn	4, 0x0077
     84e:	0802                	c.slli64	a6
     850:	0002b107          	fld	ft2,0(t0)
     854:	0100                	addi	s0,sp,128
     856:	0005                	c.nop	1
     858:	0000                	unimp
     85a:	e804                	sd	s1,16(s0)
     85c:	771a                	ld	a4,416(sp)
     85e:	0000                	unimp
     860:	0100                	addi	s0,sp,128
     862:	031d                	addi	t1,t1,7
     864:	0000                	unimp
     866:	2c05                	addiw	s8,s8,1
     868:	00004a13          	xori	s4,zero,0
     86c:	0100                	addi	s0,sp,128
     86e:	00000123          	sb	zero,2(zero) # 2 <__boot_hart+0x2>
     872:	3c05                	addiw	s8,s8,-31
     874:	6b14                	ld	a3,16(a4)
     876:	0000                	unimp
     878:	0800                	addi	s0,sp,16
     87a:	0096                	slli	ra,ra,0x5
     87c:	0000                	unimp
     87e:	0701                	addi	a4,a4,0
     880:	0000                	unimp
     882:	0500                	addi	s0,sp,640
     884:	1552                	slli	a0,a0,0x34
     886:	007e                	c.slli	zero,0x1f
     888:	0000                	unimp
     88a:	5001                	c.li	zero,-32
     88c:	02000003          	lb	zero,32(zero) # 20 <__stack_align+0x10>
     890:	008a111b          	slliw	sp,s4,0x8
     894:	0000                	unimp
     896:	b314                	fsd	fa3,32(a4)
     898:	0000                	unimp
     89a:	1500                	addi	s0,sp,672
     89c:	0304                	addi	s1,sp,384
     89e:	0906                	slli	s2,s2,0x1
     8a0:	000000db          	.insn	4, 0x00db
     8a4:	2a16                	fld	fs4,320(sp)
     8a6:	03000003          	lb	zero,48(zero) # 30 <__stack_align+0x20>
     8aa:	00b30e07          	.insn	4, 0x00b30e07
     8ae:	0000                	unimp
     8b0:	0000                	unimp
     8b2:	1001                	c.nop	-32
     8b4:	03000003          	lb	zero,48(zero) # 30 <__stack_align+0x20>
     8b8:	0308                	addi	a0,sp,384
     8ba:	00c4                	addi	s1,sp,68
     8bc:	0000                	unimp
     8be:	0009                	c.nop	2
     8c0:	06000003          	lb	zero,96(zero) # 60 <__stack_align+0x50>
     8c4:	00a2                	slli	ra,ra,0x8
     8c6:	0000                	unimp
     8c8:	0709                	addi	a4,a4,2
     8ca:	07000003          	lb	zero,112(zero) # 70 <__stack_align+0x60>
     8ce:	00a2                	slli	ra,ra,0x8
     8d0:	0000                	unimp
     8d2:	e70a                	sd	sp,392(sp)
     8d4:	0000                	unimp
     8d6:	0700                	addi	s0,sp,896
     8d8:	0309                	addi	t1,t1,2
     8da:	0f00                	addi	s0,sp,912
     8dc:	8000                	.insn	2, 0x8000
     8de:	0000                	unimp
     8e0:	0000                	unimp
     8e2:	f10a                	sd	sp,160(sp)
     8e4:	0000                	unimp
     8e6:	0800                	addi	s0,sp,16
     8e8:	0309                	addi	t1,t1,2
     8ea:	0f08                	addi	a0,sp,912
     8ec:	8000                	.insn	2, 0x8000
     8ee:	0000                	unimp
     8f0:	0000                	unimp
     8f2:	00032517          	auipc	a0,0x32
     8f6:	0100                	addi	s0,sp,128
     8f8:	130a                	slli	t1,t1,0x22
     8fa:	000000db          	.insn	4, 0x00db
     8fe:	0309                	addi	t1,t1,2
     900:	0fe0                	addi	s0,sp,988
     902:	8000                	.insn	2, 0x8000
     904:	0000                	unimp
     906:	0000                	unimp
     908:	2f18                	fld	fa4,24(a4)
     90a:	01000003          	lb	zero,16(zero) # 10 <__stack_align>
     90e:	060c                	addi	a1,sp,768
     910:	0064                	addi	s1,sp,12
     912:	0000                	unimp
     914:	0304                	addi	s1,sp,384
     916:	8000                	.insn	2, 0x8000
     918:	0000                	unimp
     91a:	0000                	unimp
     91c:	004c                	addi	a1,sp,4
     91e:	0000                	unimp
     920:	0000                	unimp
     922:	0000                	unimp
     924:	9c01                	subw	s0,s0,s0
     926:	0289                	addi	t0,t0,2
     928:	0000                	unimp
     92a:	6105                	addi	sp,sp,32
     92c:	0030                	addi	a2,sp,8
     92e:	961c                	.insn	2, 0x961c
     930:	0000                	unimp
     932:	1600                	addi	s0,sp,800
     934:	0001                	nop
     936:	1900                	addi	s0,sp,176
     938:	3161                	addiw	sp,sp,-8 # 80e <__stack_align+0x7fe>
     93a:	0100                	addi	s0,sp,128
     93c:	290c                	fld	fa1,16(a0)
     93e:	0096                	slli	ra,ra,0x5
     940:	0000                	unimp
     942:	5b01                	li	s6,-32
     944:	6105                	addi	sp,sp,32
     946:	0032                	c.slli	zero,0xc
     948:	9636                	add	a2,a2,a3
     94a:	0000                	unimp
     94c:	2400                	fld	fs0,8(s0)
     94e:	0001                	nop
     950:	0500                	addi	s0,sp,640
     952:	006e                	c.slli	zero,0x1b
     954:	7748                	ld	a0,168(a4)
     956:	0000                	unimp
     958:	3800                	fld	fs0,48(s0)
     95a:	0001                	nop
     95c:	0b00                	addi	s0,sp,400
     95e:	7562                	ld	a0,56(sp)
     960:	0066                	c.slli	zero,0x19
     962:	170e                	slli	a4,a4,0x23
     964:	0299                	addi	t0,t0,6
     966:	0000                	unimp
     968:	9102                	jalr	sp
     96a:	0b40                	addi	s0,sp,404
     96c:	0f006373          	csrrsi	t1,0xf0,0
     970:	960e                	add	a2,a2,gp
     972:	0000                	unimp
     974:	0100                	addi	s0,sp,128
     976:	0c5c                	addi	a5,sp,532
     978:	02ba                	slli	t0,t0,0xe
     97a:	0000                	unimp
     97c:	031c                	addi	a5,sp,384
     97e:	8000                	.insn	2, 0x8000
     980:	0000                	unimp
     982:	0000                	unimp
     984:	000c                	.insn	2, 0x000c
     986:	0000                	unimp
     988:	0000                	unimp
     98a:	0000                	unimp
     98c:	00021717          	auipc	a4,0x21
     990:	0300                	addi	s0,sp,384
     992:	02c5                	addi	t0,t0,17
     994:	0000                	unimp
     996:	0146                	slli	sp,sp,0x11
     998:	0000                	unimp
     99a:	eb1a                	sd	t1,400(sp)
     99c:	0002                	c.slli64	zero
     99e:	1c00                	addi	s0,sp,560
     9a0:	00800003          	lb	zero,8(zero) # 8 <__boot_hart+0x8>
     9a4:	0000                	unimp
     9a6:	3300                	fld	fs0,32(a4)
     9a8:	0000                	unimp
     9aa:	0300                	addi	s0,sp,384
     9ac:	0e12                	slli	t3,t3,0x4
     9ae:	01f9                	addi	gp,gp,30 # 800017d6 <__global_pointer$+0x1e>
     9b0:	0000                	unimp
     9b2:	00030203          	lb	tp,0(t1)
     9b6:	5500                	lw	s0,40(a0)
     9b8:	0001                	nop
     9ba:	0300                	addi	s0,sp,384
     9bc:	02f9                	addi	t0,t0,30
     9be:	0000                	unimp
     9c0:	015d                	addi	sp,sp,23
     9c2:	0000                	unimp
     9c4:	0000331b          	.insn	4, 0x331b
     9c8:	1c00                	addi	s0,sp,560
     9ca:	0000030b          	.insn	4, 0x030b
     9ce:	0000                	unimp
     9d0:	160d                	addi	a2,a2,-29
     9d2:	1e000003          	lb	zero,480(zero) # 1e0 <__stack_align+0x1d0>
     9d6:	00800003          	lb	zero,8(zero) # 8 <__boot_hart+0x8>
     9da:	0000                	unimp
     9dc:	0200                	addi	s0,sp,256
     9de:	0000                	unimp
     9e0:	0000                	unimp
     9e2:	0000                	unimp
     9e4:	1000                	addi	s0,sp,32
     9e6:	1d10                	addi	a2,sp,688
     9e8:	0324                	addi	s1,sp,392
     9ea:	0000                	unimp
     9ec:	0000                	unimp
     9ee:	330e                	fld	ft6,224(sp)
     9f0:	28000003          	lb	zero,640(zero) # 280 <__stack_align+0x270>
     9f4:	00800003          	lb	zero,8(zero) # 8 <__boot_hart+0x8>
     9f8:	0000                	unimp
     9fa:	0400                	addi	s0,sp,512
     9fc:	0000                	unimp
     9fe:	0000                	unimp
     a00:	0000                	unimp
     a02:	1800                	addi	s0,sp,48
     a04:	9e0c                	.insn	2, 0x9e0c
     a06:	0002                	c.slli64	zero
     a08:	4200                	lw	s0,0(a2)
     a0a:	00800003          	lb	zero,8(zero) # 8 <__boot_hart+0x8>
     a0e:	0000                	unimp
     a10:	0400                	addi	s0,sp,512
     a12:	0000                	unimp
     a14:	0000                	unimp
     a16:	0000                	unimp
     a18:	1c00                	addi	s0,sp,560
     a1a:	0272                	slli	tp,tp,0x1c
     a1c:	0000                	unimp
     a1e:	0002a903          	lw	s2,0(t0)
     a22:	6c00                	ld	s0,24(s0)
     a24:	0001                	nop
     a26:	0d00                	addi	s0,sp,656
     a28:	02d1                	addi	t0,t0,20
     a2a:	0000                	unimp
     a2c:	0342                	slli	t1,t1,0x10
     a2e:	8000                	.insn	2, 0x8000
     a30:	0000                	unimp
     a32:	0000                	unimp
     a34:	0004                	.insn	2, 0x0004
     a36:	0000                	unimp
     a38:	0000                	unimp
     a3a:	0000                	unimp
     a3c:	dc030517          	auipc	a0,0xdc030
     a40:	0002                	c.slli64	zero
     a42:	6c00                	ld	s0,24(s0)
     a44:	0001                	nop
     a46:	0000                	unimp
     a48:	0e00                	addi	s0,sp,784
     a4a:	0339                	addi	t1,t1,14
     a4c:	0000                	unimp
     a4e:	0346                	slli	t1,t1,0x11
     a50:	8000                	.insn	2, 0x8000
     a52:	0000                	unimp
     a54:	0000                	unimp
     a56:	0004                	.insn	2, 0x0004
     a58:	0000                	unimp
     a5a:	0000                	unimp
     a5c:	0000                	unimp
     a5e:	001e                	c.slli	zero,0x7
     a60:	a21e                	fsd	ft7,256(sp)
     a62:	0000                	unimp
     a64:	9900                	.insn	2, 0x9900
     a66:	0002                	c.slli64	zero
     a68:	1f00                	addi	s0,sp,944
     a6a:	00000077          	.insn	4, 0x0077
     a6e:	89080007          	.insn	4, 0x89080007
     a72:	0002                	c.slli64	zero
     a74:	0600                	addi	s0,sp,768
     a76:	0000036f          	jal	t1,a76 <__stack_align+0xa66>
     a7a:	02b51503          	lh	a0,43(a0) # ffffffffdc030a67 <__heap_end+0xffffffff5c00ea67>
     a7e:	0000                	unimp
     a80:	00032a0f          	.insn	4, 0x00032a0f
     a84:	1500                	addi	s0,sp,672
     a86:	b52c                	fsd	fa1,104(a0)
     a88:	0002                	c.slli64	zero
     a8a:	0000                	unimp
     a8c:	0000db07          	.insn	4, 0xdb07
     a90:	0600                	addi	s0,sp,768
     a92:	0365                	addi	t1,t1,25
     a94:	0000                	unimp
     a96:	02d10c03          	lb	s8,45(sp)
     a9a:	0000                	unimp
     a9c:	00032a0f          	.insn	4, 0x00032a0f
     aa0:	0c00                	addi	s0,sp,528
     aa2:	b52a                	fsd	fa0,168(sp)
     aa4:	0002                	c.slli64	zero
     aa6:	0000                	unimp
     aa8:	7b06                	ld	s6,96(sp)
     aaa:	02000003          	lb	zero,32(zero) # 20 <__stack_align+0x10>
     aae:	e63c                	sd	a5,72(a2)
     ab0:	0002                	c.slli64	zero
     ab2:	0400                	addi	s0,sp,512
     ab4:	0070                	addi	a2,sp,12
     ab6:	333c                	fld	fa5,96(a4)
     ab8:	02e6                	slli	t0,t0,0x19
     aba:	0000                	unimp
     abc:	0700                	addi	s0,sp,896
     abe:	000000b3          	add	ra,zero,zero
     ac2:	3c10                	fld	fa2,56(s0)
     ac4:	28000003          	lb	zero,640(zero) # 280 <__stack_align+0x270>
     ac8:	0064                	addi	s1,sp,12
     aca:	0000                	unimp
     acc:	0316                	slli	t1,t1,0x5
     ace:	0000                	unimp
     ad0:	7004                	ld	s1,32(s0)
     ad2:	2800                	fld	fs0,16(s0)
     ad4:	e632                	sd	a2,264(sp)
     ad6:	0002                	c.slli64	zero
     ad8:	0400                	addi	s0,sp,512
     ada:	0076                	c.slli	zero,0x1d
     adc:	3e28                	fld	fa0,120(a2)
     ade:	000000b3          	add	ra,zero,zero
     ae2:	6e20                	ld	s0,88(a2)
     ae4:	0200                	addi	s0,sp,256
     ae6:	0a2a                	slli	s4,s4,0xa
     ae8:	0064                	addi	s1,sp,12
     aea:	0000                	unimp
     aec:	1000                	addi	s0,sp,32
     aee:	0359                	addi	t1,t1,22
     af0:	0000                	unimp
     af2:	641d                	lui	s0,0x7
     af4:	0000                	unimp
     af6:	2e00                	fld	fs0,24(a2)
     af8:	04000003          	lb	zero,64(zero) # 40 <__stack_align+0x30>
     afc:	0070                	addi	a2,sp,12
     afe:	301d                	.insn	2, 0x301d
     b00:	032e                	slli	t1,t1,0xb
     b02:	0000                	unimp
     b04:	0700                	addi	s0,sp,896
     b06:	000000bf 626d7711 	.insn	8, 0x626d7711000000bf
     b0e:	1600                	addi	s0,sp,800
     b10:	7211                	lui	tp,0xfffe4
     b12:	626d                	lui	tp,0x1b
     b14:	1500                	addi	s0,sp,672
     b16:	cd00                	sw	s0,24(a0)
     b18:	0000                	unimp
     b1a:	0500                	addi	s0,sp,640
     b1c:	0100                	addi	s0,sp,128
     b1e:	de08                	sw	a0,56(a2)
     b20:	0005                	c.nop	1
     b22:	0200                	addi	s0,sp,256
     b24:	01e2                	slli	gp,gp,0x18
     b26:	0000                	unimp
     b28:	521d                	li	tp,-25
     b2a:	8d000003          	lb	zero,-1840(zero) # fffffffffffff8d0 <__heap_end+0xffffffff7ffdd8d0>
     b2e:	0001                	nop
     b30:	1e00                	addi	s0,sp,816
     b32:	000e                	c.slli	zero,0x3
     b34:	0080                	addi	s0,sp,64
     b36:	0000                	unimp
     b38:	1400                	addi	s0,sp,544
     b3a:	0000                	unimp
     b3c:	0000                	unimp
     b3e:	0000                	unimp
     b40:	fe00                	sd	s0,56(a2)
     b42:	000a                	c.slli	zero,0x2
     b44:	0300                	addi	s0,sp,384
     b46:	0504                	addi	s1,sp,640
     b48:	6e69                	lui	t3,0x1a
     b4a:	0074                	addi	a3,sp,12
     b4c:	0801                	addi	a6,a6,0
     b4e:	d905                	beqz	a0,a7e <__stack_align+0xa6e>
     b50:	0001                	nop
     b52:	0100                	addi	s0,sp,128
     b54:	0708                	addi	a0,sp,896
     b56:	02b1                	addi	t0,t0,12
     b58:	0000                	unimp
     b5a:	0801                	addi	a6,a6,0
     b5c:	d405                	beqz	s0,a84 <__stack_align+0xa74>
     b5e:	0001                	nop
     b60:	0100                	addi	s0,sp,128
     b62:	0410                	addi	a2,sp,512
     b64:	0275                	addi	tp,tp,29 # 1b01d <__stack_size+0x1301d>
     b66:	0000                	unimp
     b68:	0401                	addi	s0,s0,0 # 7000 <__stack_size_min+0x1000>
     b6a:	0002b607          	fld	fa2,0(t0)
     b6e:	0100                	addi	s0,sp,128
     b70:	0601                	addi	a2,a2,0
     b72:	0035                	c.nop	13
     b74:	0000                	unimp
     b76:	0101                	addi	sp,sp,0
     b78:	3308                	fld	fa0,32(a4)
     b7a:	0000                	unimp
     b7c:	0100                	addi	s0,sp,128
     b7e:	0502                	c.slli64	a0
     b80:	00000117          	auipc	sp,0x0
     b84:	0201                	addi	tp,tp,0 # 0 <__boot_hart>
     b86:	00004107          	.insn	4, 0x4107
     b8a:	0100                	addi	s0,sp,128
     b8c:	0801                	addi	a6,a6,0
     b8e:	003c                	addi	a5,sp,8
     b90:	0000                	unimp
     b92:	0801                	addi	a6,a6,0
     b94:	0002ac07          	flw	fs8,0(t0)
     b98:	0400                	addi	s0,sp,512
     b9a:	039c                	addi	a5,sp,448
     b9c:	0000                	unimp
     b9e:	1302                	slli	t1,t1,0x20
     ba0:	8e0d                	sub	a2,a2,a1
     ba2:	0000                	unimp
     ba4:	0500                	addi	s0,sp,640
     ba6:	2e08                	fld	fa0,24(a2)
     ba8:	0000                	unimp
     baa:	0600                	addi	s0,sp,768
     bac:	0390                	addi	a2,sp,448
     bae:	0000                	unimp
     bb0:	0401                	addi	s0,s0,0
     bb2:	2e05                	addiw	t3,t3,1 # 1a001 <__stack_size+0x12001>
     bb4:	0000                	unimp
     bb6:	1e00                	addi	s0,sp,816
     bb8:	000e                	c.slli	zero,0x3
     bba:	0080                	addi	s0,sp,64
     bbc:	0000                	unimp
     bbe:	1400                	addi	s0,sp,544
     bc0:	0000                	unimp
     bc2:	0000                	unimp
     bc4:	0000                	unimp
     bc6:	0100                	addi	s0,sp,128
     bc8:	079c                	addi	a5,sp,960
     bca:	00000397          	auipc	t2,0x0
     bce:	0401                	addi	s0,s0,0
     bd0:	2e10                	fld	fa2,24(a2)
     bd2:	0000                	unimp
     bd4:	8700                	.insn	2, 0x8700
     bd6:	0001                	nop
     bd8:	0800                	addi	s0,sp,16
     bda:	0e26                	slli	t3,t3,0x9
     bdc:	8000                	.insn	2, 0x8000
     bde:	0000                	unimp
     be0:	0000                	unimp
     be2:	0082                	c.slli64	ra
     be4:	0000                	unimp
     be6:	0000                	unimp
     be8:	010d                	addi	sp,sp,3 # b83 <__stack_align+0xb73>
     bea:	0000                	unimp
     bec:	0005                	c.nop	1
     bee:	0801                	addi	a6,a6,0
     bf0:	0000065b          	.insn	4, 0x065b
     bf4:	e204                	sd	s1,0(a2)
     bf6:	0001                	nop
     bf8:	1d00                	addi	s0,sp,688
     bfa:	0369                	addi	t1,t1,26
     bfc:	0000                	unimp
     bfe:	018d                	addi	gp,gp,3 # 800017bb <__global_pointer$+0x3>
     c00:	0000                	unimp
     c02:	0e32                	slli	t3,t3,0xc
     c04:	8000                	.insn	2, 0x8000
     c06:	0000                	unimp
     c08:	0000                	unimp
     c0a:	0014                	.insn	2, 0x0014
     c0c:	0000                	unimp
     c0e:	0000                	unimp
     c10:	0000                	unimp
     c12:	0b94                	addi	a3,sp,464
     c14:	0000                	unimp
     c16:	0405                	addi	s0,s0,1
     c18:	6905                	lui	s2,0x1
     c1a:	746e                	ld	s0,248(sp)
     c1c:	0100                	addi	s0,sp,128
     c1e:	0508                	addi	a0,sp,640
     c20:	01d9                	addi	gp,gp,22 # 800017ce <__global_pointer$+0x16>
     c22:	0000                	unimp
     c24:	0801                	addi	a6,a6,0
     c26:	0002b107          	fld	ft2,0(t0)
     c2a:	0100                	addi	s0,sp,128
     c2c:	0508                	addi	a0,sp,640
     c2e:	01d4                	addi	a3,sp,196
     c30:	0000                	unimp
     c32:	1001                	c.nop	-32
     c34:	7504                	ld	s1,40(a0)
     c36:	0002                	c.slli64	zero
     c38:	0100                	addi	s0,sp,128
     c3a:	0704                	addi	s1,sp,896
     c3c:	02b6                	slli	t0,t0,0xd
     c3e:	0000                	unimp
     c40:	0101                	addi	sp,sp,0
     c42:	3506                	fld	fa0,96(sp)
     c44:	0000                	unimp
     c46:	0100                	addi	s0,sp,128
     c48:	0801                	addi	a6,a6,0
     c4a:	00000033          	add	zero,zero,zero
     c4e:	0201                	addi	tp,tp,0 # 0 <__boot_hart>
     c50:	1705                	addi	a4,a4,-31 # 2196d <__heap_size+0x196d>
     c52:	0001                	nop
     c54:	0100                	addi	s0,sp,128
     c56:	0702                	c.slli64	a4
     c58:	0041                	c.nop	16
     c5a:	0000                	unimp
     c5c:	a502                	fsd	ft0,136(sp)
     c5e:	02000003          	lb	zero,32(zero) # 20 <__stack_align+0x10>
     c62:	0e2e                	slli	t3,t3,0xb
     c64:	0035                	c.nop	13
     c66:	0000                	unimp
     c68:	a402                	fsd	ft0,8(sp)
     c6a:	02000003          	lb	zero,32(zero) # 20 <__stack_align+0x10>
     c6e:	1066                	c.slli	zero,0x39
     c70:	0074                	addi	a3,sp,12
     c72:	0000                	unimp
     c74:	0101                	addi	sp,sp,0
     c76:	3c08                	fld	fa0,56(s0)
     c78:	0000                	unimp
     c7a:	0100                	addi	s0,sp,128
     c7c:	0708                	addi	a0,sp,896
     c7e:	02ac                	addi	a1,sp,328
     c80:	0000                	unimp
     c82:	a602                	fsd	ft0,264(sp)
     c84:	03000003          	lb	zero,48(zero) # 30 <__stack_align+0x20>
     c88:	0080129b          	slliw	t0,zero,0x8
     c8c:	0000                	unimp
     c8e:	9c06                	add	s8,s8,ra
     c90:	04000003          	lb	zero,64(zero) # 40 <__stack_align+0x30>
     c94:	00b20d13          	addi	s10,tp,11 # b <__boot_hart+0xb>
     c98:	0000                	unimp
     c9a:	002e0807          	.insn	4, 0x002e0807
     c9e:	0000                	unimp
     ca0:	ac08                	fsd	fa0,24(s0)
     ca2:	01000003          	lb	zero,16(zero) # 10 <__stack_align>
     ca6:	0705                	addi	a4,a4,1
     ca8:	009a                	slli	ra,ra,0x6
     caa:	0000                	unimp
     cac:	0e32                	slli	t3,t3,0xc
     cae:	8000                	.insn	2, 0x8000
     cb0:	0000                	unimp
     cb2:	0000                	unimp
     cb4:	0014                	.insn	2, 0x0014
     cb6:	0000                	unimp
     cb8:	0000                	unimp
     cba:	0000                	unimp
     cbc:	9c01                	subw	s0,s0,s0
     cbe:	9709                	srai	a4,a4,0x22
     cc0:	01000003          	lb	zero,16(zero) # 10 <__stack_align>
     cc4:	1205                	addi	tp,tp,-31 # ffffffffffffffe1 <__heap_end+0xffffffff7ffddfe1>
     cc6:	002e                	c.slli	zero,0xb
     cc8:	0000                	unimp
     cca:	01a1                	addi	gp,gp,8 # 800017c0 <__global_pointer$+0x8>
     ccc:	0000                	unimp
     cce:	72747003          	.insn	4, 0x72747003
     cd2:	1e00                	addi	s0,sp,816
     cd4:	009a                	slli	ra,ra,0x6
     cd6:	0000                	unimp
     cd8:	000001af          	.insn	4, 0x01af
     cdc:	72696403          	lwu	s0,1830(s2) # 1726 <__stack_align+0x1716>
     ce0:	2700                	fld	fs0,8(a4)
     ce2:	002e                	c.slli	zero,0xb
     ce4:	0000                	unimp
     ce6:	01bd                	addi	gp,gp,15 # 800017c7 <__global_pointer$+0xf>
     ce8:	0000                	unimp
     cea:	3a0a                	fld	fs4,160(sp)
     cec:	000e                	c.slli	zero,0x3
     cee:	0080                	addi	s0,sp,64
     cf0:	0000                	unimp
     cf2:	a600                	fsd	fs0,8(a2)
     cf4:	0000                	unimp
     cf6:	0000                	unimp
     cf8:	0f00                	addi	s0,sp,912
     cfa:	0001                	nop
     cfc:	0500                	addi	s0,sp,640
     cfe:	0100                	addi	s0,sp,128
     d00:	fa08                	sd	a0,48(a2)
     d02:	0006                	c.slli	zero,0x1
     d04:	0400                	addi	s0,sp,512
     d06:	01e2                	slli	gp,gp,0x18
     d08:	0000                	unimp
     d0a:	781d                	lui	a6,0xfffe7
     d0c:	8d000003          	lb	zero,-1840(zero) # fffffffffffff8d0 <__heap_end+0xffffffff7ffdd8d0>
     d10:	0001                	nop
     d12:	4600                	lw	s0,8(a2)
     d14:	000e                	c.slli	zero,0x3
     d16:	0080                	addi	s0,sp,64
     d18:	0000                	unimp
     d1a:	1600                	addi	s0,sp,800
     d1c:	0000                	unimp
     d1e:	0000                	unimp
     d20:	0000                	unimp
     d22:	3400                	fld	fs0,40(s0)
     d24:	000c                	.insn	2, 0x000c
     d26:	0500                	addi	s0,sp,640
     d28:	0504                	addi	s1,sp,640
     d2a:	6e69                	lui	t3,0x1a
     d2c:	0074                	addi	a3,sp,12
     d2e:	0801                	addi	a6,a6,0 # fffffffffffe7000 <__heap_end+0xffffffff7ffc5000>
     d30:	d905                	beqz	a0,c60 <__stack_align+0xc50>
     d32:	0001                	nop
     d34:	0200                	addi	s0,sp,256
     d36:	03b5                	addi	t2,t2,13 # bd7 <__stack_align+0xbc7>
     d38:	0000                	unimp
     d3a:	d602                	sw	zero,44(sp)
     d3c:	00004817          	auipc	a6,0x4
     d40:	0100                	addi	s0,sp,128
     d42:	0708                	addi	a0,sp,896
     d44:	02b1                	addi	t0,t0,12
     d46:	0000                	unimp
     d48:	0801                	addi	a6,a6,0 # 4d3c <__stack_align+0x4d2c>
     d4a:	d405                	beqz	s0,c72 <__stack_align+0xc62>
     d4c:	0001                	nop
     d4e:	0100                	addi	s0,sp,128
     d50:	0410                	addi	a2,sp,512
     d52:	0275                	addi	tp,tp,29 # 1d <__stack_align+0xd>
     d54:	0000                	unimp
     d56:	0401                	addi	s0,s0,0
     d58:	0002b607          	fld	fa2,0(t0)
     d5c:	0100                	addi	s0,sp,128
     d5e:	0601                	addi	a2,a2,0
     d60:	0035                	c.nop	13
     d62:	0000                	unimp
     d64:	0101                	addi	sp,sp,0
     d66:	3308                	fld	fa0,32(a4)
     d68:	0000                	unimp
     d6a:	0100                	addi	s0,sp,128
     d6c:	0502                	c.slli64	a0
     d6e:	00000117          	auipc	sp,0x0
     d72:	0201                	addi	tp,tp,0 # 0 <__boot_hart>
     d74:	00004107          	.insn	4, 0x4107
     d78:	0200                	addi	s0,sp,256
     d7a:	000003b3          	add	t2,zero,zero
     d7e:	35179303          	lh	t1,849(a5)
     d82:	0000                	unimp
     d84:	0600                	addi	s0,sp,768
     d86:	0108                	addi	a0,sp,128
     d88:	0801                	addi	a6,a6,0
     d8a:	003c                	addi	a5,sp,8
     d8c:	0000                	unimp
     d8e:	0801                	addi	a6,a6,0
     d90:	0002ac07          	flw	fs8,0(t0)
     d94:	0200                	addi	s0,sp,256
     d96:	03b4                	addi	a3,sp,456
     d98:	0000                	unimp
     d9a:	b604                	fsd	fs1,40(a2)
     d9c:	8012                	c.mv	zero,tp
     d9e:	0000                	unimp
     da0:	0700                	addi	s0,sp,896
     da2:	039c                	addi	a5,sp,448
     da4:	0000                	unimp
     da6:	1305                	addi	t1,t1,-31
     da8:	b40d                	j	7ca <__stack_align+0x7ba>
     daa:	0000                	unimp
     dac:	0800                	addi	s0,sp,16
     dae:	2e08                	fld	fa0,24(a2)
     db0:	0000                	unimp
     db2:	0900                	addi	s0,sp,144
     db4:	0065                	c.nop	25
     db6:	0000                	unimp
     db8:	0501                	addi	a0,a0,0
     dba:	9c09                	subw	s0,s0,a0
     dbc:	0000                	unimp
     dbe:	4600                	lw	s0,8(a2)
     dc0:	000e                	c.slli	zero,0x3
     dc2:	0080                	addi	s0,sp,64
     dc4:	0000                	unimp
     dc6:	1600                	addi	s0,sp,800
     dc8:	0000                	unimp
     dca:	0000                	unimp
     dcc:	0000                	unimp
     dce:	0100                	addi	s0,sp,128
     dd0:	0a9c                	addi	a5,sp,336
     dd2:	00000397          	auipc	t2,0x0
     dd6:	0501                	addi	a0,a0,0
     dd8:	00002e13          	slti	t3,zero,0
     ddc:	d700                	sw	s0,40(a4)
     dde:	0001                	nop
     de0:	0300                	addi	s0,sp,384
     de2:	7470                	ld	a2,232(s0)
     de4:	0072                	c.slli	zero,0x1c
     de6:	8c1f 0000 e500      	.insn	6, 0xe50000008c1f
     dec:	0001                	nop
     dee:	0300                	addi	s0,sp,384
     df0:	656c                	ld	a1,200(a0)
     df2:	006e                	c.slli	zero,0x1b
     df4:	00003c2b          	.insn	4, 0x3c2b
     df8:	f300                	sd	s0,32(a4)
     dfa:	0001                	nop
     dfc:	0b00                	addi	s0,sp,400
     dfe:	0e4e                	slli	t3,t3,0x13
     e00:	8000                	.insn	2, 0x8000
     e02:	0000                	unimp
     e04:	0000                	unimp
     e06:	00a8                	addi	a0,sp,72
     e08:	0000                	unimp
     e0a:	0000                	unimp
     e0c:	0132                	slli	sp,sp,0xc
     e0e:	0000                	unimp
     e10:	0005                	c.nop	1
     e12:	0801                	addi	a6,a6,0
     e14:	07a0                	addi	s0,sp,968
     e16:	0000                	unimp
     e18:	e205                	bnez	a2,e38 <__stack_align+0xe28>
     e1a:	0001                	nop
     e1c:	1d00                	addi	s0,sp,688
     e1e:	0386                	slli	t2,t2,0x1
     e20:	0000                	unimp
     e22:	018d                	addi	gp,gp,3 # 800017bb <__global_pointer$+0x3>
     e24:	0000                	unimp
     e26:	0e5c                	addi	a5,sp,788
     e28:	8000                	.insn	2, 0x8000
     e2a:	0000                	unimp
     e2c:	0000                	unimp
     e2e:	0038                	addi	a4,sp,8
     e30:	0000                	unimp
     e32:	0000                	unimp
     e34:	0000                	unimp
     e36:	0cdd                	addi	s9,s9,23
     e38:	0000                	unimp
     e3a:	bc06                	fsd	ft1,56(sp)
     e3c:	02000003          	lb	zero,32(zero) # 20 <__stack_align+0x10>
     e40:	1a91                	addi	s5,s5,-28
     e42:	003a                	c.slli	zero,0xe
     e44:	0000                	unimp
     e46:	0801                	addi	a6,a6,0
     e48:	d905                	beqz	a0,d78 <__stack_align+0xd68>
     e4a:	0001                	nop
     e4c:	0100                	addi	s0,sp,128
     e4e:	0708                	addi	a0,sp,896
     e50:	02b1                	addi	t0,t0,12
     e52:	0000                	unimp
     e54:	69050407          	.insn	4, 0x69050407
     e58:	746e                	ld	s0,248(sp)
     e5a:	0100                	addi	s0,sp,128
     e5c:	0508                	addi	a0,sp,640
     e5e:	01d4                	addi	a3,sp,196
     e60:	0000                	unimp
     e62:	1001                	c.nop	-32
     e64:	7504                	ld	s1,40(a0)
     e66:	0002                	c.slli64	zero
     e68:	0100                	addi	s0,sp,128
     e6a:	0704                	addi	s1,sp,896
     e6c:	02b6                	slli	t0,t0,0xd
     e6e:	0000                	unimp
     e70:	0101                	addi	sp,sp,0 # d6e <__stack_align+0xd5e>
     e72:	3506                	fld	fa0,96(sp)
     e74:	0000                	unimp
     e76:	0100                	addi	s0,sp,128
     e78:	0801                	addi	a6,a6,0
     e7a:	00000033          	add	zero,zero,zero
     e7e:	0201                	addi	tp,tp,0 # 0 <__boot_hart>
     e80:	1705                	addi	a4,a4,-31
     e82:	0001                	nop
     e84:	0100                	addi	s0,sp,128
     e86:	0702                	c.slli64	a4
     e88:	0041                	c.nop	16
     e8a:	0000                	unimp
     e8c:	0808                	addi	a0,sp,16
     e8e:	8702                	jr	a4
     e90:	0000                	unimp
     e92:	0100                	addi	s0,sp,128
     e94:	0801                	addi	a6,a6,0
     e96:	003c                	addi	a5,sp,8
     e98:	0000                	unimp
     e9a:	0801                	addi	a6,a6,0
     e9c:	0002ac07          	flw	fs8,0(t0)
     ea0:	0900                	addi	s0,sp,144
     ea2:	00000087          	.insn	4, 0x0087
     ea6:	00a0                	addi	s0,sp,72
     ea8:	0000                	unimp
     eaa:	000a                	c.slli	zero,0x2
     eac:	0003cc03          	lbu	s8,0(t2) # dd2 <__stack_align+0xdc2>
     eb0:	0600                	addi	s0,sp,768
     eb2:	950d                	srai	a0,a0,0x23
     eb4:	0000                	unimp
     eb6:	0b00                	addi	s0,sp,400
     eb8:	03d1                	addi	t2,t2,20
     eba:	0000                	unimp
     ebc:	0701                	addi	a4,a4,0
     ebe:	820e                	mv	tp,gp
     ec0:	0000                	unimp
     ec2:	0900                	addi	s0,sp,144
     ec4:	000fd803          	lhu	a6,0(t6)
     ec8:	0080                	addi	s0,sp,64
     eca:	0000                	unimp
     ecc:	0c00                	addi	s0,sp,528
     ece:	039c                	addi	a5,sp,448
     ed0:	0000                	unimp
     ed2:	cd0d1303          	lh	t1,-816(s10)
     ed6:	0000                	unimp
     ed8:	0200                	addi	s0,sp,256
     eda:	0048                	addi	a0,sp,4
     edc:	0000                	unimp
     ede:	d80d                	beqz	s0,e10 <__stack_align+0xe00>
     ee0:	01000003          	lb	zero,16(zero) # 10 <__stack_align>
     ee4:	0709                	addi	a4,a4,2
     ee6:	0080                	addi	s0,sp,64
     ee8:	0000                	unimp
     eea:	0e5c                	addi	a5,sp,788
     eec:	8000                	.insn	2, 0x8000
     eee:	0000                	unimp
     ef0:	0000                	unimp
     ef2:	0038                	addi	a4,sp,8
     ef4:	0000                	unimp
     ef6:	0000                	unimp
     ef8:	0000                	unimp
     efa:	9c01                	subw	s0,s0,s0
     efc:	de0e                	sw	gp,60(sp)
     efe:	01000003          	lb	zero,16(zero) # 10 <__stack_align>
     f02:	1709                	addi	a4,a4,-30
     f04:	002e                	c.slli	zero,0xb
     f06:	0000                	unimp
     f08:	020d                	addi	tp,tp,3 # 3 <__boot_hart+0x3>
     f0a:	0000                	unimp
     f0c:	0003c603          	lbu	a2,0(t2)
     f10:	0b00                	addi	s0,sp,400
     f12:	9511                	srai	a0,a0,0x24
     f14:	0000                	unimp
     f16:	0400                	addi	s0,sp,512
     f18:	03ea                	slli	t2,t2,0x1a
     f1a:	0000                	unimp
     f1c:	820c                	.insn	2, 0x820c
     f1e:	0000                	unimp
     f20:	1b00                	addi	s0,sp,432
     f22:	0002                	c.slli64	zero
     f24:	0400                	addi	s0,sp,512
     f26:	000003e3          	beqz	zero,172c <__stack_align+0x171c>
     f2a:	820d                	srli	a2,a2,0x3
     f2c:	0000                	unimp
     f2e:	3300                	fld	fs0,32(a4)
     f30:	0002                	c.slli64	zero
     f32:	0f00                	addi	s0,sp,912
     f34:	0e86                	slli	t4,t4,0x1
     f36:	8000                	.insn	2, 0x8000
     f38:	0000                	unimp
     f3a:	0000                	unimp
     f3c:	00c1                	addi	ra,ra,16
     f3e:	0000                	unimp
     f40:	0000                	unimp
     f42:	0174                	addi	a3,sp,140
     f44:	0000                	unimp
     f46:	0005                	c.nop	1
     f48:	0801                	addi	a6,a6,0
     f4a:	087a                	slli	a6,a6,0x1e
     f4c:	0000                	unimp
     f4e:	e206                	sd	ra,256(sp)
     f50:	0001                	nop
     f52:	1d00                	addi	s0,sp,688
     f54:	0394                	addi	a3,sp,448
     f56:	0000                	unimp
     f58:	018d                	addi	gp,gp,3 # 800017bb <__global_pointer$+0x3>
     f5a:	0000                	unimp
     f5c:	0e94                	addi	a3,sp,848
     f5e:	8000                	.insn	2, 0x8000
     f60:	0000                	unimp
     f62:	0000                	unimp
     f64:	0008                	.insn	2, 0x0008
     f66:	0000                	unimp
     f68:	0000                	unimp
     f6a:	0000                	unimp
     f6c:	0e02                	c.slli64	t3
     f6e:	0000                	unimp
     f70:	69050407          	.insn	4, 0x69050407
     f74:	746e                	ld	s0,248(sp)
     f76:	0100                	addi	s0,sp,128
     f78:	0508                	addi	a0,sp,640
     f7a:	01d9                	addi	gp,gp,22 # 800017ce <__global_pointer$+0x16>
     f7c:	0000                	unimp
     f7e:	b502                	fsd	ft0,168(sp)
     f80:	02000003          	lb	zero,32(zero) # 20 <__stack_align+0x10>
     f84:	17d6                	slli	a5,a5,0x35
     f86:	0048                	addi	a0,sp,4
     f88:	0000                	unimp
     f8a:	0801                	addi	a6,a6,0
     f8c:	0002b107          	fld	ft2,0(t0)
     f90:	0100                	addi	s0,sp,128
     f92:	0508                	addi	a0,sp,640
     f94:	01d4                	addi	a3,sp,196
     f96:	0000                	unimp
     f98:	1001                	c.nop	-32
     f9a:	7504                	ld	s1,40(a0)
     f9c:	0002                	c.slli64	zero
     f9e:	0100                	addi	s0,sp,128
     fa0:	0704                	addi	s1,sp,896
     fa2:	02b6                	slli	t0,t0,0xd
     fa4:	0000                	unimp
     fa6:	0101                	addi	sp,sp,0
     fa8:	3506                	fld	fa0,96(sp)
     faa:	0000                	unimp
     fac:	0100                	addi	s0,sp,128
     fae:	0801                	addi	a6,a6,0
     fb0:	00000033          	add	zero,zero,zero
     fb4:	0201                	addi	tp,tp,0 # 0 <__boot_hart>
     fb6:	1705                	addi	a4,a4,-31
     fb8:	0001                	nop
     fba:	0100                	addi	s0,sp,128
     fbc:	0702                	c.slli64	a4
     fbe:	0041                	c.nop	16
     fc0:	0000                	unimp
     fc2:	2102                	fld	ft2,0(sp)
     fc4:	0001                	nop
     fc6:	0300                	addi	s0,sp,384
     fc8:	1969                	addi	s2,s2,-6
     fca:	0048                	addi	a0,sp,4
     fcc:	0000                	unimp
     fce:	0502                	c.slli64	a0
     fd0:	0000                	unimp
     fd2:	0300                	addi	s0,sp,384
     fd4:	1ae8                	addi	a0,sp,380
     fd6:	0048                	addi	a0,sp,4
     fd8:	0000                	unimp
     fda:	b302                	fsd	ft0,416(sp)
     fdc:	04000003          	lb	zero,64(zero) # 40 <__stack_align+0x30>
     fe0:	00351793          	slli	a5,a0,0x3
     fe4:	0000                	unimp
     fe6:	0101                	addi	sp,sp,0
     fe8:	3c08                	fld	fa0,56(s0)
     fea:	0000                	unimp
     fec:	0100                	addi	s0,sp,128
     fee:	0708                	addi	a0,sp,896
     ff0:	02ac                	addi	a1,sp,328
     ff2:	0000                	unimp
     ff4:	2302                	fld	ft6,0(sp)
     ff6:	0001                	nop
     ff8:	0500                	addi	s0,sp,640
     ffa:	143c                	addi	a5,sp,552
     ffc:	0080                	addi	s0,sp,64
     ffe:	0000                	unimp
    1000:	0702                	c.slli64	a4
    1002:	0000                	unimp
    1004:	0500                	addi	s0,sp,640
    1006:	1552                	slli	a0,a0,0x34
    1008:	008c                	addi	a1,sp,64
    100a:	0000                	unimp
    100c:	b402                	fsd	ft0,40(sp)
    100e:	06000003          	lb	zero,96(zero) # 60 <__stack_align+0x50>
    1012:	12b6                	slli	t0,t0,0x2d
    1014:	0098                	addi	a4,sp,64
    1016:	0000                	unimp
    1018:	2f08                	fld	fa0,24(a4)
    101a:	07000003          	lb	zero,112(zero) # 70 <__stack_align+0x60>
    101e:	0d1a                	slli	s10,s10,0x6
    1020:	0035                	c.nop	13
    1022:	0000                	unimp
    1024:	000000fb          	.insn	4, 0x00fb
    1028:	0000b203          	ld	tp,0(ra)
    102c:	0300                	addi	s0,sp,384
    102e:	00b2                	slli	ra,ra,0xc
    1030:	0000                	unimp
    1032:	0000b203          	ld	tp,0(ra)
    1036:	0300                	addi	s0,sp,384
    1038:	0048                	addi	a0,sp,4
    103a:	0000                	unimp
    103c:	0900                	addi	s0,sp,144
    103e:	0016                	c.slli	zero,0x5
    1040:	0000                	unimp
    1042:	0601                	addi	a2,a2,0
    1044:	ca09                	beqz	a2,1056 <__stack_align+0x1046>
    1046:	0000                	unimp
    1048:	9400                	.insn	2, 0x9400
    104a:	000e                	c.slli	zero,0x3
    104c:	0080                	addi	s0,sp,64
    104e:	0000                	unimp
    1050:	0800                	addi	s0,sp,16
    1052:	0000                	unimp
    1054:	0000                	unimp
    1056:	0000                	unimp
    1058:	0100                	addi	s0,sp,128
    105a:	709c                	ld	a5,32(s1)
    105c:	0001                	nop
    105e:	0500                	addi	s0,sp,640
    1060:	6466                	ld	s0,88(sp)
    1062:	1400                	addi	s0,sp,544
    1064:	002e                	c.slli	zero,0xb
    1066:	0000                	unimp
    1068:	0245                	addi	tp,tp,17 # 11 <__stack_align+0x1>
    106a:	0000                	unimp
    106c:	7005                	c.lui	zero,0xfffe1
    106e:	7274                	ld	a3,224(a2)
    1070:	2400                	fld	fs0,8(s0)
    1072:	0170                	addi	a2,sp,140
    1074:	0000                	unimp
    1076:	00000253          	fadd.s	ft4,ft0,ft0,rne
    107a:	6c05                	lui	s8,0x1
    107c:	6e65                	lui	t3,0x19
    107e:	3000                	fld	fs0,32(s0)
    1080:	003c                	addi	a5,sp,8
    1082:	0000                	unimp
    1084:	0261                	addi	tp,tp,24 # 18 <__stack_align+0x8>
    1086:	0000                	unimp
    1088:	9c0a                	add	s8,s8,sp
    108a:	000e                	c.slli	zero,0x3
    108c:	0080                	addi	s0,sp,64
    108e:	0000                	unimp
    1090:	d600                	sw	s0,40(a2)
    1092:	0000                	unimp
    1094:	0400                	addi	s0,sp,512
    1096:	5a01                	li	s4,-32
    1098:	5a01a303          	lw	t1,1440(gp) # 80001d58 <__global_pointer$+0x5a0>
    109c:	0104                	addi	s1,sp,128
    109e:	01a3035b          	.insn	4, 0x01a3035b
    10a2:	5c01045b          	.insn	4, 0x5c01045b
    10a6:	5c01a303          	lw	t1,1472(gp) # 80001d78 <__global_pointer$+0x5c0>
    10aa:	0104                	addi	s1,sp,128
    10ac:	025d                	addi	tp,tp,23 # 17 <__stack_align+0x7>
    10ae:	4008                	lw	a0,0(s0)
    10b0:	0000                	unimp
    10b2:	0176080b          	.insn	4, 0x0176080b
    10b6:	0000                	unimp
    10b8:	000c                	.insn	2, 0x000c

Disassembly of section .debug_abbrev:

0000000000000000 <.debug_abbrev>:
   0:	3401                	addiw	s0,s0,-32
   2:	3100                	fld	fs0,32(a0)
   4:	00180213          	addi	tp,a6,1
   8:	0200                	addi	s0,sp,256
   a:	0005                	c.nop	1
   c:	1331                	addi	t1,t1,-20
   e:	1702                	slli	a4,a4,0x20
  10:	0000                	unimp
  12:	03003403          	ld	s0,48(zero) # 30 <__stack_align+0x20>
  16:	3a0e                	fld	fs4,224(sp)
  18:	0121                	addi	sp,sp,8
  1a:	0b390b3b          	.insn	4, 0x0b390b3b
  1e:	1349                	addi	t1,t1,-14
  20:	0000                	unimp
  22:	2404                	fld	fs1,8(s0)
  24:	0b00                	addi	s0,sp,400
  26:	030b3e0b          	.insn	4, 0x030b3e0b
  2a:	000e                	c.slli	zero,0x3
  2c:	0500                	addi	s0,sp,640
  2e:	1331010b          	.insn	4, 0x1331010b
  32:	0111                	addi	sp,sp,4
  34:	0712                	slli	a4,a4,0x4
  36:	0000                	unimp
  38:	0506                	slli	a0,a0,0x1
  3a:	0300                	addi	s0,sp,384
  3c:	3a08                	fld	fa0,48(a2)
  3e:	0121                	addi	sp,sp,8
  40:	0b390b3b          	.insn	4, 0x0b390b3b
  44:	1349                	addi	t1,t1,-14
  46:	0000                	unimp
  48:	03001607          	.insn	4, 0x03001607
  4c:	3a0e                	fld	fs4,224(sp)
  4e:	390b3b0b          	.insn	4, 0x390b3b0b
  52:	0013490b          	.insn	4, 0x0013490b
  56:	0800                	addi	s0,sp,16
  58:	011d                	addi	sp,sp,7
  5a:	1331                	addi	t1,t1,-20
  5c:	0111                	addi	sp,sp,4
  5e:	0712                	slli	a4,a4,0x4
  60:	2158                	fld	fa4,128(a0)
  62:	5901                	li	s2,-32
  64:	0221570b          	.insn	4, 0x0221570b
  68:	1301                	addi	t1,t1,-32
  6a:	0000                	unimp
  6c:	0b09                	addi	s6,s6,2
  6e:	0001                	nop
  70:	0a00                	addi	s0,sp,272
  72:	0034                	addi	a3,sp,8
  74:	1331                	addi	t1,t1,-20
  76:	0000                	unimp
  78:	03012e0b          	.insn	4, 0x03012e0b
  7c:	3a0e                	fld	fs4,224(sp)
  7e:	0121                	addi	sp,sp,8
  80:	21390b3b          	.insn	4, 0x21390b3b
  84:	2714                	fld	fa3,8(a4)
  86:	2019                	.insn	2, 0x2019
  88:	0321                	addi	t1,t1,8
  8a:	1301                	addi	t1,t1,-32
  8c:	0000                	unimp
  8e:	050c                	addi	a1,sp,640
  90:	0300                	addi	s0,sp,384
  92:	3a0e                	fld	fs4,224(sp)
  94:	0121                	addi	sp,sp,8
  96:	0b390b3b          	.insn	4, 0x0b390b3b
  9a:	1349                	addi	t1,t1,-14
  9c:	0000                	unimp
  9e:	110d                	addi	sp,sp,-29
  a0:	2501                	sext.w	a0,a0
  a2:	130e                	slli	t1,t1,0x23
  a4:	1b1f030b          	.insn	4, 0x1b1f030b
  a8:	551f 1117 1001      	.insn	6, 0x10011117551f
  ae:	0e000017          	auipc	zero,0xe000
  b2:	0024                	addi	s1,sp,8
  b4:	0b3e0b0b          	.insn	4, 0x0b3e0b0b
  b8:	00000803          	lb	a6,0(zero) # 0 <__boot_hart>
  bc:	0300340f          	.insn	4, 0x0300340f
  c0:	3a0e                	fld	fs4,224(sp)
  c2:	390b3b0b          	.insn	4, 0x390b3b0b
  c6:	3f13490b          	.insn	4, 0x3f13490b
  ca:	0219                	addi	tp,tp,6 # 6 <__boot_hart+0x6>
  cc:	0018                	.insn	2, 0x0018
  ce:	1000                	addi	s0,sp,32
  d0:	012e                	slli	sp,sp,0xb
  d2:	0e03193f 0b3b0b3a 	.insn	8, 0x0b3b0b3a0e03193f
  da:	0b39                	addi	s6,s6,14
  dc:	13491927          	.insn	4, 0x13491927
  e0:	0111                	addi	sp,sp,4
  e2:	0712                	slli	a4,a4,0x4
  e4:	1840                	addi	s0,sp,52
  e6:	197a                	slli	s2,s2,0x3e
  e8:	1301                	addi	t1,t1,-32
  ea:	0000                	unimp
  ec:	3411                	addiw	s0,s0,-28
  ee:	0300                	addi	s0,sp,384
  f0:	3a0e                	fld	fs4,224(sp)
  f2:	390b3b0b          	.insn	4, 0x390b3b0b
  f6:	0213490b          	.insn	4, 0x0213490b
  fa:	12000017          	auipc	zero,0x12000
  fe:	011d                	addi	sp,sp,7
 100:	1331                	addi	t1,t1,-20
 102:	0152                	slli	sp,sp,0x14
 104:	1755                	addi	a4,a4,-11
 106:	0b58                	addi	a4,sp,404
 108:	0b59                	addi	s6,s6,22
 10a:	13010b57          	.insn	4, 0x13010b57
 10e:	0000                	unimp
 110:	55010b13          	addi	s6,sp,1360
 114:	14000017          	auipc	zero,0x14000
 118:	1331010b          	.insn	4, 0x1331010b
 11c:	1755                	addi	a4,a4,-11
 11e:	0000                	unimp
 120:	1d15                	addi	s10,s10,-27
 122:	3101                	addiw	sp,sp,-32
 124:	12011113          	.insn	4, 0x12011113
 128:	590b5807          	.insn	4, 0x590b5807
 12c:	000b570b          	.insn	4, 0x000b570b
 130:	1600                	addi	s0,sp,800
 132:	0b0b000f          	.insn	4, 0x0b0b000f
 136:	0000                	unimp
 138:	03012e17          	auipc	t3,0x3012
 13c:	3a0e                	fld	fs4,224(sp)
 13e:	390b3b0b          	.insn	4, 0x390b3b0b
 142:	4919270b          	.insn	4, 0x4919270b
 146:	010b2013          	slti	zero,s6,16
 14a:	18000013          	li	zero,384
 14e:	0034                	addi	a3,sp,8
 150:	0b3a0803          	lb	a6,179(s4)
 154:	0b390b3b          	.insn	4, 0x0b390b3b
 158:	1349                	addi	t1,t1,-14
 15a:	0000                	unimp
 15c:	2e19                	addiw	t3,t3,6 # 301213e <__heap_size+0x2ff213e>
 15e:	0301                	addi	t1,t1,0
 160:	3a0e                	fld	fs4,224(sp)
 162:	390b3b0b          	.insn	4, 0x390b3b0b
 166:	2019270b          	.insn	4, 0x2019270b
 16a:	0000000b          	.insn	4, 0x000b
 16e:	1101                	addi	sp,sp,-32
 170:	1000                	addi	s0,sp,32
 172:	12011117          	auipc	sp,0x12011
 176:	1b0e030f          	.insn	4, 0x1b0e030f
 17a:	250e                	fld	fa0,192(sp)
 17c:	130e                	slli	t1,t1,0x23
 17e:	0005                	c.nop	1
 180:	0000                	unimp
 182:	1101                	addi	sp,sp,-32 # 12011152 <__heap_size+0x11ff1152>
 184:	1000                	addi	s0,sp,32
 186:	12011117          	auipc	sp,0x12011
 18a:	1b0e030f          	.insn	4, 0x1b0e030f
 18e:	250e                	fld	fa0,192(sp)
 190:	130e                	slli	t1,t1,0x23
 192:	0005                	c.nop	1
 194:	0000                	unimp
 196:	2401                	sext.w	s0,s0
 198:	0b00                	addi	s0,sp,400
 19a:	030b3e0b          	.insn	4, 0x030b3e0b
 19e:	000e                	c.slli	zero,0x3
 1a0:	0200                	addi	s0,sp,256
 1a2:	0016                	c.slli	zero,0x5
 1a4:	0b3a0e03          	lb	t3,179(s4)
 1a8:	0b390b3b          	.insn	4, 0x0b390b3b
 1ac:	1349                	addi	t1,t1,-14
 1ae:	0000                	unimp
 1b0:	03000503          	lb	a0,48(zero) # 30 <__stack_align+0x20>
 1b4:	3a0e                	fld	fs4,224(sp)
 1b6:	0121                	addi	sp,sp,8 # 1201118e <__heap_size+0x11ff118e>
 1b8:	3904213b          	.insn	4, 0x3904213b
 1bc:	0213490b          	.insn	4, 0x0213490b
 1c0:	04000017          	auipc	zero,0x4000
 1c4:	0111                	addi	sp,sp,4
 1c6:	0e25                	addi	t3,t3,9
 1c8:	1f030b13          	addi	s6,t1,496
 1cc:	01111f1b          	slliw	t5,sp,0x11
 1d0:	0712                	slli	a4,a4,0x4
 1d2:	1710                	addi	a2,sp,928
 1d4:	0000                	unimp
 1d6:	2405                	addiw	s0,s0,1
 1d8:	0b00                	addi	s0,sp,400
 1da:	030b3e0b          	.insn	4, 0x030b3e0b
 1de:	0008                	.insn	2, 0x0008
 1e0:	0600                	addi	s0,sp,768
 1e2:	012e                	slli	sp,sp,0xb
 1e4:	0e03193f 0b3b0b3a 	.insn	8, 0x0b3b0b3a0e03193f
 1ec:	0b39                	addi	s6,s6,14
 1ee:	01871927          	.insn	4, 0x01871927
 1f2:	3c19                	addiw	s8,s8,-26 # fe6 <__stack_align+0xfd6>
 1f4:	0119                	addi	sp,sp,6
 1f6:	07000013          	li	zero,112
 1fa:	0005                	c.nop	1
 1fc:	1349                	addi	t1,t1,-14
 1fe:	0000                	unimp
 200:	2e08                	fld	fa0,24(a2)
 202:	3f01                	addiw	t5,t5,-32
 204:	0319                	addi	t1,t1,6
 206:	3a0e                	fld	fs4,224(sp)
 208:	390b3b0b          	.insn	4, 0x390b3b0b
 20c:	1119270b          	.insn	4, 0x1119270b
 210:	1201                	addi	tp,tp,-32 # ffffffffffffffe0 <__heap_end+0xffffffff7ffddfe0>
 212:	7a184007          	.insn	4, 0x7a184007
 216:	0119                	addi	sp,sp,6
 218:	09000013          	li	zero,144
 21c:	0005                	c.nop	1
 21e:	0b3a0803          	lb	a6,179(s4)
 222:	0b390b3b          	.insn	4, 0x0b390b3b
 226:	1349                	addi	t1,t1,-14
 228:	1702                	slli	a4,a4,0x20
 22a:	0000                	unimp
 22c:	340a                	fld	fs0,160(sp)
 22e:	0300                	addi	s0,sp,384
 230:	3a0e                	fld	fs4,224(sp)
 232:	390b3b0b          	.insn	4, 0x390b3b0b
 236:	0213490b          	.insn	4, 0x0213490b
 23a:	0b000017          	auipc	zero,0xb000
 23e:	0048                	addi	a0,sp,4
 240:	017d                	addi	sp,sp,31
 242:	0000137f 0b000f0c 	.insn	12, 0x0013490b0b000f0c0000137f
 24a:	0013490b 
 24e:	0000                	unimp
 250:	2401                	sext.w	s0,s0
 252:	0b00                	addi	s0,sp,400
 254:	030b3e0b          	.insn	4, 0x030b3e0b
 258:	000e                	c.slli	zero,0x3
 25a:	0200                	addi	s0,sp,256
 25c:	0005                	c.nop	1
 25e:	1349                	addi	t1,t1,-14
 260:	0000                	unimp
 262:	03003403          	ld	s0,48(zero) # 30 <__stack_align+0x20>
 266:	3a0e                	fld	fs4,224(sp)
 268:	0121                	addi	sp,sp,8
 26a:	21390b3b          	.insn	4, 0x21390b3b
 26e:	4911                	li	s2,4
 270:	3c193f13          	sltiu	t5,s2,961
 274:	0019                	c.nop	6
 276:	0400                	addi	s0,sp,512
 278:	13490037          	lui	zero,0x13490
 27c:	0000                	unimp
 27e:	0f05                	addi	t5,t5,1
 280:	0b00                	addi	s0,sp,400
 282:	0821                	addi	a6,a6,8
 284:	1349                	addi	t1,t1,-14
 286:	0000                	unimp
 288:	2e06                	fld	ft8,64(sp)
 28a:	3f01                	addiw	t5,t5,-32
 28c:	0319                	addi	t1,t1,6
 28e:	3a0e                	fld	fs4,224(sp)
 290:	0221                	addi	tp,tp,8 # 8 <__boot_hart+0x8>
 292:	21390b3b          	.insn	4, 0x21390b3b
 296:	2709                	addiw	a4,a4,2
 298:	4919                	li	s2,6
 29a:	01193c13          	sltiu	s8,s2,17
 29e:	07000013          	li	zero,112
 2a2:	0049                	c.nop	18
 2a4:	1802                	slli	a6,a6,0x20
 2a6:	187e                	slli	a6,a6,0x3f
 2a8:	0000                	unimp
 2aa:	1108                	addi	a0,sp,160
 2ac:	2501                	sext.w	a0,a0
 2ae:	130e                	slli	t1,t1,0x23
 2b0:	1b1f030b          	.insn	4, 0x1b1f030b
 2b4:	111f 1201 1007      	.insn	6, 0x10071201111f
 2ba:	09000017          	auipc	zero,0x9000
 2be:	0016                	c.slli	zero,0x5
 2c0:	0b3a0e03          	lb	t3,179(s4)
 2c4:	0b390b3b          	.insn	4, 0x0b390b3b
 2c8:	1349                	addi	t1,t1,-14
 2ca:	0000                	unimp
 2cc:	240a                	fld	fs0,128(sp)
 2ce:	0b00                	addi	s0,sp,400
 2d0:	030b3e0b          	.insn	4, 0x030b3e0b
 2d4:	0008                	.insn	2, 0x0008
 2d6:	0b00                	addi	s0,sp,400
 2d8:	0b0b000f          	.insn	4, 0x0b0b000f
 2dc:	0000                	unimp
 2de:	260c                	fld	fa1,8(a2)
 2e0:	0000                	unimp
 2e2:	0d00                	addi	s0,sp,656
 2e4:	012e                	slli	sp,sp,0xb
 2e6:	0e03193f 0b3b0b3a 	.insn	8, 0x0b3b0b3a0e03193f
 2ee:	0b39                	addi	s6,s6,14
 2f0:	01111927          	.insn	4, 0x01111927
 2f4:	0712                	slli	a4,a4,0x4
 2f6:	1840                	addi	s0,sp,52
 2f8:	197a                	slli	s2,s2,0x3e
 2fa:	1301                	addi	t1,t1,-32
 2fc:	0000                	unimp
 2fe:	340e                	fld	fs0,224(sp)
 300:	0300                	addi	s0,sp,384
 302:	3a0e                	fld	fs4,224(sp)
 304:	390b3b0b          	.insn	4, 0x390b3b0b
 308:	0213490b          	.insn	4, 0x0213490b
 30c:	0018                	.insn	2, 0x0018
 30e:	0f00                	addi	s0,sp,912
 310:	0148                	addi	a0,sp,132
 312:	017d                	addi	sp,sp,31
 314:	1301137f 48100000 	.insn	12, 0x82017d01481000001301137f
 31c:	82017d01 
 320:	1901                	addi	s2,s2,-32
 322:	0000137f 49010111 	.insn	12, 0x12000013490101110000137f
 32a:	12000013 
 32e:	0021                	c.nop	8
 330:	0000                	unimp
 332:	0100                	addi	s0,sp,128
 334:	0111                	addi	sp,sp,4
 336:	0e25                	addi	t3,t3,9
 338:	1f030b13          	addi	s6,t1,496
 33c:	01111f1b          	slliw	t5,sp,0x11
 340:	0712                	slli	a4,a4,0x4
 342:	1710                	addi	a2,sp,928
 344:	0000                	unimp
 346:	2e02                	fld	ft8,0(sp)
 348:	3f00                	fld	fs0,56(a4)
 34a:	0319                	addi	t1,t1,6
 34c:	3a0e                	fld	fs4,224(sp)
 34e:	390b3b0b          	.insn	4, 0x390b3b0b
 352:	8719270b          	.insn	4, 0x8719270b
 356:	1901                	addi	s2,s2,-32
 358:	0111                	addi	sp,sp,4
 35a:	0712                	slli	a4,a4,0x4
 35c:	1840                	addi	s0,sp,52
 35e:	197a                	slli	s2,s2,0x3e
 360:	0000                	unimp
 362:	0100                	addi	s0,sp,128
 364:	0024                	addi	s1,sp,8
 366:	0b3e0b0b          	.insn	4, 0x0b3e0b0b
 36a:	00000e03          	lb	t3,0(zero) # 0 <__boot_hart>
 36e:	1602                	slli	a2,a2,0x20
 370:	0300                	addi	s0,sp,384
 372:	3a0e                	fld	fs4,224(sp)
 374:	390b3b0b          	.insn	4, 0x390b3b0b
 378:	0013490b          	.insn	4, 0x0013490b
 37c:	0300                	addi	s0,sp,384
 37e:	0034                	addi	a3,sp,8
 380:	213a0e03          	lb	t3,531(s4)
 384:	3b04                	fld	fs1,48(a4)
 386:	1a21390b          	.insn	4, 0x1a21390b
 38a:	1349                	addi	t1,t1,-14
 38c:	193c193f 11040000 	.insn	8, 0x11040000193c193f
 394:	2501                	sext.w	a0,a0
 396:	130e                	slli	t1,t1,0x23
 398:	1b1f030b          	.insn	4, 0x1b1f030b
 39c:	111f 1201 1007      	.insn	6, 0x10071201111f
 3a2:	05000017          	auipc	zero,0x5000
 3a6:	0024                	addi	s1,sp,8
 3a8:	0b3e0b0b          	.insn	4, 0x0b3e0b0b
 3ac:	00000803          	lb	a6,0(zero) # 0 <__boot_hart>
 3b0:	3506                	fld	fa0,96(sp)
 3b2:	4900                	lw	s0,16(a0)
 3b4:	07000013          	li	zero,112
 3b8:	012e                	slli	sp,sp,0xb
 3ba:	0e03193f 0b3b0b3a 	.insn	8, 0x0b3b0b3a0e03193f
 3c2:	0b39                	addi	s6,s6,14
 3c4:	01871927          	.insn	4, 0x01871927
 3c8:	1119                	addi	sp,sp,-26
 3ca:	1201                	addi	tp,tp,-32 # ffffffffffffffe0 <__heap_end+0xffffffff7ffddfe0>
 3cc:	7a184007          	.insn	4, 0x7a184007
 3d0:	0019                	c.nop	6
 3d2:	0800                	addi	s0,sp,16
 3d4:	0005                	c.nop	1
 3d6:	0b3a0e03          	lb	t3,179(s4)
 3da:	0b390b3b          	.insn	4, 0x0b390b3b
 3de:	1349                	addi	t1,t1,-14
 3e0:	1802                	slli	a6,a6,0x20
 3e2:	0000                	unimp
 3e4:	3409                	addiw	s0,s0,-30
 3e6:	0300                	addi	s0,sp,384
 3e8:	3a08                	fld	fa0,48(a2)
 3ea:	390b3b0b          	.insn	4, 0x390b3b0b
 3ee:	0213490b          	.insn	4, 0x0213490b
 3f2:	0018                	.insn	2, 0x0018
 3f4:	0000                	unimp
 3f6:	1601                	addi	a2,a2,-32
 3f8:	0300                	addi	s0,sp,384
 3fa:	3a0e                	fld	fs4,224(sp)
 3fc:	390b3b0b          	.insn	4, 0x390b3b0b
 400:	0013490b          	.insn	4, 0x0013490b
 404:	0200                	addi	s0,sp,256
 406:	0024                	addi	s1,sp,8
 408:	0b3e0b0b          	.insn	4, 0x0b3e0b0b
 40c:	00000e03          	lb	t3,0(zero) # 0 <__boot_hart>
 410:	31000503          	lb	a0,784(zero) # 310 <__stack_align+0x300>
 414:	00170213          	addi	tp,a4,1
 418:	0400                	addi	s0,sp,512
 41a:	0005                	c.nop	1
 41c:	213a0803          	lb	a6,531(s4)
 420:	3b02                	fld	fs6,32(sp)
 422:	490b390b          	.insn	4, 0x490b390b
 426:	05000013          	li	zero,80
 42a:	0005                	c.nop	1
 42c:	213a0803          	lb	a6,531(s4)
 430:	3b01                	addiw	s6,s6,-32
 432:	0c21                	addi	s8,s8,8
 434:	0b39                	addi	s6,s6,14
 436:	1349                	addi	t1,t1,-14
 438:	1702                	slli	a4,a4,0x20
 43a:	0000                	unimp
 43c:	2e06                	fld	ft8,64(sp)
 43e:	0301                	addi	t1,t1,0
 440:	3a0e                	fld	fs4,224(sp)
 442:	390b3b0b          	.insn	4, 0x390b3b0b
 446:	1421                	addi	s0,s0,-24
 448:	21201927          	.insn	4, 0x21201927
 44c:	00130103          	lb	sp,1(t1)
 450:	0700                	addi	s0,sp,896
 452:	210b000f          	.insn	4, 0x210b000f
 456:	4908                	lw	a0,16(a0)
 458:	08000013          	li	zero,128
 45c:	0035                	c.nop	13
 45e:	1349                	addi	t1,t1,-14
 460:	0000                	unimp
 462:	3409                	addiw	s0,s0,-30
 464:	0300                	addi	s0,sp,384
 466:	3a0e                	fld	fs4,224(sp)
 468:	0621                	addi	a2,a2,8
 46a:	21390b3b          	.insn	4, 0x21390b3b
 46e:	491a                	lw	s2,132(sp)
 470:	3c193f13          	sltiu	t5,s2,961
 474:	0019                	c.nop	6
 476:	0a00                	addi	s0,sp,272
 478:	0034                	addi	a3,sp,8
 47a:	213a1347          	fmsub.s	ft6,fs4,fs3,ft4,rtz
 47e:	3b01                	addiw	s6,s6,-32
 480:	1321390b          	.insn	4, 0x1321390b
 484:	1802                	slli	a6,a6,0x20
 486:	0000                	unimp
 488:	0300340b          	.insn	4, 0x0300340b
 48c:	3a08                	fld	fa0,48(a2)
 48e:	0121                	addi	sp,sp,8
 490:	0b390b3b          	.insn	4, 0x0b390b3b
 494:	1349                	addi	t1,t1,-14
 496:	1802                	slli	a6,a6,0x20
 498:	0000                	unimp
 49a:	1d0c                	addi	a1,sp,688
 49c:	3101                	addiw	sp,sp,-32
 49e:	12011113          	.insn	4, 0x12011113
 4a2:	01215807          	.insn	4, 0x01215807
 4a6:	0b59                	addi	s6,s6,22
 4a8:	01052157          	.insn	4, 0x01052157
 4ac:	0d000013          	li	zero,208
 4b0:	011d                	addi	sp,sp,7
 4b2:	1331                	addi	t1,t1,-20
 4b4:	0111                	addi	sp,sp,4
 4b6:	0712                	slli	a4,a4,0x4
 4b8:	2158                	fld	fa4,128(a0)
 4ba:	570b5903          	lhu	s2,1392(s6)
 4be:	0e00000b          	.insn	4, 0x0e00000b
 4c2:	001d                	c.nop	7
 4c4:	1331                	addi	t1,t1,-20
 4c6:	0111                	addi	sp,sp,4
 4c8:	0712                	slli	a4,a4,0x4
 4ca:	2158                	fld	fa4,128(a0)
 4cc:	5901                	li	s2,-32
 4ce:	0521570b          	.insn	4, 0x0521570b
 4d2:	0000                	unimp
 4d4:	0300050f          	.insn	4, 0x0300050f
 4d8:	3a0e                	fld	fs4,224(sp)
 4da:	0321                	addi	t1,t1,8
 4dc:	0b390b3b          	.insn	4, 0x0b390b3b
 4e0:	1349                	addi	t1,t1,-14
 4e2:	0000                	unimp
 4e4:	2e10                	fld	fa2,24(a2)
 4e6:	0301                	addi	t1,t1,0
 4e8:	3a0e                	fld	fs4,224(sp)
 4ea:	0221                	addi	tp,tp,8 # 8 <__boot_hart+0x8>
 4ec:	21390b3b          	.insn	4, 0x21390b3b
 4f0:	2714                	fld	fa3,8(a4)
 4f2:	4919                	li	s2,6
 4f4:	03212013          	slti	zero,sp,50
 4f8:	1301                	addi	t1,t1,-32
 4fa:	0000                	unimp
 4fc:	2e11                	addiw	t3,t3,4
 4fe:	0300                	addi	s0,sp,384
 500:	3a08                	fld	fa0,48(a2)
 502:	0221                	addi	tp,tp,8 # 8 <__boot_hart+0x8>
 504:	21390b3b          	.insn	4, 0x21390b3b
 508:	2714                	fld	fa3,8(a4)
 50a:	2019                	.insn	2, 0x2019
 50c:	0321                	addi	t1,t1,8
 50e:	0000                	unimp
 510:	1112                	slli	sp,sp,0x24
 512:	2501                	sext.w	a0,a0
 514:	130e                	slli	t1,t1,0x23
 516:	1b1f030b          	.insn	4, 0x1b1f030b
 51a:	111f 1201 1007      	.insn	6, 0x10071201111f
 520:	13000017          	auipc	zero,0x13000
 524:	0024                	addi	s1,sp,8
 526:	0b3e0b0b          	.insn	4, 0x0b3e0b0b
 52a:	00000803          	lb	a6,0(zero) # 0 <__boot_hart>
 52e:	2614                	fld	fa3,8(a2)
 530:	4900                	lw	s0,16(a0)
 532:	15000013          	li	zero,336
 536:	0b0b0113          	addi	sp,s6,176
 53a:	0b3a                	slli	s6,s6,0xe
 53c:	0b390b3b          	.insn	4, 0x0b390b3b
 540:	1301                	addi	t1,t1,-32
 542:	0000                	unimp
 544:	0d16                	slli	s10,s10,0x5
 546:	0300                	addi	s0,sp,384
 548:	3a0e                	fld	fs4,224(sp)
 54a:	390b3b0b          	.insn	4, 0x390b3b0b
 54e:	3813490b          	.insn	4, 0x3813490b
 552:	1700000b          	.insn	4, 0x1700000b
 556:	0034                	addi	a3,sp,8
 558:	0b3a0e03          	lb	t3,179(s4)
 55c:	0b390b3b          	.insn	4, 0x0b390b3b
 560:	1349                	addi	t1,t1,-14
 562:	1802                	slli	a6,a6,0x20
 564:	0000                	unimp
 566:	2e18                	fld	fa4,24(a2)
 568:	3f01                	addiw	t5,t5,-32
 56a:	0319                	addi	t1,t1,6
 56c:	3a0e                	fld	fs4,224(sp)
 56e:	390b3b0b          	.insn	4, 0x390b3b0b
 572:	4919270b          	.insn	4, 0x4919270b
 576:	12011113          	.insn	4, 0x12011113
 57a:	7a184007          	.insn	4, 0x7a184007
 57e:	0119                	addi	sp,sp,6
 580:	19000013          	li	zero,400
 584:	0005                	c.nop	1
 586:	0b3a0803          	lb	a6,179(s4)
 58a:	0b390b3b          	.insn	4, 0x0b390b3b
 58e:	1349                	addi	t1,t1,-14
 590:	1802                	slli	a6,a6,0x20
 592:	0000                	unimp
 594:	1d1a                	slli	s10,s10,0x26
 596:	3101                	addiw	sp,sp,-32
 598:	55015213          	.insn	4, 0x55015213
 59c:	590b5817          	auipc	a6,0x590b5
 5a0:	010b570b          	.insn	4, 0x010b570b
 5a4:	1b000013          	li	zero,432
 5a8:	1755010b          	.insn	4, 0x1755010b
 5ac:	0000                	unimp
 5ae:	341c                	fld	fa5,40(s0)
 5b0:	3100                	fld	fs0,32(a0)
 5b2:	1d000013          	li	zero,464
 5b6:	0005                	c.nop	1
 5b8:	1331                	addi	t1,t1,-20
 5ba:	0000                	unimp
 5bc:	011e                	slli	sp,sp,0x7
 5be:	4901                	li	s2,0
 5c0:	00130113          	addi	sp,t1,1
 5c4:	1f00                	addi	s0,sp,944
 5c6:	0021                	c.nop	8
 5c8:	1349                	addi	t1,t1,-14
 5ca:	00000b2f          	.insn	4, 0x0b2f
 5ce:	3420                	fld	fs0,104(s0)
 5d0:	0300                	addi	s0,sp,384
 5d2:	3a08                	fld	fa0,48(a2)
 5d4:	390b3b0b          	.insn	4, 0x390b3b0b
 5d8:	0013490b          	.insn	4, 0x0013490b
 5dc:	0000                	unimp
 5de:	2401                	sext.w	s0,s0
 5e0:	0b00                	addi	s0,sp,400
 5e2:	030b3e0b          	.insn	4, 0x030b3e0b
 5e6:	000e                	c.slli	zero,0x3
 5e8:	0200                	addi	s0,sp,256
 5ea:	0111                	addi	sp,sp,4
 5ec:	0e25                	addi	t3,t3,9
 5ee:	1f030b13          	addi	s6,t1,496
 5f2:	01111f1b          	slliw	t5,sp,0x11
 5f6:	0712                	slli	a4,a4,0x4
 5f8:	1710                	addi	a2,sp,928
 5fa:	0000                	unimp
 5fc:	0b002403          	lw	s0,176(zero) # b0 <__stack_align+0xa0>
 600:	030b3e0b          	.insn	4, 0x030b3e0b
 604:	0008                	.insn	2, 0x0008
 606:	0400                	addi	s0,sp,512
 608:	002e                	c.slli	zero,0xb
 60a:	0e03193f 0b3b0b3a 	.insn	8, 0x0b3b0b3a0e03193f
 612:	0b39                	addi	s6,s6,14
 614:	13491927          	.insn	4, 0x13491927
 618:	193c                	addi	a5,sp,184
 61a:	0000                	unimp
 61c:	0f05                	addi	t5,t5,1
 61e:	0b00                	addi	s0,sp,400
 620:	0013490b          	.insn	4, 0x0013490b
 624:	0600                	addi	s0,sp,768
 626:	012e                	slli	sp,sp,0xb
 628:	0e03193f 0b3b0b3a 	.insn	8, 0x0b3b0b3a0e03193f
 630:	0b39                	addi	s6,s6,14
 632:	13491927          	.insn	4, 0x13491927
 636:	0111                	addi	sp,sp,4
 638:	0712                	slli	a4,a4,0x4
 63a:	1840                	addi	s0,sp,52
 63c:	197a                	slli	s2,s2,0x3e
 63e:	0000                	unimp
 640:	03000507          	.insn	4, 0x03000507
 644:	3a0e                	fld	fs4,224(sp)
 646:	390b3b0b          	.insn	4, 0x390b3b0b
 64a:	0213490b          	.insn	4, 0x0213490b
 64e:	08000017          	auipc	zero,0x8000
 652:	0048                	addi	a0,sp,4
 654:	017d                	addi	sp,sp,31
 656:	0000137f 00240100 	.insn	12, 0x0b3e0b0b002401000000137f
 65e:	0b3e0b0b 
 662:	00000e03          	lb	t3,0(zero) # 0 <__boot_hart>
 666:	1602                	slli	a2,a2,0x20
 668:	0300                	addi	s0,sp,384
 66a:	3a0e                	fld	fs4,224(sp)
 66c:	390b3b0b          	.insn	4, 0x390b3b0b
 670:	0013490b          	.insn	4, 0x0013490b
 674:	0300                	addi	s0,sp,384
 676:	0005                	c.nop	1
 678:	213a0803          	lb	a6,531(s4)
 67c:	3b01                	addiw	s6,s6,-32
 67e:	0521                	addi	a0,a0,8
 680:	0b39                	addi	s6,s6,14
 682:	1349                	addi	t1,t1,-14
 684:	1702                	slli	a4,a4,0x20
 686:	0000                	unimp
 688:	1104                	addi	s1,sp,160
 68a:	2501                	sext.w	a0,a0
 68c:	130e                	slli	t1,t1,0x23
 68e:	1b1f030b          	.insn	4, 0x1b1f030b
 692:	111f 1201 1007      	.insn	6, 0x10071201111f
 698:	05000017          	auipc	zero,0x5000
 69c:	0024                	addi	s1,sp,8
 69e:	0b3e0b0b          	.insn	4, 0x0b3e0b0b
 6a2:	00000803          	lb	a6,0(zero) # 0 <__boot_hart>
 6a6:	2e06                	fld	ft8,64(sp)
 6a8:	3f00                	fld	fs0,56(a4)
 6aa:	0319                	addi	t1,t1,6
 6ac:	3a0e                	fld	fs4,224(sp)
 6ae:	390b3b0b          	.insn	4, 0x390b3b0b
 6b2:	4919270b          	.insn	4, 0x4919270b
 6b6:	00193c13          	seqz	s8,s2
 6ba:	0700                	addi	s0,sp,896
 6bc:	0b0b000f          	.insn	4, 0x0b0b000f
 6c0:	1349                	addi	t1,t1,-14
 6c2:	0000                	unimp
 6c4:	2e08                	fld	fa0,24(a2)
 6c6:	3f01                	addiw	t5,t5,-32
 6c8:	0319                	addi	t1,t1,6
 6ca:	3a0e                	fld	fs4,224(sp)
 6cc:	390b3b0b          	.insn	4, 0x390b3b0b
 6d0:	4919270b          	.insn	4, 0x4919270b
 6d4:	12011113          	.insn	4, 0x12011113
 6d8:	7a184007          	.insn	4, 0x7a184007
 6dc:	0019                	c.nop	6
 6de:	0900                	addi	s0,sp,144
 6e0:	0005                	c.nop	1
 6e2:	0b3a0e03          	lb	t3,179(s4)
 6e6:	0b390b3b          	.insn	4, 0x0b390b3b
 6ea:	1349                	addi	t1,t1,-14
 6ec:	1702                	slli	a4,a4,0x20
 6ee:	0000                	unimp
 6f0:	480a                	lw	a6,128(sp)
 6f2:	7d00                	ld	s0,56(a0)
 6f4:	7f01                	lui	t5,0xfffe0
 6f6:	00000013          	nop
 6fa:	2401                	sext.w	s0,s0
 6fc:	0b00                	addi	s0,sp,400
 6fe:	030b3e0b          	.insn	4, 0x030b3e0b
 702:	000e                	c.slli	zero,0x3
 704:	0200                	addi	s0,sp,256
 706:	0016                	c.slli	zero,0x5
 708:	0b3a0e03          	lb	t3,179(s4)
 70c:	0b390b3b          	.insn	4, 0x0b390b3b
 710:	1349                	addi	t1,t1,-14
 712:	0000                	unimp
 714:	03000503          	lb	a0,48(zero) # 30 <__stack_align+0x20>
 718:	3a08                	fld	fa0,48(a2)
 71a:	0121                	addi	sp,sp,8
 71c:	3905213b          	.insn	4, 0x3905213b
 720:	0213490b          	.insn	4, 0x0213490b
 724:	04000017          	auipc	zero,0x4000
 728:	0111                	addi	sp,sp,4
 72a:	0e25                	addi	t3,t3,9
 72c:	1f030b13          	addi	s6,t1,496
 730:	01111f1b          	slliw	t5,sp,0x11
 734:	0712                	slli	a4,a4,0x4
 736:	1710                	addi	a2,sp,928
 738:	0000                	unimp
 73a:	2405                	addiw	s0,s0,1
 73c:	0b00                	addi	s0,sp,400
 73e:	030b3e0b          	.insn	4, 0x030b3e0b
 742:	0008                	.insn	2, 0x0008
 744:	0600                	addi	s0,sp,768
 746:	0b0b000f          	.insn	4, 0x0b0b000f
 74a:	0000                	unimp
 74c:	3f002e07          	flw	ft8,1008(zero) # 3f0 <__stack_align+0x3e0>
 750:	0319                	addi	t1,t1,6
 752:	3a0e                	fld	fs4,224(sp)
 754:	390b3b0b          	.insn	4, 0x390b3b0b
 758:	4919270b          	.insn	4, 0x4919270b
 75c:	00193c13          	seqz	s8,s2
 760:	0800                	addi	s0,sp,16
 762:	0b0b000f          	.insn	4, 0x0b0b000f
 766:	1349                	addi	t1,t1,-14
 768:	0000                	unimp
 76a:	2e09                	addiw	t3,t3,2
 76c:	3f01                	addiw	t5,t5,-32 # fffffffffffdffe0 <__heap_end+0xffffffff7ffbdfe0>
 76e:	0319                	addi	t1,t1,6
 770:	3a0e                	fld	fs4,224(sp)
 772:	390b3b0b          	.insn	4, 0x390b3b0b
 776:	4919270b          	.insn	4, 0x4919270b
 77a:	12011113          	.insn	4, 0x12011113
 77e:	7a184007          	.insn	4, 0x7a184007
 782:	0019                	c.nop	6
 784:	0a00                	addi	s0,sp,272
 786:	0005                	c.nop	1
 788:	0b3a0e03          	lb	t3,179(s4)
 78c:	0b390b3b          	.insn	4, 0x0b390b3b
 790:	1349                	addi	t1,t1,-14
 792:	1702                	slli	a4,a4,0x20
 794:	0000                	unimp
 796:	7d00480b          	.insn	4, 0x7d00480b
 79a:	7f01                	lui	t5,0xfffe0
 79c:	00000013          	nop
 7a0:	2401                	sext.w	s0,s0
 7a2:	0b00                	addi	s0,sp,400
 7a4:	030b3e0b          	.insn	4, 0x030b3e0b
 7a8:	000e                	c.slli	zero,0x3
 7aa:	0200                	addi	s0,sp,256
 7ac:	210b000f          	.insn	4, 0x210b000f
 7b0:	4908                	lw	a0,16(a0)
 7b2:	03000013          	li	zero,48
 7b6:	0034                	addi	a3,sp,8
 7b8:	213a0e03          	lb	t3,531(s4)
 7bc:	3b01                	addiw	s6,s6,-32
 7be:	490b390b          	.insn	4, 0x490b390b
 7c2:	3c193f13          	sltiu	t5,s2,961
 7c6:	0019                	c.nop	6
 7c8:	0400                	addi	s0,sp,512
 7ca:	0034                	addi	a3,sp,8
 7cc:	213a0e03          	lb	t3,531(s4)
 7d0:	3b01                	addiw	s6,s6,-32
 7d2:	0b21390b          	.insn	4, 0x0b21390b
 7d6:	1349                	addi	t1,t1,-14
 7d8:	1702                	slli	a4,a4,0x20
 7da:	0000                	unimp
 7dc:	1105                	addi	sp,sp,-31
 7de:	2501                	sext.w	a0,a0
 7e0:	130e                	slli	t1,t1,0x23
 7e2:	1b1f030b          	.insn	4, 0x1b1f030b
 7e6:	111f 1201 1007      	.insn	6, 0x10071201111f
 7ec:	06000017          	auipc	zero,0x6000
 7f0:	0016                	c.slli	zero,0x5
 7f2:	0b3a0e03          	lb	t3,179(s4)
 7f6:	0b390b3b          	.insn	4, 0x0b390b3b
 7fa:	1349                	addi	t1,t1,-14
 7fc:	0000                	unimp
 7fe:	0b002407          	flw	fs0,176(zero) # b0 <__stack_align+0xa0>
 802:	030b3e0b          	.insn	4, 0x030b3e0b
 806:	0008                	.insn	2, 0x0008
 808:	0800                	addi	s0,sp,16
 80a:	0b0b000f          	.insn	4, 0x0b0b000f
 80e:	0000                	unimp
 810:	0109                	addi	sp,sp,2
 812:	4901                	li	s2,0
 814:	00130113          	addi	sp,t1,1
 818:	0a00                	addi	s0,sp,272
 81a:	0021                	c.nop	8
 81c:	0000                	unimp
 81e:	0300340b          	.insn	4, 0x0300340b
 822:	3a0e                	fld	fs4,224(sp)
 824:	390b3b0b          	.insn	4, 0x390b3b0b
 828:	0213490b          	.insn	4, 0x0213490b
 82c:	0018                	.insn	2, 0x0018
 82e:	0c00                	addi	s0,sp,528
 830:	002e                	c.slli	zero,0xb
 832:	0e03193f 0b3b0b3a 	.insn	8, 0x0b3b0b3a0e03193f
 83a:	0b39                	addi	s6,s6,14
 83c:	13491927          	.insn	4, 0x13491927
 840:	193c                	addi	a5,sp,184
 842:	0000                	unimp
 844:	2e0d                	addiw	t3,t3,3
 846:	3f01                	addiw	t5,t5,-32 # fffffffffffdffe0 <__heap_end+0xffffffff7ffbdfe0>
 848:	0319                	addi	t1,t1,6
 84a:	3a0e                	fld	fs4,224(sp)
 84c:	390b3b0b          	.insn	4, 0x390b3b0b
 850:	4919270b          	.insn	4, 0x4919270b
 854:	12011113          	.insn	4, 0x12011113
 858:	7a184007          	.insn	4, 0x7a184007
 85c:	0019                	c.nop	6
 85e:	0e00                	addi	s0,sp,784
 860:	0005                	c.nop	1
 862:	0b3a0e03          	lb	t3,179(s4)
 866:	0b390b3b          	.insn	4, 0x0b390b3b
 86a:	1349                	addi	t1,t1,-14
 86c:	1702                	slli	a4,a4,0x20
 86e:	0000                	unimp
 870:	7d00480f          	.insn	4, 0x7d00480f
 874:	7f01                	lui	t5,0xfffe0
 876:	00000013          	nop
 87a:	2401                	sext.w	s0,s0
 87c:	0b00                	addi	s0,sp,400
 87e:	030b3e0b          	.insn	4, 0x030b3e0b
 882:	000e                	c.slli	zero,0x3
 884:	0200                	addi	s0,sp,256
 886:	0016                	c.slli	zero,0x5
 888:	0b3a0e03          	lb	t3,179(s4)
 88c:	0b390b3b          	.insn	4, 0x0b390b3b
 890:	1349                	addi	t1,t1,-14
 892:	0000                	unimp
 894:	49000503          	lb	a0,1168(zero) # 490 <__stack_align+0x480>
 898:	04000013          	li	zero,64
 89c:	0049                	c.nop	18
 89e:	1802                	slli	a6,a6,0x20
 8a0:	187e                	slli	a6,a6,0x3f
 8a2:	0000                	unimp
 8a4:	0505                	addi	a0,a0,1
 8a6:	0300                	addi	s0,sp,384
 8a8:	3a08                	fld	fa0,48(a2)
 8aa:	0121                	addi	sp,sp,8
 8ac:	3906213b          	.insn	4, 0x3906213b
 8b0:	0213490b          	.insn	4, 0x0213490b
 8b4:	06000017          	auipc	zero,0x6000
 8b8:	0111                	addi	sp,sp,4
 8ba:	0e25                	addi	t3,t3,9
 8bc:	1f030b13          	addi	s6,t1,496
 8c0:	01111f1b          	slliw	t5,sp,0x11
 8c4:	0712                	slli	a4,a4,0x4
 8c6:	1710                	addi	a2,sp,928
 8c8:	0000                	unimp
 8ca:	0b002407          	flw	fs0,176(zero) # b0 <__stack_align+0xa0>
 8ce:	030b3e0b          	.insn	4, 0x030b3e0b
 8d2:	0008                	.insn	2, 0x0008
 8d4:	0800                	addi	s0,sp,16
 8d6:	012e                	slli	sp,sp,0xb
 8d8:	0e03193f 0b3b0b3a 	.insn	8, 0x0b3b0b3a0e03193f
 8e0:	0b39                	addi	s6,s6,14
 8e2:	13491927          	.insn	4, 0x13491927
 8e6:	193c                	addi	a5,sp,184
 8e8:	1301                	addi	t1,t1,-32
 8ea:	0000                	unimp
 8ec:	2e09                	addiw	t3,t3,2
 8ee:	3f01                	addiw	t5,t5,-32 # fffffffffffdffe0 <__heap_end+0xffffffff7ffbdfe0>
 8f0:	0319                	addi	t1,t1,6
 8f2:	3a0e                	fld	fs4,224(sp)
 8f4:	390b3b0b          	.insn	4, 0x390b3b0b
 8f8:	4919270b          	.insn	4, 0x4919270b
 8fc:	12011113          	.insn	4, 0x12011113
 900:	7a184007          	.insn	4, 0x7a184007
 904:	0119                	addi	sp,sp,6
 906:	0a000013          	li	zero,160
 90a:	0148                	addi	a0,sp,132
 90c:	017d                	addi	sp,sp,31
 90e:	0182                	c.slli64	gp
 910:	7f19                	lui	t5,0xfffe6
 912:	0b000013          	li	zero,176
 916:	0b0b000f          	.insn	4, 0x0b0b000f
 91a:	1349                	addi	t1,t1,-14
 91c:	0000                	unimp
 91e:	260c                	fld	fa1,8(a2)
 920:	0000                	unimp
	...

Disassembly of section .debug_loclists:

0000000000000000 <.debug_loclists>:
   0:	00bc                	addi	a5,sp,72
   2:	0000                	unimp
   4:	0005                	c.nop	1
   6:	0008                	.insn	2, 0x0008
   8:	0000                	unimp
   a:	0000                	unimp
   c:	6406                	ld	s0,64(sp)
   e:	0002                	c.slli64	zero
  10:	0080                	addi	s0,sp,64
  12:	0000                	unimp
  14:	0400                	addi	s0,sp,512
  16:	0800                	addi	s0,sp,16
  18:	5a01                	li	s4,-32
  1a:	0804                	addi	s1,sp,16
  1c:	0124                	addi	s1,sp,136
  1e:	045e                	slli	s0,s0,0x17
  20:	2824                	fld	fs1,80(s0)
  22:	5a01                	li	s4,-32
  24:	2804                	fld	fs1,16(s0)
  26:	032c                	addi	a1,sp,392
  28:	047a                	slli	s0,s0,0x1e
  2a:	009f 3408 0002      	.insn	6, 0x00023408009f
  30:	0080                	addi	s0,sp,64
  32:	0000                	unimp
  34:	1400                	addi	s0,sp,544
  36:	030a                	slli	t1,t1,0x2
  38:	0fb8                	addi	a4,sp,984
  3a:	8000                	.insn	2, 0x8000
  3c:	0000                	unimp
  3e:	0000                	unimp
  40:	009f 3408 0002      	.insn	6, 0x00023408009f
  46:	0080                	addi	s0,sp,64
  48:	0000                	unimp
  4a:	1400                	addi	s0,sp,544
  4c:	3002                	fld	ft0,32(sp)
  4e:	009f 4808 0002      	.insn	6, 0x00024808009f
  54:	0080                	addi	s0,sp,64
  56:	0000                	unimp
  58:	0800                	addi	s0,sp,16
  5a:	3202                	fld	ft4,32(sp)
  5c:	009f 4808 0002      	.insn	6, 0x00024808009f
  62:	0080                	addi	s0,sp,64
  64:	0000                	unimp
  66:	0800                	addi	s0,sp,16
  68:	3002                	fld	ft0,32(sp)
  6a:	009f 5008 0002      	.insn	6, 0x00025008009f
  70:	0080                	addi	s0,sp,64
  72:	0000                	unimp
  74:	1400                	addi	s0,sp,544
  76:	3002                	fld	ft0,32(sp)
  78:	009f 7008 0002      	.insn	6, 0x00027008009f
  7e:	0080                	addi	s0,sp,64
  80:	0000                	unimp
  82:	0800                	addi	s0,sp,16
  84:	3302                	fld	ft6,32(sp)
  86:	009f 7008 0002      	.insn	6, 0x00027008009f
  8c:	0080                	addi	s0,sp,64
  8e:	0000                	unimp
  90:	0800                	addi	s0,sp,16
  92:	3002                	fld	ft0,32(sp)
  94:	009f 7808 0002      	.insn	6, 0x00027808009f
  9a:	0080                	addi	s0,sp,64
  9c:	0000                	unimp
  9e:	0800                	addi	s0,sp,16
  a0:	3102                	fld	ft2,32(sp)
  a2:	009f 7808 0002      	.insn	6, 0x00027808009f
  a8:	0080                	addi	s0,sp,64
  aa:	0000                	unimp
  ac:	0800                	addi	s0,sp,16
  ae:	3002                	fld	ft0,32(sp)
  b0:	009f 8008 0002      	.insn	6, 0x00028008009f
  b6:	0080                	addi	s0,sp,64
  b8:	0000                	unimp
  ba:	0800                	addi	s0,sp,16
  bc:	3002                	fld	ft0,32(sp)
  be:	009f 0046 0000      	.insn	6, 0x0046009f
  c4:	0005                	c.nop	1
  c6:	0008                	.insn	2, 0x0008
  c8:	0000                	unimp
  ca:	0000                	unimp
  cc:	0004                	.insn	2, 0x0004
  ce:	0106                	slli	sp,sp,0x1
  d0:	045a                	slli	s0,s0,0x16
  d2:	1606                	slli	a2,a2,0x21
  d4:	a304                	fsd	fs1,0(a4)
  d6:	5a01                	li	s4,-32
  d8:	009f 0004 0115      	.insn	6, 0x01150004009f
  de:	1615045b          	.insn	4, 0x1615045b
  e2:	a304                	fsd	fs1,0(a4)
  e4:	5b01                	li	s6,-32
  e6:	009f 0004 0115      	.insn	6, 0x01150004009f
  ec:	045c                	addi	a5,sp,516
  ee:	1615                	addi	a2,a2,-27
  f0:	a304                	fsd	fs1,0(a4)
  f2:	5c01                	li	s8,-32
  f4:	009f 0004 0115      	.insn	6, 0x01150004009f
  fa:	045d                	addi	s0,s0,23
  fc:	1615                	addi	a2,a2,-27
  fe:	a304                	fsd	fs1,0(a4)
 100:	5d01                	li	s10,-32
 102:	009f 0a04 0115      	.insn	6, 0x01150a04009f
 108:	005a                	c.slli	zero,0x16
 10a:	006d                	c.nop	27
 10c:	0000                	unimp
 10e:	0005                	c.nop	1
 110:	0008                	.insn	2, 0x0008
 112:	0000                	unimp
 114:	0000                	unimp
 116:	0004                	.insn	2, 0x0004
 118:	0148                	addi	a0,sp,132
 11a:	045a                	slli	s0,s0,0x16
 11c:	4c48                	lw	a0,28(s0)
 11e:	a304                	fsd	fs1,0(a4)
 120:	5a01                	li	s4,-32
 122:	009f 0004 0112      	.insn	6, 0x01120004009f
 128:	045c                	addi	a5,sp,516
 12a:	3212                	fld	ft4,288(sp)
 12c:	9102                	jalr	sp
 12e:	0458                	addi	a4,sp,516
 130:	4c32                	lw	s8,12(sp)
 132:	a304                	fsd	fs1,0(a4)
 134:	5c01                	li	s8,-32
 136:	009f 0004 011a      	.insn	6, 0x011a0004009f
 13c:	045d                	addi	s0,s0,23
 13e:	4c1a                	lw	s8,132(sp)
 140:	a304                	fsd	fs1,0(a4)
 142:	5d01                	li	s10,-32
 144:	009f 1404 0a24      	.insn	6, 0x0a241404009f
 14a:	000fe003          	lwu	zero,0(t6)
 14e:	0080                	addi	s0,sp,64
 150:	0000                	unimp
 152:	9f00                	.insn	2, 0x9f00
 154:	0400                	addi	s0,sp,512
 156:	221e                	fld	ft4,448(sp)
 158:	9fff0903          	lb	s2,-1537(t5) # fffffffffffe59ff <__heap_end+0xffffffff7ffc39ff>
 15c:	0400                	addi	s0,sp,512
 15e:	221e                	fld	ft4,448(sp)
 160:	030a                	slli	t1,t1,0x2
 162:	0fe0                	addi	s0,sp,988
 164:	8000                	.insn	2, 0x8000
 166:	0000                	unimp
 168:	0000                	unimp
 16a:	009f 3e04 0a42      	.insn	6, 0x0a423e04009f
 170:	000fe003          	lwu	zero,0(t6)
 174:	0080                	addi	s0,sp,64
 176:	0000                	unimp
 178:	9f00                	.insn	2, 0x9f00
 17a:	1600                	addi	s0,sp,800
 17c:	0000                	unimp
 17e:	0500                	addi	s0,sp,640
 180:	0800                	addi	s0,sp,16
 182:	0000                	unimp
 184:	0000                	unimp
 186:	0400                	addi	s0,sp,512
 188:	0700                	addi	s0,sp,896
 18a:	5a01                	li	s4,-32
 18c:	0704                	addi	s1,sp,896
 18e:	0414                	addi	a3,sp,512
 190:	9f5a01a3          	sb	s5,-1565(s4)
 194:	3200                	fld	fs0,32(a2)
 196:	0000                	unimp
 198:	0500                	addi	s0,sp,640
 19a:	0800                	addi	s0,sp,16
 19c:	0000                	unimp
 19e:	0000                	unimp
 1a0:	0400                	addi	s0,sp,512
 1a2:	0700                	addi	s0,sp,896
 1a4:	5a01                	li	s4,-32
 1a6:	0704                	addi	s1,sp,896
 1a8:	0414                	addi	a3,sp,512
 1aa:	9f5a01a3          	sb	s5,-1565(s4)
 1ae:	0400                	addi	s0,sp,512
 1b0:	0700                	addi	s0,sp,896
 1b2:	5b01                	li	s6,-32
 1b4:	0704                	addi	s1,sp,896
 1b6:	0414                	addi	a3,sp,512
 1b8:	9f5b01a3          	sb	s5,-1565(s6)
 1bc:	0400                	addi	s0,sp,512
 1be:	0700                	addi	s0,sp,896
 1c0:	5c01                	li	s8,-32
 1c2:	0704                	addi	s1,sp,896
 1c4:	0414                	addi	a3,sp,512
 1c6:	9f5c01a3          	sb	s5,-1565(s8)
 1ca:	3200                	fld	fs0,32(a2)
 1cc:	0000                	unimp
 1ce:	0500                	addi	s0,sp,640
 1d0:	0800                	addi	s0,sp,16
 1d2:	0000                	unimp
 1d4:	0000                	unimp
 1d6:	0400                	addi	s0,sp,512
 1d8:	0700                	addi	s0,sp,896
 1da:	5a01                	li	s4,-32
 1dc:	0704                	addi	s1,sp,896
 1de:	0416                	slli	s0,s0,0x5
 1e0:	9f5a01a3          	sb	s5,-1565(s4)
 1e4:	0400                	addi	s0,sp,512
 1e6:	0700                	addi	s0,sp,896
 1e8:	5b01                	li	s6,-32
 1ea:	0704                	addi	s1,sp,896
 1ec:	0416                	slli	s0,s0,0x5
 1ee:	9f5b01a3          	sb	s5,-1565(s6)
 1f2:	0400                	addi	s0,sp,512
 1f4:	0700                	addi	s0,sp,896
 1f6:	5c01                	li	s8,-32
 1f8:	0704                	addi	s1,sp,896
 1fa:	0416                	slli	s0,s0,0x5
 1fc:	9f5c01a3          	sb	s5,-1565(s8)
 200:	3400                	fld	fs0,40(s0)
 202:	0000                	unimp
 204:	0500                	addi	s0,sp,640
 206:	0800                	addi	s0,sp,16
 208:	0000                	unimp
 20a:	0000                	unimp
 20c:	0400                	addi	s0,sp,512
 20e:	0c00                	addi	s0,sp,528
 210:	5a01                	li	s4,-32
 212:	0c04                	addi	s1,sp,528
 214:	0438                	addi	a4,sp,520
 216:	9f5a01a3          	sb	s5,-1565(s4)
 21a:	0400                	addi	s0,sp,512
 21c:	200c                	fld	fa1,0(s0)
 21e:	5a01                	li	s4,-32
 220:	2004                	fld	fs1,0(s0)
 222:	0922                	slli	s2,s2,0x8
 224:	000fd803          	lhu	a6,0(t6)
 228:	0080                	addi	s0,sp,64
 22a:	0000                	unimp
 22c:	0400                	addi	s0,sp,512
 22e:	2922                	fld	fs2,8(sp)
 230:	5a01                	li	s4,-32
 232:	0400                	addi	s0,sp,512
 234:	2906                	fld	fs2,64(sp)
 236:	5f01                	li	t5,-32
 238:	3200                	fld	fs0,32(a2)
 23a:	0000                	unimp
 23c:	0500                	addi	s0,sp,640
 23e:	0800                	addi	s0,sp,16
 240:	0000                	unimp
 242:	0000                	unimp
 244:	0400                	addi	s0,sp,512
 246:	0700                	addi	s0,sp,896
 248:	5a01                	li	s4,-32
 24a:	0704                	addi	s1,sp,896
 24c:	0408                	addi	a0,sp,512
 24e:	9f5a01a3          	sb	s5,-1565(s4)
 252:	0400                	addi	s0,sp,512
 254:	0700                	addi	s0,sp,896
 256:	5b01                	li	s6,-32
 258:	0704                	addi	s1,sp,896
 25a:	0408                	addi	a0,sp,512
 25c:	9f5b01a3          	sb	s5,-1565(s6)
 260:	0400                	addi	s0,sp,512
 262:	0700                	addi	s0,sp,896
 264:	5c01                	li	s8,-32
 266:	0704                	addi	s1,sp,896
 268:	0408                	addi	a0,sp,512
 26a:	9f5c01a3          	sb	s5,-1565(s8)
	...

Disassembly of section .debug_aranges:

0000000000000000 <.debug_aranges>:
   0:	002c                	addi	a1,sp,8
   2:	0000                	unimp
   4:	0002                	c.slli64	zero
   6:	0000                	unimp
   8:	0000                	unimp
   a:	0008                	.insn	2, 0x0008
   c:	0000                	unimp
   e:	0000                	unimp
  10:	0234                	addi	a3,sp,264
  12:	8000                	.insn	2, 0x8000
  14:	0000                	unimp
  16:	0000                	unimp
  18:	0064                	addi	s1,sp,12
	...
  2e:	0000                	unimp
  30:	002c                	addi	a1,sp,8
  32:	0000                	unimp
  34:	0002                	c.slli64	zero
  36:	03b6                	slli	t2,t2,0xd
  38:	0000                	unimp
  3a:	0008                	.insn	2, 0x0008
  3c:	0000                	unimp
  3e:	0000                	unimp
  40:	0000                	unimp
  42:	8000                	.insn	2, 0x8000
  44:	0000                	unimp
  46:	0000                	unimp
  48:	01ee                	slli	gp,gp,0x1b
	...
  5e:	0000                	unimp
  60:	002c                	addi	a1,sp,8
  62:	0000                	unimp
  64:	0002                	c.slli64	zero
  66:	03df 0000 0008      	.insn	6, 0x0008000003df
  6c:	0000                	unimp
  6e:	0000                	unimp
  70:	01ee                	slli	gp,gp,0x1b
  72:	8000                	.insn	2, 0x8000
  74:	0000                	unimp
  76:	0000                	unimp
  78:	0046                	c.slli	zero,0x11
	...
  8e:	0000                	unimp
  90:	002c                	addi	a1,sp,8
  92:	0000                	unimp
  94:	0002                	c.slli64	zero
  96:	00000407          	.insn	4, 0x0407
  9a:	0008                	.insn	2, 0x0008
  9c:	0000                	unimp
  9e:	0000                	unimp
  a0:	0298                	addi	a4,sp,320
  a2:	8000                	.insn	2, 0x8000
  a4:	0000                	unimp
  a6:	0000                	unimp
  a8:	0016                	c.slli	zero,0x5
	...
  be:	0000                	unimp
  c0:	002c                	addi	a1,sp,8
  c2:	0000                	unimp
  c4:	0002                	c.slli64	zero
  c6:	0541                	addi	a0,a0,16
  c8:	0000                	unimp
  ca:	0008                	.insn	2, 0x0008
  cc:	0000                	unimp
  ce:	0000                	unimp
  d0:	02ae                	slli	t0,t0,0xb
  d2:	8000                	.insn	2, 0x8000
  d4:	0000                	unimp
  d6:	0000                	unimp
  d8:	002e                	c.slli	zero,0xb
	...
  ee:	0000                	unimp
  f0:	002c                	addi	a1,sp,8
  f2:	0000                	unimp
  f4:	0002                	c.slli64	zero
  f6:	06aa                	slli	a3,a3,0xa
  f8:	0000                	unimp
  fa:	0008                	.insn	2, 0x0008
  fc:	0000                	unimp
  fe:	0000                	unimp
 100:	02dc                	addi	a5,sp,324
 102:	8000                	.insn	2, 0x8000
 104:	0000                	unimp
 106:	0000                	unimp
 108:	0006                	c.slli	zero,0x1
	...
 11e:	0000                	unimp
 120:	002c                	addi	a1,sp,8
 122:	0000                	unimp
 124:	0002                	c.slli64	zero
 126:	000006f3          	.insn	4, 0x06f3
 12a:	0008                	.insn	2, 0x0008
 12c:	0000                	unimp
 12e:	0000                	unimp
 130:	02e2                	slli	t0,t0,0x18
 132:	8000                	.insn	2, 0x8000
 134:	0000                	unimp
 136:	0000                	unimp
 138:	0022                	c.slli	zero,0x8
	...
 14e:	0000                	unimp
 150:	002c                	addi	a1,sp,8
 152:	0000                	unimp
 154:	0002                	c.slli64	zero
 156:	000007d7          	.insn	4, 0x07d7
 15a:	0008                	.insn	2, 0x0008
 15c:	0000                	unimp
 15e:	0000                	unimp
 160:	0304                	addi	s1,sp,384
 162:	8000                	.insn	2, 0x8000
 164:	0000                	unimp
 166:	0000                	unimp
 168:	004c                	addi	a1,sp,4
	...
 17e:	0000                	unimp
 180:	002c                	addi	a1,sp,8
 182:	0000                	unimp
 184:	0002                	c.slli64	zero
 186:	00000b17          	auipc	s6,0x0
 18a:	0008                	.insn	2, 0x0008
 18c:	0000                	unimp
 18e:	0000                	unimp
 190:	0e1e                	slli	t3,t3,0x7
 192:	8000                	.insn	2, 0x8000
 194:	0000                	unimp
 196:	0000                	unimp
 198:	0014                	.insn	2, 0x0014
	...
 1ae:	0000                	unimp
 1b0:	002c                	addi	a1,sp,8
 1b2:	0000                	unimp
 1b4:	0002                	c.slli64	zero
 1b6:	0be8                	addi	a0,sp,476
 1b8:	0000                	unimp
 1ba:	0008                	.insn	2, 0x0008
 1bc:	0000                	unimp
 1be:	0000                	unimp
 1c0:	0e32                	slli	t3,t3,0xc
 1c2:	8000                	.insn	2, 0x8000
 1c4:	0000                	unimp
 1c6:	0000                	unimp
 1c8:	0014                	.insn	2, 0x0014
	...
 1de:	0000                	unimp
 1e0:	002c                	addi	a1,sp,8
 1e2:	0000                	unimp
 1e4:	0002                	c.slli64	zero
 1e6:	0cf9                	addi	s9,s9,30
 1e8:	0000                	unimp
 1ea:	0008                	.insn	2, 0x0008
 1ec:	0000                	unimp
 1ee:	0000                	unimp
 1f0:	0e46                	slli	t3,t3,0x11
 1f2:	8000                	.insn	2, 0x8000
 1f4:	0000                	unimp
 1f6:	0000                	unimp
 1f8:	0016                	c.slli	zero,0x5
	...
 20e:	0000                	unimp
 210:	002c                	addi	a1,sp,8
 212:	0000                	unimp
 214:	0002                	c.slli64	zero
 216:	0e0c                	addi	a1,sp,784
 218:	0000                	unimp
 21a:	0008                	.insn	2, 0x0008
 21c:	0000                	unimp
 21e:	0000                	unimp
 220:	0e5c                	addi	a5,sp,788
 222:	8000                	.insn	2, 0x8000
 224:	0000                	unimp
 226:	0000                	unimp
 228:	0038                	addi	a4,sp,8
	...
 23e:	0000                	unimp
 240:	002c                	addi	a1,sp,8
 242:	0000                	unimp
 244:	0002                	c.slli64	zero
 246:	0f42                	slli	t5,t5,0x10
 248:	0000                	unimp
 24a:	0008                	.insn	2, 0x0008
 24c:	0000                	unimp
 24e:	0000                	unimp
 250:	0e94                	addi	a3,sp,848
 252:	8000                	.insn	2, 0x8000
 254:	0000                	unimp
 256:	0000                	unimp
 258:	0008                	.insn	2, 0x0008
	...

Disassembly of section .debug_rnglists:

0000000000000000 <.debug_rnglists>:
   0:	00000023          	sb	zero,0(zero) # 0 <__boot_hart>
   4:	0005                	c.nop	1
   6:	0008                	.insn	2, 0x0008
   8:	0000                	unimp
   a:	0000                	unimp
   c:	5005                	c.li	zero,-31
   e:	0002                	c.slli64	zero
  10:	0080                	addi	s0,sp,64
  12:	0000                	unimp
  14:	0400                	addi	s0,sp,512
  16:	0800                	addi	s0,sp,16
  18:	1004                	addi	s1,sp,32
  1a:	0014                	.insn	2, 0x0014
  1c:	00023407          	fld	fs0,0(tp) # 0 <__boot_hart>
  20:	0080                	addi	s0,sp,64
  22:	0000                	unimp
  24:	6400                	ld	s0,8(s0)
  26:	0f00                	addi	s0,sp,912
  28:	0000                	unimp
  2a:	0500                	addi	s0,sp,640
  2c:	0800                	addi	s0,sp,16
  2e:	0000                	unimp
  30:	0000                	unimp
  32:	0400                	addi	s0,sp,512
  34:	1a18                	addi	a4,sp,304
  36:	1e04                	addi	s1,sp,816
  38:	0022                	c.slli	zero,0x8

Disassembly of section .debug_line:

0000000000000000 <.debug_line>:
   0:	000001b3          	add	gp,zero,zero
   4:	0005                	c.nop	1
   6:	0008                	.insn	2, 0x0008
   8:	0040                	addi	s0,sp,4
   a:	0000                	unimp
   c:	0101                	addi	sp,sp,0
   e:	fb01                	bnez	a4,ffffffffffffff1e <__heap_end+0xffffffff7ffddf1e>
  10:	0d0e                	slli	s10,s10,0x3
  12:	0100                	addi	s0,sp,128
  14:	0101                	addi	sp,sp,0
  16:	0001                	nop
  18:	0000                	unimp
  1a:	0001                	nop
  1c:	0100                	addi	s0,sp,128
  1e:	0101                	addi	sp,sp,0
  20:	041f 003c 0000      	.insn	6, 0x003c041f
  26:	0070                	addi	a2,sp,12
  28:	0000                	unimp
  2a:	00a4                	addi	s1,sp,72
  2c:	0000                	unimp
  2e:	010d                	addi	sp,sp,3
  30:	0000                	unimp
  32:	0102                	c.slli64	sp
  34:	021f 040f 0034      	.insn	6, 0x0034040f021f
  3a:	0000                	unimp
  3c:	3401                	addiw	s0,s0,-32
  3e:	0000                	unimp
  40:	0100                	addi	s0,sp,128
  42:	0172                	slli	sp,sp,0x1c
  44:	0000                	unimp
  46:	8302                	jr	t1
  48:	0001                	nop
  4a:	0300                	addi	s0,sp,384
  4c:	0105                	addi	sp,sp,1
  4e:	0900                	addi	s0,sp,144
  50:	3402                	fld	fs0,32(sp)
  52:	0002                	c.slli64	zero
  54:	0080                	addi	s0,sp,64
  56:	0000                	unimp
  58:	0300                	addi	s0,sp,384
  5a:	011c                	addi	a5,sp,128
  5c:	0205                	addi	tp,tp,1 # 1 <__boot_hart+0x1>
  5e:	00090103          	lb	sp,0(s2)
  62:	0100                	addi	s0,sp,128
  64:	00090203          	lb	tp,0(s2)
  68:	0100                	addi	s0,sp,128
  6a:	00097103          	.insn	4, 0x00097103
  6e:	0100                	addi	s0,sp,128
  70:	04090103          	lb	sp,64(s2)
  74:	0100                	addi	s0,sp,128
  76:	08090003          	lb	zero,128(s2)
  7a:	0100                	addi	s0,sp,128
  7c:	08090003          	lb	zero,128(s2)
  80:	0100                	addi	s0,sp,128
  82:	3105                	addiw	sp,sp,-31
  84:	00090003          	lb	zero,0(s2)
  88:	0100                	addi	s0,sp,128
  8a:	0205                	addi	tp,tp,1 # 1 <__boot_hart+0x1>
  8c:	00090f03          	lb	t5,0(s2)
  90:	0100                	addi	s0,sp,128
  92:	00097603          	.insn	4, 0x00097603
  96:	0100                	addi	s0,sp,128
  98:	04090003          	lb	zero,64(s2)
  9c:	0100                	addi	s0,sp,128
  9e:	04090003          	lb	zero,64(s2)
  a2:	0100                	addi	s0,sp,128
  a4:	2805                	addiw	a6,a6,1 # 590b559d <__heap_size+0x5909559d>
  a6:	00090003          	lb	zero,0(s2)
  aa:	0100                	addi	s0,sp,128
  ac:	0205                	addi	tp,tp,1 # 1 <__boot_hart+0x1>
  ae:	00090b03          	lb	s6,0(s2)
  b2:	0100                	addi	s0,sp,128
  b4:	00096803          	lwu	a6,0(s2)
  b8:	0100                	addi	s0,sp,128
  ba:	00090103          	lb	sp,0(s2)
  be:	0100                	addi	s0,sp,128
  c0:	00090003          	lb	zero,0(s2)
  c4:	0100                	addi	s0,sp,128
  c6:	04090003          	lb	zero,64(s2)
  ca:	0100                	addi	s0,sp,128
  cc:	04090003          	lb	zero,64(s2)
  d0:	0100                	addi	s0,sp,128
  d2:	00090003          	lb	zero,0(s2)
  d6:	0100                	addi	s0,sp,128
  d8:	1505                	addi	a0,a0,-31
  da:	0306                	slli	t1,t1,0x1
  dc:	0919                	addi	s2,s2,6
  de:	0000                	unimp
  e0:	0501                	addi	a0,a0,0
  e2:	0302                	c.slli64	t1
  e4:	00080967          	jalr	s2,a6
  e8:	0501                	addi	a0,a0,0
  ea:	0003062b          	.insn	4, 0x0003062b
  ee:	0409                	addi	s0,s0,2
  f0:	0100                	addi	s0,sp,128
  f2:	0205                	addi	tp,tp,1 # 1 <__boot_hart+0x1>
  f4:	00090103          	lb	sp,0(s2)
  f8:	0100                	addi	s0,sp,128
  fa:	00091803          	lh	a6,0(s2)
  fe:	0100                	addi	s0,sp,128
 100:	1505                	addi	a0,a0,-31
 102:	0306                	slli	t1,t1,0x1
 104:	0900                	addi	s0,sp,144
 106:	0000                	unimp
 108:	0501                	addi	a0,a0,0
 10a:	030a                	slli	t1,t1,0x2
 10c:	0901                	addi	s2,s2,0
 10e:	0004                	.insn	2, 0x0004
 110:	0501                	addi	a0,a0,0
 112:	0305                	addi	t1,t1,1
 114:	097f 0004 0501 0602 	.insn	10, 0x0303060205010004097f
 11c:	0303 
 11e:	0409                	addi	s0,s0,2
 120:	0100                	addi	s0,sp,128
 122:	00095e03          	lhu	t3,0(s2)
 126:	0100                	addi	s0,sp,128
 128:	04090003          	lb	zero,64(s2)
 12c:	0100                	addi	s0,sp,128
 12e:	04090003          	lb	zero,64(s2)
 132:	0100                	addi	s0,sp,128
 134:	2605                	addiw	a2,a2,1
 136:	00090003          	lb	zero,0(s2)
 13a:	0100                	addi	s0,sp,128
 13c:	0205                	addi	tp,tp,1 # 1 <__boot_hart+0x1>
 13e:	00092303          	lw	t1,0(s2)
 142:	0100                	addi	s0,sp,128
 144:	00096f03          	lwu	t5,0(s2)
 148:	0100                	addi	s0,sp,128
 14a:	04090003          	lb	zero,64(s2)
 14e:	0100                	addi	s0,sp,128
 150:	04090003          	lb	zero,64(s2)
 154:	0100                	addi	s0,sp,128
 156:	2805                	addiw	a6,a6,1
 158:	00090003          	lb	zero,0(s2)
 15c:	0100                	addi	s0,sp,128
 15e:	0205                	addi	tp,tp,1 # 1 <__boot_hart+0x1>
 160:	00091203          	lh	tp,0(s2)
 164:	0100                	addi	s0,sp,128
 166:	00096103          	lwu	sp,0(s2)
 16a:	0100                	addi	s0,sp,128
 16c:	00090103          	lb	sp,0(s2)
 170:	0100                	addi	s0,sp,128
 172:	00090003          	lb	zero,0(s2)
 176:	0100                	addi	s0,sp,128
 178:	04090003          	lb	zero,64(s2)
 17c:	0100                	addi	s0,sp,128
 17e:	04090003          	lb	zero,64(s2)
 182:	0100                	addi	s0,sp,128
 184:	00090003          	lb	zero,0(s2)
 188:	0100                	addi	s0,sp,128
 18a:	2b05                	addiw	s6,s6,1 # 187 <__stack_align+0x177>
 18c:	00090003          	lb	zero,0(s2)
 190:	0100                	addi	s0,sp,128
 192:	0205                	addi	tp,tp,1 # 1 <__boot_hart+0x1>
 194:	00090103          	lb	sp,0(s2)
 198:	0100                	addi	s0,sp,128
 19a:	00091f03          	lh	t5,0(s2)
 19e:	0100                	addi	s0,sp,128
 1a0:	0505                	addi	a0,a0,1
 1a2:	0306                	slli	t1,t1,0x1
 1a4:	0900                	addi	s0,sp,144
 1a6:	0000                	unimp
 1a8:	0501                	addi	a0,a0,0
 1aa:	0301                	addi	t1,t1,0
 1ac:	0904                	addi	s1,sp,144
 1ae:	000c                	.insn	2, 0x000c
 1b0:	0901                	addi	s2,s2,0
 1b2:	0004                	.insn	2, 0x0004
 1b4:	0100                	addi	s0,sp,128
 1b6:	2e01                	sext.w	t3,t3
 1b8:	0004                	.insn	2, 0x0004
 1ba:	0500                	addi	s0,sp,640
 1bc:	0800                	addi	s0,sp,16
 1be:	2e00                	fld	fs0,24(a2)
 1c0:	0000                	unimp
 1c2:	0100                	addi	s0,sp,128
 1c4:	0101                	addi	sp,sp,0
 1c6:	000d0efb          	.insn	4, 0x000d0efb
 1ca:	0101                	addi	sp,sp,0
 1cc:	0101                	addi	sp,sp,0
 1ce:	0000                	unimp
 1d0:	0100                	addi	s0,sp,128
 1d2:	0000                	unimp
 1d4:	0101                	addi	sp,sp,0
 1d6:	1f01                	addi	t5,t5,-32
 1d8:	8d02                	jr	s10
 1da:	0001                	nop
 1dc:	d500                	sw	s0,40(a0)
 1de:	0001                	nop
 1e0:	0200                	addi	s0,sp,256
 1e2:	1f01                	addi	t5,t5,-32
 1e4:	0f02                	c.slli64	t5
 1e6:	dd02                	sw	zero,184(sp)
 1e8:	0001                	nop
 1ea:	0100                	addi	s0,sp,128
 1ec:	01dd                	addi	gp,gp,23 # 800017cf <__global_pointer$+0x17>
 1ee:	0000                	unimp
 1f0:	0001                	nop
 1f2:	0209                	addi	tp,tp,2 # 2 <__boot_hart+0x2>
 1f4:	0000                	unimp
 1f6:	8000                	.insn	2, 0x8000
 1f8:	0000                	unimp
 1fa:	0000                	unimp
 1fc:	03010903          	lb	s2,48(sp)
 200:	0901                	addi	s2,s2,0
 202:	0002                	c.slli64	zero
 204:	0301                	addi	t1,t1,0
 206:	0901                	addi	s2,s2,0
 208:	0002                	c.slli64	zero
 20a:	0301                	addi	t1,t1,0
 20c:	0901                	addi	s2,s2,0
 20e:	0002                	c.slli64	zero
 210:	0301                	addi	t1,t1,0
 212:	0901                	addi	s2,s2,0
 214:	0002                	c.slli64	zero
 216:	0301                	addi	t1,t1,0
 218:	0901                	addi	s2,s2,0
 21a:	0002                	c.slli64	zero
 21c:	0301                	addi	t1,t1,0
 21e:	0901                	addi	s2,s2,0
 220:	0002                	c.slli64	zero
 222:	0301                	addi	t1,t1,0
 224:	0901                	addi	s2,s2,0
 226:	0002                	c.slli64	zero
 228:	0301                	addi	t1,t1,0
 22a:	0901                	addi	s2,s2,0
 22c:	0002                	c.slli64	zero
 22e:	0301                	addi	t1,t1,0
 230:	0901                	addi	s2,s2,0
 232:	0002                	c.slli64	zero
 234:	0301                	addi	t1,t1,0
 236:	0901                	addi	s2,s2,0
 238:	0002                	c.slli64	zero
 23a:	0301                	addi	t1,t1,0
 23c:	0901                	addi	s2,s2,0
 23e:	0002                	c.slli64	zero
 240:	0301                	addi	t1,t1,0
 242:	0901                	addi	s2,s2,0
 244:	0002                	c.slli64	zero
 246:	0301                	addi	t1,t1,0
 248:	0901                	addi	s2,s2,0
 24a:	0002                	c.slli64	zero
 24c:	0301                	addi	t1,t1,0
 24e:	0901                	addi	s2,s2,0
 250:	0002                	c.slli64	zero
 252:	0301                	addi	t1,t1,0
 254:	0901                	addi	s2,s2,0
 256:	0002                	c.slli64	zero
 258:	0301                	addi	t1,t1,0
 25a:	0901                	addi	s2,s2,0
 25c:	0002                	c.slli64	zero
 25e:	0301                	addi	t1,t1,0
 260:	0901                	addi	s2,s2,0
 262:	0002                	c.slli64	zero
 264:	0301                	addi	t1,t1,0
 266:	0901                	addi	s2,s2,0
 268:	0002                	c.slli64	zero
 26a:	0301                	addi	t1,t1,0
 26c:	0901                	addi	s2,s2,0
 26e:	0002                	c.slli64	zero
 270:	0301                	addi	t1,t1,0
 272:	0901                	addi	s2,s2,0
 274:	0002                	c.slli64	zero
 276:	0301                	addi	t1,t1,0
 278:	0901                	addi	s2,s2,0
 27a:	0002                	c.slli64	zero
 27c:	0301                	addi	t1,t1,0
 27e:	0901                	addi	s2,s2,0
 280:	0002                	c.slli64	zero
 282:	0301                	addi	t1,t1,0
 284:	0901                	addi	s2,s2,0
 286:	0002                	c.slli64	zero
 288:	0301                	addi	t1,t1,0
 28a:	0901                	addi	s2,s2,0
 28c:	0002                	c.slli64	zero
 28e:	0301                	addi	t1,t1,0
 290:	0901                	addi	s2,s2,0
 292:	0002                	c.slli64	zero
 294:	0301                	addi	t1,t1,0
 296:	0901                	addi	s2,s2,0
 298:	0002                	c.slli64	zero
 29a:	0301                	addi	t1,t1,0
 29c:	0901                	addi	s2,s2,0
 29e:	0002                	c.slli64	zero
 2a0:	0301                	addi	t1,t1,0
 2a2:	0901                	addi	s2,s2,0
 2a4:	0002                	c.slli64	zero
 2a6:	0301                	addi	t1,t1,0
 2a8:	0901                	addi	s2,s2,0
 2aa:	0002                	c.slli64	zero
 2ac:	0301                	addi	t1,t1,0
 2ae:	0901                	addi	s2,s2,0
 2b0:	0002                	c.slli64	zero
 2b2:	0301                	addi	t1,t1,0
 2b4:	0902                	c.slli64	s2
 2b6:	0002                	c.slli64	zero
 2b8:	0301                	addi	t1,t1,0
 2ba:	0901                	addi	s2,s2,0
 2bc:	0006                	c.slli	zero,0x1
 2be:	0301                	addi	t1,t1,0
 2c0:	0904                	addi	s1,sp,144
 2c2:	0004                	.insn	2, 0x0004
 2c4:	0301                	addi	t1,t1,0
 2c6:	0901                	addi	s2,s2,0
 2c8:	0008                	.insn	2, 0x0008
 2ca:	0301                	addi	t1,t1,0
 2cc:	0902                	c.slli64	s2
 2ce:	0004                	.insn	2, 0x0004
 2d0:	0301                	addi	t1,t1,0
 2d2:	0901                	addi	s2,s2,0
 2d4:	0004                	.insn	2, 0x0004
 2d6:	0301                	addi	t1,t1,0
 2d8:	0901                	addi	s2,s2,0
 2da:	0004                	.insn	2, 0x0004
 2dc:	0301                	addi	t1,t1,0
 2de:	0901                	addi	s2,s2,0
 2e0:	0004                	.insn	2, 0x0004
 2e2:	0301                	addi	t1,t1,0
 2e4:	0901                	addi	s2,s2,0
 2e6:	0004                	.insn	2, 0x0004
 2e8:	0301                	addi	t1,t1,0
 2ea:	0901                	addi	s2,s2,0
 2ec:	0004                	.insn	2, 0x0004
 2ee:	0301                	addi	t1,t1,0
 2f0:	0901                	addi	s2,s2,0
 2f2:	0004                	.insn	2, 0x0004
 2f4:	0301                	addi	t1,t1,0
 2f6:	0901                	addi	s2,s2,0
 2f8:	0004                	.insn	2, 0x0004
 2fa:	0301                	addi	t1,t1,0
 2fc:	0901                	addi	s2,s2,0
 2fe:	0004                	.insn	2, 0x0004
 300:	0301                	addi	t1,t1,0
 302:	0901                	addi	s2,s2,0
 304:	0004                	.insn	2, 0x0004
 306:	0301                	addi	t1,t1,0
 308:	0901                	addi	s2,s2,0
 30a:	0004                	.insn	2, 0x0004
 30c:	0301                	addi	t1,t1,0
 30e:	0901                	addi	s2,s2,0
 310:	0004                	.insn	2, 0x0004
 312:	0301                	addi	t1,t1,0
 314:	0901                	addi	s2,s2,0
 316:	0004                	.insn	2, 0x0004
 318:	0301                	addi	t1,t1,0
 31a:	0901                	addi	s2,s2,0
 31c:	0004                	.insn	2, 0x0004
 31e:	0301                	addi	t1,t1,0
 320:	0901                	addi	s2,s2,0
 322:	0004                	.insn	2, 0x0004
 324:	0301                	addi	t1,t1,0
 326:	0901                	addi	s2,s2,0
 328:	0004                	.insn	2, 0x0004
 32a:	0301                	addi	t1,t1,0
 32c:	0901                	addi	s2,s2,0
 32e:	0004                	.insn	2, 0x0004
 330:	0301                	addi	t1,t1,0
 332:	0901                	addi	s2,s2,0
 334:	0004                	.insn	2, 0x0004
 336:	0301                	addi	t1,t1,0
 338:	0901                	addi	s2,s2,0
 33a:	0004                	.insn	2, 0x0004
 33c:	0301                	addi	t1,t1,0
 33e:	0901                	addi	s2,s2,0
 340:	0004                	.insn	2, 0x0004
 342:	0301                	addi	t1,t1,0
 344:	0901                	addi	s2,s2,0
 346:	0004                	.insn	2, 0x0004
 348:	0301                	addi	t1,t1,0
 34a:	0901                	addi	s2,s2,0
 34c:	0004                	.insn	2, 0x0004
 34e:	0301                	addi	t1,t1,0
 350:	0901                	addi	s2,s2,0
 352:	0004                	.insn	2, 0x0004
 354:	0301                	addi	t1,t1,0
 356:	0901                	addi	s2,s2,0
 358:	0004                	.insn	2, 0x0004
 35a:	0301                	addi	t1,t1,0
 35c:	0901                	addi	s2,s2,0
 35e:	0004                	.insn	2, 0x0004
 360:	0301                	addi	t1,t1,0
 362:	0901                	addi	s2,s2,0
 364:	0004                	.insn	2, 0x0004
 366:	0301                	addi	t1,t1,0
 368:	0901                	addi	s2,s2,0
 36a:	0004                	.insn	2, 0x0004
 36c:	0301                	addi	t1,t1,0
 36e:	0901                	addi	s2,s2,0
 370:	0004                	.insn	2, 0x0004
 372:	0301                	addi	t1,t1,0
 374:	0901                	addi	s2,s2,0
 376:	0004                	.insn	2, 0x0004
 378:	0301                	addi	t1,t1,0
 37a:	0901                	addi	s2,s2,0
 37c:	0004                	.insn	2, 0x0004
 37e:	0301                	addi	t1,t1,0
 380:	0901                	addi	s2,s2,0
 382:	0004                	.insn	2, 0x0004
 384:	0301                	addi	t1,t1,0
 386:	0901                	addi	s2,s2,0
 388:	0004                	.insn	2, 0x0004
 38a:	0301                	addi	t1,t1,0
 38c:	0901                	addi	s2,s2,0
 38e:	0004                	.insn	2, 0x0004
 390:	0301                	addi	t1,t1,0
 392:	0908                	addi	a0,sp,144
 394:	0004                	.insn	2, 0x0004
 396:	0301                	addi	t1,t1,0
 398:	0904                	addi	s1,sp,144
 39a:	0008                	.insn	2, 0x0008
 39c:	0301                	addi	t1,t1,0
 39e:	0901                	addi	s2,s2,0
 3a0:	0004                	.insn	2, 0x0004
 3a2:	0301                	addi	t1,t1,0
 3a4:	0901                	addi	s2,s2,0
 3a6:	0000                	unimp
 3a8:	0301                	addi	t1,t1,0
 3aa:	0901                	addi	s2,s2,0
 3ac:	0004                	.insn	2, 0x0004
 3ae:	0301                	addi	t1,t1,0
 3b0:	0901                	addi	s2,s2,0
 3b2:	0008                	.insn	2, 0x0008
 3b4:	0301                	addi	t1,t1,0
 3b6:	0901                	addi	s2,s2,0
 3b8:	0004                	.insn	2, 0x0004
 3ba:	0301                	addi	t1,t1,0
 3bc:	00020903          	lb	s2,0(tp) # 0 <__boot_hart>
 3c0:	0301                	addi	t1,t1,0
 3c2:	0901                	addi	s2,s2,0
 3c4:	0002                	c.slli64	zero
 3c6:	0301                	addi	t1,t1,0
 3c8:	0901                	addi	s2,s2,0
 3ca:	0004                	.insn	2, 0x0004
 3cc:	0301                	addi	t1,t1,0
 3ce:	00040903          	lb	s2,0(s0)
 3d2:	0301                	addi	t1,t1,0
 3d4:	0901                	addi	s2,s2,0
 3d6:	0008                	.insn	2, 0x0008
 3d8:	0301                	addi	t1,t1,0
 3da:	00040903          	lb	s2,0(s0)
 3de:	0301                	addi	t1,t1,0
 3e0:	00040903          	lb	s2,0(s0)
 3e4:	0301                	addi	t1,t1,0
 3e6:	0901                	addi	s2,s2,0
 3e8:	0004                	.insn	2, 0x0004
 3ea:	0301                	addi	t1,t1,0
 3ec:	00080903          	lb	s2,0(a6)
 3f0:	0301                	addi	t1,t1,0
 3f2:	0901                	addi	s2,s2,0
 3f4:	0004                	.insn	2, 0x0004
 3f6:	0301                	addi	t1,t1,0
 3f8:	0901                	addi	s2,s2,0
 3fa:	0004                	.insn	2, 0x0004
 3fc:	0301                	addi	t1,t1,0
 3fe:	0902                	c.slli64	s2
 400:	0004                	.insn	2, 0x0004
 402:	0301                	addi	t1,t1,0
 404:	0901                	addi	s2,s2,0
 406:	0004                	.insn	2, 0x0004
 408:	0301                	addi	t1,t1,0
 40a:	0901                	addi	s2,s2,0
 40c:	0002                	c.slli64	zero
 40e:	0301                	addi	t1,t1,0
 410:	0904                	addi	s1,sp,144
 412:	0004                	.insn	2, 0x0004
 414:	0301                	addi	t1,t1,0
 416:	0901                	addi	s2,s2,0
 418:	0008                	.insn	2, 0x0008
 41a:	0301                	addi	t1,t1,0
 41c:	0901                	addi	s2,s2,0
 41e:	0004                	.insn	2, 0x0004
 420:	0301                	addi	t1,t1,0
 422:	00040903          	lb	s2,0(s0)
 426:	0301                	addi	t1,t1,0
 428:	00020907          	.insn	4, 0x00020907
 42c:	0301                	addi	t1,t1,0
 42e:	0901                	addi	s2,s2,0
 430:	0004                	.insn	2, 0x0004
 432:	0301                	addi	t1,t1,0
 434:	00020903          	lb	s2,0(tp) # 0 <__boot_hart>
 438:	0301                	addi	t1,t1,0
 43a:	0901                	addi	s2,s2,0
 43c:	0002                	c.slli64	zero
 43e:	0301                	addi	t1,t1,0
 440:	0901                	addi	s2,s2,0
 442:	0004                	.insn	2, 0x0004
 444:	0301                	addi	t1,t1,0
 446:	0901                	addi	s2,s2,0
 448:	0002                	c.slli64	zero
 44a:	0301                	addi	t1,t1,0
 44c:	0901                	addi	s2,s2,0
 44e:	0002                	c.slli64	zero
 450:	0301                	addi	t1,t1,0
 452:	0901                	addi	s2,s2,0
 454:	0002                	c.slli64	zero
 456:	0301                	addi	t1,t1,0
 458:	0901                	addi	s2,s2,0
 45a:	0002                	c.slli64	zero
 45c:	0301                	addi	t1,t1,0
 45e:	0901                	addi	s2,s2,0
 460:	0002                	c.slli64	zero
 462:	0301                	addi	t1,t1,0
 464:	0901                	addi	s2,s2,0
 466:	0002                	c.slli64	zero
 468:	0301                	addi	t1,t1,0
 46a:	0901                	addi	s2,s2,0
 46c:	0002                	c.slli64	zero
 46e:	0301                	addi	t1,t1,0
 470:	0901                	addi	s2,s2,0
 472:	0002                	c.slli64	zero
 474:	0301                	addi	t1,t1,0
 476:	0901                	addi	s2,s2,0
 478:	0002                	c.slli64	zero
 47a:	0301                	addi	t1,t1,0
 47c:	0901                	addi	s2,s2,0
 47e:	0002                	c.slli64	zero
 480:	0301                	addi	t1,t1,0
 482:	0901                	addi	s2,s2,0
 484:	0002                	c.slli64	zero
 486:	0301                	addi	t1,t1,0
 488:	0901                	addi	s2,s2,0
 48a:	0002                	c.slli64	zero
 48c:	0301                	addi	t1,t1,0
 48e:	0901                	addi	s2,s2,0
 490:	0002                	c.slli64	zero
 492:	0301                	addi	t1,t1,0
 494:	0901                	addi	s2,s2,0
 496:	0002                	c.slli64	zero
 498:	0301                	addi	t1,t1,0
 49a:	0901                	addi	s2,s2,0
 49c:	0002                	c.slli64	zero
 49e:	0301                	addi	t1,t1,0
 4a0:	0901                	addi	s2,s2,0
 4a2:	0002                	c.slli64	zero
 4a4:	0301                	addi	t1,t1,0
 4a6:	0901                	addi	s2,s2,0
 4a8:	0002                	c.slli64	zero
 4aa:	0301                	addi	t1,t1,0
 4ac:	0901                	addi	s2,s2,0
 4ae:	0002                	c.slli64	zero
 4b0:	0301                	addi	t1,t1,0
 4b2:	0901                	addi	s2,s2,0
 4b4:	0002                	c.slli64	zero
 4b6:	0301                	addi	t1,t1,0
 4b8:	0901                	addi	s2,s2,0
 4ba:	0002                	c.slli64	zero
 4bc:	0301                	addi	t1,t1,0
 4be:	0901                	addi	s2,s2,0
 4c0:	0002                	c.slli64	zero
 4c2:	0301                	addi	t1,t1,0
 4c4:	0901                	addi	s2,s2,0
 4c6:	0002                	c.slli64	zero
 4c8:	0301                	addi	t1,t1,0
 4ca:	0901                	addi	s2,s2,0
 4cc:	0002                	c.slli64	zero
 4ce:	0301                	addi	t1,t1,0
 4d0:	0901                	addi	s2,s2,0
 4d2:	0002                	c.slli64	zero
 4d4:	0301                	addi	t1,t1,0
 4d6:	0901                	addi	s2,s2,0
 4d8:	0002                	c.slli64	zero
 4da:	0301                	addi	t1,t1,0
 4dc:	0901                	addi	s2,s2,0
 4de:	0002                	c.slli64	zero
 4e0:	0301                	addi	t1,t1,0
 4e2:	0901                	addi	s2,s2,0
 4e4:	0002                	c.slli64	zero
 4e6:	0301                	addi	t1,t1,0
 4e8:	0901                	addi	s2,s2,0
 4ea:	0002                	c.slli64	zero
 4ec:	0301                	addi	t1,t1,0
 4ee:	0901                	addi	s2,s2,0
 4f0:	0002                	c.slli64	zero
 4f2:	0301                	addi	t1,t1,0
 4f4:	00020903          	lb	s2,0(tp) # 0 <__boot_hart>
 4f8:	0301                	addi	t1,t1,0
 4fa:	0901                	addi	s2,s2,0
 4fc:	0004                	.insn	2, 0x0004
 4fe:	0301                	addi	t1,t1,0
 500:	0901                	addi	s2,s2,0
 502:	0004                	.insn	2, 0x0004
 504:	0301                	addi	t1,t1,0
 506:	0901                	addi	s2,s2,0
 508:	0004                	.insn	2, 0x0004
 50a:	0301                	addi	t1,t1,0
 50c:	0901                	addi	s2,s2,0
 50e:	0002                	c.slli64	zero
 510:	0301                	addi	t1,t1,0
 512:	0901                	addi	s2,s2,0
 514:	0004                	.insn	2, 0x0004
 516:	0301                	addi	t1,t1,0
 518:	00040903          	lb	s2,0(s0)
 51c:	0301                	addi	t1,t1,0
 51e:	0901                	addi	s2,s2,0
 520:	0006                	c.slli	zero,0x1
 522:	0301                	addi	t1,t1,0
 524:	0902                	c.slli64	s2
 526:	0004                	.insn	2, 0x0004
 528:	0301                	addi	t1,t1,0
 52a:	0901                	addi	s2,s2,0
 52c:	0002                	c.slli64	zero
 52e:	0301                	addi	t1,t1,0
 530:	0901                	addi	s2,s2,0
 532:	0002                	c.slli64	zero
 534:	0301                	addi	t1,t1,0
 536:	0901                	addi	s2,s2,0
 538:	0002                	c.slli64	zero
 53a:	0301                	addi	t1,t1,0
 53c:	0901                	addi	s2,s2,0
 53e:	0002                	c.slli64	zero
 540:	0301                	addi	t1,t1,0
 542:	0901                	addi	s2,s2,0
 544:	0002                	c.slli64	zero
 546:	0301                	addi	t1,t1,0
 548:	0901                	addi	s2,s2,0
 54a:	0002                	c.slli64	zero
 54c:	0301                	addi	t1,t1,0
 54e:	0901                	addi	s2,s2,0
 550:	0002                	c.slli64	zero
 552:	0301                	addi	t1,t1,0
 554:	0901                	addi	s2,s2,0
 556:	0002                	c.slli64	zero
 558:	0301                	addi	t1,t1,0
 55a:	0901                	addi	s2,s2,0
 55c:	0002                	c.slli64	zero
 55e:	0301                	addi	t1,t1,0
 560:	0901                	addi	s2,s2,0
 562:	0002                	c.slli64	zero
 564:	0301                	addi	t1,t1,0
 566:	0901                	addi	s2,s2,0
 568:	0002                	c.slli64	zero
 56a:	0301                	addi	t1,t1,0
 56c:	0901                	addi	s2,s2,0
 56e:	0002                	c.slli64	zero
 570:	0301                	addi	t1,t1,0
 572:	0901                	addi	s2,s2,0
 574:	0002                	c.slli64	zero
 576:	0301                	addi	t1,t1,0
 578:	0901                	addi	s2,s2,0
 57a:	0002                	c.slli64	zero
 57c:	0301                	addi	t1,t1,0
 57e:	0901                	addi	s2,s2,0
 580:	0002                	c.slli64	zero
 582:	0301                	addi	t1,t1,0
 584:	0901                	addi	s2,s2,0
 586:	0002                	c.slli64	zero
 588:	0301                	addi	t1,t1,0
 58a:	0901                	addi	s2,s2,0
 58c:	0002                	c.slli64	zero
 58e:	0301                	addi	t1,t1,0
 590:	0901                	addi	s2,s2,0
 592:	0002                	c.slli64	zero
 594:	0301                	addi	t1,t1,0
 596:	0901                	addi	s2,s2,0
 598:	0002                	c.slli64	zero
 59a:	0301                	addi	t1,t1,0
 59c:	0901                	addi	s2,s2,0
 59e:	0002                	c.slli64	zero
 5a0:	0301                	addi	t1,t1,0
 5a2:	0901                	addi	s2,s2,0
 5a4:	0002                	c.slli64	zero
 5a6:	0301                	addi	t1,t1,0
 5a8:	0901                	addi	s2,s2,0
 5aa:	0002                	c.slli64	zero
 5ac:	0301                	addi	t1,t1,0
 5ae:	0901                	addi	s2,s2,0
 5b0:	0002                	c.slli64	zero
 5b2:	0301                	addi	t1,t1,0
 5b4:	0901                	addi	s2,s2,0
 5b6:	0002                	c.slli64	zero
 5b8:	0301                	addi	t1,t1,0
 5ba:	0901                	addi	s2,s2,0
 5bc:	0002                	c.slli64	zero
 5be:	0301                	addi	t1,t1,0
 5c0:	0901                	addi	s2,s2,0
 5c2:	0002                	c.slli64	zero
 5c4:	0301                	addi	t1,t1,0
 5c6:	0901                	addi	s2,s2,0
 5c8:	0002                	c.slli64	zero
 5ca:	0301                	addi	t1,t1,0
 5cc:	0901                	addi	s2,s2,0
 5ce:	0002                	c.slli64	zero
 5d0:	0301                	addi	t1,t1,0
 5d2:	0901                	addi	s2,s2,0
 5d4:	0002                	c.slli64	zero
 5d6:	0301                	addi	t1,t1,0
 5d8:	0902                	c.slli64	s2
 5da:	0002                	c.slli64	zero
 5dc:	0301                	addi	t1,t1,0
 5de:	0902                	c.slli64	s2
 5e0:	0002                	c.slli64	zero
 5e2:	0901                	addi	s2,s2,0
 5e4:	0004                	.insn	2, 0x0004
 5e6:	0100                	addi	s0,sp,128
 5e8:	5c01                	li	s8,-32
 5ea:	0000                	unimp
 5ec:	0500                	addi	s0,sp,640
 5ee:	0800                	addi	s0,sp,16
 5f0:	2e00                	fld	fs0,24(a2)
 5f2:	0000                	unimp
 5f4:	0100                	addi	s0,sp,128
 5f6:	0101                	addi	sp,sp,0
 5f8:	000d0efb          	.insn	4, 0x000d0efb
 5fc:	0101                	addi	sp,sp,0
 5fe:	0101                	addi	sp,sp,0
 600:	0000                	unimp
 602:	0100                	addi	s0,sp,128
 604:	0000                	unimp
 606:	0101                	addi	sp,sp,0
 608:	1f01                	addi	t5,t5,-32
 60a:	8d02                	jr	s10
 60c:	0001                	nop
 60e:	d500                	sw	s0,40(a0)
 610:	0001                	nop
 612:	0200                	addi	s0,sp,256
 614:	1f01                	addi	t5,t5,-32
 616:	0f02                	c.slli64	t5
 618:	e402                	sd	zero,8(sp)
 61a:	0001                	nop
 61c:	0100                	addi	s0,sp,128
 61e:	01e4                	addi	s1,sp,204
 620:	0000                	unimp
 622:	0001                	nop
 624:	0209                	addi	tp,tp,2 # 2 <__boot_hart+0x2>
 626:	01ee                	slli	gp,gp,0x1b
 628:	8000                	.insn	2, 0x8000
 62a:	0000                	unimp
 62c:	0000                	unimp
 62e:	03011003          	lh	zero,48(sp)
 632:	0901                	addi	s2,s2,0
 634:	000a                	c.slli	zero,0x2
 636:	0301                	addi	t1,t1,0
 638:	0906                	slli	s2,s2,0x1
 63a:	0018                	.insn	2, 0x0018
 63c:	0301                	addi	t1,t1,0
 63e:	0901                	addi	s2,s2,0
 640:	000c                	.insn	2, 0x000c
 642:	0901                	addi	s2,s2,0
 644:	0018                	.insn	2, 0x0018
 646:	0100                	addi	s0,sp,128
 648:	b301                	j	348 <__stack_align+0x338>
 64a:	0000                	unimp
 64c:	0500                	addi	s0,sp,640
 64e:	0800                	addi	s0,sp,16
 650:	4900                	lw	s0,16(a0)
 652:	0000                	unimp
 654:	0100                	addi	s0,sp,128
 656:	0101                	addi	sp,sp,0
 658:	000d0efb          	.insn	4, 0x000d0efb
 65c:	0101                	addi	sp,sp,0
 65e:	0101                	addi	sp,sp,0
 660:	0000                	unimp
 662:	0100                	addi	s0,sp,128
 664:	0000                	unimp
 666:	0101                	addi	sp,sp,0
 668:	1f01                	addi	t5,t5,-32
 66a:	8d05                	sub	a0,a0,s1
 66c:	0001                	nop
 66e:	d500                	sw	s0,40(a0)
 670:	0001                	nop
 672:	a400                	fsd	fs0,8(s0)
 674:	0000                	unimp
 676:	0d00                	addi	s0,sp,656
 678:	0001                	nop
 67a:	fe00                	sd	s0,56(a2)
 67c:	0001                	nop
 67e:	0200                	addi	s0,sp,256
 680:	1f01                	addi	t5,t5,-32
 682:	0f02                	c.slli64	t5
 684:	f605                	bnez	a2,5ac <__stack_align+0x59c>
 686:	0001                	nop
 688:	0100                	addi	s0,sp,128
 68a:	01f6                	slli	gp,gp,0x1d
 68c:	0000                	unimp
 68e:	7201                	lui	tp,0xfffe0
 690:	0001                	nop
 692:	0200                	addi	s0,sp,256
 694:	00000183          	lb	gp,0(zero) # 0 <__boot_hart>
 698:	00020903          	lb	s2,0(tp) # fffffffffffe0000 <__heap_end+0xffffffff7ffbe000>
 69c:	0400                	addi	s0,sp,512
 69e:	0105                	addi	sp,sp,1
 6a0:	0900                	addi	s0,sp,144
 6a2:	9802                	jalr	a6
 6a4:	0002                	c.slli64	zero
 6a6:	0080                	addi	s0,sp,64
 6a8:	0000                	unimp
 6aa:	1600                	addi	s0,sp,800
 6ac:	0505                	addi	a0,a0,1
 6ae:	00090203          	lb	tp,0(s2)
 6b2:	0100                	addi	s0,sp,128
 6b4:	0105                	addi	sp,sp,1
 6b6:	0306                	slli	t1,t1,0x1
 6b8:	097e                	slli	s2,s2,0x1f
 6ba:	0000                	unimp
 6bc:	0501                	addi	a0,a0,0
 6be:	0309                	addi	t1,t1,2
 6c0:	0902                	c.slli64	s2
 6c2:	0002                	c.slli64	zero
 6c4:	0501                	addi	a0,a0,0
 6c6:	0301                	addi	t1,t1,0
 6c8:	097e                	slli	s2,s2,0x1f
 6ca:	0004                	.insn	2, 0x0004
 6cc:	0501                	addi	a0,a0,0
 6ce:	0309                	addi	t1,t1,2
 6d0:	0902                	c.slli64	s2
 6d2:	0002                	c.slli64	zero
 6d4:	0501                	addi	a0,a0,0
 6d6:	0605                	addi	a2,a2,1
 6d8:	02090203          	lb	tp,32(s2)
 6dc:	0100                	addi	s0,sp,128
 6de:	2a05                	addiw	s4,s4,1
 6e0:	0306                	slli	t1,t1,0x1
 6e2:	0900                	addi	s0,sp,144
 6e4:	0000                	unimp
 6e6:	0001                	nop
 6e8:	0402                	c.slli64	s0
 6ea:	0301                	addi	t1,t1,0
 6ec:	0900                	addi	s0,sp,144
 6ee:	0004                	.insn	2, 0x0004
 6f0:	0501                	addi	a0,a0,0
 6f2:	0605                	addi	a2,a2,1
 6f4:	04090103          	lb	sp,64(s2)
 6f8:	0100                	addi	s0,sp,128
 6fa:	0409                	addi	s0,s0,2
 6fc:	0000                	unimp
 6fe:	0101                	addi	sp,sp,0
 700:	000000db          	.insn	4, 0x00db
 704:	0005                	c.nop	1
 706:	0008                	.insn	2, 0x0008
 708:	0040                	addi	s0,sp,4
 70a:	0000                	unimp
 70c:	0101                	addi	sp,sp,0
 70e:	fb01                	bnez	a4,61e <__stack_align+0x60e>
 710:	0d0e                	slli	s10,s10,0x3
 712:	0100                	addi	s0,sp,128
 714:	0101                	addi	sp,sp,0
 716:	0001                	nop
 718:	0000                	unimp
 71a:	0001                	nop
 71c:	0100                	addi	s0,sp,128
 71e:	0101                	addi	sp,sp,0
 720:	041f 018d 0000      	.insn	6, 0x018d041f
 726:	01d5                	addi	gp,gp,21 # 800017cd <__global_pointer$+0x15>
 728:	0000                	unimp
 72a:	0221                	addi	tp,tp,8 # 8 <__boot_hart+0x8>
 72c:	0000                	unimp
 72e:	0282                	c.slli64	t0
 730:	0000                	unimp
 732:	0102                	c.slli64	sp
 734:	021f 040f 021b      	.insn	6, 0x021b040f021f
 73a:	0000                	unimp
 73c:	1b01                	addi	s6,s6,-32
 73e:	0002                	c.slli64	zero
 740:	0100                	addi	s0,sp,128
 742:	02f2                	slli	t0,t0,0x1c
 744:	0000                	unimp
 746:	fb02                	sd	zero,432(sp)
 748:	0002                	c.slli64	zero
 74a:	0300                	addi	s0,sp,384
 74c:	0105                	addi	sp,sp,1
 74e:	0900                	addi	s0,sp,144
 750:	ae02                	fsd	ft0,280(sp)
 752:	0002                	c.slli64	zero
 754:	0080                	addi	s0,sp,64
 756:	0000                	unimp
 758:	1500                	addi	s0,sp,672
 75a:	0505                	addi	a0,a0,1
 75c:	00090103          	lb	sp,0(s2)
 760:	0100                	addi	s0,sp,128
 762:	00090103          	lb	sp,0(s2)
 766:	0100                	addi	s0,sp,128
 768:	00090103          	lb	sp,0(s2)
 76c:	0100                	addi	s0,sp,128
 76e:	00090103          	lb	sp,0(s2)
 772:	0100                	addi	s0,sp,128
 774:	00090103          	lb	sp,0(s2)
 778:	0100                	addi	s0,sp,128
 77a:	00090203          	lb	tp,0(s2)
 77e:	0100                	addi	s0,sp,128
 780:	0105                	addi	sp,sp,1
 782:	0306                	slli	t1,t1,0x1
 784:	0979                	addi	s2,s2,30
 786:	0000                	unimp
 788:	0501                	addi	a0,a0,0
 78a:	0305                	addi	t1,t1,1
 78c:	00020907          	.insn	4, 0x00020907
 790:	0501                	addi	a0,a0,0
 792:	0301                	addi	t1,t1,0
 794:	0979                	addi	s2,s2,30
 796:	000e                	c.slli	zero,0x3
 798:	0501                	addi	a0,a0,0
 79a:	0305                	addi	t1,t1,1
 79c:	00040907          	.insn	4, 0x00040907
 7a0:	0601                	addi	a2,a2,0
 7a2:	06090103          	lb	sp,96(s2)
 7a6:	0100                	addi	s0,sp,128
 7a8:	0105                	addi	sp,sp,1
 7aa:	0306                	slli	t1,t1,0x1
 7ac:	0901                	addi	s2,s2,0
 7ae:	0006                	c.slli	zero,0x1
 7b0:	0501                	addi	a0,a0,0
 7b2:	0305                	addi	t1,t1,1
 7b4:	097f 0004 0501 0301 	.insn	10, 0x0901030105010004097f
 7bc:	0901 
 7be:	0004                	.insn	2, 0x0004
 7c0:	0501                	addi	a0,a0,0
 7c2:	0305                	addi	t1,t1,1
 7c4:	097f 0000 0501 0301 	.insn	10, 0x0901030105010000097f
 7cc:	0901 
 7ce:	0002                	c.slli64	zero
 7d0:	0501                	addi	a0,a0,0
 7d2:	0305                	addi	t1,t1,1
 7d4:	097f 0002 0901 0002 	.insn	10, 0x0100000209010002097f
 7dc:	0100 
 7de:	6601                	.insn	2, 0x6601
 7e0:	0000                	unimp
 7e2:	0500                	addi	s0,sp,640
 7e4:	0800                	addi	s0,sp,16
 7e6:	2e00                	fld	fs0,24(a2)
 7e8:	0000                	unimp
 7ea:	0100                	addi	s0,sp,128
 7ec:	0101                	addi	sp,sp,0
 7ee:	000d0efb          	.insn	4, 0x000d0efb
 7f2:	0101                	addi	sp,sp,0
 7f4:	0101                	addi	sp,sp,0
 7f6:	0000                	unimp
 7f8:	0100                	addi	s0,sp,128
 7fa:	0000                	unimp
 7fc:	0101                	addi	sp,sp,0
 7fe:	1f01                	addi	t5,t5,-32
 800:	8d02                	jr	s10
 802:	0001                	nop
 804:	d500                	sw	s0,40(a0)
 806:	0001                	nop
 808:	0200                	addi	s0,sp,256
 80a:	1f01                	addi	t5,t5,-32
 80c:	0f02                	c.slli64	t5
 80e:	0c02                	c.slli64	s8
 810:	01000003          	lb	zero,16(zero) # 10 <__stack_align>
 814:	030c                	addi	a1,sp,384
 816:	0000                	unimp
 818:	0501                	addi	a0,a0,0
 81a:	0001                	nop
 81c:	0209                	addi	tp,tp,2 # 2 <__boot_hart+0x2>
 81e:	02dc                	addi	a5,sp,324
 820:	8000                	.insn	2, 0x8000
 822:	0000                	unimp
 824:	0000                	unimp
 826:	0519                	addi	a0,a0,6
 828:	0305                	addi	t1,t1,1
 82a:	0901                	addi	s2,s2,0
 82c:	0000                	unimp
 82e:	0501                	addi	a0,a0,0
 830:	0009                	c.nop	2
 832:	0402                	c.slli64	s0
 834:	0301                	addi	t1,t1,0
 836:	0901                	addi	s2,s2,0
 838:	0000                	unimp
 83a:	0501                	addi	a0,a0,0
 83c:	0305                	addi	t1,t1,1
 83e:	097f 0004 0901 0002 	.insn	10, 0x0100000209010004097f
 846:	0100 
 848:	bb01                	j	558 <__stack_align+0x548>
 84a:	0000                	unimp
 84c:	0500                	addi	s0,sp,640
 84e:	0800                	addi	s0,sp,16
 850:	4900                	lw	s0,16(a0)
 852:	0000                	unimp
 854:	0100                	addi	s0,sp,128
 856:	0101                	addi	sp,sp,0
 858:	000d0efb          	.insn	4, 0x000d0efb
 85c:	0101                	addi	sp,sp,0
 85e:	0101                	addi	sp,sp,0
 860:	0000                	unimp
 862:	0100                	addi	s0,sp,128
 864:	0000                	unimp
 866:	0101                	addi	sp,sp,0
 868:	1f01                	addi	t5,t5,-32
 86a:	8d05                	sub	a0,a0,s1
 86c:	0001                	nop
 86e:	2100                	fld	fs0,0(a0)
 870:	a4000003          	lb	zero,-1472(zero) # fffffffffffffa40 <__heap_end+0xffffffff7ffdda40>
 874:	0000                	unimp
 876:	0d00                	addi	s0,sp,656
 878:	0001                	nop
 87a:	fe00                	sd	s0,56(a2)
 87c:	0001                	nop
 87e:	0200                	addi	s0,sp,256
 880:	1f01                	addi	t5,t5,-32
 882:	0f02                	c.slli64	t5
 884:	1a05                	addi	s4,s4,-31
 886:	01000003          	lb	zero,16(zero) # 10 <__stack_align>
 88a:	031a                	slli	t1,t1,0x6
 88c:	0000                	unimp
 88e:	7201                	lui	tp,0xfffe0
 890:	0001                	nop
 892:	0200                	addi	s0,sp,256
 894:	00000183          	lb	gp,0(zero) # 0 <__boot_hart>
 898:	00032803          	lw	a6,0(t1)
 89c:	0400                	addi	s0,sp,512
 89e:	0105                	addi	sp,sp,1
 8a0:	0900                	addi	s0,sp,144
 8a2:	e202                	sd	zero,256(sp)
 8a4:	0002                	c.slli64	zero
 8a6:	0080                	addi	s0,sp,64
 8a8:	0000                	unimp
 8aa:	1600                	addi	s0,sp,800
 8ac:	0505                	addi	a0,a0,1
 8ae:	00090103          	lb	sp,0(s2)
 8b2:	0100                	addi	s0,sp,128
 8b4:	1405                	addi	s0,s0,-31
 8b6:	0306                	slli	t1,t1,0x1
 8b8:	0900                	addi	s0,sp,144
 8ba:	0000                	unimp
 8bc:	0501                	addi	a0,a0,0
 8be:	030e                	slli	t1,t1,0x3
 8c0:	0900                	addi	s0,sp,144
 8c2:	000a                	c.slli	zero,0x2
 8c4:	0501                	addi	a0,a0,0
 8c6:	0605                	addi	a2,a2,1
 8c8:	0c090103          	lb	sp,192(s2)
 8cc:	0100                	addi	s0,sp,128
 8ce:	0905                	addi	s2,s2,1
 8d0:	00090103          	lb	sp,0(s2)
 8d4:	0100                	addi	s0,sp,128
 8d6:	1205                	addi	tp,tp,-31 # fffffffffffdffe1 <__heap_end+0xffffffff7ffbdfe1>
 8d8:	0306                	slli	t1,t1,0x1
 8da:	0900                	addi	s0,sp,144
 8dc:	0000                	unimp
 8de:	0501                	addi	a0,a0,0
 8e0:	0009                	c.nop	2
 8e2:	0402                	c.slli64	s0
 8e4:	0601                	addi	a2,a2,0
 8e6:	08090103          	lb	sp,128(s2)
 8ea:	0100                	addi	s0,sp,128
 8ec:	1005                	c.nop	-31
 8ee:	0200                	addi	s0,sp,256
 8f0:	0104                	addi	s1,sp,128
 8f2:	0306                	slli	t1,t1,0x1
 8f4:	0900                	addi	s0,sp,144
 8f6:	0000                	unimp
 8f8:	0501                	addi	a0,a0,0
 8fa:	0605                	addi	a2,a2,1
 8fc:	02097e03          	.insn	4, 0x02097e03
 900:	0100                	addi	s0,sp,128
 902:	0209                	addi	tp,tp,2 # 2 <__boot_hart+0x2>
 904:	0000                	unimp
 906:	0101                	addi	sp,sp,0
 908:	01f2                	slli	gp,gp,0x1c
 90a:	0000                	unimp
 90c:	0005                	c.nop	1
 90e:	0008                	.insn	2, 0x0008
 910:	00000053          	fadd.s	ft0,ft0,ft0,rne
 914:	0101                	addi	sp,sp,0
 916:	fb01                	bnez	a4,826 <__stack_align+0x816>
 918:	0d0e                	slli	s10,s10,0x3
 91a:	0100                	addi	s0,sp,128
 91c:	0101                	addi	sp,sp,0
 91e:	0001                	nop
 920:	0000                	unimp
 922:	0001                	nop
 924:	0100                	addi	s0,sp,128
 926:	0101                	addi	sp,sp,0
 928:	051f 018d 0000      	.insn	6, 0x018d051f
 92e:	01d5                	addi	gp,gp,21 # 800017cd <__global_pointer$+0x15>
 930:	0000                	unimp
 932:	01fe                	slli	gp,gp,0x1f
 934:	0000                	unimp
 936:	00a4                	addi	s1,sp,72
 938:	0000                	unimp
 93a:	010d                	addi	sp,sp,3
 93c:	0000                	unimp
 93e:	0102                	c.slli64	sp
 940:	021f 070f 0337      	.insn	6, 0x0337070f021f
 946:	0000                	unimp
 948:	3701                	addiw	a4,a4,-32
 94a:	01000003          	lb	zero,16(zero) # 10 <__stack_align>
 94e:	033e                	slli	t1,t1,0xf
 950:	0000                	unimp
 952:	4702                	lw	a4,0(sp)
 954:	02000003          	lb	zero,32(zero) # 20 <__stack_align+0x10>
 958:	0172                	slli	sp,sp,0x1c
 95a:	0000                	unimp
 95c:	00018303          	lb	t1,0(gp) # 800017b8 <__global_pointer$>
 960:	0400                	addi	s0,sp,512
 962:	0328                	addi	a0,sp,392
 964:	0000                	unimp
 966:	0502                	c.slli64	a0
 968:	0001                	nop
 96a:	0209                	addi	tp,tp,2 # 2 <__boot_hart+0x2>
 96c:	0304                	addi	s1,sp,384
 96e:	8000                	.insn	2, 0x8000
 970:	0000                	unimp
 972:	0000                	unimp
 974:	05010c03          	lb	s8,80(sp)
 978:	0305                	addi	t1,t1,1
 97a:	0901                	addi	s2,s2,0
 97c:	0000                	unimp
 97e:	0301                	addi	t1,t1,0
 980:	0901                	addi	s2,s2,0
 982:	0000                	unimp
 984:	0301                	addi	t1,t1,0
 986:	0902                	c.slli64	s2
 988:	0000                	unimp
 98a:	0501                	addi	a0,a0,0
 98c:	0601                	addi	a2,a2,0
 98e:	00097c03          	.insn	4, 0x00097c03
 992:	0100                	addi	s0,sp,128
 994:	0c05                	addi	s8,s8,1
 996:	02090403          	lb	s0,32(s2)
 99a:	0100                	addi	s0,sp,128
 99c:	0505                	addi	a0,a0,1
 99e:	0306                	slli	t1,t1,0x1
 9a0:	0901                	addi	s2,s2,0
 9a2:	0002                	c.slli64	zero
 9a4:	0501                	addi	a0,a0,0
 9a6:	060c                	addi	a1,sp,768
 9a8:	00090003          	lb	zero,0(s2)
 9ac:	0100                	addi	s0,sp,128
 9ae:	0505                	addi	a0,a0,1
 9b0:	0306                	slli	t1,t1,0x1
 9b2:	0901                	addi	s2,s2,0
 9b4:	0002                	c.slli64	zero
 9b6:	0501                	addi	a0,a0,0
 9b8:	0608                	addi	a0,sp,768
 9ba:	00090303          	lb	t1,0(s2)
 9be:	0100                	addi	s0,sp,128
 9c0:	0c05                	addi	s8,s8,1
 9c2:	04097d03          	.insn	4, 0x04097d03
 9c6:	0100                	addi	s0,sp,128
 9c8:	0505                	addi	a0,a0,1
 9ca:	0306                	slli	t1,t1,0x1
 9cc:	0901                	addi	s2,s2,0
 9ce:	0002                	c.slli64	zero
 9d0:	0501                	addi	a0,a0,0
 9d2:	0608                	addi	a0,sp,768
 9d4:	00090203          	lb	tp,0(s2)
 9d8:	0100                	addi	s0,sp,128
 9da:	0c05                	addi	s8,s8,1
 9dc:	02097e03          	.insn	4, 0x02097e03
 9e0:	0100                	addi	s0,sp,128
 9e2:	0505                	addi	a0,a0,1
 9e4:	0306                	slli	t1,t1,0x1
 9e6:	0902                	c.slli64	s2
 9e8:	0002                	c.slli64	zero
 9ea:	0501                	addi	a0,a0,0
 9ec:	0608                	addi	a0,sp,768
 9ee:	00090003          	lb	zero,0(s2)
 9f2:	0100                	addi	s0,sp,128
 9f4:	0505                	addi	a0,a0,1
 9f6:	0306                	slli	t1,t1,0x1
 9f8:	0901                	addi	s2,s2,0
 9fa:	0004                	.insn	2, 0x0004
 9fc:	0401                	addi	s0,s0,0
 9fe:	0602                	c.slli64	a2
 a00:	04091503          	lh	a0,64(s2)
 a04:	0100                	addi	s0,sp,128
 a06:	0304                	addi	s1,sp,384
 a08:	1005                	c.nop	-31
 a0a:	0200                	addi	s0,sp,256
 a0c:	0104                	addi	s1,sp,128
 a0e:	0306                	slli	t1,t1,0x1
 a10:	0964                	addi	s1,sp,156
 a12:	0002                	c.slli64	zero
 a14:	0401                	addi	s0,s0,0
 a16:	0502                	c.slli64	a0
 a18:	0305                	addi	t1,t1,1
 a1a:	0910                	addi	a2,sp,144
 a1c:	0000                	unimp
 a1e:	0501                	addi	a0,a0,0
 a20:	060c                	addi	a1,sp,768
 a22:	00090003          	lb	zero,0(s2)
 a26:	0100                	addi	s0,sp,128
 a28:	0304                	addi	s1,sp,384
 a2a:	1005                	c.nop	-31
 a2c:	0200                	addi	s0,sp,256
 a2e:	0104                	addi	s1,sp,128
 a30:	02097003          	.insn	4, 0x02097003
 a34:	0100                	addi	s0,sp,128
 a36:	0e05                	addi	t3,t3,1
 a38:	0306                	slli	t1,t1,0x1
 a3a:	0902                	c.slli64	s2
 a3c:	0002                	c.slli64	zero
 a3e:	0401                	addi	s0,s0,0
 a40:	0502                	c.slli64	a0
 a42:	0305                	addi	t1,t1,1
 a44:	0918                	addi	a4,sp,144
 a46:	0000                	unimp
 a48:	0301                	addi	t1,t1,0
 a4a:	0902                	c.slli64	s2
 a4c:	0000                	unimp
 a4e:	0301                	addi	t1,t1,0
 a50:	090d                	addi	s2,s2,3
 a52:	0004                	.insn	2, 0x0004
 a54:	0401                	addi	s0,s0,0
 a56:	000e0503          	lb	a0,0(t3)
 a5a:	0402                	c.slli64	s0
 a5c:	0601                	addi	a2,a2,0
 a5e:	00095903          	lhu	s2,0(s2)
 a62:	0100                	addi	s0,sp,128
 a64:	0104                	addi	s1,sp,128
 a66:	0505                	addi	a0,a0,1
 a68:	0306                	slli	t1,t1,0x1
 a6a:	0906                	slli	s2,s2,0x1
 a6c:	0002                	c.slli64	zero
 a6e:	0401                	addi	s0,s0,0
 a70:	0502                	c.slli64	a0
 a72:	0320                	addi	s0,sp,392
 a74:	097e                	slli	s2,s2,0x1f
 a76:	0000                	unimp
 a78:	0401                	addi	s0,s0,0
 a7a:	0501                	addi	a0,a0,0
 a7c:	0305                	addi	t1,t1,1
 a7e:	00040903          	lb	s2,0(s0)
 a82:	0501                	addi	a0,a0,0
 a84:	060c                	addi	a1,sp,768
 a86:	00090003          	lb	zero,0(s2)
 a8a:	0100                	addi	s0,sp,128
 a8c:	0505                	addi	a0,a0,1
 a8e:	0306                	slli	t1,t1,0x1
 a90:	0901                	addi	s2,s2,0
 a92:	000a                	c.slli	zero,0x2
 a94:	0501                	addi	a0,a0,0
 a96:	0015                	c.nop	5
 a98:	0402                	c.slli64	s0
 a9a:	0301                	addi	t1,t1,0
 a9c:	0900                	addi	s0,sp,144
 a9e:	0000                	unimp
 aa0:	0501                	addi	a0,a0,0
 aa2:	0305                	addi	t1,t1,1
 aa4:	0901                	addi	s2,s2,0
 aa6:	0004                	.insn	2, 0x0004
 aa8:	0501                	addi	a0,a0,0
 aaa:	060e                	slli	a2,a2,0x3
 aac:	00090003          	lb	zero,0(s2)
 ab0:	0100                	addi	s0,sp,128
 ab2:	0505                	addi	a0,a0,1
 ab4:	0306                	slli	t1,t1,0x1
 ab6:	0901                	addi	s2,s2,0
 ab8:	0008                	.insn	2, 0x0008
 aba:	0401                	addi	s0,s0,0
 abc:	097b0303          	lb	t1,151(s6)
 ac0:	0000                	unimp
 ac2:	0401                	addi	s0,s0,0
 ac4:	0302                	c.slli64	t1
 ac6:	0928                	addi	a0,sp,152
 ac8:	0000                	unimp
 aca:	0401                	addi	s0,s0,0
 acc:	0301                	addi	t1,t1,0
 ace:	095f 0004 0401      	.insn	6, 0x04010004095f
 ad4:	0502                	c.slli64	a0
 ad6:	0320                	addi	s0,sp,392
 ad8:	00000977          	.insn	4, 0x0977
 adc:	0401                	addi	s0,s0,0
 ade:	0501                	addi	a0,a0,0
 ae0:	0305                	addi	t1,t1,1
 ae2:	090a                	slli	s2,s2,0x2
 ae4:	0004                	.insn	2, 0x0004
 ae6:	0501                	addi	a0,a0,0
 ae8:	0003060f          	.insn	4, 0x0003060f
 aec:	0009                	c.nop	2
 aee:	0100                	addi	s0,sp,128
 af0:	0105                	addi	sp,sp,1
 af2:	02090103          	lb	sp,32(s2)
 af6:	0100                	addi	s0,sp,128
 af8:	0409                	addi	s0,s0,2
 afa:	0000                	unimp
 afc:	0101                	addi	sp,sp,0
 afe:	0092                	slli	ra,ra,0x4
 b00:	0000                	unimp
 b02:	0005                	c.nop	1
 b04:	0008                	.insn	2, 0x0008
 b06:	00000037          	lui	zero,0x0
 b0a:	0101                	addi	sp,sp,0
 b0c:	fb01                	bnez	a4,a1c <__stack_align+0xa0c>
 b0e:	0d0e                	slli	s10,s10,0x3
 b10:	0100                	addi	s0,sp,128
 b12:	0101                	addi	sp,sp,0
 b14:	0001                	nop
 b16:	0000                	unimp
 b18:	0001                	nop
 b1a:	0100                	addi	s0,sp,128
 b1c:	0101                	addi	sp,sp,0
 b1e:	031f 018d 0000      	.insn	6, 0x018d031f
 b24:	0321                	addi	t1,t1,8
 b26:	0000                	unimp
 b28:	010d                	addi	sp,sp,3
 b2a:	0000                	unimp
 b2c:	0102                	c.slli64	sp
 b2e:	021f 030f 0359      	.insn	6, 0x0359030f021f
 b34:	0000                	unimp
 b36:	5901                	li	s2,-32
 b38:	01000003          	lb	zero,16(zero) # 10 <__stack_align>
 b3c:	0361                	addi	t1,t1,24
 b3e:	0000                	unimp
 b40:	0502                	c.slli64	a0
 b42:	0001                	nop
 b44:	0209                	addi	tp,tp,2 # 2 <__boot_hart+0x2>
 b46:	0e1e                	slli	t3,t3,0x7
 b48:	8000                	.insn	2, 0x8000
 b4a:	0000                	unimp
 b4c:	0000                	unimp
 b4e:	0516                	slli	a0,a0,0x5
 b50:	0305                	addi	t1,t1,1
 b52:	0901                	addi	s2,s2,0
 b54:	0000                	unimp
 b56:	0501                	addi	a0,a0,0
 b58:	0601                	addi	a2,a2,0
 b5a:	00097f03          	.insn	4, 0x00097f03
 b5e:	0100                	addi	s0,sp,128
 b60:	0505                	addi	a0,a0,1
 b62:	04090103          	lb	sp,64(s2)
 b66:	0100                	addi	s0,sp,128
 b68:	0105                	addi	sp,sp,1
 b6a:	04090203          	lb	tp,64(s2)
 b6e:	0100                	addi	s0,sp,128
 b70:	0b05                	addi	s6,s6,1
 b72:	0200                	addi	s0,sp,256
 b74:	0104                	addi	s1,sp,128
 b76:	02097e03          	.insn	4, 0x02097e03
 b7a:	0100                	addi	s0,sp,128
 b7c:	0505                	addi	a0,a0,1
 b7e:	0306                	slli	t1,t1,0x1
 b80:	0901                	addi	s2,s2,0
 b82:	0004                	.insn	2, 0x0004
 b84:	0501                	addi	a0,a0,0
 b86:	0601                	addi	a2,a2,0
 b88:	00090103          	lb	sp,0(s2)
 b8c:	0100                	addi	s0,sp,128
 b8e:	0609                	addi	a2,a2,2
 b90:	0000                	unimp
 b92:	0101                	addi	sp,sp,0
 b94:	009c                	addi	a5,sp,64
 b96:	0000                	unimp
 b98:	0005                	c.nop	1
 b9a:	0008                	.insn	2, 0x0008
 b9c:	0041                	c.nop	16
 b9e:	0000                	unimp
 ba0:	0101                	addi	sp,sp,0
 ba2:	fb01                	bnez	a4,ab2 <__stack_align+0xaa2>
 ba4:	0d0e                	slli	s10,s10,0x3
 ba6:	0100                	addi	s0,sp,128
 ba8:	0101                	addi	sp,sp,0
 baa:	0001                	nop
 bac:	0000                	unimp
 bae:	0001                	nop
 bb0:	0100                	addi	s0,sp,128
 bb2:	0101                	addi	sp,sp,0
 bb4:	031f 018d 0000      	.insn	6, 0x018d031f
 bba:	0321                	addi	t1,t1,8
 bbc:	0000                	unimp
 bbe:	010d                	addi	sp,sp,3
 bc0:	0000                	unimp
 bc2:	0102                	c.slli64	sp
 bc4:	021f 050f 0370      	.insn	6, 0x0370050f021f
 bca:	0000                	unimp
 bcc:	7001                	c.lui	zero,0xfffe0
 bce:	01000003          	lb	zero,16(zero) # 10 <__stack_align>
 bd2:	017a                	slli	sp,sp,0x1e
 bd4:	0000                	unimp
 bd6:	7b02                	ld	s6,32(sp)
 bd8:	0001                	nop
 bda:	0200                	addi	s0,sp,256
 bdc:	0361                	addi	t1,t1,24
 bde:	0000                	unimp
 be0:	0502                	c.slli64	a0
 be2:	0001                	nop
 be4:	0209                	addi	tp,tp,2 # 2 <__boot_hart+0x2>
 be6:	0e32                	slli	t3,t3,0xc
 be8:	8000                	.insn	2, 0x8000
 bea:	0000                	unimp
 bec:	0000                	unimp
 bee:	03050517          	auipc	a0,0x3050
 bf2:	0901                	addi	s2,s2,0
 bf4:	0000                	unimp
 bf6:	0501                	addi	a0,a0,0 # 3050bee <__heap_size+0x3030bee>
 bf8:	0601                	addi	a2,a2,0
 bfa:	00097f03          	.insn	4, 0x00097f03
 bfe:	0100                	addi	s0,sp,128
 c00:	0505                	addi	a0,a0,1
 c02:	04090103          	lb	sp,64(s2)
 c06:	0100                	addi	s0,sp,128
 c08:	0105                	addi	sp,sp,1
 c0a:	04090203          	lb	tp,64(s2)
 c0e:	0100                	addi	s0,sp,128
 c10:	0b05                	addi	s6,s6,1
 c12:	0200                	addi	s0,sp,256
 c14:	0104                	addi	s1,sp,128
 c16:	02097e03          	.insn	4, 0x02097e03
 c1a:	0100                	addi	s0,sp,128
 c1c:	0505                	addi	a0,a0,1
 c1e:	0306                	slli	t1,t1,0x1
 c20:	0901                	addi	s2,s2,0
 c22:	0004                	.insn	2, 0x0004
 c24:	0501                	addi	a0,a0,0
 c26:	0601                	addi	a2,a2,0
 c28:	00090103          	lb	sp,0(s2)
 c2c:	0100                	addi	s0,sp,128
 c2e:	0609                	addi	a2,a2,2
 c30:	0000                	unimp
 c32:	0101                	addi	sp,sp,0
 c34:	00a5                	addi	ra,ra,9
 c36:	0000                	unimp
 c38:	0005                	c.nop	1
 c3a:	0008                	.insn	2, 0x0008
 c3c:	004a                	c.slli	zero,0x12
 c3e:	0000                	unimp
 c40:	0101                	addi	sp,sp,0
 c42:	fb01                	bnez	a4,b52 <__stack_align+0xb42>
 c44:	0d0e                	slli	s10,s10,0x3
 c46:	0100                	addi	s0,sp,128
 c48:	0101                	addi	sp,sp,0
 c4a:	0001                	nop
 c4c:	0000                	unimp
 c4e:	0001                	nop
 c50:	0100                	addi	s0,sp,128
 c52:	0101                	addi	sp,sp,0
 c54:	041f 018d 0000      	.insn	6, 0x018d041f
 c5a:	0321                	addi	t1,t1,8
 c5c:	0000                	unimp
 c5e:	0282                	c.slli64	t0
 c60:	0000                	unimp
 c62:	010d                	addi	sp,sp,3
 c64:	0000                	unimp
 c66:	0102                	c.slli64	sp
 c68:	021f 060f 037f      	.insn	6, 0x037f060f021f
 c6e:	0000                	unimp
 c70:	7f01                	lui	t5,0xfffe0
 c72:	01000003          	lb	zero,16(zero) # 10 <__stack_align>
 c76:	000002fb          	.insn	4, 0x02fb
 c7a:	7a02                	ld	s4,32(sp)
 c7c:	0001                	nop
 c7e:	0300                	addi	s0,sp,384
 c80:	0000017b          	.insn	4, 0x017b
 c84:	00036103          	lwu	sp,0(t1)
 c88:	0300                	addi	s0,sp,384
 c8a:	0105                	addi	sp,sp,1
 c8c:	0900                	addi	s0,sp,144
 c8e:	4602                	lw	a2,0(sp)
 c90:	000e                	c.slli	zero,0x3
 c92:	0080                	addi	s0,sp,64
 c94:	0000                	unimp
 c96:	1700                	addi	s0,sp,928
 c98:	0505                	addi	a0,a0,1
 c9a:	00090103          	lb	sp,0(s2)
 c9e:	0100                	addi	s0,sp,128
 ca0:	0105                	addi	sp,sp,1
 ca2:	0306                	slli	t1,t1,0x1
 ca4:	097f 0000 0501 0305 	.insn	10, 0x0901030505010000097f
 cac:	0901 
 cae:	0004                	.insn	2, 0x0004
 cb0:	0501                	addi	a0,a0,0
 cb2:	0301                	addi	t1,t1,0
 cb4:	0902                	c.slli64	s2
 cb6:	0004                	.insn	2, 0x0004
 cb8:	0501                	addi	a0,a0,0
 cba:	0402000b          	.insn	4, 0x0402000b
 cbe:	0301                	addi	t1,t1,0
 cc0:	097e                	slli	s2,s2,0x1f
 cc2:	0002                	c.slli64	zero
 cc4:	0501                	addi	a0,a0,0
 cc6:	0605                	addi	a2,a2,1
 cc8:	06090103          	lb	sp,96(s2)
 ccc:	0100                	addi	s0,sp,128
 cce:	0105                	addi	sp,sp,1
 cd0:	0306                	slli	t1,t1,0x1
 cd2:	0901                	addi	s2,s2,0
 cd4:	0000                	unimp
 cd6:	0901                	addi	s2,s2,0
 cd8:	0006                	c.slli	zero,0x1
 cda:	0100                	addi	s0,sp,128
 cdc:	2101                	sext.w	sp,sp
 cde:	0001                	nop
 ce0:	0500                	addi	s0,sp,640
 ce2:	0800                	addi	s0,sp,16
 ce4:	4000                	lw	s0,0(s0)
 ce6:	0000                	unimp
 ce8:	0100                	addi	s0,sp,128
 cea:	0101                	addi	sp,sp,0
 cec:	000d0efb          	.insn	4, 0x000d0efb
 cf0:	0101                	addi	sp,sp,0
 cf2:	0101                	addi	sp,sp,0
 cf4:	0000                	unimp
 cf6:	0100                	addi	s0,sp,128
 cf8:	0000                	unimp
 cfa:	0101                	addi	sp,sp,0
 cfc:	1f01                	addi	t5,t5,-32 # fffffffffffdffe0 <__heap_end+0xffffffff7ffbdfe0>
 cfe:	8d04                	.insn	2, 0x8d04
 d00:	0001                	nop
 d02:	2100                	fld	fs0,0(a0)
 d04:	82000003          	lb	zero,-2016(zero) # fffffffffffff820 <__heap_end+0xffffffff7ffdd820>
 d08:	0002                	c.slli64	zero
 d0a:	0d00                	addi	s0,sp,656
 d0c:	0001                	nop
 d0e:	0200                	addi	s0,sp,256
 d10:	1f01                	addi	t5,t5,-32
 d12:	0f02                	c.slli64	t5
 d14:	8d04                	.insn	2, 0x8d04
 d16:	01000003          	lb	zero,16(zero) # 10 <__stack_align>
 d1a:	038d                	addi	t2,t2,3
 d1c:	0000                	unimp
 d1e:	fb01                	bnez	a4,c2e <__stack_align+0xc1e>
 d20:	0002                	c.slli64	zero
 d22:	0200                	addi	s0,sp,256
 d24:	0361                	addi	t1,t1,24
 d26:	0000                	unimp
 d28:	00010503          	lb	a0,0(sp)
 d2c:	0209                	addi	tp,tp,2 # 2 <__boot_hart+0x2>
 d2e:	0e5c                	addi	a5,sp,788
 d30:	8000                	.insn	2, 0x8000
 d32:	0000                	unimp
 d34:	0000                	unimp
 d36:	05010903          	lb	s2,80(sp)
 d3a:	0305                	addi	t1,t1,1
 d3c:	0901                	addi	s2,s2,0
 d3e:	0000                	unimp
 d40:	0301                	addi	t1,t1,0
 d42:	0901                	addi	s2,s2,0
 d44:	0000                	unimp
 d46:	0301                	addi	t1,t1,0
 d48:	0901                	addi	s2,s2,0
 d4a:	0000                	unimp
 d4c:	0301                	addi	t1,t1,0
 d4e:	0902                	c.slli64	s2
 d50:	0000                	unimp
 d52:	0501                	addi	a0,a0,0
 d54:	060c                	addi	a1,sp,768
 d56:	00090003          	lb	zero,0(s2)
 d5a:	0100                	addi	s0,sp,128
 d5c:	0505                	addi	a0,a0,1
 d5e:	0306                	slli	t1,t1,0x1
 d60:	0901                	addi	s2,s2,0
 d62:	0006                	c.slli	zero,0x1
 d64:	0501                	addi	a0,a0,0
 d66:	0008                	.insn	2, 0x0008
 d68:	0402                	c.slli64	s0
 d6a:	0601                	addi	a2,a2,0
 d6c:	00090103          	lb	sp,0(s2)
 d70:	0100                	addi	s0,sp,128
 d72:	0c05                	addi	s8,s8,1
 d74:	04097f03          	.insn	4, 0x04097f03
 d78:	0100                	addi	s0,sp,128
 d7a:	0505                	addi	a0,a0,1
 d7c:	0306                	slli	t1,t1,0x1
 d7e:	0901                	addi	s2,s2,0
 d80:	0002                	c.slli64	zero
 d82:	0501                	addi	a0,a0,0
 d84:	0008                	.insn	2, 0x0008
 d86:	0402                	c.slli64	s0
 d88:	0601                	addi	a2,a2,0
 d8a:	00090003          	lb	zero,0(s2)
 d8e:	0100                	addi	s0,sp,128
 d90:	0505                	addi	a0,a0,1
 d92:	0306                	slli	t1,t1,0x1
 d94:	0905                	addi	s2,s2,1
 d96:	0010                	.insn	2, 0x0010
 d98:	0501                	addi	a0,a0,0
 d9a:	060c                	addi	a1,sp,768
 d9c:	00090003          	lb	zero,0(s2)
 da0:	0100                	addi	s0,sp,128
 da2:	0505                	addi	a0,a0,1
 da4:	0306                	slli	t1,t1,0x1
 da6:	0901                	addi	s2,s2,0
 da8:	0002                	c.slli64	zero
 daa:	0501                	addi	a0,a0,0
 dac:	0601                	addi	a2,a2,0
 dae:	00090103          	lb	sp,0(s2)
 db2:	0100                	addi	s0,sp,128
 db4:	0905                	addi	s2,s2,1
 db6:	0306                	slli	t1,t1,0x1
 db8:	097a                	slli	s2,s2,0x1e
 dba:	0004                	.insn	2, 0x0004
 dbc:	0501                	addi	a0,a0,0
 dbe:	0601                	addi	a2,a2,0
 dc0:	00097803          	.insn	4, 0x00097803
 dc4:	0100                	addi	s0,sp,128
 dc6:	0905                	addi	s2,s2,1
 dc8:	04090803          	lb	a6,64(s2)
 dcc:	0100                	addi	s0,sp,128
 dce:	0105                	addi	sp,sp,1
 dd0:	04090603          	lb	a2,64(s2)
 dd4:	0100                	addi	s0,sp,128
 dd6:	0f05                	addi	t5,t5,1
 dd8:	0200                	addi	s0,sp,256
 dda:	0104                	addi	s1,sp,128
 ddc:	02097a03          	.insn	4, 0x02097a03
 de0:	0100                	addi	s0,sp,128
 de2:	0905                	addi	s2,s2,1
 de4:	0306                	slli	t1,t1,0x1
 de6:	0901                	addi	s2,s2,0
 de8:	0004                	.insn	2, 0x0004
 dea:	0501                	addi	a0,a0,0
 dec:	0610                	addi	a2,sp,768
 dee:	00090003          	lb	zero,0(s2)
 df2:	0100                	addi	s0,sp,128
 df4:	0105                	addi	sp,sp,1
 df6:	02090503          	lb	a0,32(s2)
 dfa:	0100                	addi	s0,sp,128
 dfc:	0609                	addi	a2,a2,2
 dfe:	0000                	unimp
 e00:	0101                	addi	sp,sp,0
 e02:	0089                	addi	ra,ra,2
 e04:	0000                	unimp
 e06:	0005                	c.nop	1
 e08:	0008                	.insn	2, 0x0008
 e0a:	005c                	addi	a5,sp,4
 e0c:	0000                	unimp
 e0e:	0101                	addi	sp,sp,0
 e10:	fb01                	bnez	a4,d20 <__stack_align+0xd10>
 e12:	0d0e                	slli	s10,s10,0x3
 e14:	0100                	addi	s0,sp,128
 e16:	0101                	addi	sp,sp,0
 e18:	0001                	nop
 e1a:	0000                	unimp
 e1c:	0001                	nop
 e1e:	0100                	addi	s0,sp,128
 e20:	0101                	addi	sp,sp,0
 e22:	061f 018d 0000      	.insn	6, 0x018d061f
 e28:	0321                	addi	t1,t1,8
 e2a:	0000                	unimp
 e2c:	0282                	c.slli64	t0
 e2e:	0000                	unimp
 e30:	00a4                	addi	s1,sp,72
 e32:	0000                	unimp
 e34:	010d                	addi	sp,sp,3
 e36:	0000                	unimp
 e38:	01fe                	slli	gp,gp,0x1f
 e3a:	0000                	unimp
 e3c:	0102                	c.slli64	sp
 e3e:	021f 080f 039b      	.insn	6, 0x039b080f021f
 e44:	0000                	unimp
 e46:	9b01                	andi	a4,a4,-32
 e48:	01000003          	lb	zero,16(zero) # 10 <__stack_align>
 e4c:	000002fb          	.insn	4, 0x02fb
 e50:	7202                	ld	tp,32(sp)
 e52:	0001                	nop
 e54:	0300                	addi	s0,sp,384
 e56:	017a                	slli	sp,sp,0x1e
 e58:	0000                	unimp
 e5a:	8304                	.insn	2, 0x8304
 e5c:	0001                	nop
 e5e:	0400                	addi	s0,sp,512
 e60:	0000017b          	.insn	4, 0x017b
 e64:	2804                	fld	fs1,16(s0)
 e66:	05000003          	lb	zero,80(zero) # 50 <__stack_align+0x40>
 e6a:	0105                	addi	sp,sp,1
 e6c:	0900                	addi	s0,sp,144
 e6e:	9402                	jalr	s0
 e70:	000e                	c.slli	zero,0x3
 e72:	0080                	addi	s0,sp,64
 e74:	0000                	unimp
 e76:	1800                	addi	s0,sp,48
 e78:	0505                	addi	a0,a0,1
 e7a:	00090103          	lb	sp,0(s2)
 e7e:	0100                	addi	s0,sp,128
 e80:	0c05                	addi	s8,s8,1
 e82:	0306                	slli	t1,t1,0x1
 e84:	0900                	addi	s0,sp,144
 e86:	0000                	unimp
 e88:	0901                	addi	s2,s2,0
 e8a:	0008                	.insn	2, 0x0008
 e8c:	0100                	addi	s0,sp,128
 e8e:	Address 0xe8e is out of bounds.


Disassembly of section .debug_str:

0000000000000000 <.debug_str>:
   0:	7372                	ld	t1,312(sp)
   2:	5f31                	li	t5,-20
   4:	5f00                	lw	s0,56(a4)
   6:	755f 6e69 7074      	.insn	6, 0x70746e69755f
   c:	7274                	ld	a3,224(a2)
   e:	745f 6100 6363      	.insn	6, 0x63636100745f
  14:	6d75                	lui	s10,0x1d
  16:	775f 6972 6574      	.insn	6, 0x65746972775f
  1c:	6100                	ld	s0,0(a0)
  1e:	6464                	ld	s1,200(s0)
  20:	6e65                	lui	t3,0x19
  22:	0064                	addi	s1,sp,12
  24:	6164                	ld	s1,192(a0)
  26:	6174                	ld	a3,192(a0)
  28:	6100                	ld	s0,0(a0)
  2a:	6d756363          	bltu	a0,s7,6f0 <__stack_align+0x6e0>
  2e:	615f 6464 7500      	.insn	6, 0x75006464615f
  34:	736e                	ld	t1,248(sp)
  36:	6769                	lui	a4,0x1a
  38:	656e                	ld	a0,216(sp)
  3a:	2064                	fld	fs1,192(s0)
  3c:	72616863          	bltu	sp,t1,76c <__stack_align+0x75c>
  40:	7300                	ld	s0,32(a4)
  42:	6f68                	ld	a0,216(a4)
  44:	7472                	ld	s0,312(sp)
  46:	7520                	ld	s0,104(a0)
  48:	736e                	ld	t1,248(sp)
  4a:	6769                	lui	a4,0x1a
  4c:	656e                	ld	a0,216(sp)
  4e:	2064                	fld	fs1,192(s0)
  50:	6e69                	lui	t3,0x1a
  52:	0074                	addi	a3,sp,12
  54:	7372                	ld	t1,312(sp)
  56:	5f32                	lw	t5,44(sp)
  58:	7200                	ld	s0,32(a2)
  5a:	7365                	lui	t1,0xffff9
  5c:	6c75                	lui	s8,0x1d
  5e:	0074                	addi	a3,sp,12
  60:	6361                	lui	t1,0x18
  62:	5f6d7563          	bgeu	s10,s6,64c <__stack_align+0x63c>
  66:	6572                	ld	a0,280(sp)
  68:	6461                	lui	s0,0x18
  6a:	7600                	ld	s0,40(a2)
  6c:	6c61                	lui	s8,0x18
  6e:	6575                	lui	a0,0x1d
  70:	4700                	lw	s0,8(a4)
  72:	554e                	lw	a0,240(sp)
  74:	4320                	lw	s0,64(a4)
  76:	3939                	addiw	s2,s2,-18
  78:	3120                	fld	fs0,96(a0)
  7a:	2e322e33          	.insn	4, 0x2e322e33
  7e:	2030                	fld	fa2,64(s0)
  80:	6d2d                	lui	s10,0xb
  82:	646f6d63          	bltu	t5,t1,6dc <__stack_align+0x6cc>
  86:	6c65                	lui	s8,0x19
  88:	6d3d                	lui	s10,0xf
  8a:	6465                	lui	s0,0x19
  8c:	6e61                	lui	t3,0x18
  8e:	2079                	.insn	2, 0x2079
  90:	6d2d                	lui	s10,0xb
  92:	6261                	lui	tp,0x18
  94:	3d69                	addiw	s10,s10,-6 # affa <__stack_size+0x2ffa>
  96:	706c                	ld	a1,224(s0)
  98:	3436                	fld	fs0,360(sp)
  9a:	2064                	fld	fs1,192(s0)
  9c:	6d2d                	lui	s10,0xb
  9e:	646f6d63          	bltu	t5,t1,6f8 <__stack_align+0x6e8>
  a2:	6c65                	lui	s8,0x19
  a4:	6d3d                	lui	s10,0xf
  a6:	6465                	lui	s0,0x19
  a8:	6e61                	lui	t3,0x18
  aa:	2079                	.insn	2, 0x2079
  ac:	6d2d                	lui	s10,0xb
  ae:	7574                	ld	a3,232(a0)
  b0:	656e                	ld	a0,216(sp)
  b2:	723d                	lui	tp,0xfffef
  b4:	656b636f          	jal	t1,b670a <__heap_size+0x9670a>
  b8:	2074                	fld	fa3,192(s0)
  ba:	6d2d                	lui	s10,0xb
  bc:	7369                	lui	t1,0xffffa
  be:	2d61                	addiw	s10,s10,24 # b018 <__stack_size+0x3018>
  c0:	63657073          	csrci	0x636,10
  c4:	323d                	addiw	tp,tp,-17 # fffffffffffeefef <__heap_end+0xffffffff7ffccfef>
  c6:	3130                	fld	fa2,96(a0)
  c8:	3139                	addiw	sp,sp,-18
  ca:	3132                	fld	ft2,296(sp)
  cc:	6d2d2033          	.insn	4, 0x6d2d2033
  d0:	7261                	lui	tp,0xffff8
  d2:	723d6863          	bltu	s10,gp,802 <__stack_align+0x7f2>
  d6:	3676                	fld	fa2,376(sp)
  d8:	6934                	ld	a3,80(a0)
  da:	616d                	addi	sp,sp,240
  dc:	6466                	ld	s0,88(sp)
  de:	7a5f 6369 7273      	.insn	6, 0x727363697a5f
  e4:	2d20                	fld	fs0,88(a0)
  e6:	4f2d2067          	.insn	4, 0x4f2d2067
  ea:	2032                	fld	ft0,264(sp)
  ec:	732d                	lui	t1,0xfffeb
  ee:	6474                	ld	a3,200(s0)
  f0:	673d                	lui	a4,0xf
  f2:	756e                	ld	a0,248(sp)
  f4:	3939                	addiw	s2,s2,-18
  f6:	2d20                	fld	fs0,88(a0)
  f8:	6e66                	ld	t3,88(sp)
  fa:	6f632d6f          	jal	s10,327f0 <__heap_size+0x127f0>
  fe:	6d6d                	lui	s10,0x1b
 100:	2d206e6f          	jal	t3,63d2 <__stack_size_min+0x3d2>
 104:	6e66                	ld	t3,88(sp)
 106:	75622d6f          	jal	s10,2285c <__heap_size+0x285c>
 10a:	6c69                	lui	s8,0x1a
 10c:	6974                	ld	a3,208(a0)
 10e:	2d6e                	fld	fs10,216(sp)
 110:	7270                	ld	a2,224(a2)
 112:	6e69                	lui	t3,0x1a
 114:	6674                	ld	a3,200(a2)
 116:	7300                	ld	s0,32(a4)
 118:	6f68                	ld	a0,216(a4)
 11a:	7472                	ld	s0,312(sp)
 11c:	6920                	ld	s0,80(a0)
 11e:	746e                	ld	s0,248(sp)
 120:	5f00                	lw	s0,56(a4)
 122:	755f 6e69 3674      	.insn	6, 0x36746e69755f
 128:	5f34                	lw	a3,120(a4)
 12a:	0074                	addi	a3,sp,12
 12c:	6361                	lui	t1,0x18
 12e:	5f6d7563          	bgeu	s10,s6,718 <__stack_align+0x708>
 132:	6f6c                	ld	a1,216(a4)
 134:	6461                	lui	s0,0x18
 136:	2e00                	fld	fs0,24(a2)
 138:	2f2e                	fld	ft10,200(sp)
 13a:	696d                	lui	s2,0x1b
 13c:	632f6373          	csrrsi	t1,0x632,30
 140:	7472                	ld	s0,312(sp)
 142:	2e30                	fld	fa2,88(a2)
 144:	682f0053          	.insn	4, 0x682f0053
 148:	2f656d6f          	jal	s10,5643e <__heap_size+0x3643e>
 14c:	7266                	ld	tp,120(sp)
 14e:	6e61                	lui	t3,0x18
 150:	65682f6b          	.insn	4, 0x65682f6b
 154:	742f6c73          	csrrsi	s8,0x742,30
 158:	7365                	lui	t1,0xffff9
 15a:	5f74                	lw	a3,124(a4)
 15c:	6972                	ld	s2,280(sp)
 15e:	2f766373          	csrrsi	t1,0x2f7,12
 162:	70696863          	bltu	s2,t1,872 <__stack_align+0x862>
 166:	6179                	addi	sp,sp,464
 168:	6472                	ld	s0,280(sp)
 16a:	6968632f          	.insn	4, 0x6968632f
 16e:	7970                	ld	a2,240(a0)
 170:	7261                	lui	tp,0xffff8
 172:	2f64                	fld	fs1,216(a4)
 174:	6f74                	ld	a3,216(a4)
 176:	68636c6f          	jal	s8,367fc <__heap_size+0x167fc>
 17a:	6961                	lui	s2,0x18
 17c:	736e                	ld	t1,248(sp)
 17e:	62696c2f          	.insn	4, 0x62696c2f
 182:	736f6c67          	.insn	4, 0x736f6c67
 186:	75622f73          	csrrs	t5,0x756,tp
 18a:	6c69                	lui	s8,0x1a
 18c:	0064                	addi	s1,sp,12
 18e:	20554e47          	fmsub.s	ft8,fa0,ft5,ft4,rmm
 192:	5341                	li	t1,-16
 194:	3220                	fld	fs0,96(a2)
 196:	342e                	fld	fs0,232(sp)
 198:	0032                	c.slli	zero,0xc
 19a:	2e2e                	fld	ft8,200(sp)
 19c:	73696d2f          	.insn	4, 0x73696d2f
 1a0:	72632f63          	.insn	4, 0x72632f63
 1a4:	6d74                	ld	a3,216(a0)
 1a6:	6961                	lui	s2,0x18
 1a8:	2e6e                	fld	ft8,216(sp)
 1aa:	61680053          	.insn	4, 0x61680053
 1ae:	646e                	ld	s0,216(sp)
 1b0:	656c                	ld	a1,200(a0)
 1b2:	745f 6172 0070      	.insn	6, 0x00706172745f
 1b8:	73756163          	bltu	a0,s7,8da <__stack_align+0x8ca>
 1bc:	0065                	c.nop	25
 1be:	655f 6978 0074      	.insn	6, 0x00746978655f
 1c4:	5f5f 6e69 7074      	.insn	6, 0x70746e695f5f
 1ca:	7274                	ld	a3,224(a2)
 1cc:	745f 7200 6765      	.insn	6, 0x67657200745f
 1d2:	6f6c0073          	.insn	4, 0x6f6c0073
 1d6:	676e                	ld	a4,216(sp)
 1d8:	6c20                	ld	s0,88(s0)
 1da:	20676e6f          	jal	t3,763e0 <__heap_size+0x563e0>
 1de:	6e69                	lui	t3,0x1a
 1e0:	0074                	addi	a3,sp,12
 1e2:	20554e47          	fmsub.s	ft8,fa0,ft5,ft4,rmm
 1e6:	20313143          	fmadd.s	ft2,ft2,ft3,ft4,rup
 1ea:	3331                	addiw	t1,t1,-20 # ffffffffffff8fec <__heap_end+0xffffffff7ffd6fec>
 1ec:	322e                	fld	ft4,232(sp)
 1ee:	302e                	fld	ft0,232(sp)
 1f0:	2d20                	fld	fs0,88(a0)
 1f2:	636d                	lui	t1,0x1b
 1f4:	6f6d                	lui	t5,0x1b
 1f6:	6564                	ld	s1,200(a0)
 1f8:	3d6c                	fld	fa1,248(a0)
 1fa:	656d                	lui	a0,0x1b
 1fc:	6164                	ld	s1,192(a0)
 1fe:	796e                	ld	s2,248(sp)
 200:	2d20                	fld	fs0,88(a0)
 202:	746d                	lui	s0,0xffffb
 204:	6e75                	lui	t3,0x1d
 206:	3d65                	addiw	s10,s10,-7 # 1aff9 <__stack_size+0x12ff9>
 208:	6f72                	ld	t5,280(sp)
 20a:	74656b63          	bltu	a0,t1,960 <__stack_align+0x950>
 20e:	2d20                	fld	fs0,88(a0)
 210:	616d                	addi	sp,sp,240
 212:	6962                	ld	s2,24(sp)
 214:	6c3d                	lui	s8,0xf
 216:	3670                	fld	fa2,232(a2)
 218:	6434                	ld	a3,72(s0)
 21a:	2d20                	fld	fs0,88(a0)
 21c:	696d                	lui	s2,0x1b
 21e:	732d6173          	csrrsi	sp,mhpmevent18h,26
 222:	6570                	ld	a2,200(a0)
 224:	30323d63          	.insn	4, 0x30323d63
 228:	3931                	addiw	s2,s2,-20 # 1afec <__stack_size+0x12fec>
 22a:	3231                	addiw	tp,tp,-20 # ffffffffffff7fec <__heap_end+0xffffffff7ffd5fec>
 22c:	3331                	addiw	t1,t1,-20 # 1afec <__stack_size+0x12fec>
 22e:	2d20                	fld	fs0,88(a0)
 230:	616d                	addi	sp,sp,240
 232:	6372                	ld	t1,280(sp)
 234:	3d68                	fld	fa0,248(a0)
 236:	7672                	ld	a2,312(sp)
 238:	3436                	fld	fs0,360(sp)
 23a:	6d69                	lui	s10,0x1a
 23c:	6661                	lui	a2,0x18
 23e:	6364                	ld	s1,192(a4)
 240:	7a5f 6369 7273      	.insn	6, 0x727363697a5f
 246:	2d20                	fld	fs0,88(a0)
 248:	4f2d2067          	.insn	4, 0x4f2d2067
 24c:	2032                	fld	ft0,264(sp)
 24e:	732d                	lui	t1,0xfffeb
 250:	6474                	ld	a3,200(s0)
 252:	633d                	lui	t1,0xf
 254:	3131                	addiw	sp,sp,-20
 256:	2d20                	fld	fs0,88(a0)
 258:	6e66                	ld	t3,88(sp)
 25a:	6f632d6f          	jal	s10,32950 <__heap_size+0x12950>
 25e:	6d6d                	lui	s10,0x1b
 260:	2d206e6f          	jal	t3,6532 <__stack_size_min+0x532>
 264:	6e66                	ld	t3,88(sp)
 266:	75622d6f          	jal	s10,229bc <__heap_size+0x29bc>
 26a:	6c69                	lui	s8,0x1a
 26c:	6974                	ld	a3,208(a0)
 26e:	006e                	c.slli	zero,0x1b
 270:	65646f63          	bltu	s0,s6,8ce <__stack_align+0x8be>
 274:	6c00                	ld	s0,24(s0)
 276:	20676e6f          	jal	t3,7647c <__heap_size+0x5647c>
 27a:	6f64                	ld	s1,216(a4)
 27c:	6275                	lui	tp,0x1d
 27e:	656c                	ld	a1,200(a0)
 280:	7400                	ld	s0,40(s0)
 282:	6176                	ld	sp,344(sp)
 284:	006c                	addi	a1,sp,12
 286:	5f5f 6e69 7469      	.insn	6, 0x74696e695f5f
 28c:	745f 736c 5f00      	.insn	6, 0x5f00736c745f
 292:	745f 6164 6174      	.insn	6, 0x61746164745f
 298:	735f 7a69 0065      	.insn	6, 0x00657a69735f
 29e:	5f5f 6274 7373      	.insn	6, 0x737362745f5f
 2a4:	6f5f 6666 6573      	.insn	6, 0x657366666f5f
 2aa:	0074                	addi	a3,sp,12
 2ac:	6f6c                	ld	a1,216(a4)
 2ae:	676e                	ld	a4,216(sp)
 2b0:	6c20                	ld	s0,88(s0)
 2b2:	20676e6f          	jal	t3,764b8 <__heap_size+0x564b8>
 2b6:	6e75                	lui	t3,0x1d
 2b8:	6e676973          	csrrsi	s2,0x6e6,14
 2bc:	6465                	lui	s0,0x19
 2be:	6920                	ld	s0,80(a0)
 2c0:	746e                	ld	s0,248(sp)
 2c2:	5f00                	lw	s0,56(a4)
 2c4:	745f 7268 6165      	.insn	6, 0x61657268745f
 2ca:	5f64                	lw	s1,124(a4)
 2cc:	666c6573          	csrrsi	a0,0x666,24
 2d0:	5f00                	lw	s0,56(a4)
 2d2:	745f 7362 5f73      	.insn	6, 0x5f737362745f
 2d8:	657a6973          	csrrsi	s2,hviprio2h,20
 2dc:	6d00                	ld	s0,24(a0)
 2de:	6d65                	lui	s10,0x19
 2e0:	00797063          	bgeu	s2,t2,2e0 <__stack_align+0x2d0>
 2e4:	5f5f 6474 7461      	.insn	6, 0x746164745f5f
 2ea:	5f61                	li	t5,-8
 2ec:	72617473          	csrrci	s0,mhpmevent6h,2
 2f0:	0074                	addi	a3,sp,12
 2f2:	656d                	lui	a0,0x1b
 2f4:	736d                	lui	t1,0xffffb
 2f6:	7465                	lui	s0,0xffff9
 2f8:	5f00                	lw	s0,56(a4)
 2fa:	6d5f 6961 006e      	.insn	6, 0x006e69616d5f
 300:	6f74                	ld	a3,216(a4)
 302:	6f68                	ld	a0,216(a4)
 304:	66007473          	csrrci	s0,0x660,0
 308:	6f72                	ld	t5,280(sp)
 30a:	686d                	lui	a6,0x1b
 30c:	0074736f          	jal	t1,47b12 <__heap_size+0x27b12>
 310:	6e697073          	csrci	0x6e6,18
 314:	6f6c                	ld	a1,216(a4)
 316:	745f6b63          	bltu	t5,t0,a6c <__stack_align+0xa5c>
 31a:	5f00                	lw	s0,56(a4)
 31c:	695f 746e 3233      	.insn	6, 0x3233746e695f
 322:	745f 6800 6974      	.insn	6, 0x69746800745f
 328:	5f66                	lw	t5,120(sp)
 32a:	6f6c                	ld	a1,216(a4)
 32c:	68006b63          	bltu	zero,zero,9c2 <__stack_align+0x9b2>
 330:	6974                	ld	a3,208(a0)
 332:	5f66                	lw	t5,120(sp)
 334:	63737973          	csrrci	s2,0x637,6
 338:	6c61                	lui	s8,0x18
 33a:	006c                	addi	a1,sp,12
 33c:	7461                	lui	s0,0xffff8
 33e:	63696d6f          	jal	s10,96974 <__heap_size+0x76974>
 342:	735f 6177 5f70      	.insn	6, 0x5f706177735f
 348:	6361                	lui	t1,0x18
 34a:	7571                	lui	a0,0xffffc
 34c:	7269                	lui	tp,0xffffa
 34e:	0065                	c.nop	25
 350:	7461                	lui	s0,0xffff8
 352:	63696d6f          	jal	s10,96988 <__heap_size+0x76988>
 356:	745f 6100 6f74      	.insn	6, 0x6f746100745f
 35c:	696d                	lui	s2,0x1b
 35e:	6f6c5f63          	bge	s8,s6,a5c <__stack_align+0xa4c>
 362:	6461                	lui	s0,0x18
 364:	7300                	ld	s0,32(a4)
 366:	6970                	ld	a2,208(a0)
 368:	5f6e                	lw	t5,248(sp)
 36a:	6f6c                	ld	a1,216(a4)
 36c:	73006b63          	bltu	zero,a6,aa2 <__stack_align+0xa92>
 370:	6970                	ld	a2,208(a0)
 372:	5f6e                	lw	t5,248(sp)
 374:	6e75                	lui	t3,0x1d
 376:	6f6c                	ld	a1,216(a4)
 378:	61006b63          	bltu	zero,a6,98e <__stack_align+0x97e>
 37c:	6f74                	ld	a3,216(a4)
 37e:	696d                	lui	s2,0x1b
 380:	6c635f63          	bge	t1,t1,a5e <__stack_align+0xa4e>
 384:	6165                	addi	sp,sp,112
 386:	5f72                	lw	t5,60(sp)
 388:	6572                	ld	a0,280(sp)
 38a:	656c                	ld	a1,200(a0)
 38c:	7361                	lui	t1,0xffff8
 38e:	0065                	c.nop	25
 390:	635f 6f6c 6573      	.insn	6, 0x65736f6c635f
 396:	6600                	ld	s0,8(a2)
 398:	6c69                	lui	s8,0x1a
 39a:	0065                	c.nop	25
 39c:	5f5f 7265 6e72      	.insn	6, 0x6e7272655f5f
 3a2:	5f5f006f          	j	f1196 <__heap_size+0xd1196>
 3a6:	5f66666f          	jal	a2,6699c <__heap_size+0x4699c>
 3aa:	0074                	addi	a3,sp,12
 3ac:	6c5f 6573 6b65      	.insn	6, 0x6b6565736c5f
 3b2:	5f00                	lw	s0,56(a4)
 3b4:	7a697373          	csrrci	t1,0x7a6,18
 3b8:	5f65                	li	t5,-7
 3ba:	0074                	addi	a3,sp,12
 3bc:	7470                	ld	a2,232(s0)
 3be:	6472                	ld	s0,280(sp)
 3c0:	6669                	lui	a2,0x1a
 3c2:	5f66                	lw	t5,120(sp)
 3c4:	0074                	addi	a3,sp,12
 3c6:	5f5f 6568 7061      	.insn	6, 0x706165685f5f
 3cc:	655f 646e 6300      	.insn	6, 0x6300646e655f
 3d2:	7275                	lui	tp,0xffffd
 3d4:	7262                	ld	tp,56(sp)
 3d6:	735f006b          	.insn	4, 0x735f006b
 3da:	7262                	ld	tp,56(sp)
 3dc:	6e69006b          	.insn	4, 0x6e69006b
 3e0:	6f007263          	bgeu	zero,a6,ac4 <__stack_align+0xab4>
 3e4:	646c                	ld	a1,200(s0)
 3e6:	7262                	ld	tp,56(sp)
 3e8:	656e006b          	.insn	4, 0x656e006b
 3ec:	6b726277          	.insn	4, 0x6b726277
	...

Disassembly of section .debug_line_str:

0000000000000000 <.debug_line_str>:
   0:	6d6f682f          	.insn	4, 0x6d6f682f
   4:	2f65                	addiw	t5,t5,25 # 1b019 <__stack_size+0x13019>
   6:	7266                	ld	tp,120(sp)
   8:	6e61                	lui	t3,0x18
   a:	65682f6b          	.insn	4, 0x65682f6b
   e:	742f6c73          	csrrsi	s8,0x742,30
  12:	7365                	lui	t1,0xffff9
  14:	5f74                	lw	a3,124(a4)
  16:	6972                	ld	s2,280(sp)
  18:	2f766373          	csrrsi	t1,0x2f7,12
  1c:	70696863          	bltu	s2,t1,72c <__stack_align+0x71c>
  20:	6179                	addi	sp,sp,464
  22:	6472                	ld	s0,280(sp)
  24:	6968632f          	.insn	4, 0x6968632f
  28:	7970                	ld	a2,240(a0)
  2a:	7261                	lui	tp,0xffff8
  2c:	2f64                	fld	fs1,216(a4)
  2e:	6574                	ld	a3,200(a0)
  30:	2f737473          	csrrci	s0,0x2f7,6
  34:	6361                	lui	t1,0x18
  36:	2e6d7563          	bgeu	s10,t1,320 <__stack_align+0x310>
  3a:	682f0063          	beq	t5,sp,6ba <__stack_align+0x6aa>
  3e:	2f656d6f          	jal	s10,56334 <__heap_size+0x36334>
  42:	7266                	ld	tp,120(sp)
  44:	6e61                	lui	t3,0x18
  46:	65682f6b          	.insn	4, 0x65682f6b
  4a:	742f6c73          	csrrsi	s8,0x742,30
  4e:	7365                	lui	t1,0xffff9
  50:	5f74                	lw	a3,124(a4)
  52:	6972                	ld	s2,280(sp)
  54:	2f766373          	csrrsi	t1,0x2f7,12
  58:	70696863          	bltu	s2,t1,768 <__stack_align+0x758>
  5c:	6179                	addi	sp,sp,464
  5e:	6472                	ld	s0,280(sp)
  60:	6968632f          	.insn	4, 0x6968632f
  64:	7970                	ld	a2,240(a0)
  66:	7261                	lui	tp,0xffff8
  68:	2f64                	fld	fs1,216(a4)
  6a:	7562                	ld	a0,56(sp)
  6c:	6c69                	lui	s8,0x1a
  6e:	0064                	addi	s1,sp,12
  70:	6d6f682f          	.insn	4, 0x6d6f682f
  74:	2f65                	addiw	t5,t5,25
  76:	7266                	ld	tp,120(sp)
  78:	6e61                	lui	t3,0x18
  7a:	65682f6b          	.insn	4, 0x65682f6b
  7e:	742f6c73          	csrrsi	s8,0x742,30
  82:	7365                	lui	t1,0xffff9
  84:	5f74                	lw	a3,124(a4)
  86:	6972                	ld	s2,280(sp)
  88:	2f766373          	csrrsi	t1,0x2f7,12
  8c:	70696863          	bltu	s2,t1,79c <__stack_align+0x78c>
  90:	6179                	addi	sp,sp,464
  92:	6472                	ld	s0,280(sp)
  94:	6968632f          	.insn	4, 0x6968632f
  98:	7970                	ld	a2,240(a0)
  9a:	7261                	lui	tp,0xffff8
  9c:	2f64                	fld	fs1,216(a4)
  9e:	6574                	ld	a3,200(a0)
  a0:	00737473          	csrrci	s0,0x7,6
  a4:	6d6f682f          	.insn	4, 0x6d6f682f
  a8:	2f65                	addiw	t5,t5,25
  aa:	7266                	ld	tp,120(sp)
  ac:	6e61                	lui	t3,0x18
  ae:	65682f6b          	.insn	4, 0x65682f6b
  b2:	742f6c73          	csrrsi	s8,0x742,30
  b6:	7365                	lui	t1,0xffff9
  b8:	5f74                	lw	a3,124(a4)
  ba:	6972                	ld	s2,280(sp)
  bc:	2f766373          	csrrsi	t1,0x2f7,12
  c0:	70696863          	bltu	s2,t1,7d0 <__stack_align+0x7c0>
  c4:	6179                	addi	sp,sp,464
  c6:	6472                	ld	s0,280(sp)
  c8:	6968632f          	.insn	4, 0x6968632f
  cc:	7970                	ld	a2,240(a0)
  ce:	7261                	lui	tp,0xffff8
  d0:	2f64                	fld	fs1,216(a4)
  d2:	632e                	ld	t1,200(sp)
  d4:	61646e6f          	jal	t3,466ea <__heap_size+0x266ea>
  d8:	652d                	lui	a0,0xb
  da:	766e                	ld	a2,248(sp)
  dc:	7369722f          	.insn	4, 0x7369722f
  e0:	742d7663          	bgeu	s10,sp,82c <__stack_align+0x81c>
  e4:	736c6f6f          	jal	t5,c681a <__heap_size+0xa681a>
  e8:	7369722f          	.insn	4, 0x7369722f
  ec:	34367663          	bgeu	a2,gp,438 <__stack_align+0x428>
  f0:	752d                	lui	a0,0xfffeb
  f2:	6b6e                	ld	s6,216(sp)
  f4:	6f6e                	ld	t5,216(sp)
  f6:	652d6e77          	.insn	4, 0x652d6e77
  fa:	666c                	ld	a1,200(a2)
  fc:	636e692f          	.insn	4, 0x636e692f
 100:	756c                	ld	a1,232(a0)
 102:	6564                	ld	s1,200(a0)
 104:	63616d2f          	.insn	4, 0x63616d2f
 108:	6968                	ld	a0,208(a0)
 10a:	656e                	ld	a0,216(sp)
 10c:	2f00                	fld	fs0,24(a4)
 10e:	6f68                	ld	a0,216(a4)
 110:	656d                	lui	a0,0x1b
 112:	6172662f          	.insn	4, 0x6172662f
 116:	6b6e                	ld	s6,216(sp)
 118:	7365682f          	.insn	4, 0x7365682f
 11c:	2f6c                	fld	fa1,216(a4)
 11e:	6574                	ld	a3,200(a0)
 120:	725f7473          	csrrci	s0,mhpmevent5h,30
 124:	7369                	lui	t1,0xffffa
 126:	632f7663          	bgeu	t5,s2,752 <__stack_align+0x742>
 12a:	6968                	ld	a0,208(a0)
 12c:	7970                	ld	a2,240(a0)
 12e:	7261                	lui	tp,0xffff8
 130:	2f64                	fld	fs1,216(a4)
 132:	70696863          	bltu	s2,t1,842 <__stack_align+0x832>
 136:	6179                	addi	sp,sp,464
 138:	6472                	ld	s0,280(sp)
 13a:	6f632e2f          	.insn	4, 0x6f632e2f
 13e:	646e                	ld	s0,216(sp)
 140:	2d61                	addiw	s10,s10,24 # 19018 <__stack_size+0x11018>
 142:	6e65                	lui	t3,0x19
 144:	2f76                	fld	ft10,344(sp)
 146:	6972                	ld	s2,280(sp)
 148:	2d766373          	csrrsi	t1,0x2d7,12
 14c:	6f74                	ld	a3,216(a4)
 14e:	2f736c6f          	jal	s8,36c44 <__heap_size+0x16c44>
 152:	6972                	ld	s2,280(sp)
 154:	36766373          	csrrsi	t1,0x367,12
 158:	2d34                	fld	fa3,88(a0)
 15a:	6e75                	lui	t3,0x1d
 15c:	776f6e6b          	.insn	4, 0x776f6e6b
 160:	2d6e                	fld	fs10,216(sp)
 162:	6c65                	lui	s8,0x19
 164:	2f66                	fld	ft10,88(sp)
 166:	6e69                	lui	t3,0x1a
 168:	64756c63          	bltu	a0,t2,7c0 <__stack_align+0x7b0>
 16c:	2f65                	addiw	t5,t5,25
 16e:	00737973          	csrrci	s2,0x7,6
 172:	645f 6665 7561      	.insn	6, 0x75616665645f
 178:	746c                	ld	a1,232(s0)
 17a:	745f 7079 7365      	.insn	6, 0x73657079745f
 180:	682e                	ld	a6,200(sp)
 182:	5f00                	lw	s0,56(a4)
 184:	69647473          	csrrci	s0,0x696,8
 188:	746e                	ld	s0,248(sp)
 18a:	682e                	ld	a6,200(sp)
 18c:	2f00                	fld	fs0,24(a4)
 18e:	6f68                	ld	a0,216(a4)
 190:	656d                	lui	a0,0x1b
 192:	6172662f          	.insn	4, 0x6172662f
 196:	6b6e                	ld	s6,216(sp)
 198:	7365682f          	.insn	4, 0x7365682f
 19c:	2f6c                	fld	fa1,216(a4)
 19e:	6574                	ld	a3,200(a0)
 1a0:	725f7473          	csrrci	s0,mhpmevent5h,30
 1a4:	7369                	lui	t1,0xffffa
 1a6:	632f7663          	bgeu	t5,s2,7d2 <__stack_align+0x7c2>
 1aa:	6968                	ld	a0,208(a0)
 1ac:	7970                	ld	a2,240(a0)
 1ae:	7261                	lui	tp,0xffff8
 1b0:	2f64                	fld	fs1,216(a4)
 1b2:	70696863          	bltu	s2,t1,8c2 <__stack_align+0x8b2>
 1b6:	6179                	addi	sp,sp,464
 1b8:	6472                	ld	s0,280(sp)
 1ba:	6f6f742f          	.insn	4, 0x6f6f742f
 1be:	636c                	ld	a1,192(a4)
 1c0:	6168                	ld	a0,192(a0)
 1c2:	6e69                	lui	t3,0x1a
 1c4:	696c2f73          	csrrs	t5,0x696,s8
 1c8:	6762                	ld	a4,24(sp)
 1ca:	6f6c                	ld	a1,216(a4)
 1cc:	622f7373          	csrrci	t1,0x622,30
 1d0:	6975                	lui	s2,0x1d
 1d2:	646c                	ld	a1,200(s0)
 1d4:	2e00                	fld	fs0,24(a2)
 1d6:	2f2e                	fld	ft10,200(sp)
 1d8:	696d                	lui	s2,0x1b
 1da:	63006373          	csrrsi	t1,0x630,0
 1de:	7472                	ld	s0,312(sp)
 1e0:	2e30                	fld	fa2,88(a2)
 1e2:	72630053          	.insn	4, 0x72630053
 1e6:	6d74                	ld	a3,216(a0)
 1e8:	6961                	lui	s2,0x18
 1ea:	2e6e                	fld	ft8,216(sp)
 1ec:	2e2e0053          	.insn	4, 0x2e2e0053
 1f0:	73696d2f          	.insn	4, 0x73696d2f
 1f4:	72742f63          	.insn	4, 0x72742f63
 1f8:	7061                	c.lui	zero,0xffff8
 1fa:	00632e73          	csrrs	t3,0x6,t1
 1fe:	2e2e                	fld	ft8,200(sp)
 200:	636e692f          	.insn	4, 0x636e692f
 204:	756c                	ld	a1,232(a0)
 206:	6564                	ld	s1,200(a0)
 208:	7300                	ld	s0,32(a4)
 20a:	7379                	lui	t1,0xffffe
 20c:	6c6c6163          	bltu	s8,t1,8ce <__stack_align+0x8be>
 210:	682e                	ld	a6,200(sp)
 212:	2e00                	fld	fs0,24(a2)
 214:	2f2e                	fld	ft10,200(sp)
 216:	696d                	lui	s2,0x1b
 218:	742f6373          	csrrsi	t1,0x742,30
 21c:	736c                	ld	a1,224(a4)
 21e:	632e                	ld	t1,200(sp)
 220:	2f00                	fld	fs0,24(a4)
 222:	6f68                	ld	a0,216(a4)
 224:	656d                	lui	a0,0x1b
 226:	6172662f          	.insn	4, 0x6172662f
 22a:	6b6e                	ld	s6,216(sp)
 22c:	7365682f          	.insn	4, 0x7365682f
 230:	2f6c                	fld	fa1,216(a4)
 232:	6574                	ld	a3,200(a0)
 234:	725f7473          	csrrci	s0,mhpmevent5h,30
 238:	7369                	lui	t1,0xffffa
 23a:	632f7663          	bgeu	t5,s2,866 <__stack_align+0x856>
 23e:	6968                	ld	a0,208(a0)
 240:	7970                	ld	a2,240(a0)
 242:	7261                	lui	tp,0xffff8
 244:	2f64                	fld	fs1,216(a4)
 246:	70696863          	bltu	s2,t1,956 <__stack_align+0x946>
 24a:	6179                	addi	sp,sp,464
 24c:	6472                	ld	s0,280(sp)
 24e:	6f632e2f          	.insn	4, 0x6f632e2f
 252:	646e                	ld	s0,216(sp)
 254:	2d61                	addiw	s10,s10,24
 256:	6e65                	lui	t3,0x19
 258:	2f76                	fld	ft10,344(sp)
 25a:	6972                	ld	s2,280(sp)
 25c:	2d766373          	csrrsi	t1,0x2d7,12
 260:	6f74                	ld	a3,216(a4)
 262:	2f736c6f          	jal	s8,36d58 <__heap_size+0x16d58>
 266:	6972                	ld	s2,280(sp)
 268:	36766373          	csrrsi	t1,0x367,12
 26c:	2d34                	fld	fa3,88(a0)
 26e:	6e75                	lui	t3,0x1d
 270:	776f6e6b          	.insn	4, 0x776f6e6b
 274:	2d6e                	fld	fs10,216(sp)
 276:	6c65                	lui	s8,0x19
 278:	2f66                	fld	ft10,88(sp)
 27a:	6e69                	lui	t3,0x1a
 27c:	64756c63          	bltu	a0,t2,8d4 <__stack_align+0x8c4>
 280:	0065                	c.nop	25
 282:	6d6f682f          	.insn	4, 0x6d6f682f
 286:	2f65                	addiw	t5,t5,25
 288:	7266                	ld	tp,120(sp)
 28a:	6e61                	lui	t3,0x18
 28c:	65682f6b          	.insn	4, 0x65682f6b
 290:	742f6c73          	csrrsi	s8,0x742,30
 294:	7365                	lui	t1,0xffff9
 296:	5f74                	lw	a3,124(a4)
 298:	6972                	ld	s2,280(sp)
 29a:	2f766373          	csrrsi	t1,0x2f7,12
 29e:	70696863          	bltu	s2,t1,9ae <__stack_align+0x99e>
 2a2:	6179                	addi	sp,sp,464
 2a4:	6472                	ld	s0,280(sp)
 2a6:	6968632f          	.insn	4, 0x6968632f
 2aa:	7970                	ld	a2,240(a0)
 2ac:	7261                	lui	tp,0xffff8
 2ae:	2f64                	fld	fs1,216(a4)
 2b0:	632e                	ld	t1,200(sp)
 2b2:	61646e6f          	jal	t3,468c8 <__heap_size+0x268c8>
 2b6:	652d                	lui	a0,0xb
 2b8:	766e                	ld	a2,248(sp)
 2ba:	7369722f          	.insn	4, 0x7369722f
 2be:	742d7663          	bgeu	s10,sp,a0a <__stack_align+0x9fa>
 2c2:	736c6f6f          	jal	t5,c69f8 <__heap_size+0xa69f8>
 2c6:	62696c2f          	.insn	4, 0x62696c2f
 2ca:	6363672f          	.insn	4, 0x6363672f
 2ce:	7369722f          	.insn	4, 0x7369722f
 2d2:	34367663          	bgeu	a2,gp,61e <__stack_align+0x60e>
 2d6:	752d                	lui	a0,0xfffeb
 2d8:	6b6e                	ld	s6,216(sp)
 2da:	6f6e                	ld	t5,216(sp)
 2dc:	652d6e77          	.insn	4, 0x652d6e77
 2e0:	666c                	ld	a1,200(a2)
 2e2:	2e33312f          	.insn	4, 0x2e33312f
 2e6:	2e32                	fld	ft8,264(sp)
 2e8:	2f30                	fld	fa2,88(a4)
 2ea:	6e69                	lui	t3,0x1a
 2ec:	64756c63          	bltu	a0,t2,944 <__stack_align+0x934>
 2f0:	0065                	c.nop	25
 2f2:	69727473          	csrrci	s0,0x697,4
 2f6:	676e                	ld	a4,216(sp)
 2f8:	682e                	ld	a6,200(sp)
 2fa:	7300                	ld	s0,32(a4)
 2fc:	6474                	ld	a3,200(s0)
 2fe:	6564                	ld	s1,200(a0)
 300:	2e66                	fld	ft8,88(sp)
 302:	0068                	addi	a0,sp,12
 304:	2e2e                	fld	ft8,200(sp)
 306:	73696d2f          	.insn	4, 0x73696d2f
 30a:	616d2f63          	.insn	4, 0x616d2f63
 30e:	6e69                	lui	t3,0x1a
 310:	632e                	ld	t1,200(sp)
 312:	2e00                	fld	fs0,24(a2)
 314:	2f2e                	fld	ft10,200(sp)
 316:	2f737973          	csrrci	s2,0x2f7,6
 31a:	7865                	lui	a6,0xffff9
 31c:	7469                	lui	s0,0xffffa
 31e:	632e                	ld	t1,200(sp)
 320:	2e00                	fld	fs0,24(a2)
 322:	2f2e                	fld	ft10,200(sp)
 324:	00737973          	csrrci	s2,0x7,6
 328:	7468                	ld	a0,232(s0)
 32a:	6669                	lui	a2,0x1a
 32c:	682e                	ld	a6,200(sp)
 32e:	2e00                	fld	fs0,24(a2)
 330:	2f2e                	fld	ft10,200(sp)
 332:	696d                	lui	s2,0x1b
 334:	682f6373          	csrrsi	t1,0x682,30
 338:	6974                	ld	a3,208(a0)
 33a:	2e66                	fld	ft8,88(sp)
 33c:	74610063          	beq	sp,t1,a7c <__stack_align+0xa6c>
 340:	63696d6f          	jal	s10,96976 <__heap_size+0x76976>
 344:	682e                	ld	a6,200(sp)
 346:	7300                	ld	s0,32(a4)
 348:	6970                	ld	a2,208(a0)
 34a:	6c6e                	ld	s8,216(sp)
 34c:	2e6b636f          	jal	t1,b6632 <__heap_size+0x96632>
 350:	0068                	addi	a0,sp,12
 352:	2e2e                	fld	ft8,200(sp)
 354:	7379732f          	.insn	4, 0x7379732f
 358:	6f6c632f          	.insn	4, 0x6f6c632f
 35c:	632e6573          	csrrsi	a0,0x632,28
 360:	6500                	ld	s0,8(a0)
 362:	7272                	ld	tp,312(sp)
 364:	6f6e                	ld	t5,216(sp)
 366:	682e                	ld	a6,200(sp)
 368:	2e00                	fld	fs0,24(a2)
 36a:	2f2e                	fld	ft10,200(sp)
 36c:	2f737973          	csrrci	s2,0x2f7,6
 370:	736c                	ld	a1,224(a4)
 372:	6565                	lui	a0,0x19
 374:	00632e6b          	.insn	4, 0x00632e6b
 378:	2e2e                	fld	ft8,200(sp)
 37a:	7379732f          	.insn	4, 0x7379732f
 37e:	6165722f          	.insn	4, 0x6165722f
 382:	2e64                	fld	fs1,216(a2)
 384:	2e2e0063          	beq	t3,sp,664 <__stack_align+0x654>
 388:	7379732f          	.insn	4, 0x7379732f
 38c:	7262732f          	.insn	4, 0x7262732f
 390:	00632e6b          	.insn	4, 0x00632e6b
 394:	2e2e                	fld	ft8,200(sp)
 396:	7379732f          	.insn	4, 0x7379732f
 39a:	6972772f          	.insn	4, 0x6972772f
 39e:	6574                	ld	a3,200(a0)
 3a0:	632e                	ld	t1,200(sp)
	...

Disassembly of section .comment:

0000000000000000 <.comment>:
   0:	3a434347          	fmsub.d	ft6,ft6,ft4,ft7,rmm
   4:	2820                	fld	fs0,80(s0)
   6:	39386367          	.insn	4, 0x39386367
   a:	6431                	lui	s0,0xc
   c:	6438                	ld	a4,72(s0)
   e:	65333263          	.insn	4, 0x65333263
  12:	2029                	.insn	2, 0x2029
  14:	3331                	addiw	t1,t1,-20 # ffffffffffff8fec <__heap_end+0xffffffff7ffd6fec>
  16:	322e                	fld	ft4,232(sp)
  18:	302e                	fld	ft0,232(sp)
  1a:	4700                	lw	s0,8(a4)
  1c:	203a4343          	fmadd.s	ft6,fs4,ft3,ft4,rmm
  20:	4728                	lw	a0,72(a4)
  22:	554e                	lw	a0,240(sp)
  24:	2029                	.insn	2, 0x2029
  26:	3331                	addiw	t1,t1,-20
  28:	322e                	fld	ft4,232(sp)
  2a:	302e                	fld	ft0,232(sp)
	...

Disassembly of section .riscv.attributes:

0000000000000000 <.riscv.attributes>:
   0:	4a41                	li	s4,16
   2:	0000                	unimp
   4:	7200                	ld	s0,32(a2)
   6:	7369                	lui	t1,0xffffa
   8:	01007663          	bgeu	zero,a6,14 <__stack_align+0x4>
   c:	0040                	addi	s0,sp,4
   e:	0000                	unimp
  10:	1004                	addi	s1,sp,32
  12:	7205                	lui	tp,0xfffe1
  14:	3676                	fld	fa2,376(sp)
  16:	6934                	ld	a3,80(a0)
  18:	7032                	.insn	2, 0x7032
  1a:	5f31                	li	t5,-20
  1c:	326d                	addiw	tp,tp,-5 # fffffffffffe0ffb <__heap_end+0xffffffff7ffbeffb>
  1e:	3070                	fld	fa2,224(s0)
  20:	615f 7032 5f31      	.insn	6, 0x5f317032615f
  26:	3266                	fld	ft4,120(sp)
  28:	3270                	fld	fa2,224(a2)
  2a:	645f 7032 5f32      	.insn	6, 0x5f327032645f
  30:	30703263          	.insn	4, 0x30703263
  34:	7a5f 6369 7273      	.insn	6, 0x727363697a5f
  3a:	7032                	.insn	2, 0x7032
  3c:	5f30                	lw	a2,120(a4)
  3e:	6d7a                	ld	s10,408(sp)
  40:	756d                	lui	a0,0xffffb
  42:	316c                	fld	fa1,224(a0)
  44:	3070                	fld	fa2,224(s0)
  46:	0800                	addi	s0,sp,16
  48:	0a01                	addi	s4,s4,0
  4a:	Address 0x4a is out of bounds.


Disassembly of section .debug_frame:

0000000000000000 <.debug_frame>:
   0:	000c                	.insn	2, 0x000c
   2:	0000                	unimp
   4:	ffff                	.insn	2, 0xffff
   6:	ffff                	.insn	2, 0xffff
   8:	7c010003          	lb	zero,1984(sp)
   c:	0d01                	addi	s10,s10,0
   e:	0002                	c.slli64	zero
  10:	0014                	.insn	2, 0x0014
  12:	0000                	unimp
  14:	0000                	unimp
  16:	0000                	unimp
  18:	0234                	addi	a3,sp,264
  1a:	8000                	.insn	2, 0x8000
  1c:	0000                	unimp
  1e:	0000                	unimp
  20:	0064                	addi	s1,sp,12
  22:	0000                	unimp
  24:	0000                	unimp
  26:	0000                	unimp
  28:	000c                	.insn	2, 0x000c
  2a:	0000                	unimp
  2c:	ffff                	.insn	2, 0xffff
  2e:	ffff                	.insn	2, 0xffff
  30:	7c010003          	lb	zero,1984(sp)
  34:	0d01                	addi	s10,s10,0
  36:	0002                	c.slli64	zero
  38:	001c                	.insn	2, 0x001c
  3a:	0000                	unimp
  3c:	0028                	addi	a0,sp,8
  3e:	0000                	unimp
  40:	0298                	addi	a4,sp,320
  42:	8000                	.insn	2, 0x8000
  44:	0000                	unimp
  46:	0000                	unimp
  48:	0016                	c.slli	zero,0x5
  4a:	0000                	unimp
  4c:	0000                	unimp
  4e:	0000                	unimp
  50:	0e42                	slli	t3,t3,0x10
  52:	4610                	lw	a2,8(a2)
  54:	0281                	addi	t0,t0,0
  56:	0000                	unimp
  58:	000c                	.insn	2, 0x000c
  5a:	0000                	unimp
  5c:	ffff                	.insn	2, 0xffff
  5e:	ffff                	.insn	2, 0xffff
  60:	7c010003          	lb	zero,1984(sp)
  64:	0d01                	addi	s10,s10,0
  66:	0002                	c.slli64	zero
  68:	0024                	addi	s1,sp,8
  6a:	0000                	unimp
  6c:	0058                	addi	a4,sp,4
  6e:	0000                	unimp
  70:	02ae                	slli	t0,t0,0xb
  72:	8000                	.insn	2, 0x8000
  74:	0000                	unimp
  76:	0000                	unimp
  78:	002e                	c.slli	zero,0xb
  7a:	0000                	unimp
  7c:	0000                	unimp
  7e:	0000                	unimp
  80:	0e42                	slli	t3,t3,0x10
  82:	5210                	lw	a2,32(a2)
  84:	0488                	addi	a0,sp,576
  86:	0281                	addi	t0,t0,0
  88:	c84e                	sw	s3,16(sp)
  8a:	c142                	sw	a6,128(sp)
  8c:	0e48                	addi	a0,sp,788
  8e:	0000                	unimp
  90:	000c                	.insn	2, 0x000c
  92:	0000                	unimp
  94:	ffff                	.insn	2, 0xffff
  96:	ffff                	.insn	2, 0xffff
  98:	7c010003          	lb	zero,1984(sp)
  9c:	0d01                	addi	s10,s10,0
  9e:	0002                	c.slli64	zero
  a0:	0014                	.insn	2, 0x0014
  a2:	0000                	unimp
  a4:	0090                	addi	a2,sp,64
  a6:	0000                	unimp
  a8:	02dc                	addi	a5,sp,324
  aa:	8000                	.insn	2, 0x8000
  ac:	0000                	unimp
  ae:	0000                	unimp
  b0:	0006                	c.slli	zero,0x1
  b2:	0000                	unimp
  b4:	0000                	unimp
  b6:	0000                	unimp
  b8:	000c                	.insn	2, 0x000c
  ba:	0000                	unimp
  bc:	ffff                	.insn	2, 0xffff
  be:	ffff                	.insn	2, 0xffff
  c0:	7c010003          	lb	zero,1984(sp)
  c4:	0d01                	addi	s10,s10,0
  c6:	0002                	c.slli64	zero
  c8:	0014                	.insn	2, 0x0014
  ca:	0000                	unimp
  cc:	00b8                	addi	a4,sp,72
  ce:	0000                	unimp
  d0:	02e2                	slli	t0,t0,0x18
  d2:	8000                	.insn	2, 0x8000
  d4:	0000                	unimp
  d6:	0000                	unimp
  d8:	0022                	c.slli	zero,0x8
  da:	0000                	unimp
  dc:	0000                	unimp
  de:	0000                	unimp
  e0:	000c                	.insn	2, 0x000c
  e2:	0000                	unimp
  e4:	ffff                	.insn	2, 0xffff
  e6:	ffff                	.insn	2, 0xffff
  e8:	7c010003          	lb	zero,1984(sp)
  ec:	0d01                	addi	s10,s10,0
  ee:	0002                	c.slli64	zero
  f0:	001c                	.insn	2, 0x001c
  f2:	0000                	unimp
  f4:	00e0                	addi	s0,sp,76
  f6:	0000                	unimp
  f8:	0304                	addi	s1,sp,384
  fa:	8000                	.insn	2, 0x8000
  fc:	0000                	unimp
  fe:	0000                	unimp
 100:	004c                	addi	a1,sp,4
 102:	0000                	unimp
 104:	0000                	unimp
 106:	0000                	unimp
 108:	0e42                	slli	t3,t3,0x10
 10a:	0240                	addi	s0,sp,260
 10c:	0e48                	addi	a0,sp,788
 10e:	0000                	unimp
 110:	000c                	.insn	2, 0x000c
 112:	0000                	unimp
 114:	ffff                	.insn	2, 0xffff
 116:	ffff                	.insn	2, 0xffff
 118:	7c010003          	lb	zero,1984(sp)
 11c:	0d01                	addi	s10,s10,0
 11e:	0002                	c.slli64	zero
 120:	0024                	addi	s1,sp,8
 122:	0000                	unimp
 124:	0110                	addi	a2,sp,128
 126:	0000                	unimp
 128:	0e1e                	slli	t3,t3,0x7
 12a:	8000                	.insn	2, 0x8000
 12c:	0000                	unimp
 12e:	0000                	unimp
 130:	0014                	.insn	2, 0x0014
 132:	0000                	unimp
 134:	0000                	unimp
 136:	0000                	unimp
 138:	0e42                	slli	t3,t3,0x10
 13a:	4210                	lw	a2,0(a2)
 13c:	0281                	addi	t0,t0,0
 13e:	c146                	sw	a7,128(sp)
 140:	0e48                	addi	a0,sp,788
 142:	0000                	unimp
 144:	0000                	unimp
 146:	0000                	unimp
 148:	000c                	.insn	2, 0x000c
 14a:	0000                	unimp
 14c:	ffff                	.insn	2, 0xffff
 14e:	ffff                	.insn	2, 0xffff
 150:	7c010003          	lb	zero,1984(sp)
 154:	0d01                	addi	s10,s10,0
 156:	0002                	c.slli64	zero
 158:	0024                	addi	s1,sp,8
 15a:	0000                	unimp
 15c:	0148                	addi	a0,sp,132
 15e:	0000                	unimp
 160:	0e32                	slli	t3,t3,0xc
 162:	8000                	.insn	2, 0x8000
 164:	0000                	unimp
 166:	0000                	unimp
 168:	0014                	.insn	2, 0x0014
 16a:	0000                	unimp
 16c:	0000                	unimp
 16e:	0000                	unimp
 170:	0e42                	slli	t3,t3,0x10
 172:	4210                	lw	a2,0(a2)
 174:	0281                	addi	t0,t0,0
 176:	c146                	sw	a7,128(sp)
 178:	0e48                	addi	a0,sp,788
 17a:	0000                	unimp
 17c:	0000                	unimp
 17e:	0000                	unimp
 180:	000c                	.insn	2, 0x000c
 182:	0000                	unimp
 184:	ffff                	.insn	2, 0xffff
 186:	ffff                	.insn	2, 0xffff
 188:	7c010003          	lb	zero,1984(sp)
 18c:	0d01                	addi	s10,s10,0
 18e:	0002                	c.slli64	zero
 190:	0024                	addi	s1,sp,8
 192:	0000                	unimp
 194:	0180                	addi	s0,sp,192
 196:	0000                	unimp
 198:	0e46                	slli	t3,t3,0x11
 19a:	8000                	.insn	2, 0x8000
 19c:	0000                	unimp
 19e:	0000                	unimp
 1a0:	0016                	c.slli	zero,0x5
 1a2:	0000                	unimp
 1a4:	0000                	unimp
 1a6:	0000                	unimp
 1a8:	0e42                	slli	t3,t3,0x10
 1aa:	4210                	lw	a2,0(a2)
 1ac:	0281                	addi	t0,t0,0
 1ae:	c146                	sw	a7,128(sp)
 1b0:	0e4a                	slli	t3,t3,0x12
 1b2:	0000                	unimp
 1b4:	0000                	unimp
 1b6:	0000                	unimp
 1b8:	000c                	.insn	2, 0x000c
 1ba:	0000                	unimp
 1bc:	ffff                	.insn	2, 0xffff
 1be:	ffff                	.insn	2, 0xffff
 1c0:	7c010003          	lb	zero,1984(sp)
 1c4:	0d01                	addi	s10,s10,0
 1c6:	0002                	c.slli64	zero
 1c8:	0024                	addi	s1,sp,8
 1ca:	0000                	unimp
 1cc:	01b8                	addi	a4,sp,200
 1ce:	0000                	unimp
 1d0:	0e5c                	addi	a5,sp,788
 1d2:	8000                	.insn	2, 0x8000
 1d4:	0000                	unimp
 1d6:	0000                	unimp
 1d8:	0038                	addi	a4,sp,8
 1da:	0000                	unimp
 1dc:	0000                	unimp
 1de:	0000                	unimp
 1e0:	0e64                	addi	s1,sp,796
 1e2:	4210                	lw	a2,0(a2)
 1e4:	0281                	addi	t0,t0,0
 1e6:	c146                	sw	a7,128(sp)
 1e8:	0e4a                	slli	t3,t3,0x12
 1ea:	0000                	unimp
 1ec:	0000                	unimp
 1ee:	0000                	unimp
 1f0:	000c                	.insn	2, 0x000c
 1f2:	0000                	unimp
 1f4:	ffff                	.insn	2, 0xffff
 1f6:	ffff                	.insn	2, 0xffff
 1f8:	7c010003          	lb	zero,1984(sp)
 1fc:	0d01                	addi	s10,s10,0
 1fe:	0002                	c.slli64	zero
 200:	0014                	.insn	2, 0x0014
 202:	0000                	unimp
 204:	01f0                	addi	a2,sp,204
 206:	0000                	unimp
 208:	0e94                	addi	a3,sp,848
 20a:	8000                	.insn	2, 0x8000
 20c:	0000                	unimp
 20e:	0000                	unimp
 210:	0008                	.insn	2, 0x0008
 212:	0000                	unimp
 214:	0000                	unimp
	...
