
/home/frank/hesl/test_riscv/chipyard/chipyard/build/accum.riscv:     file format elf64-littleriscv


Disassembly of section .text:

0000000080000000 <_start>:
    80000000:	4081                	li	ra,0
    80000002:	4101                	li	sp,0
    80000004:	4181                	li	gp,0
    80000006:	4201                	li	tp,0
    80000008:	4281                	li	t0,0
    8000000a:	4301                	li	t1,0
    8000000c:	4381                	li	t2,0
    8000000e:	4401                	li	s0,0
    80000010:	4481                	li	s1,0
    80000012:	4501                	li	a0,0
    80000014:	4581                	li	a1,0
    80000016:	4601                	li	a2,0
    80000018:	4681                	li	a3,0
    8000001a:	4701                	li	a4,0
    8000001c:	4781                	li	a5,0
    8000001e:	4801                	li	a6,0
    80000020:	4881                	li	a7,0
    80000022:	4901                	li	s2,0
    80000024:	4981                	li	s3,0
    80000026:	4a01                	li	s4,0
    80000028:	4a81                	li	s5,0
    8000002a:	4b01                	li	s6,0
    8000002c:	4b81                	li	s7,0
    8000002e:	4c01                	li	s8,0
    80000030:	4c81                	li	s9,0
    80000032:	4d01                	li	s10,0
    80000034:	4d81                	li	s11,0
    80000036:	4e01                	li	t3,0
    80000038:	4e81                	li	t4,0
    8000003a:	4f01                	li	t5,0
    8000003c:	4f81                	li	t6,0
    8000003e:	62f9                	lui	t0,0x1e
    80000040:	6002829b          	addiw	t0,t0,1536 # 1e600 <__stack_size+0x16600>
    80000044:	3002a073          	csrs	mstatus,t0
    80000048:	00000297          	auipc	t0,0x0
    8000004c:	09028293          	addi	t0,t0,144 # 800000d8 <_start+0xd8>
    80000050:	30529073          	csrw	mtvec,t0
    80000054:	00301073          	fscsr	zero
    80000058:	f0000053          	fmv.w.x	ft0,zero
    8000005c:	f00000d3          	fmv.w.x	ft1,zero
    80000060:	f0000153          	fmv.w.x	ft2,zero
    80000064:	f00001d3          	fmv.w.x	ft3,zero
    80000068:	f0000253          	fmv.w.x	ft4,zero
    8000006c:	f00002d3          	fmv.w.x	ft5,zero
    80000070:	f0000353          	fmv.w.x	ft6,zero
    80000074:	f00003d3          	fmv.w.x	ft7,zero
    80000078:	f0000453          	fmv.w.x	fs0,zero
    8000007c:	f00004d3          	fmv.w.x	fs1,zero
    80000080:	f0000553          	fmv.w.x	fa0,zero
    80000084:	f00005d3          	fmv.w.x	fa1,zero
    80000088:	f0000653          	fmv.w.x	fa2,zero
    8000008c:	f00006d3          	fmv.w.x	fa3,zero
    80000090:	f0000753          	fmv.w.x	fa4,zero
    80000094:	f00007d3          	fmv.w.x	fa5,zero
    80000098:	f0000853          	fmv.w.x	fa6,zero
    8000009c:	f00008d3          	fmv.w.x	fa7,zero
    800000a0:	f0000953          	fmv.w.x	fs2,zero
    800000a4:	f00009d3          	fmv.w.x	fs3,zero
    800000a8:	f0000a53          	fmv.w.x	fs4,zero
    800000ac:	f0000ad3          	fmv.w.x	fs5,zero
    800000b0:	f0000b53          	fmv.w.x	fs6,zero
    800000b4:	f0000bd3          	fmv.w.x	fs7,zero
    800000b8:	f0000c53          	fmv.w.x	fs8,zero
    800000bc:	f0000cd3          	fmv.w.x	fs9,zero
    800000c0:	f0000d53          	fmv.w.x	fs10,zero
    800000c4:	f0000dd3          	fmv.w.x	fs11,zero
    800000c8:	f0000e53          	fmv.w.x	ft8,zero
    800000cc:	f0000ed3          	fmv.w.x	ft9,zero
    800000d0:	f0000f53          	fmv.w.x	ft10,zero
    800000d4:	f0000fd3          	fmv.w.x	ft11,zero
    800000d8:	00001197          	auipc	gp,0x1
    800000dc:	6e018193          	addi	gp,gp,1760 # 800017b8 <__global_pointer$>
    800000e0:	f1402473          	csrr	s0,mhartid
    800000e4:	00f00293          	li	t0,15
    800000e8:	00022217          	auipc	tp,0x22
    800000ec:	f1820213          	addi	tp,tp,-232 # 80022000 <__heap_end>
    800000f0:	005412b3          	sll	t0,s0,t0
    800000f4:	9216                	add	tp,tp,t0
    800000f6:	62a1                	lui	t0,0x8
    800000f8:	00028293          	mv	t0,t0
    800000fc:	00520133          	add	sp,tp,t0
    80000100:	00000297          	auipc	t0,0x0
    80000104:	04428293          	addi	t0,t0,68 # 80000144 <trap_entry>
    80000108:	30529073          	csrw	mtvec,t0
    8000010c:	1a2000ef          	jal	800002ae <__init_tls>
    80000110:	00000293          	li	t0,0
    80000114:	00540463          	beq	s0,t0,8000011c <_start+0x11c>
    80000118:	0f80006f          	j	80000210 <_start_secondary>
    8000011c:	82818293          	addi	t0,gp,-2008 # 80000fe0 <htif_lock>
    80000120:	b9018313          	addi	t1,gp,-1136 # 80001348 <_end>
    80000124:	0062f763          	bgeu	t0,t1,80000132 <_start+0x132>
    80000128:	0002b023          	sd	zero,0(t0)
    8000012c:	02a1                	addi	t0,t0,8
    8000012e:	fe62ede3          	bltu	t0,t1,80000128 <_start+0x128>
    80000132:	00000517          	auipc	a0,0x0
    80000136:	75e50513          	addi	a0,a0,1886 # 80000890 <__libc_fini_array>
    8000013a:	216000ef          	jal	80000350 <atexit>
    8000013e:	6f4000ef          	jal	80000832 <__libc_init_array>
    80000142:	a075                	j	800001ee <_start_main>

0000000080000144 <trap_entry>:
    80000144:	34011073          	csrw	mscratch,sp
    80000148:	7111                	addi	sp,sp,-256
    8000014a:	e406                	sd	ra,8(sp)
    8000014c:	340020f3          	csrr	ra,mscratch
    80000150:	e806                	sd	ra,16(sp)
    80000152:	ec0e                	sd	gp,24(sp)
    80000154:	f012                	sd	tp,32(sp)
    80000156:	f416                	sd	t0,40(sp)
    80000158:	f81a                	sd	t1,48(sp)
    8000015a:	fc1e                	sd	t2,56(sp)
    8000015c:	e0a2                	sd	s0,64(sp)
    8000015e:	e4a6                	sd	s1,72(sp)
    80000160:	e8aa                	sd	a0,80(sp)
    80000162:	ecae                	sd	a1,88(sp)
    80000164:	f0b2                	sd	a2,96(sp)
    80000166:	f4b6                	sd	a3,104(sp)
    80000168:	f8ba                	sd	a4,112(sp)
    8000016a:	fcbe                	sd	a5,120(sp)
    8000016c:	e142                	sd	a6,128(sp)
    8000016e:	e546                	sd	a7,136(sp)
    80000170:	e94a                	sd	s2,144(sp)
    80000172:	ed4e                	sd	s3,152(sp)
    80000174:	f152                	sd	s4,160(sp)
    80000176:	f556                	sd	s5,168(sp)
    80000178:	f95a                	sd	s6,176(sp)
    8000017a:	fd5e                	sd	s7,184(sp)
    8000017c:	e1e2                	sd	s8,192(sp)
    8000017e:	e5e6                	sd	s9,200(sp)
    80000180:	e9ea                	sd	s10,208(sp)
    80000182:	edee                	sd	s11,216(sp)
    80000184:	f1f2                	sd	t3,224(sp)
    80000186:	f5f6                	sd	t4,232(sp)
    80000188:	f9fa                	sd	t5,240(sp)
    8000018a:	fdfe                	sd	t6,248(sp)
    8000018c:	34102573          	csrr	a0,mepc
    80000190:	342025f3          	csrr	a1,mcause
    80000194:	34302673          	csrr	a2,mtval
    80000198:	868a                	mv	a3,sp
    8000019a:	0fe000ef          	jal	80000298 <handle_trap>
    8000019e:	34151073          	csrw	mepc,a0
    800001a2:	6289                	lui	t0,0x2
    800001a4:	8002829b          	addiw	t0,t0,-2048 # 1800 <__stack_align+0x17f0>
    800001a8:	3002a073          	csrs	mstatus,t0
    800001ac:	60a2                	ld	ra,8(sp)
    800001ae:	61e2                	ld	gp,24(sp)
    800001b0:	7202                	ld	tp,32(sp)
    800001b2:	72a2                	ld	t0,40(sp)
    800001b4:	7342                	ld	t1,48(sp)
    800001b6:	73e2                	ld	t2,56(sp)
    800001b8:	6406                	ld	s0,64(sp)
    800001ba:	64a6                	ld	s1,72(sp)
    800001bc:	6546                	ld	a0,80(sp)
    800001be:	65e6                	ld	a1,88(sp)
    800001c0:	7606                	ld	a2,96(sp)
    800001c2:	76a6                	ld	a3,104(sp)
    800001c4:	7746                	ld	a4,112(sp)
    800001c6:	77e6                	ld	a5,120(sp)
    800001c8:	680a                	ld	a6,128(sp)
    800001ca:	68aa                	ld	a7,136(sp)
    800001cc:	694a                	ld	s2,144(sp)
    800001ce:	69ea                	ld	s3,152(sp)
    800001d0:	7a0a                	ld	s4,160(sp)
    800001d2:	7aaa                	ld	s5,168(sp)
    800001d4:	7b4a                	ld	s6,176(sp)
    800001d6:	7bea                	ld	s7,184(sp)
    800001d8:	6c0e                	ld	s8,192(sp)
    800001da:	6cae                	ld	s9,200(sp)
    800001dc:	6d4e                	ld	s10,208(sp)
    800001de:	6dee                	ld	s11,216(sp)
    800001e0:	7e0e                	ld	t3,224(sp)
    800001e2:	7eae                	ld	t4,232(sp)
    800001e4:	7f4e                	ld	t5,240(sp)
    800001e6:	7fee                	ld	t6,248(sp)
    800001e8:	6142                	ld	sp,16(sp)
    800001ea:	30200073          	mret

00000000800001ee <_start_main>:
    800001ee:	52fd                	li	t0,-1
    800001f0:	0110000f          	fence	w,w
    800001f4:	8651a023          	sw	t0,-1952(gp) # 80001018 <__boot_sync>
    800001f8:	4505                	li	a0,1
    800001fa:	00001597          	auipc	a1,0x1
    800001fe:	cae58593          	addi	a1,a1,-850 # 80000ea8 <argv>
    80000202:	00001617          	auipc	a2,0x1
    80000206:	dbe63603          	ld	a2,-578(a2) # 80000fc0 <environ>
    8000020a:	02a000ef          	jal	80000234 <main>
    8000020e:	a2b1                	j	8000035a <exit>

0000000080000210 <_start_secondary>:
    80000210:	8601a283          	lw	t0,-1952(gp) # 80001018 <__boot_sync>
    80000214:	fe028ee3          	beqz	t0,80000210 <_start_secondary>
    80000218:	0220000f          	fence	r,r
    8000021c:	4505                	li	a0,1
    8000021e:	00001597          	auipc	a1,0x1
    80000222:	c8a58593          	addi	a1,a1,-886 # 80000ea8 <argv>
    80000226:	00001617          	auipc	a2,0x1
    8000022a:	d9a63603          	ld	a2,-614(a2) # 80000fc0 <environ>
    8000022e:	0ae000ef          	jal	800002dc <__main>
    80000232:	a225                	j	8000035a <exit>

0000000080000234 <main>:
    80000234:	0ff0000f          	fence
    80000238:	00001597          	auipc	a1,0x1
    8000023c:	d8058593          	addi	a1,a1,-640 # 80000fb8 <data>
    80000240:	00000613          	li	a2,0
    80000244:	04c5b00b          	.insn	4, 0x04c5b00b
    80000248:	00200593          	li	a1,2
    8000024c:	06c5b00b          	.insn	4, 0x06c5b00b
    80000250:	00000593          	li	a1,0
    80000254:	02c5f50b          	.insn	4, 0x02c5f50b
    80000258:	00001797          	auipc	a5,0x1
    8000025c:	d607b783          	ld	a5,-672(a5) # 80000fb8 <data>
    80000260:	00050713          	mv	a4,a0
    80000264:	00278793          	addi	a5,a5,2
    80000268:	00100513          	li	a0,1
    8000026c:	02e79463          	bne	a5,a4,80000294 <main+0x60>
    80000270:	00300593          	li	a1,3
    80000274:	00c5b00b          	.insn	4, 0x00c5b00b
    80000278:	00100593          	li	a1,1
    8000027c:	06c5b00b          	.insn	4, 0x06c5b00b
    80000280:	00000593          	li	a1,0
    80000284:	02c5f50b          	.insn	4, 0x02c5f50b
    80000288:	ffc50513          	addi	a0,a0,-4
    8000028c:	00a03533          	snez	a0,a0
    80000290:	00151513          	slli	a0,a0,0x1
    80000294:	00008067          	ret

0000000080000298 <handle_trap>:
    80000298:	1141                	addi	sp,sp,-16
    8000029a:	02159513          	slli	a0,a1,0x21
    8000029e:	e406                	sd	ra,8(sp)
    800002a0:	9105                	srli	a0,a0,0x21
    800002a2:	0005d463          	bgez	a1,800002aa <handle_trap+0x12>
    800002a6:	40a0053b          	negw	a0,a0
    800002aa:	038000ef          	jal	800002e2 <_exit>

00000000800002ae <__init_tls>:
    800002ae:	1141                	addi	sp,sp,-16
    800002b0:	00000613          	li	a2,0
    800002b4:	00001597          	auipc	a1,0x1
    800002b8:	bee58593          	addi	a1,a1,-1042 # 80000ea2 <__tbss_end>
    800002bc:	8512                	mv	a0,tp
    800002be:	e022                	sd	s0,0(sp)
    800002c0:	e406                	sd	ra,8(sp)
    800002c2:	8412                	mv	s0,tp
    800002c4:	612000ef          	jal	800008d6 <memcpy>
    800002c8:	00000513          	li	a0,0
    800002cc:	9522                	add	a0,a0,s0
    800002ce:	6402                	ld	s0,0(sp)
    800002d0:	60a2                	ld	ra,8(sp)
    800002d2:	00000613          	li	a2,0
    800002d6:	4581                	li	a1,0
    800002d8:	0141                	addi	sp,sp,16
    800002da:	a3f5                	j	800008c6 <memset>

00000000800002dc <__main>:
    800002dc:	10500073          	wfi
    800002e0:	bff5                	j	800002dc <__main>

00000000800002e2 <_exit>:
    800002e2:	0015179b          	slliw	a5,a0,0x1
    800002e6:	0017e793          	ori	a5,a5,1
    800002ea:	2781                	sext.w	a5,a5
    800002ec:	07c2                	slli	a5,a5,0x10
    800002ee:	83c1                	srli	a5,a5,0x10
    800002f0:	00001717          	auipc	a4,0x1
    800002f4:	c1070713          	addi	a4,a4,-1008 # 80000f00 <tohost>
    800002f8:	00001697          	auipc	a3,0x1
    800002fc:	c006b823          	sd	zero,-1008(a3) # 80000f08 <fromhost>
    80000300:	e31c                	sd	a5,0(a4)
    80000302:	bfdd                	j	800002f8 <_exit+0x16>

0000000080000304 <htif_syscall>:
    80000304:	7139                	addi	sp,sp,-64
    80000306:	e036                	sd	a3,0(sp)
    80000308:	e42a                	sd	a0,8(sp)
    8000030a:	fff007b7          	lui	a5,0xfff00
    8000030e:	e82e                	sd	a1,16(sp)
    80000310:	83c1                	srli	a5,a5,0x10
    80000312:	ec32                	sd	a2,24(sp)
    80000314:	860a                	mv	a2,sp
    80000316:	8e7d                	and	a2,a2,a5
    80000318:	82818713          	addi	a4,gp,-2008 # 80000fe0 <htif_lock>
    8000031c:	56fd                	li	a3,-1
    8000031e:	431c                	lw	a5,0(a4)
    80000320:	fffd                	bnez	a5,8000031e <htif_syscall+0x1a>
    80000322:	0cd727af          	amoswap.w.aq	a5,a3,(a4)
    80000326:	ffe5                	bnez	a5,8000031e <htif_syscall+0x1a>
    80000328:	0110000f          	fence	w,w
    8000032c:	00001697          	auipc	a3,0x1
    80000330:	bd468693          	addi	a3,a3,-1068 # 80000f00 <tohost>
    80000334:	e290                	sd	a2,0(a3)
    80000336:	669c                	ld	a5,8(a3)
    80000338:	dffd                	beqz	a5,80000336 <htif_syscall+0x32>
    8000033a:	00001797          	auipc	a5,0x1
    8000033e:	bc07b723          	sd	zero,-1074(a5) # 80000f08 <fromhost>
    80000342:	0a07202f          	amoswap.w.rl	zero,zero,(a4)
    80000346:	0220000f          	fence	r,r
    8000034a:	6502                	ld	a0,0(sp)
    8000034c:	6121                	addi	sp,sp,64
    8000034e:	8082                	ret

0000000080000350 <atexit>:
    80000350:	85aa                	mv	a1,a0
    80000352:	4681                	li	a3,0
    80000354:	4601                	li	a2,0
    80000356:	4501                	li	a0,0
    80000358:	ab51                	j	800008ec <__register_exitproc>

000000008000035a <exit>:
    8000035a:	1141                	addi	sp,sp,-16
    8000035c:	e022                	sd	s0,0(sp)
    8000035e:	e406                	sd	ra,8(sp)
    80000360:	00000797          	auipc	a5,0x0
    80000364:	60278793          	addi	a5,a5,1538 # 80000962 <__call_exitprocs>
    80000368:	842a                	mv	s0,a0
    8000036a:	c781                	beqz	a5,80000372 <exit+0x18>
    8000036c:	4581                	li	a1,0
    8000036e:	5f4000ef          	jal	80000962 <__call_exitprocs>
    80000372:	8381b783          	ld	a5,-1992(gp) # 80000ff0 <__stdio_exit_handler>
    80000376:	c391                	beqz	a5,8000037a <exit+0x20>
    80000378:	9782                	jalr	a5
    8000037a:	8522                	mv	a0,s0
    8000037c:	f67ff0ef          	jal	800002e2 <_exit>

0000000080000380 <__fp_lock>:
    80000380:	4501                	li	a0,0
    80000382:	8082                	ret

0000000080000384 <std>:
    80000384:	1141                	addi	sp,sp,-16
    80000386:	e022                	sd	s0,0(sp)
    80000388:	e406                	sd	ra,8(sp)
    8000038a:	842a                	mv	s0,a0
    8000038c:	00b51823          	sh	a1,16(a0)
    80000390:	00c51923          	sh	a2,18(a0)
    80000394:	00053023          	sd	zero,0(a0)
    80000398:	00053423          	sd	zero,8(a0)
    8000039c:	0a052623          	sw	zero,172(a0)
    800003a0:	00053c23          	sd	zero,24(a0)
    800003a4:	02052023          	sw	zero,32(a0)
    800003a8:	02052423          	sw	zero,40(a0)
    800003ac:	4621                	li	a2,8
    800003ae:	4581                	li	a1,0
    800003b0:	0a450513          	addi	a0,a0,164
    800003b4:	512000ef          	jal	800008c6 <memset>
    800003b8:	00000797          	auipc	a5,0x0
    800003bc:	23e78793          	addi	a5,a5,574 # 800005f6 <__sread>
    800003c0:	e03c                	sd	a5,64(s0)
    800003c2:	00000797          	auipc	a5,0x0
    800003c6:	26a78793          	addi	a5,a5,618 # 8000062c <__swrite>
    800003ca:	e43c                	sd	a5,72(s0)
    800003cc:	00000797          	auipc	a5,0x0
    800003d0:	2b078793          	addi	a5,a5,688 # 8000067c <__sseek>
    800003d4:	e83c                	sd	a5,80(s0)
    800003d6:	00000797          	auipc	a5,0x0
    800003da:	2de78793          	addi	a5,a5,734 # 800006b4 <__sclose>
    800003de:	60a2                	ld	ra,8(sp)
    800003e0:	fc00                	sd	s0,56(s0)
    800003e2:	ec3c                	sd	a5,88(s0)
    800003e4:	6402                	ld	s0,0(sp)
    800003e6:	0141                	addi	sp,sp,16
    800003e8:	8082                	ret

00000000800003ea <stdio_exit_handler>:
    800003ea:	00001617          	auipc	a2,0x1
    800003ee:	b2660613          	addi	a2,a2,-1242 # 80000f10 <__sglue>
    800003f2:	00001597          	auipc	a1,0x1
    800003f6:	9a658593          	addi	a1,a1,-1626 # 80000d98 <_fflush_r>
    800003fa:	00001517          	auipc	a0,0x1
    800003fe:	b2e50513          	addi	a0,a0,-1234 # 80000f28 <_impure_data>
    80000402:	a269                	j	8000058c <_fwalk_sglue>

0000000080000404 <cleanup_stdio>:
    80000404:	650c                	ld	a1,8(a0)
    80000406:	1141                	addi	sp,sp,-16
    80000408:	e022                	sd	s0,0(sp)
    8000040a:	e406                	sd	ra,8(sp)
    8000040c:	00001797          	auipc	a5,0x1
    80000410:	c1478793          	addi	a5,a5,-1004 # 80001020 <__sf>
    80000414:	842a                	mv	s0,a0
    80000416:	00f58463          	beq	a1,a5,8000041e <cleanup_stdio+0x1a>
    8000041a:	17f000ef          	jal	80000d98 <_fflush_r>
    8000041e:	680c                	ld	a1,16(s0)
    80000420:	00001797          	auipc	a5,0x1
    80000424:	cb078793          	addi	a5,a5,-848 # 800010d0 <__sf+0xb0>
    80000428:	00f58563          	beq	a1,a5,80000432 <cleanup_stdio+0x2e>
    8000042c:	8522                	mv	a0,s0
    8000042e:	16b000ef          	jal	80000d98 <_fflush_r>
    80000432:	6c0c                	ld	a1,24(s0)
    80000434:	9c818793          	addi	a5,gp,-1592 # 80001180 <__sf+0x160>
    80000438:	00f58863          	beq	a1,a5,80000448 <cleanup_stdio+0x44>
    8000043c:	8522                	mv	a0,s0
    8000043e:	6402                	ld	s0,0(sp)
    80000440:	60a2                	ld	ra,8(sp)
    80000442:	0141                	addi	sp,sp,16
    80000444:	1550006f          	j	80000d98 <_fflush_r>
    80000448:	60a2                	ld	ra,8(sp)
    8000044a:	6402                	ld	s0,0(sp)
    8000044c:	0141                	addi	sp,sp,16
    8000044e:	8082                	ret

0000000080000450 <global_stdio_init.part.0>:
    80000450:	1141                	addi	sp,sp,-16
    80000452:	00000797          	auipc	a5,0x0
    80000456:	f9878793          	addi	a5,a5,-104 # 800003ea <stdio_exit_handler>
    8000045a:	4601                	li	a2,0
    8000045c:	4591                	li	a1,4
    8000045e:	00001517          	auipc	a0,0x1
    80000462:	bc250513          	addi	a0,a0,-1086 # 80001020 <__sf>
    80000466:	e406                	sd	ra,8(sp)
    80000468:	82f1bc23          	sd	a5,-1992(gp) # 80000ff0 <__stdio_exit_handler>
    8000046c:	f19ff0ef          	jal	80000384 <std>
    80000470:	4605                	li	a2,1
    80000472:	45a5                	li	a1,9
    80000474:	00001517          	auipc	a0,0x1
    80000478:	c5c50513          	addi	a0,a0,-932 # 800010d0 <__sf+0xb0>
    8000047c:	f09ff0ef          	jal	80000384 <std>
    80000480:	60a2                	ld	ra,8(sp)
    80000482:	4609                	li	a2,2
    80000484:	45c9                	li	a1,18
    80000486:	9c818513          	addi	a0,gp,-1592 # 80001180 <__sf+0x160>
    8000048a:	0141                	addi	sp,sp,16
    8000048c:	bde5                	j	80000384 <std>

000000008000048e <__fp_unlock>:
    8000048e:	4501                	li	a0,0
    80000490:	8082                	ret

0000000080000492 <__sfp>:
    80000492:	1101                	addi	sp,sp,-32
    80000494:	e04a                	sd	s2,0(sp)
    80000496:	ec06                	sd	ra,24(sp)
    80000498:	e822                	sd	s0,16(sp)
    8000049a:	e426                	sd	s1,8(sp)
    8000049c:	8381b783          	ld	a5,-1992(gp) # 80000ff0 <__stdio_exit_handler>
    800004a0:	892a                	mv	s2,a0
    800004a2:	e399                	bnez	a5,800004a8 <__sfp+0x16>
    800004a4:	fadff0ef          	jal	80000450 <global_stdio_init.part.0>
    800004a8:	00001497          	auipc	s1,0x1
    800004ac:	a6848493          	addi	s1,s1,-1432 # 80000f10 <__sglue>
    800004b0:	6880                	ld	s0,16(s1)
    800004b2:	449c                	lw	a5,8(s1)
    800004b4:	37fd                	addiw	a5,a5,-1
    800004b6:	0207d163          	bgez	a5,800004d8 <__sfp+0x46>
    800004ba:	609c                	ld	a5,0(s1)
    800004bc:	e7c1                	bnez	a5,80000544 <__sfp+0xb2>
    800004be:	2d800593          	li	a1,728
    800004c2:	854a                	mv	a0,s2
    800004c4:	660000ef          	jal	80000b24 <_malloc_r>
    800004c8:	842a                	mv	s0,a0
    800004ca:	e12d                	bnez	a0,8000052c <__sfp+0x9a>
    800004cc:	0004b023          	sd	zero,0(s1)
    800004d0:	47b1                	li	a5,12
    800004d2:	00f92023          	sw	a5,0(s2)
    800004d6:	a089                	j	80000518 <__sfp+0x86>
    800004d8:	01041703          	lh	a4,16(s0)
    800004dc:	e729                	bnez	a4,80000526 <__sfp+0x94>
    800004de:	77c1                	lui	a5,0xffff0
    800004e0:	0785                	addi	a5,a5,1 # ffffffffffff0001 <__heap_end+0xffffffff7ffce001>
    800004e2:	0a042623          	sw	zero,172(s0)
    800004e6:	00043023          	sd	zero,0(s0)
    800004ea:	00043423          	sd	zero,8(s0)
    800004ee:	c81c                	sw	a5,16(s0)
    800004f0:	00043c23          	sd	zero,24(s0)
    800004f4:	02042023          	sw	zero,32(s0)
    800004f8:	02042423          	sw	zero,40(s0)
    800004fc:	4621                	li	a2,8
    800004fe:	4581                	li	a1,0
    80000500:	0a440513          	addi	a0,s0,164
    80000504:	3c2000ef          	jal	800008c6 <memset>
    80000508:	06043023          	sd	zero,96(s0)
    8000050c:	06042423          	sw	zero,104(s0)
    80000510:	08043023          	sd	zero,128(s0)
    80000514:	08042423          	sw	zero,136(s0)
    80000518:	60e2                	ld	ra,24(sp)
    8000051a:	8522                	mv	a0,s0
    8000051c:	6442                	ld	s0,16(sp)
    8000051e:	64a2                	ld	s1,8(sp)
    80000520:	6902                	ld	s2,0(sp)
    80000522:	6105                	addi	sp,sp,32
    80000524:	8082                	ret
    80000526:	0b040413          	addi	s0,s0,176
    8000052a:	b769                	j	800004b4 <__sfp+0x22>
    8000052c:	4791                	li	a5,4
    8000052e:	00053023          	sd	zero,0(a0)
    80000532:	c51c                	sw	a5,8(a0)
    80000534:	0561                	addi	a0,a0,24
    80000536:	e808                	sd	a0,16(s0)
    80000538:	2c000613          	li	a2,704
    8000053c:	4581                	li	a1,0
    8000053e:	388000ef          	jal	800008c6 <memset>
    80000542:	e080                	sd	s0,0(s1)
    80000544:	6084                	ld	s1,0(s1)
    80000546:	b7ad                	j	800004b0 <__sfp+0x1e>

0000000080000548 <__sinit>:
    80000548:	613c                	ld	a5,64(a0)
    8000054a:	eb91                	bnez	a5,8000055e <__sinit+0x16>
    8000054c:	00000797          	auipc	a5,0x0
    80000550:	eb878793          	addi	a5,a5,-328 # 80000404 <cleanup_stdio>
    80000554:	e13c                	sd	a5,64(a0)
    80000556:	8381b783          	ld	a5,-1992(gp) # 80000ff0 <__stdio_exit_handler>
    8000055a:	e391                	bnez	a5,8000055e <__sinit+0x16>
    8000055c:	bdd5                	j	80000450 <global_stdio_init.part.0>
    8000055e:	8082                	ret

0000000080000560 <__sfp_lock_acquire>:
    80000560:	8082                	ret

0000000080000562 <__sfp_lock_release>:
    80000562:	8082                	ret

0000000080000564 <__fp_lock_all>:
    80000564:	00001617          	auipc	a2,0x1
    80000568:	9ac60613          	addi	a2,a2,-1620 # 80000f10 <__sglue>
    8000056c:	00000597          	auipc	a1,0x0
    80000570:	e1458593          	addi	a1,a1,-492 # 80000380 <__fp_lock>
    80000574:	4501                	li	a0,0
    80000576:	a819                	j	8000058c <_fwalk_sglue>

0000000080000578 <__fp_unlock_all>:
    80000578:	00001617          	auipc	a2,0x1
    8000057c:	99860613          	addi	a2,a2,-1640 # 80000f10 <__sglue>
    80000580:	00000597          	auipc	a1,0x0
    80000584:	f0e58593          	addi	a1,a1,-242 # 8000048e <__fp_unlock>
    80000588:	4501                	li	a0,0
    8000058a:	a009                	j	8000058c <_fwalk_sglue>

000000008000058c <_fwalk_sglue>:
    8000058c:	715d                	addi	sp,sp,-80
    8000058e:	e0a2                	sd	s0,64(sp)
    80000590:	fc26                	sd	s1,56(sp)
    80000592:	f44e                	sd	s3,40(sp)
    80000594:	f052                	sd	s4,32(sp)
    80000596:	e85a                	sd	s6,16(sp)
    80000598:	e45e                	sd	s7,8(sp)
    8000059a:	e486                	sd	ra,72(sp)
    8000059c:	f84a                	sd	s2,48(sp)
    8000059e:	ec56                	sd	s5,24(sp)
    800005a0:	89aa                	mv	s3,a0
    800005a2:	8a2e                	mv	s4,a1
    800005a4:	8432                	mv	s0,a2
    800005a6:	4481                	li	s1,0
    800005a8:	4b05                	li	s6,1
    800005aa:	5bfd                	li	s7,-1
    800005ac:	01043903          	ld	s2,16(s0)
    800005b0:	00842a83          	lw	s5,8(s0)
    800005b4:	3afd                	addiw	s5,s5,-1
    800005b6:	020ad063          	bgez	s5,800005d6 <_fwalk_sglue+0x4a>
    800005ba:	6000                	ld	s0,0(s0)
    800005bc:	f865                	bnez	s0,800005ac <_fwalk_sglue+0x20>
    800005be:	60a6                	ld	ra,72(sp)
    800005c0:	6406                	ld	s0,64(sp)
    800005c2:	7942                	ld	s2,48(sp)
    800005c4:	79a2                	ld	s3,40(sp)
    800005c6:	7a02                	ld	s4,32(sp)
    800005c8:	6ae2                	ld	s5,24(sp)
    800005ca:	6b42                	ld	s6,16(sp)
    800005cc:	6ba2                	ld	s7,8(sp)
    800005ce:	8526                	mv	a0,s1
    800005d0:	74e2                	ld	s1,56(sp)
    800005d2:	6161                	addi	sp,sp,80
    800005d4:	8082                	ret
    800005d6:	01095783          	lhu	a5,16(s2)
    800005da:	00fb7b63          	bgeu	s6,a5,800005f0 <_fwalk_sglue+0x64>
    800005de:	01291783          	lh	a5,18(s2)
    800005e2:	01778763          	beq	a5,s7,800005f0 <_fwalk_sglue+0x64>
    800005e6:	85ca                	mv	a1,s2
    800005e8:	854e                	mv	a0,s3
    800005ea:	9a02                	jalr	s4
    800005ec:	8cc9                	or	s1,s1,a0
    800005ee:	2481                	sext.w	s1,s1
    800005f0:	0b090913          	addi	s2,s2,176
    800005f4:	b7c1                	j	800005b4 <_fwalk_sglue+0x28>

00000000800005f6 <__sread>:
    800005f6:	1141                	addi	sp,sp,-16
    800005f8:	e022                	sd	s0,0(sp)
    800005fa:	842e                	mv	s0,a1
    800005fc:	01259583          	lh	a1,18(a1)
    80000600:	e406                	sd	ra,8(sp)
    80000602:	1d8000ef          	jal	800007da <_read_r>
    80000606:	00054963          	bltz	a0,80000618 <__sread+0x22>
    8000060a:	6c5c                	ld	a5,152(s0)
    8000060c:	97aa                	add	a5,a5,a0
    8000060e:	ec5c                	sd	a5,152(s0)
    80000610:	60a2                	ld	ra,8(sp)
    80000612:	6402                	ld	s0,0(sp)
    80000614:	0141                	addi	sp,sp,16
    80000616:	8082                	ret
    80000618:	01045783          	lhu	a5,16(s0)
    8000061c:	777d                	lui	a4,0xfffff
    8000061e:	177d                	addi	a4,a4,-1 # ffffffffffffefff <__heap_end+0xffffffff7ffdcfff>
    80000620:	8ff9                	and	a5,a5,a4
    80000622:	00f41823          	sh	a5,16(s0)
    80000626:	b7ed                	j	80000610 <__sread+0x1a>

0000000080000628 <__seofread>:
    80000628:	4501                	li	a0,0
    8000062a:	8082                	ret

000000008000062c <__swrite>:
    8000062c:	0105d783          	lhu	a5,16(a1)
    80000630:	7179                	addi	sp,sp,-48
    80000632:	f022                	sd	s0,32(sp)
    80000634:	ec26                	sd	s1,24(sp)
    80000636:	e84a                	sd	s2,16(sp)
    80000638:	e44e                	sd	s3,8(sp)
    8000063a:	f406                	sd	ra,40(sp)
    8000063c:	1007f793          	andi	a5,a5,256
    80000640:	84aa                	mv	s1,a0
    80000642:	842e                	mv	s0,a1
    80000644:	8932                	mv	s2,a2
    80000646:	89b6                	mv	s3,a3
    80000648:	c799                	beqz	a5,80000656 <__swrite+0x2a>
    8000064a:	01259583          	lh	a1,18(a1)
    8000064e:	4689                	li	a3,2
    80000650:	4601                	li	a2,0
    80000652:	15c000ef          	jal	800007ae <_lseek_r>
    80000656:	01045783          	lhu	a5,16(s0)
    8000065a:	777d                	lui	a4,0xfffff
    8000065c:	177d                	addi	a4,a4,-1 # ffffffffffffefff <__heap_end+0xffffffff7ffdcfff>
    8000065e:	8ff9                	and	a5,a5,a4
    80000660:	01241583          	lh	a1,18(s0)
    80000664:	00f41823          	sh	a5,16(s0)
    80000668:	7402                	ld	s0,32(sp)
    8000066a:	70a2                	ld	ra,40(sp)
    8000066c:	86ce                	mv	a3,s3
    8000066e:	864a                	mv	a2,s2
    80000670:	69a2                	ld	s3,8(sp)
    80000672:	6942                	ld	s2,16(sp)
    80000674:	8526                	mv	a0,s1
    80000676:	64e2                	ld	s1,24(sp)
    80000678:	6145                	addi	sp,sp,48
    8000067a:	a271                	j	80000806 <_write_r>

000000008000067c <__sseek>:
    8000067c:	1141                	addi	sp,sp,-16
    8000067e:	e022                	sd	s0,0(sp)
    80000680:	842e                	mv	s0,a1
    80000682:	01259583          	lh	a1,18(a1)
    80000686:	e406                	sd	ra,8(sp)
    80000688:	126000ef          	jal	800007ae <_lseek_r>
    8000068c:	577d                	li	a4,-1
    8000068e:	01045783          	lhu	a5,16(s0)
    80000692:	00e51b63          	bne	a0,a4,800006a8 <__sseek+0x2c>
    80000696:	777d                	lui	a4,0xfffff
    80000698:	177d                	addi	a4,a4,-1 # ffffffffffffefff <__heap_end+0xffffffff7ffdcfff>
    8000069a:	8ff9                	and	a5,a5,a4
    8000069c:	00f41823          	sh	a5,16(s0)
    800006a0:	60a2                	ld	ra,8(sp)
    800006a2:	6402                	ld	s0,0(sp)
    800006a4:	0141                	addi	sp,sp,16
    800006a6:	8082                	ret
    800006a8:	6705                	lui	a4,0x1
    800006aa:	8fd9                	or	a5,a5,a4
    800006ac:	00f41823          	sh	a5,16(s0)
    800006b0:	ec48                	sd	a0,152(s0)
    800006b2:	b7fd                	j	800006a0 <__sseek+0x24>

00000000800006b4 <__sclose>:
    800006b4:	01259583          	lh	a1,18(a1)
    800006b8:	a009                	j	800006ba <_close_r>

00000000800006ba <_close_r>:
    800006ba:	1141                	addi	sp,sp,-16
    800006bc:	e022                	sd	s0,0(sp)
    800006be:	842a                	mv	s0,a0
    800006c0:	852e                	mv	a0,a1
    800006c2:	8401a023          	sw	zero,-1984(gp) # 80000ff8 <errno>
    800006c6:	e406                	sd	ra,8(sp)
    800006c8:	756000ef          	jal	80000e1e <_close>
    800006cc:	57fd                	li	a5,-1
    800006ce:	00f51663          	bne	a0,a5,800006da <_close_r+0x20>
    800006d2:	8401a783          	lw	a5,-1984(gp) # 80000ff8 <errno>
    800006d6:	c391                	beqz	a5,800006da <_close_r+0x20>
    800006d8:	c01c                	sw	a5,0(s0)
    800006da:	60a2                	ld	ra,8(sp)
    800006dc:	6402                	ld	s0,0(sp)
    800006de:	0141                	addi	sp,sp,16
    800006e0:	8082                	ret

00000000800006e2 <_reclaim_reent>:
    800006e2:	8101b783          	ld	a5,-2032(gp) # 80000fc8 <_impure_ptr>
    800006e6:	0ca78363          	beq	a5,a0,800007ac <_reclaim_reent+0xca>
    800006ea:	7d1c                	ld	a5,56(a0)
    800006ec:	7179                	addi	sp,sp,-48
    800006ee:	f022                	sd	s0,32(sp)
    800006f0:	f406                	sd	ra,40(sp)
    800006f2:	ec26                	sd	s1,24(sp)
    800006f4:	e84a                	sd	s2,16(sp)
    800006f6:	e44e                	sd	s3,8(sp)
    800006f8:	842a                	mv	s0,a0
    800006fa:	cb8d                	beqz	a5,8000072c <_reclaim_reent+0x4a>
    800006fc:	6f9c                	ld	a5,24(a5)
    800006fe:	c38d                	beqz	a5,80000720 <_reclaim_reent+0x3e>
    80000700:	4481                	li	s1,0
    80000702:	20000913          	li	s2,512
    80000706:	7c1c                	ld	a5,56(s0)
    80000708:	6f9c                	ld	a5,24(a5)
    8000070a:	97a6                	add	a5,a5,s1
    8000070c:	638c                	ld	a1,0(a5)
    8000070e:	e1c9                	bnez	a1,80000790 <_reclaim_reent+0xae>
    80000710:	04a1                	addi	s1,s1,8
    80000712:	ff249ae3          	bne	s1,s2,80000706 <_reclaim_reent+0x24>
    80000716:	7c1c                	ld	a5,56(s0)
    80000718:	8522                	mv	a0,s0
    8000071a:	6f8c                	ld	a1,24(a5)
    8000071c:	30e000ef          	jal	80000a2a <_free_r>
    80000720:	7c1c                	ld	a5,56(s0)
    80000722:	638c                	ld	a1,0(a5)
    80000724:	c581                	beqz	a1,8000072c <_reclaim_reent+0x4a>
    80000726:	8522                	mv	a0,s0
    80000728:	302000ef          	jal	80000a2a <_free_r>
    8000072c:	740c                	ld	a1,40(s0)
    8000072e:	c581                	beqz	a1,80000736 <_reclaim_reent+0x54>
    80000730:	8522                	mv	a0,s0
    80000732:	2f8000ef          	jal	80000a2a <_free_r>
    80000736:	7c0c                	ld	a1,56(s0)
    80000738:	c581                	beqz	a1,80000740 <_reclaim_reent+0x5e>
    8000073a:	8522                	mv	a0,s0
    8000073c:	2ee000ef          	jal	80000a2a <_free_r>
    80000740:	6c2c                	ld	a1,88(s0)
    80000742:	c581                	beqz	a1,8000074a <_reclaim_reent+0x68>
    80000744:	8522                	mv	a0,s0
    80000746:	2e4000ef          	jal	80000a2a <_free_r>
    8000074a:	702c                	ld	a1,96(s0)
    8000074c:	c581                	beqz	a1,80000754 <_reclaim_reent+0x72>
    8000074e:	8522                	mv	a0,s0
    80000750:	2da000ef          	jal	80000a2a <_free_r>
    80000754:	742c                	ld	a1,104(s0)
    80000756:	c581                	beqz	a1,8000075e <_reclaim_reent+0x7c>
    80000758:	8522                	mv	a0,s0
    8000075a:	2d0000ef          	jal	80000a2a <_free_r>
    8000075e:	644c                	ld	a1,136(s0)
    80000760:	c581                	beqz	a1,80000768 <_reclaim_reent+0x86>
    80000762:	8522                	mv	a0,s0
    80000764:	2c6000ef          	jal	80000a2a <_free_r>
    80000768:	604c                	ld	a1,128(s0)
    8000076a:	c581                	beqz	a1,80000772 <_reclaim_reent+0x90>
    8000076c:	8522                	mv	a0,s0
    8000076e:	2bc000ef          	jal	80000a2a <_free_r>
    80000772:	682c                	ld	a1,80(s0)
    80000774:	c581                	beqz	a1,8000077c <_reclaim_reent+0x9a>
    80000776:	8522                	mv	a0,s0
    80000778:	2b2000ef          	jal	80000a2a <_free_r>
    8000077c:	603c                	ld	a5,64(s0)
    8000077e:	c385                	beqz	a5,8000079e <_reclaim_reent+0xbc>
    80000780:	8522                	mv	a0,s0
    80000782:	7402                	ld	s0,32(sp)
    80000784:	70a2                	ld	ra,40(sp)
    80000786:	64e2                	ld	s1,24(sp)
    80000788:	6942                	ld	s2,16(sp)
    8000078a:	69a2                	ld	s3,8(sp)
    8000078c:	6145                	addi	sp,sp,48
    8000078e:	8782                	jr	a5
    80000790:	0005b983          	ld	s3,0(a1)
    80000794:	8522                	mv	a0,s0
    80000796:	294000ef          	jal	80000a2a <_free_r>
    8000079a:	85ce                	mv	a1,s3
    8000079c:	bf8d                	j	8000070e <_reclaim_reent+0x2c>
    8000079e:	70a2                	ld	ra,40(sp)
    800007a0:	7402                	ld	s0,32(sp)
    800007a2:	64e2                	ld	s1,24(sp)
    800007a4:	6942                	ld	s2,16(sp)
    800007a6:	69a2                	ld	s3,8(sp)
    800007a8:	6145                	addi	sp,sp,48
    800007aa:	8082                	ret
    800007ac:	8082                	ret

00000000800007ae <_lseek_r>:
    800007ae:	1141                	addi	sp,sp,-16
    800007b0:	e022                	sd	s0,0(sp)
    800007b2:	842a                	mv	s0,a0
    800007b4:	852e                	mv	a0,a1
    800007b6:	85b2                	mv	a1,a2
    800007b8:	8636                	mv	a2,a3
    800007ba:	8401a023          	sw	zero,-1984(gp) # 80000ff8 <errno>
    800007be:	e406                	sd	ra,8(sp)
    800007c0:	672000ef          	jal	80000e32 <_lseek>
    800007c4:	57fd                	li	a5,-1
    800007c6:	00f51663          	bne	a0,a5,800007d2 <_lseek_r+0x24>
    800007ca:	8401a783          	lw	a5,-1984(gp) # 80000ff8 <errno>
    800007ce:	c391                	beqz	a5,800007d2 <_lseek_r+0x24>
    800007d0:	c01c                	sw	a5,0(s0)
    800007d2:	60a2                	ld	ra,8(sp)
    800007d4:	6402                	ld	s0,0(sp)
    800007d6:	0141                	addi	sp,sp,16
    800007d8:	8082                	ret

00000000800007da <_read_r>:
    800007da:	1141                	addi	sp,sp,-16
    800007dc:	e022                	sd	s0,0(sp)
    800007de:	842a                	mv	s0,a0
    800007e0:	852e                	mv	a0,a1
    800007e2:	85b2                	mv	a1,a2
    800007e4:	8636                	mv	a2,a3
    800007e6:	8401a023          	sw	zero,-1984(gp) # 80000ff8 <errno>
    800007ea:	e406                	sd	ra,8(sp)
    800007ec:	65a000ef          	jal	80000e46 <_read>
    800007f0:	57fd                	li	a5,-1
    800007f2:	00f51663          	bne	a0,a5,800007fe <_read_r+0x24>
    800007f6:	8401a783          	lw	a5,-1984(gp) # 80000ff8 <errno>
    800007fa:	c391                	beqz	a5,800007fe <_read_r+0x24>
    800007fc:	c01c                	sw	a5,0(s0)
    800007fe:	60a2                	ld	ra,8(sp)
    80000800:	6402                	ld	s0,0(sp)
    80000802:	0141                	addi	sp,sp,16
    80000804:	8082                	ret

0000000080000806 <_write_r>:
    80000806:	1141                	addi	sp,sp,-16
    80000808:	e022                	sd	s0,0(sp)
    8000080a:	842a                	mv	s0,a0
    8000080c:	852e                	mv	a0,a1
    8000080e:	85b2                	mv	a1,a2
    80000810:	8636                	mv	a2,a3
    80000812:	8401a023          	sw	zero,-1984(gp) # 80000ff8 <errno>
    80000816:	e406                	sd	ra,8(sp)
    80000818:	67c000ef          	jal	80000e94 <_write>
    8000081c:	57fd                	li	a5,-1
    8000081e:	00f51663          	bne	a0,a5,8000082a <_write_r+0x24>
    80000822:	8401a783          	lw	a5,-1984(gp) # 80000ff8 <errno>
    80000826:	c391                	beqz	a5,8000082a <_write_r+0x24>
    80000828:	c01c                	sw	a5,0(s0)
    8000082a:	60a2                	ld	ra,8(sp)
    8000082c:	6402                	ld	s0,0(sp)
    8000082e:	0141                	addi	sp,sp,16
    80000830:	8082                	ret

0000000080000832 <__libc_init_array>:
    80000832:	1101                	addi	sp,sp,-32
    80000834:	e822                	sd	s0,16(sp)
    80000836:	e426                	sd	s1,8(sp)
    80000838:	00000417          	auipc	s0,0x0
    8000083c:	6b840413          	addi	s0,s0,1720 # 80000ef0 <__fini_array_end>
    80000840:	00000497          	auipc	s1,0x0
    80000844:	6b048493          	addi	s1,s1,1712 # 80000ef0 <__fini_array_end>
    80000848:	8c81                	sub	s1,s1,s0
    8000084a:	e04a                	sd	s2,0(sp)
    8000084c:	ec06                	sd	ra,24(sp)
    8000084e:	848d                	srai	s1,s1,0x3
    80000850:	4901                	li	s2,0
    80000852:	02991563          	bne	s2,s1,8000087c <__libc_init_array+0x4a>
    80000856:	00000417          	auipc	s0,0x0
    8000085a:	69a40413          	addi	s0,s0,1690 # 80000ef0 <__fini_array_end>
    8000085e:	00000497          	auipc	s1,0x0
    80000862:	69248493          	addi	s1,s1,1682 # 80000ef0 <__fini_array_end>
    80000866:	8c81                	sub	s1,s1,s0
    80000868:	848d                	srai	s1,s1,0x3
    8000086a:	4901                	li	s2,0
    8000086c:	00991d63          	bne	s2,s1,80000886 <__libc_init_array+0x54>
    80000870:	60e2                	ld	ra,24(sp)
    80000872:	6442                	ld	s0,16(sp)
    80000874:	64a2                	ld	s1,8(sp)
    80000876:	6902                	ld	s2,0(sp)
    80000878:	6105                	addi	sp,sp,32
    8000087a:	8082                	ret
    8000087c:	601c                	ld	a5,0(s0)
    8000087e:	0905                	addi	s2,s2,1
    80000880:	0421                	addi	s0,s0,8
    80000882:	9782                	jalr	a5
    80000884:	b7f9                	j	80000852 <__libc_init_array+0x20>
    80000886:	601c                	ld	a5,0(s0)
    80000888:	0905                	addi	s2,s2,1
    8000088a:	0421                	addi	s0,s0,8
    8000088c:	9782                	jalr	a5
    8000088e:	bff9                	j	8000086c <__libc_init_array+0x3a>

0000000080000890 <__libc_fini_array>:
    80000890:	1101                	addi	sp,sp,-32
    80000892:	e822                	sd	s0,16(sp)
    80000894:	e426                	sd	s1,8(sp)
    80000896:	00000417          	auipc	s0,0x0
    8000089a:	65a40413          	addi	s0,s0,1626 # 80000ef0 <__fini_array_end>
    8000089e:	00000497          	auipc	s1,0x0
    800008a2:	65248493          	addi	s1,s1,1618 # 80000ef0 <__fini_array_end>
    800008a6:	8c05                	sub	s0,s0,s1
    800008a8:	ec06                	sd	ra,24(sp)
    800008aa:	840d                	srai	s0,s0,0x3
    800008ac:	e411                	bnez	s0,800008b8 <__libc_fini_array+0x28>
    800008ae:	60e2                	ld	ra,24(sp)
    800008b0:	6442                	ld	s0,16(sp)
    800008b2:	64a2                	ld	s1,8(sp)
    800008b4:	6105                	addi	sp,sp,32
    800008b6:	8082                	ret
    800008b8:	147d                	addi	s0,s0,-1
    800008ba:	00341793          	slli	a5,s0,0x3
    800008be:	97a6                	add	a5,a5,s1
    800008c0:	639c                	ld	a5,0(a5)
    800008c2:	9782                	jalr	a5
    800008c4:	b7e5                	j	800008ac <__libc_fini_array+0x1c>

00000000800008c6 <memset>:
    800008c6:	832a                	mv	t1,a0
    800008c8:	c611                	beqz	a2,800008d4 <memset+0xe>
    800008ca:	00b30023          	sb	a1,0(t1)
    800008ce:	167d                	addi	a2,a2,-1
    800008d0:	0305                	addi	t1,t1,1
    800008d2:	fe65                	bnez	a2,800008ca <memset+0x4>
    800008d4:	8082                	ret

00000000800008d6 <memcpy>:
    800008d6:	832a                	mv	t1,a0
    800008d8:	ca09                	beqz	a2,800008ea <memcpy+0x14>
    800008da:	00058383          	lb	t2,0(a1)
    800008de:	00730023          	sb	t2,0(t1)
    800008e2:	167d                	addi	a2,a2,-1
    800008e4:	0305                	addi	t1,t1,1
    800008e6:	0585                	addi	a1,a1,1
    800008e8:	fa6d                	bnez	a2,800008da <memcpy+0x4>
    800008ea:	8082                	ret

00000000800008ec <__register_exitproc>:
    800008ec:	88aa                	mv	a7,a0
    800008ee:	84818513          	addi	a0,gp,-1976 # 80001000 <__atexit>
    800008f2:	6118                	ld	a4,0(a0)
    800008f4:	ef01                	bnez	a4,8000090c <__register_exitproc+0x20>
    800008f6:	a7818793          	addi	a5,gp,-1416 # 80001230 <__atexit0>
    800008fa:	e11c                	sd	a5,0(a0)
    800008fc:	00000713          	li	a4,0
    80000900:	c701                	beqz	a4,80000908 <__register_exitproc+0x1c>
    80000902:	6318                	ld	a4,0(a4)
    80000904:	10e7b823          	sd	a4,272(a5)
    80000908:	a7818713          	addi	a4,gp,-1416 # 80001230 <__atexit0>
    8000090c:	471c                	lw	a5,8(a4)
    8000090e:	487d                	li	a6,31
    80000910:	557d                	li	a0,-1
    80000912:	04f84763          	blt	a6,a5,80000960 <__register_exitproc+0x74>
    80000916:	02088d63          	beqz	a7,80000950 <__register_exitproc+0x64>
    8000091a:	11073803          	ld	a6,272(a4) # 1110 <__stack_align+0x1100>
    8000091e:	04080163          	beqz	a6,80000960 <__register_exitproc+0x74>
    80000922:	00379513          	slli	a0,a5,0x3
    80000926:	9542                	add	a0,a0,a6
    80000928:	e110                	sd	a2,0(a0)
    8000092a:	20082303          	lw	t1,512(a6)
    8000092e:	4605                	li	a2,1
    80000930:	00f6163b          	sllw	a2,a2,a5
    80000934:	00c36333          	or	t1,t1,a2
    80000938:	20682023          	sw	t1,512(a6)
    8000093c:	10d53023          	sd	a3,256(a0)
    80000940:	4689                	li	a3,2
    80000942:	00d89763          	bne	a7,a3,80000950 <__register_exitproc+0x64>
    80000946:	20482683          	lw	a3,516(a6)
    8000094a:	8ed1                	or	a3,a3,a2
    8000094c:	20d82223          	sw	a3,516(a6)
    80000950:	0017869b          	addiw	a3,a5,1
    80000954:	0789                	addi	a5,a5,2
    80000956:	078e                	slli	a5,a5,0x3
    80000958:	c714                	sw	a3,8(a4)
    8000095a:	973e                	add	a4,a4,a5
    8000095c:	e30c                	sd	a1,0(a4)
    8000095e:	4501                	li	a0,0
    80000960:	8082                	ret

0000000080000962 <__call_exitprocs>:
    80000962:	711d                	addi	sp,sp,-96
    80000964:	f852                	sd	s4,48(sp)
    80000966:	f456                	sd	s5,40(sp)
    80000968:	f05a                	sd	s6,32(sp)
    8000096a:	ec5e                	sd	s7,24(sp)
    8000096c:	ec86                	sd	ra,88(sp)
    8000096e:	e8a2                	sd	s0,80(sp)
    80000970:	e4a6                	sd	s1,72(sp)
    80000972:	e0ca                	sd	s2,64(sp)
    80000974:	fc4e                	sd	s3,56(sp)
    80000976:	e862                	sd	s8,16(sp)
    80000978:	e466                	sd	s9,8(sp)
    8000097a:	8aaa                	mv	s5,a0
    8000097c:	8a2e                	mv	s4,a1
    8000097e:	84818b13          	addi	s6,gp,-1976 # 80001000 <__atexit>
    80000982:	4b85                	li	s7,1
    80000984:	000b3483          	ld	s1,0(s6)
    80000988:	cc81                	beqz	s1,800009a0 <__call_exitprocs+0x3e>
    8000098a:	4480                	lw	s0,8(s1)
    8000098c:	1104b983          	ld	s3,272(s1)
    80000990:	fff4091b          	addiw	s2,s0,-1
    80000994:	040e                	slli	s0,s0,0x3
    80000996:	00898cb3          	add	s9,s3,s0
    8000099a:	9426                	add	s0,s0,s1
    8000099c:	00095f63          	bgez	s2,800009ba <__call_exitprocs+0x58>
    800009a0:	60e6                	ld	ra,88(sp)
    800009a2:	6446                	ld	s0,80(sp)
    800009a4:	64a6                	ld	s1,72(sp)
    800009a6:	6906                	ld	s2,64(sp)
    800009a8:	79e2                	ld	s3,56(sp)
    800009aa:	7a42                	ld	s4,48(sp)
    800009ac:	7aa2                	ld	s5,40(sp)
    800009ae:	7b02                	ld	s6,32(sp)
    800009b0:	6be2                	ld	s7,24(sp)
    800009b2:	6c42                	ld	s8,16(sp)
    800009b4:	6ca2                	ld	s9,8(sp)
    800009b6:	6125                	addi	sp,sp,96
    800009b8:	8082                	ret
    800009ba:	000a0c63          	beqz	s4,800009d2 <__call_exitprocs+0x70>
    800009be:	00099663          	bnez	s3,800009ca <__call_exitprocs+0x68>
    800009c2:	397d                	addiw	s2,s2,-1
    800009c4:	1ce1                	addi	s9,s9,-8
    800009c6:	1461                	addi	s0,s0,-8
    800009c8:	bfd1                	j	8000099c <__call_exitprocs+0x3a>
    800009ca:	0f8cb783          	ld	a5,248(s9)
    800009ce:	ff479ae3          	bne	a5,s4,800009c2 <__call_exitprocs+0x60>
    800009d2:	449c                	lw	a5,8(s1)
    800009d4:	6418                	ld	a4,8(s0)
    800009d6:	37fd                	addiw	a5,a5,-1
    800009d8:	03279963          	bne	a5,s2,80000a0a <__call_exitprocs+0xa8>
    800009dc:	0124a423          	sw	s2,8(s1)
    800009e0:	d36d                	beqz	a4,800009c2 <__call_exitprocs+0x60>
    800009e2:	0084ac03          	lw	s8,8(s1)
    800009e6:	00098963          	beqz	s3,800009f8 <__call_exitprocs+0x96>
    800009ea:	2009a783          	lw	a5,512(s3)
    800009ee:	012b96bb          	sllw	a3,s7,s2
    800009f2:	8ff5                	and	a5,a5,a3
    800009f4:	2781                	sext.w	a5,a5
    800009f6:	ef89                	bnez	a5,80000a10 <__call_exitprocs+0xae>
    800009f8:	9702                	jalr	a4
    800009fa:	4498                	lw	a4,8(s1)
    800009fc:	000b3783          	ld	a5,0(s6)
    80000a00:	f98712e3          	bne	a4,s8,80000984 <__call_exitprocs+0x22>
    80000a04:	faf48fe3          	beq	s1,a5,800009c2 <__call_exitprocs+0x60>
    80000a08:	bfb5                	j	80000984 <__call_exitprocs+0x22>
    80000a0a:	00043423          	sd	zero,8(s0)
    80000a0e:	bfc9                	j	800009e0 <__call_exitprocs+0x7e>
    80000a10:	2049a783          	lw	a5,516(s3)
    80000a14:	ff8cb583          	ld	a1,-8(s9)
    80000a18:	8ff5                	and	a5,a5,a3
    80000a1a:	2781                	sext.w	a5,a5
    80000a1c:	e781                	bnez	a5,80000a24 <__call_exitprocs+0xc2>
    80000a1e:	8556                	mv	a0,s5
    80000a20:	9702                	jalr	a4
    80000a22:	bfe1                	j	800009fa <__call_exitprocs+0x98>
    80000a24:	852e                	mv	a0,a1
    80000a26:	9702                	jalr	a4
    80000a28:	bfc9                	j	800009fa <__call_exitprocs+0x98>

0000000080000a2a <_free_r>:
    80000a2a:	cdd9                	beqz	a1,80000ac8 <_free_r+0x9e>
    80000a2c:	ff85b783          	ld	a5,-8(a1)
    80000a30:	1101                	addi	sp,sp,-32
    80000a32:	e822                	sd	s0,16(sp)
    80000a34:	ec06                	sd	ra,24(sp)
    80000a36:	ff858413          	addi	s0,a1,-8
    80000a3a:	0007d363          	bgez	a5,80000a40 <_free_r+0x16>
    80000a3e:	943e                	add	s0,s0,a5
    80000a40:	e42a                	sd	a0,8(sp)
    80000a42:	212000ef          	jal	80000c54 <__malloc_lock>
    80000a46:	85818713          	addi	a4,gp,-1960 # 80001010 <__malloc_free_list>
    80000a4a:	631c                	ld	a5,0(a4)
    80000a4c:	6522                	ld	a0,8(sp)
    80000a4e:	eb81                	bnez	a5,80000a5e <_free_r+0x34>
    80000a50:	00043423          	sd	zero,8(s0)
    80000a54:	e300                	sd	s0,0(a4)
    80000a56:	6442                	ld	s0,16(sp)
    80000a58:	60e2                	ld	ra,24(sp)
    80000a5a:	6105                	addi	sp,sp,32
    80000a5c:	aaed                	j	80000c56 <__malloc_unlock>
    80000a5e:	00f47d63          	bgeu	s0,a5,80000a78 <_free_r+0x4e>
    80000a62:	6010                	ld	a2,0(s0)
    80000a64:	00c406b3          	add	a3,s0,a2
    80000a68:	00d79663          	bne	a5,a3,80000a74 <_free_r+0x4a>
    80000a6c:	6394                	ld	a3,0(a5)
    80000a6e:	679c                	ld	a5,8(a5)
    80000a70:	96b2                	add	a3,a3,a2
    80000a72:	e014                	sd	a3,0(s0)
    80000a74:	e41c                	sd	a5,8(s0)
    80000a76:	bff9                	j	80000a54 <_free_r+0x2a>
    80000a78:	873e                	mv	a4,a5
    80000a7a:	679c                	ld	a5,8(a5)
    80000a7c:	c399                	beqz	a5,80000a82 <_free_r+0x58>
    80000a7e:	fef47de3          	bgeu	s0,a5,80000a78 <_free_r+0x4e>
    80000a82:	6314                	ld	a3,0(a4)
    80000a84:	00d70633          	add	a2,a4,a3
    80000a88:	00861f63          	bne	a2,s0,80000aa6 <_free_r+0x7c>
    80000a8c:	6010                	ld	a2,0(s0)
    80000a8e:	96b2                	add	a3,a3,a2
    80000a90:	e314                	sd	a3,0(a4)
    80000a92:	00d70633          	add	a2,a4,a3
    80000a96:	fcc790e3          	bne	a5,a2,80000a56 <_free_r+0x2c>
    80000a9a:	6390                	ld	a2,0(a5)
    80000a9c:	679c                	ld	a5,8(a5)
    80000a9e:	96b2                	add	a3,a3,a2
    80000aa0:	e314                	sd	a3,0(a4)
    80000aa2:	e71c                	sd	a5,8(a4)
    80000aa4:	bf4d                	j	80000a56 <_free_r+0x2c>
    80000aa6:	00c47563          	bgeu	s0,a2,80000ab0 <_free_r+0x86>
    80000aaa:	47b1                	li	a5,12
    80000aac:	c11c                	sw	a5,0(a0)
    80000aae:	b765                	j	80000a56 <_free_r+0x2c>
    80000ab0:	6010                	ld	a2,0(s0)
    80000ab2:	00c406b3          	add	a3,s0,a2
    80000ab6:	00d79663          	bne	a5,a3,80000ac2 <_free_r+0x98>
    80000aba:	6394                	ld	a3,0(a5)
    80000abc:	679c                	ld	a5,8(a5)
    80000abe:	96b2                	add	a3,a3,a2
    80000ac0:	e014                	sd	a3,0(s0)
    80000ac2:	e41c                	sd	a5,8(s0)
    80000ac4:	e700                	sd	s0,8(a4)
    80000ac6:	bf41                	j	80000a56 <_free_r+0x2c>
    80000ac8:	8082                	ret

0000000080000aca <sbrk_aligned>:
    80000aca:	1101                	addi	sp,sp,-32
    80000acc:	e04a                	sd	s2,0(sp)
    80000ace:	85018913          	addi	s2,gp,-1968 # 80001008 <__malloc_sbrk_start>
    80000ad2:	00093783          	ld	a5,0(s2)
    80000ad6:	e822                	sd	s0,16(sp)
    80000ad8:	e426                	sd	s1,8(sp)
    80000ada:	ec06                	sd	ra,24(sp)
    80000adc:	84aa                	mv	s1,a0
    80000ade:	842e                	mv	s0,a1
    80000ae0:	e791                	bnez	a5,80000aec <sbrk_aligned+0x22>
    80000ae2:	4581                	li	a1,0
    80000ae4:	312000ef          	jal	80000df6 <_sbrk_r>
    80000ae8:	00a93023          	sd	a0,0(s2)
    80000aec:	85a2                	mv	a1,s0
    80000aee:	8526                	mv	a0,s1
    80000af0:	306000ef          	jal	80000df6 <_sbrk_r>
    80000af4:	597d                	li	s2,-1
    80000af6:	01251a63          	bne	a0,s2,80000b0a <sbrk_aligned+0x40>
    80000afa:	547d                	li	s0,-1
    80000afc:	60e2                	ld	ra,24(sp)
    80000afe:	8522                	mv	a0,s0
    80000b00:	6442                	ld	s0,16(sp)
    80000b02:	64a2                	ld	s1,8(sp)
    80000b04:	6902                	ld	s2,0(sp)
    80000b06:	6105                	addi	sp,sp,32
    80000b08:	8082                	ret
    80000b0a:	00750413          	addi	s0,a0,7
    80000b0e:	9861                	andi	s0,s0,-8
    80000b10:	fe8506e3          	beq	a0,s0,80000afc <sbrk_aligned+0x32>
    80000b14:	40a405b3          	sub	a1,s0,a0
    80000b18:	8526                	mv	a0,s1
    80000b1a:	2dc000ef          	jal	80000df6 <_sbrk_r>
    80000b1e:	fd251fe3          	bne	a0,s2,80000afc <sbrk_aligned+0x32>
    80000b22:	bfe1                	j	80000afa <sbrk_aligned+0x30>

0000000080000b24 <_malloc_r>:
    80000b24:	00758793          	addi	a5,a1,7
    80000b28:	7179                	addi	sp,sp,-48
    80000b2a:	9be1                	andi	a5,a5,-8
    80000b2c:	ec26                	sd	s1,24(sp)
    80000b2e:	e84a                	sd	s2,16(sp)
    80000b30:	f406                	sd	ra,40(sp)
    80000b32:	f022                	sd	s0,32(sp)
    80000b34:	e44e                	sd	s3,8(sp)
    80000b36:	e052                	sd	s4,0(sp)
    80000b38:	07a1                	addi	a5,a5,8
    80000b3a:	4741                	li	a4,16
    80000b3c:	892a                	mv	s2,a0
    80000b3e:	44c1                	li	s1,16
    80000b40:	00e7e363          	bltu	a5,a4,80000b46 <_malloc_r+0x22>
    80000b44:	84be                	mv	s1,a5
    80000b46:	80000737          	lui	a4,0x80000
    80000b4a:	fff74713          	not	a4,a4
    80000b4e:	00f76463          	bltu	a4,a5,80000b56 <_malloc_r+0x32>
    80000b52:	00b4fe63          	bgeu	s1,a1,80000b6e <_malloc_r+0x4a>
    80000b56:	47b1                	li	a5,12
    80000b58:	00f92023          	sw	a5,0(s2)
    80000b5c:	4501                	li	a0,0
    80000b5e:	70a2                	ld	ra,40(sp)
    80000b60:	7402                	ld	s0,32(sp)
    80000b62:	64e2                	ld	s1,24(sp)
    80000b64:	6942                	ld	s2,16(sp)
    80000b66:	69a2                	ld	s3,8(sp)
    80000b68:	6a02                	ld	s4,0(sp)
    80000b6a:	6145                	addi	sp,sp,48
    80000b6c:	8082                	ret
    80000b6e:	854a                	mv	a0,s2
    80000b70:	0e4000ef          	jal	80000c54 <__malloc_lock>
    80000b74:	85818993          	addi	s3,gp,-1960 # 80001010 <__malloc_free_list>
    80000b78:	0009b783          	ld	a5,0(s3)
    80000b7c:	843e                	mv	s0,a5
    80000b7e:	ec21                	bnez	s0,80000bd6 <_malloc_r+0xb2>
    80000b80:	85a6                	mv	a1,s1
    80000b82:	854a                	mv	a0,s2
    80000b84:	f47ff0ef          	jal	80000aca <sbrk_aligned>
    80000b88:	57fd                	li	a5,-1
    80000b8a:	842a                	mv	s0,a0
    80000b8c:	0af51f63          	bne	a0,a5,80000c4a <_malloc_r+0x126>
    80000b90:	0009b403          	ld	s0,0(s3)
    80000b94:	87a2                	mv	a5,s0
    80000b96:	efd1                	bnez	a5,80000c32 <_malloc_r+0x10e>
    80000b98:	c055                	beqz	s0,80000c3c <_malloc_r+0x118>
    80000b9a:	00043a03          	ld	s4,0(s0)
    80000b9e:	4581                	li	a1,0
    80000ba0:	854a                	mv	a0,s2
    80000ba2:	9a22                	add	s4,s4,s0
    80000ba4:	252000ef          	jal	80000df6 <_sbrk_r>
    80000ba8:	08aa1a63          	bne	s4,a0,80000c3c <_malloc_r+0x118>
    80000bac:	601c                	ld	a5,0(s0)
    80000bae:	854a                	mv	a0,s2
    80000bb0:	8c9d                	sub	s1,s1,a5
    80000bb2:	85a6                	mv	a1,s1
    80000bb4:	f17ff0ef          	jal	80000aca <sbrk_aligned>
    80000bb8:	57fd                	li	a5,-1
    80000bba:	08f50163          	beq	a0,a5,80000c3c <_malloc_r+0x118>
    80000bbe:	601c                	ld	a5,0(s0)
    80000bc0:	97a6                	add	a5,a5,s1
    80000bc2:	e01c                	sd	a5,0(s0)
    80000bc4:	0009b783          	ld	a5,0(s3)
    80000bc8:	c3d9                	beqz	a5,80000c4e <_malloc_r+0x12a>
    80000bca:	6798                	ld	a4,8(a5)
    80000bcc:	06871663          	bne	a4,s0,80000c38 <_malloc_r+0x114>
    80000bd0:	0007b423          	sd	zero,8(a5)
    80000bd4:	a015                	j	80000bf8 <_malloc_r+0xd4>
    80000bd6:	6014                	ld	a3,0(s0)
    80000bd8:	9e85                	subw	a3,a3,s1
    80000bda:	0406c963          	bltz	a3,80000c2c <_malloc_r+0x108>
    80000bde:	473d                	li	a4,15
    80000be0:	02d75e63          	bge	a4,a3,80000c1c <_malloc_r+0xf8>
    80000be4:	e004                	sd	s1,0(s0)
    80000be6:	00940733          	add	a4,s0,s1
    80000bea:	02879763          	bne	a5,s0,80000c18 <_malloc_r+0xf4>
    80000bee:	00e9b023          	sd	a4,0(s3)
    80000bf2:	641c                	ld	a5,8(s0)
    80000bf4:	e314                	sd	a3,0(a4)
    80000bf6:	e71c                	sd	a5,8(a4)
    80000bf8:	854a                	mv	a0,s2
    80000bfa:	05c000ef          	jal	80000c56 <__malloc_unlock>
    80000bfe:	00f40513          	addi	a0,s0,15
    80000c02:	00840793          	addi	a5,s0,8
    80000c06:	9961                	andi	a0,a0,-8
    80000c08:	40f507bb          	subw	a5,a0,a5
    80000c0c:	dba9                	beqz	a5,80000b5e <_malloc_r+0x3a>
    80000c0e:	943e                	add	s0,s0,a5
    80000c10:	40f007bb          	negw	a5,a5
    80000c14:	e01c                	sd	a5,0(s0)
    80000c16:	b7a1                	j	80000b5e <_malloc_r+0x3a>
    80000c18:	e798                	sd	a4,8(a5)
    80000c1a:	bfe1                	j	80000bf2 <_malloc_r+0xce>
    80000c1c:	6418                	ld	a4,8(s0)
    80000c1e:	00879563          	bne	a5,s0,80000c28 <_malloc_r+0x104>
    80000c22:	00e9b023          	sd	a4,0(s3)
    80000c26:	bfc9                	j	80000bf8 <_malloc_r+0xd4>
    80000c28:	e798                	sd	a4,8(a5)
    80000c2a:	b7f9                	j	80000bf8 <_malloc_r+0xd4>
    80000c2c:	87a2                	mv	a5,s0
    80000c2e:	6400                	ld	s0,8(s0)
    80000c30:	b7b9                	j	80000b7e <_malloc_r+0x5a>
    80000c32:	843e                	mv	s0,a5
    80000c34:	679c                	ld	a5,8(a5)
    80000c36:	b785                	j	80000b96 <_malloc_r+0x72>
    80000c38:	87ba                	mv	a5,a4
    80000c3a:	b779                	j	80000bc8 <_malloc_r+0xa4>
    80000c3c:	47b1                	li	a5,12
    80000c3e:	00f92023          	sw	a5,0(s2)
    80000c42:	854a                	mv	a0,s2
    80000c44:	012000ef          	jal	80000c56 <__malloc_unlock>
    80000c48:	bf11                	j	80000b5c <_malloc_r+0x38>
    80000c4a:	e104                	sd	s1,0(a0)
    80000c4c:	b775                	j	80000bf8 <_malloc_r+0xd4>
    80000c4e:	00003423          	sd	zero,8(zero) # 8 <__boot_hart+0x8>
    80000c52:	9002                	ebreak

0000000080000c54 <__malloc_lock>:
    80000c54:	8082                	ret

0000000080000c56 <__malloc_unlock>:
    80000c56:	8082                	ret

0000000080000c58 <__sflush_r>:
    80000c58:	01059783          	lh	a5,16(a1)
    80000c5c:	7179                	addi	sp,sp,-48
    80000c5e:	f022                	sd	s0,32(sp)
    80000c60:	ec26                	sd	s1,24(sp)
    80000c62:	f406                	sd	ra,40(sp)
    80000c64:	e84a                	sd	s2,16(sp)
    80000c66:	e44e                	sd	s3,8(sp)
    80000c68:	0087f713          	andi	a4,a5,8
    80000c6c:	84aa                	mv	s1,a0
    80000c6e:	842e                	mv	s0,a1
    80000c70:	eb69                	bnez	a4,80000d42 <__sflush_r+0xea>
    80000c72:	4598                	lw	a4,8(a1)
    80000c74:	00e04563          	bgtz	a4,80000c7e <__sflush_r+0x26>
    80000c78:	5db8                	lw	a4,120(a1)
    80000c7a:	0ae05b63          	blez	a4,80000d30 <__sflush_r+0xd8>
    80000c7e:	6838                	ld	a4,80(s0)
    80000c80:	cb45                	beqz	a4,80000d30 <__sflush_r+0xd8>
    80000c82:	0004a903          	lw	s2,0(s1)
    80000c86:	03379693          	slli	a3,a5,0x33
    80000c8a:	0004a023          	sw	zero,0(s1)
    80000c8e:	7c0c                	ld	a1,56(s0)
    80000c90:	0606de63          	bgez	a3,80000d0c <__sflush_r+0xb4>
    80000c94:	6c50                	ld	a2,152(s0)
    80000c96:	01045783          	lhu	a5,16(s0)
    80000c9a:	8b91                	andi	a5,a5,4
    80000c9c:	c799                	beqz	a5,80000caa <__sflush_r+0x52>
    80000c9e:	441c                	lw	a5,8(s0)
    80000ca0:	8e1d                	sub	a2,a2,a5
    80000ca2:	703c                	ld	a5,96(s0)
    80000ca4:	c399                	beqz	a5,80000caa <__sflush_r+0x52>
    80000ca6:	5c3c                	lw	a5,120(s0)
    80000ca8:	8e1d                	sub	a2,a2,a5
    80000caa:	683c                	ld	a5,80(s0)
    80000cac:	7c0c                	ld	a1,56(s0)
    80000cae:	4681                	li	a3,0
    80000cb0:	8526                	mv	a0,s1
    80000cb2:	9782                	jalr	a5
    80000cb4:	577d                	li	a4,-1
    80000cb6:	01045783          	lhu	a5,16(s0)
    80000cba:	00e51d63          	bne	a0,a4,80000cd4 <__sflush_r+0x7c>
    80000cbe:	4094                	lw	a3,0(s1)
    80000cc0:	4775                	li	a4,29
    80000cc2:	06d76963          	bltu	a4,a3,80000d34 <__sflush_r+0xdc>
    80000cc6:	20400737          	lui	a4,0x20400
    80000cca:	0705                	addi	a4,a4,1 # 20400001 <__heap_size+0x203e0001>
    80000ccc:	00d75733          	srl	a4,a4,a3
    80000cd0:	8b05                	andi	a4,a4,1
    80000cd2:	c32d                	beqz	a4,80000d34 <__sflush_r+0xdc>
    80000cd4:	6c18                	ld	a4,24(s0)
    80000cd6:	00042423          	sw	zero,8(s0)
    80000cda:	e018                	sd	a4,0(s0)
    80000cdc:	03379713          	slli	a4,a5,0x33
    80000ce0:	00075863          	bgez	a4,80000cf0 <__sflush_r+0x98>
    80000ce4:	57fd                	li	a5,-1
    80000ce6:	00f51463          	bne	a0,a5,80000cee <__sflush_r+0x96>
    80000cea:	409c                	lw	a5,0(s1)
    80000cec:	e391                	bnez	a5,80000cf0 <__sflush_r+0x98>
    80000cee:	ec48                	sd	a0,152(s0)
    80000cf0:	702c                	ld	a1,96(s0)
    80000cf2:	0124a023          	sw	s2,0(s1)
    80000cf6:	cd8d                	beqz	a1,80000d30 <__sflush_r+0xd8>
    80000cf8:	07c40793          	addi	a5,s0,124
    80000cfc:	00f58563          	beq	a1,a5,80000d06 <__sflush_r+0xae>
    80000d00:	8526                	mv	a0,s1
    80000d02:	d29ff0ef          	jal	80000a2a <_free_r>
    80000d06:	06043023          	sd	zero,96(s0)
    80000d0a:	a01d                	j	80000d30 <__sflush_r+0xd8>
    80000d0c:	4601                	li	a2,0
    80000d0e:	4685                	li	a3,1
    80000d10:	8526                	mv	a0,s1
    80000d12:	9702                	jalr	a4
    80000d14:	57fd                	li	a5,-1
    80000d16:	862a                	mv	a2,a0
    80000d18:	f6f51fe3          	bne	a0,a5,80000c96 <__sflush_r+0x3e>
    80000d1c:	409c                	lw	a5,0(s1)
    80000d1e:	dfa5                	beqz	a5,80000c96 <__sflush_r+0x3e>
    80000d20:	4775                	li	a4,29
    80000d22:	00e78563          	beq	a5,a4,80000d2c <__sflush_r+0xd4>
    80000d26:	4759                	li	a4,22
    80000d28:	04e79663          	bne	a5,a4,80000d74 <__sflush_r+0x11c>
    80000d2c:	0124a023          	sw	s2,0(s1)
    80000d30:	4501                	li	a0,0
    80000d32:	a881                	j	80000d82 <__sflush_r+0x12a>
    80000d34:	0407e793          	ori	a5,a5,64
    80000d38:	0107979b          	slliw	a5,a5,0x10
    80000d3c:	4107d79b          	sraiw	a5,a5,0x10
    80000d40:	a835                	j	80000d7c <__sflush_r+0x124>
    80000d42:	0185b983          	ld	s3,24(a1)
    80000d46:	fe0985e3          	beqz	s3,80000d30 <__sflush_r+0xd8>
    80000d4a:	0005b903          	ld	s2,0(a1)
    80000d4e:	8b8d                	andi	a5,a5,3
    80000d50:	0135b023          	sd	s3,0(a1)
    80000d54:	4139093b          	subw	s2,s2,s3
    80000d58:	4701                	li	a4,0
    80000d5a:	e391                	bnez	a5,80000d5e <__sflush_r+0x106>
    80000d5c:	5198                	lw	a4,32(a1)
    80000d5e:	c458                	sw	a4,12(s0)
    80000d60:	fd2058e3          	blez	s2,80000d30 <__sflush_r+0xd8>
    80000d64:	643c                	ld	a5,72(s0)
    80000d66:	7c0c                	ld	a1,56(s0)
    80000d68:	86ca                	mv	a3,s2
    80000d6a:	864e                	mv	a2,s3
    80000d6c:	8526                	mv	a0,s1
    80000d6e:	9782                	jalr	a5
    80000d70:	02a04063          	bgtz	a0,80000d90 <__sflush_r+0x138>
    80000d74:	01041783          	lh	a5,16(s0)
    80000d78:	0407e793          	ori	a5,a5,64
    80000d7c:	00f41823          	sh	a5,16(s0)
    80000d80:	557d                	li	a0,-1
    80000d82:	70a2                	ld	ra,40(sp)
    80000d84:	7402                	ld	s0,32(sp)
    80000d86:	64e2                	ld	s1,24(sp)
    80000d88:	6942                	ld	s2,16(sp)
    80000d8a:	69a2                	ld	s3,8(sp)
    80000d8c:	6145                	addi	sp,sp,48
    80000d8e:	8082                	ret
    80000d90:	99aa                	add	s3,s3,a0
    80000d92:	40a9093b          	subw	s2,s2,a0
    80000d96:	b7e9                	j	80000d60 <__sflush_r+0x108>

0000000080000d98 <_fflush_r>:
    80000d98:	6d9c                	ld	a5,24(a1)
    80000d9a:	cb8d                	beqz	a5,80000dcc <_fflush_r+0x34>
    80000d9c:	1101                	addi	sp,sp,-32
    80000d9e:	e822                	sd	s0,16(sp)
    80000da0:	ec06                	sd	ra,24(sp)
    80000da2:	842a                	mv	s0,a0
    80000da4:	c519                	beqz	a0,80000db2 <_fflush_r+0x1a>
    80000da6:	613c                	ld	a5,64(a0)
    80000da8:	e789                	bnez	a5,80000db2 <_fflush_r+0x1a>
    80000daa:	e42e                	sd	a1,8(sp)
    80000dac:	f9cff0ef          	jal	80000548 <__sinit>
    80000db0:	65a2                	ld	a1,8(sp)
    80000db2:	01059783          	lh	a5,16(a1)
    80000db6:	c791                	beqz	a5,80000dc2 <_fflush_r+0x2a>
    80000db8:	8522                	mv	a0,s0
    80000dba:	6442                	ld	s0,16(sp)
    80000dbc:	60e2                	ld	ra,24(sp)
    80000dbe:	6105                	addi	sp,sp,32
    80000dc0:	bd61                	j	80000c58 <__sflush_r>
    80000dc2:	60e2                	ld	ra,24(sp)
    80000dc4:	6442                	ld	s0,16(sp)
    80000dc6:	4501                	li	a0,0
    80000dc8:	6105                	addi	sp,sp,32
    80000dca:	8082                	ret
    80000dcc:	4501                	li	a0,0
    80000dce:	8082                	ret

0000000080000dd0 <fflush>:
    80000dd0:	85aa                	mv	a1,a0
    80000dd2:	ed19                	bnez	a0,80000df0 <fflush+0x20>
    80000dd4:	00000617          	auipc	a2,0x0
    80000dd8:	13c60613          	addi	a2,a2,316 # 80000f10 <__sglue>
    80000ddc:	00000597          	auipc	a1,0x0
    80000de0:	fbc58593          	addi	a1,a1,-68 # 80000d98 <_fflush_r>
    80000de4:	00000517          	auipc	a0,0x0
    80000de8:	14450513          	addi	a0,a0,324 # 80000f28 <_impure_data>
    80000dec:	fa0ff06f          	j	8000058c <_fwalk_sglue>
    80000df0:	8101b503          	ld	a0,-2032(gp) # 80000fc8 <_impure_ptr>
    80000df4:	b755                	j	80000d98 <_fflush_r>

0000000080000df6 <_sbrk_r>:
    80000df6:	1141                	addi	sp,sp,-16
    80000df8:	e022                	sd	s0,0(sp)
    80000dfa:	842a                	mv	s0,a0
    80000dfc:	852e                	mv	a0,a1
    80000dfe:	8401a023          	sw	zero,-1984(gp) # 80000ff8 <errno>
    80000e02:	e406                	sd	ra,8(sp)
    80000e04:	058000ef          	jal	80000e5c <_sbrk>
    80000e08:	57fd                	li	a5,-1
    80000e0a:	00f51663          	bne	a0,a5,80000e16 <_sbrk_r+0x20>
    80000e0e:	8401a783          	lw	a5,-1984(gp) # 80000ff8 <errno>
    80000e12:	c391                	beqz	a5,80000e16 <_sbrk_r+0x20>
    80000e14:	c01c                	sw	a5,0(s0)
    80000e16:	60a2                	ld	ra,8(sp)
    80000e18:	6402                	ld	s0,0(sp)
    80000e1a:	0141                	addi	sp,sp,16
    80000e1c:	8082                	ret

0000000080000e1e <_close>:
    80000e1e:	1141                	addi	sp,sp,-16
    80000e20:	e406                	sd	ra,8(sp)
    80000e22:	07a000ef          	jal	80000e9c <__errno>
    80000e26:	60a2                	ld	ra,8(sp)
    80000e28:	47a5                	li	a5,9
    80000e2a:	c11c                	sw	a5,0(a0)
    80000e2c:	557d                	li	a0,-1
    80000e2e:	0141                	addi	sp,sp,16
    80000e30:	8082                	ret

0000000080000e32 <_lseek>:
    80000e32:	1141                	addi	sp,sp,-16
    80000e34:	e406                	sd	ra,8(sp)
    80000e36:	066000ef          	jal	80000e9c <__errno>
    80000e3a:	60a2                	ld	ra,8(sp)
    80000e3c:	47a5                	li	a5,9
    80000e3e:	c11c                	sw	a5,0(a0)
    80000e40:	557d                	li	a0,-1
    80000e42:	0141                	addi	sp,sp,16
    80000e44:	8082                	ret

0000000080000e46 <_read>:
    80000e46:	1141                	addi	sp,sp,-16
    80000e48:	e406                	sd	ra,8(sp)
    80000e4a:	052000ef          	jal	80000e9c <__errno>
    80000e4e:	60a2                	ld	ra,8(sp)
    80000e50:	05800793          	li	a5,88
    80000e54:	c11c                	sw	a5,0(a0)
    80000e56:	557d                	li	a0,-1
    80000e58:	0141                	addi	sp,sp,16
    80000e5a:	8082                	ret

0000000080000e5c <_sbrk>:
    80000e5c:	82018713          	addi	a4,gp,-2016 # 80000fd8 <curbrk>
    80000e60:	631c                	ld	a5,0(a4)
    80000e62:	b9018693          	addi	a3,gp,-1136 # 80001348 <_end>
    80000e66:	953e                	add	a0,a0,a5
    80000e68:	00d56b63          	bltu	a0,a3,80000e7e <_sbrk+0x22>
    80000e6c:	00021697          	auipc	a3,0x21
    80000e70:	19468693          	addi	a3,a3,404 # 80022000 <__heap_end>
    80000e74:	00d57563          	bgeu	a0,a3,80000e7e <_sbrk+0x22>
    80000e78:	e308                	sd	a0,0(a4)
    80000e7a:	853e                	mv	a0,a5
    80000e7c:	8082                	ret
    80000e7e:	1141                	addi	sp,sp,-16
    80000e80:	e406                	sd	ra,8(sp)
    80000e82:	01a000ef          	jal	80000e9c <__errno>
    80000e86:	60a2                	ld	ra,8(sp)
    80000e88:	47b1                	li	a5,12
    80000e8a:	c11c                	sw	a5,0(a0)
    80000e8c:	57fd                	li	a5,-1
    80000e8e:	853e                	mv	a0,a5
    80000e90:	0141                	addi	sp,sp,16
    80000e92:	8082                	ret

0000000080000e94 <_write>:
    80000e94:	04000693          	li	a3,64
    80000e98:	c6cff06f          	j	80000304 <htif_syscall>

0000000080000e9c <__errno>:
    80000e9c:	8101b503          	ld	a0,-2032(gp) # 80000fc8 <_impure_ptr>
    80000ea0:	8082                	ret

Disassembly of section .htif:

0000000080000f00 <tohost>:
	...

0000000080000f08 <fromhost>:
	...
