
/home/frank/hesl/test_riscv/chipyard/chipyard/build/big-blkdev.riscv:     file format elf64-littleriscv


Disassembly of section .text:

0000000080000000 <_start>:
    80000000:	4081                	li	ra,0
    80000002:	4101                	li	sp,0
    80000004:	4181                	li	gp,0
    80000006:	4201                	li	tp,0
    80000008:	4281                	li	t0,0
    8000000a:	4301                	li	t1,0
    8000000c:	4381                	li	t2,0
    8000000e:	4401                	li	s0,0
    80000010:	4481                	li	s1,0
    80000012:	4501                	li	a0,0
    80000014:	4581                	li	a1,0
    80000016:	4601                	li	a2,0
    80000018:	4681                	li	a3,0
    8000001a:	4701                	li	a4,0
    8000001c:	4781                	li	a5,0
    8000001e:	4801                	li	a6,0
    80000020:	4881                	li	a7,0
    80000022:	4901                	li	s2,0
    80000024:	4981                	li	s3,0
    80000026:	4a01                	li	s4,0
    80000028:	4a81                	li	s5,0
    8000002a:	4b01                	li	s6,0
    8000002c:	4b81                	li	s7,0
    8000002e:	4c01                	li	s8,0
    80000030:	4c81                	li	s9,0
    80000032:	4d01                	li	s10,0
    80000034:	4d81                	li	s11,0
    80000036:	4e01                	li	t3,0
    80000038:	4e81                	li	t4,0
    8000003a:	4f01                	li	t5,0
    8000003c:	4f81                	li	t6,0
    8000003e:	62f9                	lui	t0,0x1e
    80000040:	6002829b          	addiw	t0,t0,1536 # 1e600 <__stack_size+0x16600>
    80000044:	3002a073          	csrs	mstatus,t0
    80000048:	00000297          	auipc	t0,0x0
    8000004c:	09028293          	addi	t0,t0,144 # 800000d8 <_start+0xd8>
    80000050:	30529073          	csrw	mtvec,t0
    80000054:	00301073          	fscsr	zero
    80000058:	f0000053          	fmv.w.x	ft0,zero
    8000005c:	f00000d3          	fmv.w.x	ft1,zero
    80000060:	f0000153          	fmv.w.x	ft2,zero
    80000064:	f00001d3          	fmv.w.x	ft3,zero
    80000068:	f0000253          	fmv.w.x	ft4,zero
    8000006c:	f00002d3          	fmv.w.x	ft5,zero
    80000070:	f0000353          	fmv.w.x	ft6,zero
    80000074:	f00003d3          	fmv.w.x	ft7,zero
    80000078:	f0000453          	fmv.w.x	fs0,zero
    8000007c:	f00004d3          	fmv.w.x	fs1,zero
    80000080:	f0000553          	fmv.w.x	fa0,zero
    80000084:	f00005d3          	fmv.w.x	fa1,zero
    80000088:	f0000653          	fmv.w.x	fa2,zero
    8000008c:	f00006d3          	fmv.w.x	fa3,zero
    80000090:	f0000753          	fmv.w.x	fa4,zero
    80000094:	f00007d3          	fmv.w.x	fa5,zero
    80000098:	f0000853          	fmv.w.x	fa6,zero
    8000009c:	f00008d3          	fmv.w.x	fa7,zero
    800000a0:	f0000953          	fmv.w.x	fs2,zero
    800000a4:	f00009d3          	fmv.w.x	fs3,zero
    800000a8:	f0000a53          	fmv.w.x	fs4,zero
    800000ac:	f0000ad3          	fmv.w.x	fs5,zero
    800000b0:	f0000b53          	fmv.w.x	fs6,zero
    800000b4:	f0000bd3          	fmv.w.x	fs7,zero
    800000b8:	f0000c53          	fmv.w.x	fs8,zero
    800000bc:	f0000cd3          	fmv.w.x	fs9,zero
    800000c0:	f0000d53          	fmv.w.x	fs10,zero
    800000c4:	f0000dd3          	fmv.w.x	fs11,zero
    800000c8:	f0000e53          	fmv.w.x	ft8,zero
    800000cc:	f0000ed3          	fmv.w.x	ft9,zero
    800000d0:	f0000f53          	fmv.w.x	ft10,zero
    800000d4:	f0000fd3          	fmv.w.x	ft11,zero
    800000d8:	00002197          	auipc	gp,0x2
    800000dc:	7a018193          	addi	gp,gp,1952 # 80002878 <__global_pointer$>
    800000e0:	f1402473          	csrr	s0,mhartid
    800000e4:	00f00293          	li	t0,15
    800000e8:	00023217          	auipc	tp,0x23
    800000ec:	f1820213          	addi	tp,tp,-232 # 80023000 <__heap_end>
    800000f0:	005412b3          	sll	t0,s0,t0
    800000f4:	9216                	add	tp,tp,t0
    800000f6:	62a1                	lui	t0,0x8
    800000f8:	00028293          	mv	t0,t0
    800000fc:	00520133          	add	sp,tp,t0
    80000100:	00000297          	auipc	t0,0x0
    80000104:	04428293          	addi	t0,t0,68 # 80000144 <trap_entry>
    80000108:	30529073          	csrw	mtvec,t0
    8000010c:	295010ef          	jal	80001ba0 <__init_tls>
    80000110:	00000293          	li	t0,0
    80000114:	00540463          	beq	s0,t0,8000011c <_start+0x11c>
    80000118:	0f40006f          	j	8000020c <_start_secondary>
    8000011c:	82018293          	addi	t0,gp,-2016 # 80002098 <__stdio_exit_handler>
    80000120:	d8818313          	addi	t1,gp,-632 # 80002600 <_end>
    80000124:	0062f763          	bgeu	t0,t1,80000132 <_start+0x132>
    80000128:	0002b023          	sd	zero,0(t0)
    8000012c:	02a1                	addi	t0,t0,8
    8000012e:	fe62ede3          	bltu	t0,t1,80000128 <_start+0x128>
    80000132:	00002517          	auipc	a0,0x2
    80000136:	b6250513          	addi	a0,a0,-1182 # 80001c94 <__libc_fini_array>
    8000013a:	2e9010ef          	jal	80001c22 <atexit>
    8000013e:	2f9010ef          	jal	80001c36 <__libc_init_array>
    80000142:	a075                	j	800001ee <_start_main>

0000000080000144 <trap_entry>:
    80000144:	34011073          	csrw	mscratch,sp
    80000148:	7111                	addi	sp,sp,-256
    8000014a:	e406                	sd	ra,8(sp)
    8000014c:	340020f3          	csrr	ra,mscratch
    80000150:	e806                	sd	ra,16(sp)
    80000152:	ec0e                	sd	gp,24(sp)
    80000154:	f012                	sd	tp,32(sp)
    80000156:	f416                	sd	t0,40(sp)
    80000158:	f81a                	sd	t1,48(sp)
    8000015a:	fc1e                	sd	t2,56(sp)
    8000015c:	e0a2                	sd	s0,64(sp)
    8000015e:	e4a6                	sd	s1,72(sp)
    80000160:	e8aa                	sd	a0,80(sp)
    80000162:	ecae                	sd	a1,88(sp)
    80000164:	f0b2                	sd	a2,96(sp)
    80000166:	f4b6                	sd	a3,104(sp)
    80000168:	f8ba                	sd	a4,112(sp)
    8000016a:	fcbe                	sd	a5,120(sp)
    8000016c:	e142                	sd	a6,128(sp)
    8000016e:	e546                	sd	a7,136(sp)
    80000170:	e94a                	sd	s2,144(sp)
    80000172:	ed4e                	sd	s3,152(sp)
    80000174:	f152                	sd	s4,160(sp)
    80000176:	f556                	sd	s5,168(sp)
    80000178:	f95a                	sd	s6,176(sp)
    8000017a:	fd5e                	sd	s7,184(sp)
    8000017c:	e1e2                	sd	s8,192(sp)
    8000017e:	e5e6                	sd	s9,200(sp)
    80000180:	e9ea                	sd	s10,208(sp)
    80000182:	edee                	sd	s11,216(sp)
    80000184:	f1f2                	sd	t3,224(sp)
    80000186:	f5f6                	sd	t4,232(sp)
    80000188:	f9fa                	sd	t5,240(sp)
    8000018a:	fdfe                	sd	t6,248(sp)
    8000018c:	34102573          	csrr	a0,mepc
    80000190:	342025f3          	csrr	a1,mcause
    80000194:	34302673          	csrr	a2,mtval
    80000198:	868a                	mv	a3,sp
    8000019a:	1f1010ef          	jal	80001b8a <handle_trap>
    8000019e:	34151073          	csrw	mepc,a0
    800001a2:	6289                	lui	t0,0x2
    800001a4:	8002829b          	addiw	t0,t0,-2048 # 1800 <__stack_align+0x17f0>
    800001a8:	3002a073          	csrs	mstatus,t0
    800001ac:	60a2                	ld	ra,8(sp)
    800001ae:	61e2                	ld	gp,24(sp)
    800001b0:	7202                	ld	tp,32(sp)
    800001b2:	72a2                	ld	t0,40(sp)
    800001b4:	7342                	ld	t1,48(sp)
    800001b6:	73e2                	ld	t2,56(sp)
    800001b8:	6406                	ld	s0,64(sp)
    800001ba:	64a6                	ld	s1,72(sp)
    800001bc:	6546                	ld	a0,80(sp)
    800001be:	65e6                	ld	a1,88(sp)
    800001c0:	7606                	ld	a2,96(sp)
    800001c2:	76a6                	ld	a3,104(sp)
    800001c4:	7746                	ld	a4,112(sp)
    800001c6:	77e6                	ld	a5,120(sp)
    800001c8:	680a                	ld	a6,128(sp)
    800001ca:	68aa                	ld	a7,136(sp)
    800001cc:	694a                	ld	s2,144(sp)
    800001ce:	69ea                	ld	s3,152(sp)
    800001d0:	7a0a                	ld	s4,160(sp)
    800001d2:	7aaa                	ld	s5,168(sp)
    800001d4:	7b4a                	ld	s6,176(sp)
    800001d6:	7bea                	ld	s7,184(sp)
    800001d8:	6c0e                	ld	s8,192(sp)
    800001da:	6cae                	ld	s9,200(sp)
    800001dc:	6d4e                	ld	s10,208(sp)
    800001de:	6dee                	ld	s11,216(sp)
    800001e0:	7e0e                	ld	t3,224(sp)
    800001e2:	7eae                	ld	t4,232(sp)
    800001e4:	7f4e                	ld	t5,240(sp)
    800001e6:	7fee                	ld	t6,248(sp)
    800001e8:	6142                	ld	sp,16(sp)
    800001ea:	30200073          	mret

00000000800001ee <_start_main>:
    800001ee:	52fd                	li	t0,-1
    800001f0:	0110000f          	fence	w,w
    800001f4:	c651a423          	sw	t0,-920(gp) # 800024e0 <__boot_sync>
    800001f8:	4505                	li	a0,1
    800001fa:	00002597          	auipc	a1,0x2
    800001fe:	d6658593          	addi	a1,a1,-666 # 80001f60 <argv>
    80000202:	8101b603          	ld	a2,-2032(gp) # 80002088 <environ>
    80000206:	026000ef          	jal	8000022c <main>
    8000020a:	a4b9                	j	80000458 <exit>

000000008000020c <_start_secondary>:
    8000020c:	c681a283          	lw	t0,-920(gp) # 800024e0 <__boot_sync>
    80000210:	fe028ee3          	beqz	t0,8000020c <_start_secondary>
    80000214:	0220000f          	fence	r,r
    80000218:	4505                	li	a0,1
    8000021a:	00002597          	auipc	a1,0x2
    8000021e:	d4658593          	addi	a1,a1,-698 # 80001f60 <argv>
    80000222:	8101b603          	ld	a2,-2032(gp) # 80002088 <environ>
    80000226:	1ab010ef          	jal	80001bd0 <__main>
    8000022a:	a43d                	j	80000458 <exit>

000000008000022c <main>:
    8000022c:	fd010113          	addi	sp,sp,-48
    80000230:	100157b7          	lui	a5,0x10015
    80000234:	01213823          	sd	s2,16(sp)
    80000238:	0187a903          	lw	s2,24(a5) # 10015018 <__heap_size+0xfff5018>
    8000023c:	01313423          	sd	s3,8(sp)
    80000240:	01000593          	li	a1,16
    80000244:	0009099b          	sext.w	s3,s2
    80000248:	00002517          	auipc	a0,0x2
    8000024c:	c4050513          	addi	a0,a0,-960 # 80001e88 <__tbss_end+0x80>
    80000250:	00098613          	mv	a2,s3
    80000254:	02813023          	sd	s0,32(sp)
    80000258:	00913c23          	sd	s1,24(sp)
    8000025c:	02113423          	sd	ra,40(sp)
    80000260:	0049591b          	srliw	s2,s2,0x4
    80000264:	4a2000ef          	jal	80000706 <iprintf>
    80000268:	00000493          	li	s1,0
    8000026c:	01000413          	li	s0,16
    80000270:	00048513          	mv	a0,s1
    80000274:	fff4041b          	addiw	s0,s0,-1
    80000278:	054000ef          	jal	800002cc <write_sector>
    8000027c:	009904bb          	addw	s1,s2,s1
    80000280:	fe0418e3          	bnez	s0,80000270 <main+0x44>
    80000284:	00098593          	mv	a1,s3
    80000288:	00002517          	auipc	a0,0x2
    8000028c:	c2050513          	addi	a0,a0,-992 # 80001ea8 <__tbss_end+0xa0>
    80000290:	476000ef          	jal	80000706 <iprintf>
    80000294:	01000493          	li	s1,16
    80000298:	00040513          	mv	a0,s0
    8000029c:	fff4849b          	addiw	s1,s1,-1
    800002a0:	0d0000ef          	jal	80000370 <check_sector>
    800002a4:	0124043b          	addw	s0,s0,s2
    800002a8:	fe0498e3          	bnez	s1,80000298 <main+0x6c>
    800002ac:	02813083          	ld	ra,40(sp)
    800002b0:	02013403          	ld	s0,32(sp)
    800002b4:	01813483          	ld	s1,24(sp)
    800002b8:	01013903          	ld	s2,16(sp)
    800002bc:	00813983          	ld	s3,8(sp)
    800002c0:	00000513          	li	a0,0
    800002c4:	03010113          	addi	sp,sp,48
    800002c8:	00008067          	ret

00000000800002cc <write_sector>:
    800002cc:	85818813          	addi	a6,gp,-1960 # 800020d0 <sector_buf>
    800002d0:	0065161b          	slliw	a2,a0,0x6
    800002d4:	00080693          	mv	a3,a6
    800002d8:	00000793          	li	a5,0
    800002dc:	04000593          	li	a1,64
    800002e0:	00c7e733          	or	a4,a5,a2
    800002e4:	02071713          	slli	a4,a4,0x20
    800002e8:	02075713          	srli	a4,a4,0x20
    800002ec:	00e6b023          	sd	a4,0(a3)
    800002f0:	0017879b          	addiw	a5,a5,1
    800002f4:	00868693          	addi	a3,a3,8
    800002f8:	feb794e3          	bne	a5,a1,800002e0 <write_sector+0x14>
    800002fc:	10015737          	lui	a4,0x10015
    80000300:	01270713          	addi	a4,a4,18 # 10015012 <__heap_size+0xfff5012>
    80000304:	00074783          	lbu	a5,0(a4)
    80000308:	fe078ee3          	beqz	a5,80000304 <write_sector+0x38>
    8000030c:	100157b7          	lui	a5,0x10015
    80000310:	0107b023          	sd	a6,0(a5) # 10015000 <__heap_size+0xfff5000>
    80000314:	100156b7          	lui	a3,0x10015
    80000318:	00100613          	li	a2,1
    8000031c:	00a6a423          	sw	a0,8(a3) # 10015008 <__heap_size+0xfff5008>
    80000320:	10015737          	lui	a4,0x10015
    80000324:	00c72623          	sw	a2,12(a4) # 1001500c <__heap_size+0xfff500c>
    80000328:	00c78823          	sb	a2,16(a5)
    8000032c:	0ff0000f          	fence
    80000330:	100157b7          	lui	a5,0x10015
    80000334:	0117c583          	lbu	a1,17(a5) # 10015011 <__heap_size+0xfff5011>
    80000338:	01470713          	addi	a4,a4,20
    8000033c:	00074783          	lbu	a5,0(a4)
    80000340:	fe078ee3          	beqz	a5,8000033c <write_sector+0x70>
    80000344:	100157b7          	lui	a5,0x10015
    80000348:	0137c603          	lbu	a2,19(a5) # 10015013 <__heap_size+0xfff5013>
    8000034c:	00c59463          	bne	a1,a2,80000354 <write_sector+0x88>
    80000350:	00008067          	ret
    80000354:	ff010113          	addi	sp,sp,-16
    80000358:	00002517          	auipc	a0,0x2
    8000035c:	ab050513          	addi	a0,a0,-1360 # 80001e08 <__tbss_end>
    80000360:	00113423          	sd	ra,8(sp)
    80000364:	3a2000ef          	jal	80000706 <iprintf>
    80000368:	00100513          	li	a0,1
    8000036c:	0ec000ef          	jal	80000458 <exit>

0000000080000370 <check_sector>:
    80000370:	fe010113          	addi	sp,sp,-32
    80000374:	10015737          	lui	a4,0x10015
    80000378:	00113c23          	sd	ra,24(sp)
    8000037c:	00813823          	sd	s0,16(sp)
    80000380:	00913423          	sd	s1,8(sp)
    80000384:	01270713          	addi	a4,a4,18 # 10015012 <__heap_size+0xfff5012>
    80000388:	00074783          	lbu	a5,0(a4)
    8000038c:	fe078ee3          	beqz	a5,80000388 <check_sector+0x18>
    80000390:	10015737          	lui	a4,0x10015
    80000394:	85818793          	addi	a5,gp,-1960 # 800020d0 <sector_buf>
    80000398:	00f73023          	sd	a5,0(a4) # 10015000 <__heap_size+0xfff5000>
    8000039c:	100156b7          	lui	a3,0x10015
    800003a0:	00a6a423          	sw	a0,8(a3) # 10015008 <__heap_size+0xfff5008>
    800003a4:	10015637          	lui	a2,0x10015
    800003a8:	00100593          	li	a1,1
    800003ac:	00b62623          	sw	a1,12(a2) # 1001500c <__heap_size+0xfff500c>
    800003b0:	00070823          	sb	zero,16(a4)
    800003b4:	0ff0000f          	fence
    800003b8:	10015737          	lui	a4,0x10015
    800003bc:	01174583          	lbu	a1,17(a4) # 10015011 <__heap_size+0xfff5011>
    800003c0:	01468693          	addi	a3,a3,20
    800003c4:	0006c703          	lbu	a4,0(a3)
    800003c8:	fe070ee3          	beqz	a4,800003c4 <check_sector+0x54>
    800003cc:	10015737          	lui	a4,0x10015
    800003d0:	01374603          	lbu	a2,19(a4) # 10015013 <__heap_size+0xfff5013>
    800003d4:	06c59863          	bne	a1,a2,80000444 <check_sector+0xd4>
    800003d8:	0065171b          	slliw	a4,a0,0x6
    800003dc:	00000593          	li	a1,0
    800003e0:	04000693          	li	a3,64
    800003e4:	00e5e433          	or	s0,a1,a4
    800003e8:	0007b483          	ld	s1,0(a5)
    800003ec:	02041413          	slli	s0,s0,0x20
    800003f0:	02045413          	srli	s0,s0,0x20
    800003f4:	02941263          	bne	s0,s1,80000418 <check_sector+0xa8>
    800003f8:	0015859b          	addiw	a1,a1,1
    800003fc:	00878793          	addi	a5,a5,8
    80000400:	fed592e3          	bne	a1,a3,800003e4 <check_sector+0x74>
    80000404:	01813083          	ld	ra,24(sp)
    80000408:	01013403          	ld	s0,16(sp)
    8000040c:	00813483          	ld	s1,8(sp)
    80000410:	02010113          	addi	sp,sp,32
    80000414:	00008067          	ret
    80000418:	00050613          	mv	a2,a0
    8000041c:	00002517          	auipc	a0,0x2
    80000420:	a2450513          	addi	a0,a0,-1500 # 80001e40 <__tbss_end+0x38>
    80000424:	2e2000ef          	jal	80000706 <iprintf>
    80000428:	00048613          	mv	a2,s1
    8000042c:	00040593          	mv	a1,s0
    80000430:	00002517          	auipc	a0,0x2
    80000434:	a4050513          	addi	a0,a0,-1472 # 80001e70 <__tbss_end+0x68>
    80000438:	2ce000ef          	jal	80000706 <iprintf>
    8000043c:	00100513          	li	a0,1
    80000440:	018000ef          	jal	80000458 <exit>
    80000444:	00002517          	auipc	a0,0x2
    80000448:	9c450513          	addi	a0,a0,-1596 # 80001e08 <__tbss_end>
    8000044c:	2ba000ef          	jal	80000706 <iprintf>
    80000450:	00100513          	li	a0,1
    80000454:	004000ef          	jal	80000458 <exit>

0000000080000458 <exit>:
    80000458:	1141                	addi	sp,sp,-16
    8000045a:	e022                	sd	s0,0(sp)
    8000045c:	e406                	sd	ra,8(sp)
    8000045e:	00002797          	auipc	a5,0x2
    80000462:	8e278793          	addi	a5,a5,-1822 # 80001d40 <__call_exitprocs>
    80000466:	842a                	mv	s0,a0
    80000468:	c781                	beqz	a5,80000470 <exit+0x18>
    8000046a:	4581                	li	a1,0
    8000046c:	0d5010ef          	jal	80001d40 <__call_exitprocs>
    80000470:	8201b783          	ld	a5,-2016(gp) # 80002098 <__stdio_exit_handler>
    80000474:	c391                	beqz	a5,80000478 <exit+0x20>
    80000476:	9782                	jalr	a5
    80000478:	8522                	mv	a0,s0
    8000047a:	666010ef          	jal	80001ae0 <_exit>

000000008000047e <__fp_lock>:
    8000047e:	4501                	li	a0,0
    80000480:	8082                	ret

0000000080000482 <std>:
    80000482:	1141                	addi	sp,sp,-16
    80000484:	e022                	sd	s0,0(sp)
    80000486:	e406                	sd	ra,8(sp)
    80000488:	842a                	mv	s0,a0
    8000048a:	00b51823          	sh	a1,16(a0)
    8000048e:	00c51923          	sh	a2,18(a0)
    80000492:	00053023          	sd	zero,0(a0)
    80000496:	00053423          	sd	zero,8(a0)
    8000049a:	0a052623          	sw	zero,172(a0)
    8000049e:	00053c23          	sd	zero,24(a0)
    800004a2:	02052023          	sw	zero,32(a0)
    800004a6:	02052423          	sw	zero,40(a0)
    800004aa:	4621                	li	a2,8
    800004ac:	4581                	li	a1,0
    800004ae:	0a450513          	addi	a0,a0,164
    800004b2:	4c2000ef          	jal	80000974 <memset>
    800004b6:	00000797          	auipc	a5,0x0
    800004ba:	27e78793          	addi	a5,a5,638 # 80000734 <__sread>
    800004be:	e03c                	sd	a5,64(s0)
    800004c0:	00000797          	auipc	a5,0x0
    800004c4:	2aa78793          	addi	a5,a5,682 # 8000076a <__swrite>
    800004c8:	e43c                	sd	a5,72(s0)
    800004ca:	00000797          	auipc	a5,0x0
    800004ce:	2f078793          	addi	a5,a5,752 # 800007ba <__sseek>
    800004d2:	e83c                	sd	a5,80(s0)
    800004d4:	00000797          	auipc	a5,0x0
    800004d8:	31e78793          	addi	a5,a5,798 # 800007f2 <__sclose>
    800004dc:	60a2                	ld	ra,8(sp)
    800004de:	fc00                	sd	s0,56(s0)
    800004e0:	ec3c                	sd	a5,88(s0)
    800004e2:	6402                	ld	s0,0(sp)
    800004e4:	0141                	addi	sp,sp,16
    800004e6:	8082                	ret

00000000800004e8 <stdio_exit_handler>:
    800004e8:	00002617          	auipc	a2,0x2
    800004ec:	ae860613          	addi	a2,a2,-1304 # 80001fd0 <__sglue>
    800004f0:	00001597          	auipc	a1,0x1
    800004f4:	eca58593          	addi	a1,a1,-310 # 800013ba <_fflush_r>
    800004f8:	00002517          	auipc	a0,0x2
    800004fc:	af050513          	addi	a0,a0,-1296 # 80001fe8 <_impure_data>
    80000500:	aaad                	j	8000067a <_fwalk_sglue>

0000000080000502 <cleanup_stdio>:
    80000502:	650c                	ld	a1,8(a0)
    80000504:	1141                	addi	sp,sp,-16
    80000506:	e022                	sd	s0,0(sp)
    80000508:	e406                	sd	ra,8(sp)
    8000050a:	a5818793          	addi	a5,gp,-1448 # 800022d0 <__sf>
    8000050e:	842a                	mv	s0,a0
    80000510:	00f58463          	beq	a1,a5,80000518 <cleanup_stdio+0x16>
    80000514:	6a7000ef          	jal	800013ba <_fflush_r>
    80000518:	680c                	ld	a1,16(s0)
    8000051a:	b0818793          	addi	a5,gp,-1272 # 80002380 <__sf+0xb0>
    8000051e:	00f58563          	beq	a1,a5,80000528 <cleanup_stdio+0x26>
    80000522:	8522                	mv	a0,s0
    80000524:	697000ef          	jal	800013ba <_fflush_r>
    80000528:	6c0c                	ld	a1,24(s0)
    8000052a:	bb818793          	addi	a5,gp,-1096 # 80002430 <__sf+0x160>
    8000052e:	00f58863          	beq	a1,a5,8000053e <cleanup_stdio+0x3c>
    80000532:	8522                	mv	a0,s0
    80000534:	6402                	ld	s0,0(sp)
    80000536:	60a2                	ld	ra,8(sp)
    80000538:	0141                	addi	sp,sp,16
    8000053a:	6810006f          	j	800013ba <_fflush_r>
    8000053e:	60a2                	ld	ra,8(sp)
    80000540:	6402                	ld	s0,0(sp)
    80000542:	0141                	addi	sp,sp,16
    80000544:	8082                	ret

0000000080000546 <global_stdio_init.part.0>:
    80000546:	1141                	addi	sp,sp,-16
    80000548:	00000797          	auipc	a5,0x0
    8000054c:	fa078793          	addi	a5,a5,-96 # 800004e8 <stdio_exit_handler>
    80000550:	4601                	li	a2,0
    80000552:	4591                	li	a1,4
    80000554:	a5818513          	addi	a0,gp,-1448 # 800022d0 <__sf>
    80000558:	e406                	sd	ra,8(sp)
    8000055a:	82f1b023          	sd	a5,-2016(gp) # 80002098 <__stdio_exit_handler>
    8000055e:	f25ff0ef          	jal	80000482 <std>
    80000562:	4605                	li	a2,1
    80000564:	45a5                	li	a1,9
    80000566:	b0818513          	addi	a0,gp,-1272 # 80002380 <__sf+0xb0>
    8000056a:	f19ff0ef          	jal	80000482 <std>
    8000056e:	60a2                	ld	ra,8(sp)
    80000570:	4609                	li	a2,2
    80000572:	45c9                	li	a1,18
    80000574:	bb818513          	addi	a0,gp,-1096 # 80002430 <__sf+0x160>
    80000578:	0141                	addi	sp,sp,16
    8000057a:	b721                	j	80000482 <std>

000000008000057c <__fp_unlock>:
    8000057c:	4501                	li	a0,0
    8000057e:	8082                	ret

0000000080000580 <__sfp>:
    80000580:	1101                	addi	sp,sp,-32
    80000582:	e04a                	sd	s2,0(sp)
    80000584:	ec06                	sd	ra,24(sp)
    80000586:	e822                	sd	s0,16(sp)
    80000588:	e426                	sd	s1,8(sp)
    8000058a:	8201b783          	ld	a5,-2016(gp) # 80002098 <__stdio_exit_handler>
    8000058e:	892a                	mv	s2,a0
    80000590:	e399                	bnez	a5,80000596 <__sfp+0x16>
    80000592:	fb5ff0ef          	jal	80000546 <global_stdio_init.part.0>
    80000596:	00002497          	auipc	s1,0x2
    8000059a:	a3a48493          	addi	s1,s1,-1478 # 80001fd0 <__sglue>
    8000059e:	6880                	ld	s0,16(s1)
    800005a0:	449c                	lw	a5,8(s1)
    800005a2:	37fd                	addiw	a5,a5,-1
    800005a4:	0207d163          	bgez	a5,800005c6 <__sfp+0x46>
    800005a8:	609c                	ld	a5,0(s1)
    800005aa:	e7c1                	bnez	a5,80000632 <__sfp+0xb2>
    800005ac:	2d800593          	li	a1,728
    800005b0:	854a                	mv	a0,s2
    800005b2:	4cc000ef          	jal	80000a7e <_malloc_r>
    800005b6:	842a                	mv	s0,a0
    800005b8:	e12d                	bnez	a0,8000061a <__sfp+0x9a>
    800005ba:	0004b023          	sd	zero,0(s1)
    800005be:	47b1                	li	a5,12
    800005c0:	00f92023          	sw	a5,0(s2)
    800005c4:	a089                	j	80000606 <__sfp+0x86>
    800005c6:	01041703          	lh	a4,16(s0)
    800005ca:	e729                	bnez	a4,80000614 <__sfp+0x94>
    800005cc:	77c1                	lui	a5,0xffff0
    800005ce:	0785                	addi	a5,a5,1 # ffffffffffff0001 <__heap_end+0xffffffff7ffcd001>
    800005d0:	0a042623          	sw	zero,172(s0)
    800005d4:	00043023          	sd	zero,0(s0)
    800005d8:	00043423          	sd	zero,8(s0)
    800005dc:	c81c                	sw	a5,16(s0)
    800005de:	00043c23          	sd	zero,24(s0)
    800005e2:	02042023          	sw	zero,32(s0)
    800005e6:	02042423          	sw	zero,40(s0)
    800005ea:	4621                	li	a2,8
    800005ec:	4581                	li	a1,0
    800005ee:	0a440513          	addi	a0,s0,164
    800005f2:	382000ef          	jal	80000974 <memset>
    800005f6:	06043023          	sd	zero,96(s0)
    800005fa:	06042423          	sw	zero,104(s0)
    800005fe:	08043023          	sd	zero,128(s0)
    80000602:	08042423          	sw	zero,136(s0)
    80000606:	60e2                	ld	ra,24(sp)
    80000608:	8522                	mv	a0,s0
    8000060a:	6442                	ld	s0,16(sp)
    8000060c:	64a2                	ld	s1,8(sp)
    8000060e:	6902                	ld	s2,0(sp)
    80000610:	6105                	addi	sp,sp,32
    80000612:	8082                	ret
    80000614:	0b040413          	addi	s0,s0,176
    80000618:	b769                	j	800005a2 <__sfp+0x22>
    8000061a:	4791                	li	a5,4
    8000061c:	00053023          	sd	zero,0(a0)
    80000620:	c51c                	sw	a5,8(a0)
    80000622:	0561                	addi	a0,a0,24
    80000624:	e808                	sd	a0,16(s0)
    80000626:	2c000613          	li	a2,704
    8000062a:	4581                	li	a1,0
    8000062c:	348000ef          	jal	80000974 <memset>
    80000630:	e080                	sd	s0,0(s1)
    80000632:	6084                	ld	s1,0(s1)
    80000634:	b7ad                	j	8000059e <__sfp+0x1e>

0000000080000636 <__sinit>:
    80000636:	613c                	ld	a5,64(a0)
    80000638:	eb91                	bnez	a5,8000064c <__sinit+0x16>
    8000063a:	00000797          	auipc	a5,0x0
    8000063e:	ec878793          	addi	a5,a5,-312 # 80000502 <cleanup_stdio>
    80000642:	e13c                	sd	a5,64(a0)
    80000644:	8201b783          	ld	a5,-2016(gp) # 80002098 <__stdio_exit_handler>
    80000648:	e391                	bnez	a5,8000064c <__sinit+0x16>
    8000064a:	bdf5                	j	80000546 <global_stdio_init.part.0>
    8000064c:	8082                	ret

000000008000064e <__sfp_lock_acquire>:
    8000064e:	8082                	ret

0000000080000650 <__sfp_lock_release>:
    80000650:	8082                	ret

0000000080000652 <__fp_lock_all>:
    80000652:	00002617          	auipc	a2,0x2
    80000656:	97e60613          	addi	a2,a2,-1666 # 80001fd0 <__sglue>
    8000065a:	00000597          	auipc	a1,0x0
    8000065e:	e2458593          	addi	a1,a1,-476 # 8000047e <__fp_lock>
    80000662:	4501                	li	a0,0
    80000664:	a819                	j	8000067a <_fwalk_sglue>

0000000080000666 <__fp_unlock_all>:
    80000666:	00002617          	auipc	a2,0x2
    8000066a:	96a60613          	addi	a2,a2,-1686 # 80001fd0 <__sglue>
    8000066e:	00000597          	auipc	a1,0x0
    80000672:	f0e58593          	addi	a1,a1,-242 # 8000057c <__fp_unlock>
    80000676:	4501                	li	a0,0
    80000678:	a009                	j	8000067a <_fwalk_sglue>

000000008000067a <_fwalk_sglue>:
    8000067a:	715d                	addi	sp,sp,-80
    8000067c:	e0a2                	sd	s0,64(sp)
    8000067e:	fc26                	sd	s1,56(sp)
    80000680:	f44e                	sd	s3,40(sp)
    80000682:	f052                	sd	s4,32(sp)
    80000684:	e85a                	sd	s6,16(sp)
    80000686:	e45e                	sd	s7,8(sp)
    80000688:	e486                	sd	ra,72(sp)
    8000068a:	f84a                	sd	s2,48(sp)
    8000068c:	ec56                	sd	s5,24(sp)
    8000068e:	89aa                	mv	s3,a0
    80000690:	8a2e                	mv	s4,a1
    80000692:	8432                	mv	s0,a2
    80000694:	4481                	li	s1,0
    80000696:	4b05                	li	s6,1
    80000698:	5bfd                	li	s7,-1
    8000069a:	01043903          	ld	s2,16(s0)
    8000069e:	00842a83          	lw	s5,8(s0)
    800006a2:	3afd                	addiw	s5,s5,-1
    800006a4:	020ad063          	bgez	s5,800006c4 <_fwalk_sglue+0x4a>
    800006a8:	6000                	ld	s0,0(s0)
    800006aa:	f865                	bnez	s0,8000069a <_fwalk_sglue+0x20>
    800006ac:	60a6                	ld	ra,72(sp)
    800006ae:	6406                	ld	s0,64(sp)
    800006b0:	7942                	ld	s2,48(sp)
    800006b2:	79a2                	ld	s3,40(sp)
    800006b4:	7a02                	ld	s4,32(sp)
    800006b6:	6ae2                	ld	s5,24(sp)
    800006b8:	6b42                	ld	s6,16(sp)
    800006ba:	6ba2                	ld	s7,8(sp)
    800006bc:	8526                	mv	a0,s1
    800006be:	74e2                	ld	s1,56(sp)
    800006c0:	6161                	addi	sp,sp,80
    800006c2:	8082                	ret
    800006c4:	01095783          	lhu	a5,16(s2)
    800006c8:	00fb7b63          	bgeu	s6,a5,800006de <_fwalk_sglue+0x64>
    800006cc:	01291783          	lh	a5,18(s2)
    800006d0:	01778763          	beq	a5,s7,800006de <_fwalk_sglue+0x64>
    800006d4:	85ca                	mv	a1,s2
    800006d6:	854e                	mv	a0,s3
    800006d8:	9a02                	jalr	s4
    800006da:	8cc9                	or	s1,s1,a0
    800006dc:	2481                	sext.w	s1,s1
    800006de:	0b090913          	addi	s2,s2,176
    800006e2:	b7c1                	j	800006a2 <_fwalk_sglue+0x28>

00000000800006e4 <_iprintf_r>:
    800006e4:	715d                	addi	sp,sp,-80
    800006e6:	f032                	sd	a2,32(sp)
    800006e8:	f436                	sd	a3,40(sp)
    800006ea:	f83a                	sd	a4,48(sp)
    800006ec:	fc3e                	sd	a5,56(sp)
    800006ee:	e0c2                	sd	a6,64(sp)
    800006f0:	e4c6                	sd	a7,72(sp)
    800006f2:	862e                	mv	a2,a1
    800006f4:	690c                	ld	a1,16(a0)
    800006f6:	1014                	addi	a3,sp,32
    800006f8:	ec06                	sd	ra,24(sp)
    800006fa:	e436                	sd	a3,8(sp)
    800006fc:	54a000ef          	jal	80000c46 <_vfiprintf_r>
    80000700:	60e2                	ld	ra,24(sp)
    80000702:	6161                	addi	sp,sp,80
    80000704:	8082                	ret

0000000080000706 <iprintf>:
    80000706:	711d                	addi	sp,sp,-96
    80000708:	f832                	sd	a2,48(sp)
    8000070a:	fc36                	sd	a3,56(sp)
    8000070c:	e4be                	sd	a5,72(sp)
    8000070e:	f42e                	sd	a1,40(sp)
    80000710:	e0ba                	sd	a4,64(sp)
    80000712:	e8c2                	sd	a6,80(sp)
    80000714:	ecc6                	sd	a7,88(sp)
    80000716:	00002797          	auipc	a5,0x2
    8000071a:	9627b783          	ld	a5,-1694(a5) # 80002078 <_impure_ptr>
    8000071e:	6b8c                	ld	a1,16(a5)
    80000720:	1034                	addi	a3,sp,40
    80000722:	862a                	mv	a2,a0
    80000724:	853e                	mv	a0,a5
    80000726:	ec06                	sd	ra,24(sp)
    80000728:	e436                	sd	a3,8(sp)
    8000072a:	51c000ef          	jal	80000c46 <_vfiprintf_r>
    8000072e:	60e2                	ld	ra,24(sp)
    80000730:	6125                	addi	sp,sp,96
    80000732:	8082                	ret

0000000080000734 <__sread>:
    80000734:	1141                	addi	sp,sp,-16
    80000736:	e022                	sd	s0,0(sp)
    80000738:	842e                	mv	s0,a1
    8000073a:	01259583          	lh	a1,18(a1)
    8000073e:	e406                	sd	ra,8(sp)
    80000740:	1dc000ef          	jal	8000091c <_read_r>
    80000744:	00054963          	bltz	a0,80000756 <__sread+0x22>
    80000748:	6c5c                	ld	a5,152(s0)
    8000074a:	97aa                	add	a5,a5,a0
    8000074c:	ec5c                	sd	a5,152(s0)
    8000074e:	60a2                	ld	ra,8(sp)
    80000750:	6402                	ld	s0,0(sp)
    80000752:	0141                	addi	sp,sp,16
    80000754:	8082                	ret
    80000756:	01045783          	lhu	a5,16(s0)
    8000075a:	777d                	lui	a4,0xfffff
    8000075c:	177d                	addi	a4,a4,-1 # ffffffffffffefff <__heap_end+0xffffffff7ffdbfff>
    8000075e:	8ff9                	and	a5,a5,a4
    80000760:	00f41823          	sh	a5,16(s0)
    80000764:	b7ed                	j	8000074e <__sread+0x1a>

0000000080000766 <__seofread>:
    80000766:	4501                	li	a0,0
    80000768:	8082                	ret

000000008000076a <__swrite>:
    8000076a:	0105d783          	lhu	a5,16(a1)
    8000076e:	7179                	addi	sp,sp,-48
    80000770:	f022                	sd	s0,32(sp)
    80000772:	ec26                	sd	s1,24(sp)
    80000774:	e84a                	sd	s2,16(sp)
    80000776:	e44e                	sd	s3,8(sp)
    80000778:	f406                	sd	ra,40(sp)
    8000077a:	1007f793          	andi	a5,a5,256
    8000077e:	84aa                	mv	s1,a0
    80000780:	842e                	mv	s0,a1
    80000782:	8932                	mv	s2,a2
    80000784:	89b6                	mv	s3,a3
    80000786:	c799                	beqz	a5,80000794 <__swrite+0x2a>
    80000788:	01259583          	lh	a1,18(a1)
    8000078c:	4689                	li	a3,2
    8000078e:	4601                	li	a2,0
    80000790:	160000ef          	jal	800008f0 <_lseek_r>
    80000794:	01045783          	lhu	a5,16(s0)
    80000798:	777d                	lui	a4,0xfffff
    8000079a:	177d                	addi	a4,a4,-1 # ffffffffffffefff <__heap_end+0xffffffff7ffdbfff>
    8000079c:	8ff9                	and	a5,a5,a4
    8000079e:	01241583          	lh	a1,18(s0)
    800007a2:	00f41823          	sh	a5,16(s0)
    800007a6:	7402                	ld	s0,32(sp)
    800007a8:	70a2                	ld	ra,40(sp)
    800007aa:	86ce                	mv	a3,s3
    800007ac:	864a                	mv	a2,s2
    800007ae:	69a2                	ld	s3,8(sp)
    800007b0:	6942                	ld	s2,16(sp)
    800007b2:	8526                	mv	a0,s1
    800007b4:	64e2                	ld	s1,24(sp)
    800007b6:	6145                	addi	sp,sp,48
    800007b8:	aa41                	j	80000948 <_write_r>

00000000800007ba <__sseek>:
    800007ba:	1141                	addi	sp,sp,-16
    800007bc:	e022                	sd	s0,0(sp)
    800007be:	842e                	mv	s0,a1
    800007c0:	01259583          	lh	a1,18(a1)
    800007c4:	e406                	sd	ra,8(sp)
    800007c6:	12a000ef          	jal	800008f0 <_lseek_r>
    800007ca:	577d                	li	a4,-1
    800007cc:	01045783          	lhu	a5,16(s0)
    800007d0:	00e51b63          	bne	a0,a4,800007e6 <__sseek+0x2c>
    800007d4:	777d                	lui	a4,0xfffff
    800007d6:	177d                	addi	a4,a4,-1 # ffffffffffffefff <__heap_end+0xffffffff7ffdbfff>
    800007d8:	8ff9                	and	a5,a5,a4
    800007da:	00f41823          	sh	a5,16(s0)
    800007de:	60a2                	ld	ra,8(sp)
    800007e0:	6402                	ld	s0,0(sp)
    800007e2:	0141                	addi	sp,sp,16
    800007e4:	8082                	ret
    800007e6:	6705                	lui	a4,0x1
    800007e8:	8fd9                	or	a5,a5,a4
    800007ea:	00f41823          	sh	a5,16(s0)
    800007ee:	ec48                	sd	a0,152(s0)
    800007f0:	b7fd                	j	800007de <__sseek+0x24>

00000000800007f2 <__sclose>:
    800007f2:	01259583          	lh	a1,18(a1)
    800007f6:	a009                	j	800007f8 <_close_r>

00000000800007f8 <_close_r>:
    800007f8:	1141                	addi	sp,sp,-16
    800007fa:	e022                	sd	s0,0(sp)
    800007fc:	842a                	mv	s0,a0
    800007fe:	852e                	mv	a0,a1
    80000800:	8201a423          	sw	zero,-2008(gp) # 800020a0 <errno>
    80000804:	e406                	sd	ra,8(sp)
    80000806:	2c6010ef          	jal	80001acc <_close>
    8000080a:	57fd                	li	a5,-1
    8000080c:	00f51663          	bne	a0,a5,80000818 <_close_r+0x20>
    80000810:	8281a783          	lw	a5,-2008(gp) # 800020a0 <errno>
    80000814:	c391                	beqz	a5,80000818 <_close_r+0x20>
    80000816:	c01c                	sw	a5,0(s0)
    80000818:	60a2                	ld	ra,8(sp)
    8000081a:	6402                	ld	s0,0(sp)
    8000081c:	0141                	addi	sp,sp,16
    8000081e:	8082                	ret

0000000080000820 <_reclaim_reent>:
    80000820:	00002797          	auipc	a5,0x2
    80000824:	8587b783          	ld	a5,-1960(a5) # 80002078 <_impure_ptr>
    80000828:	0ca78363          	beq	a5,a0,800008ee <_reclaim_reent+0xce>
    8000082c:	7d1c                	ld	a5,56(a0)
    8000082e:	7179                	addi	sp,sp,-48
    80000830:	f022                	sd	s0,32(sp)
    80000832:	f406                	sd	ra,40(sp)
    80000834:	ec26                	sd	s1,24(sp)
    80000836:	e84a                	sd	s2,16(sp)
    80000838:	e44e                	sd	s3,8(sp)
    8000083a:	842a                	mv	s0,a0
    8000083c:	cb8d                	beqz	a5,8000086e <_reclaim_reent+0x4e>
    8000083e:	6f9c                	ld	a5,24(a5)
    80000840:	c38d                	beqz	a5,80000862 <_reclaim_reent+0x42>
    80000842:	4481                	li	s1,0
    80000844:	20000913          	li	s2,512
    80000848:	7c1c                	ld	a5,56(s0)
    8000084a:	6f9c                	ld	a5,24(a5)
    8000084c:	97a6                	add	a5,a5,s1
    8000084e:	638c                	ld	a1,0(a5)
    80000850:	e1c9                	bnez	a1,800008d2 <_reclaim_reent+0xb2>
    80000852:	04a1                	addi	s1,s1,8
    80000854:	ff249ae3          	bne	s1,s2,80000848 <_reclaim_reent+0x28>
    80000858:	7c1c                	ld	a5,56(s0)
    8000085a:	8522                	mv	a0,s0
    8000085c:	6f8c                	ld	a1,24(a5)
    8000085e:	126000ef          	jal	80000984 <_free_r>
    80000862:	7c1c                	ld	a5,56(s0)
    80000864:	638c                	ld	a1,0(a5)
    80000866:	c581                	beqz	a1,8000086e <_reclaim_reent+0x4e>
    80000868:	8522                	mv	a0,s0
    8000086a:	11a000ef          	jal	80000984 <_free_r>
    8000086e:	740c                	ld	a1,40(s0)
    80000870:	c581                	beqz	a1,80000878 <_reclaim_reent+0x58>
    80000872:	8522                	mv	a0,s0
    80000874:	110000ef          	jal	80000984 <_free_r>
    80000878:	7c0c                	ld	a1,56(s0)
    8000087a:	c581                	beqz	a1,80000882 <_reclaim_reent+0x62>
    8000087c:	8522                	mv	a0,s0
    8000087e:	106000ef          	jal	80000984 <_free_r>
    80000882:	6c2c                	ld	a1,88(s0)
    80000884:	c581                	beqz	a1,8000088c <_reclaim_reent+0x6c>
    80000886:	8522                	mv	a0,s0
    80000888:	0fc000ef          	jal	80000984 <_free_r>
    8000088c:	702c                	ld	a1,96(s0)
    8000088e:	c581                	beqz	a1,80000896 <_reclaim_reent+0x76>
    80000890:	8522                	mv	a0,s0
    80000892:	0f2000ef          	jal	80000984 <_free_r>
    80000896:	742c                	ld	a1,104(s0)
    80000898:	c581                	beqz	a1,800008a0 <_reclaim_reent+0x80>
    8000089a:	8522                	mv	a0,s0
    8000089c:	0e8000ef          	jal	80000984 <_free_r>
    800008a0:	644c                	ld	a1,136(s0)
    800008a2:	c581                	beqz	a1,800008aa <_reclaim_reent+0x8a>
    800008a4:	8522                	mv	a0,s0
    800008a6:	0de000ef          	jal	80000984 <_free_r>
    800008aa:	604c                	ld	a1,128(s0)
    800008ac:	c581                	beqz	a1,800008b4 <_reclaim_reent+0x94>
    800008ae:	8522                	mv	a0,s0
    800008b0:	0d4000ef          	jal	80000984 <_free_r>
    800008b4:	682c                	ld	a1,80(s0)
    800008b6:	c581                	beqz	a1,800008be <_reclaim_reent+0x9e>
    800008b8:	8522                	mv	a0,s0
    800008ba:	0ca000ef          	jal	80000984 <_free_r>
    800008be:	603c                	ld	a5,64(s0)
    800008c0:	c385                	beqz	a5,800008e0 <_reclaim_reent+0xc0>
    800008c2:	8522                	mv	a0,s0
    800008c4:	7402                	ld	s0,32(sp)
    800008c6:	70a2                	ld	ra,40(sp)
    800008c8:	64e2                	ld	s1,24(sp)
    800008ca:	6942                	ld	s2,16(sp)
    800008cc:	69a2                	ld	s3,8(sp)
    800008ce:	6145                	addi	sp,sp,48
    800008d0:	8782                	jr	a5
    800008d2:	0005b983          	ld	s3,0(a1)
    800008d6:	8522                	mv	a0,s0
    800008d8:	0ac000ef          	jal	80000984 <_free_r>
    800008dc:	85ce                	mv	a1,s3
    800008de:	bf8d                	j	80000850 <_reclaim_reent+0x30>
    800008e0:	70a2                	ld	ra,40(sp)
    800008e2:	7402                	ld	s0,32(sp)
    800008e4:	64e2                	ld	s1,24(sp)
    800008e6:	6942                	ld	s2,16(sp)
    800008e8:	69a2                	ld	s3,8(sp)
    800008ea:	6145                	addi	sp,sp,48
    800008ec:	8082                	ret
    800008ee:	8082                	ret

00000000800008f0 <_lseek_r>:
    800008f0:	1141                	addi	sp,sp,-16
    800008f2:	e022                	sd	s0,0(sp)
    800008f4:	842a                	mv	s0,a0
    800008f6:	852e                	mv	a0,a1
    800008f8:	85b2                	mv	a1,a2
    800008fa:	8636                	mv	a2,a3
    800008fc:	8201a423          	sw	zero,-2008(gp) # 800020a0 <errno>
    80000900:	e406                	sd	ra,8(sp)
    80000902:	21c010ef          	jal	80001b1e <_lseek>
    80000906:	57fd                	li	a5,-1
    80000908:	00f51663          	bne	a0,a5,80000914 <_lseek_r+0x24>
    8000090c:	8281a783          	lw	a5,-2008(gp) # 800020a0 <errno>
    80000910:	c391                	beqz	a5,80000914 <_lseek_r+0x24>
    80000912:	c01c                	sw	a5,0(s0)
    80000914:	60a2                	ld	ra,8(sp)
    80000916:	6402                	ld	s0,0(sp)
    80000918:	0141                	addi	sp,sp,16
    8000091a:	8082                	ret

000000008000091c <_read_r>:
    8000091c:	1141                	addi	sp,sp,-16
    8000091e:	e022                	sd	s0,0(sp)
    80000920:	842a                	mv	s0,a0
    80000922:	852e                	mv	a0,a1
    80000924:	85b2                	mv	a1,a2
    80000926:	8636                	mv	a2,a3
    80000928:	8201a423          	sw	zero,-2008(gp) # 800020a0 <errno>
    8000092c:	e406                	sd	ra,8(sp)
    8000092e:	204010ef          	jal	80001b32 <_read>
    80000932:	57fd                	li	a5,-1
    80000934:	00f51663          	bne	a0,a5,80000940 <_read_r+0x24>
    80000938:	8281a783          	lw	a5,-2008(gp) # 800020a0 <errno>
    8000093c:	c391                	beqz	a5,80000940 <_read_r+0x24>
    8000093e:	c01c                	sw	a5,0(s0)
    80000940:	60a2                	ld	ra,8(sp)
    80000942:	6402                	ld	s0,0(sp)
    80000944:	0141                	addi	sp,sp,16
    80000946:	8082                	ret

0000000080000948 <_write_r>:
    80000948:	1141                	addi	sp,sp,-16
    8000094a:	e022                	sd	s0,0(sp)
    8000094c:	842a                	mv	s0,a0
    8000094e:	852e                	mv	a0,a1
    80000950:	85b2                	mv	a1,a2
    80000952:	8636                	mv	a2,a3
    80000954:	8201a423          	sw	zero,-2008(gp) # 800020a0 <errno>
    80000958:	e406                	sd	ra,8(sp)
    8000095a:	22a010ef          	jal	80001b84 <_write>
    8000095e:	57fd                	li	a5,-1
    80000960:	00f51663          	bne	a0,a5,8000096c <_write_r+0x24>
    80000964:	8281a783          	lw	a5,-2008(gp) # 800020a0 <errno>
    80000968:	c391                	beqz	a5,8000096c <_write_r+0x24>
    8000096a:	c01c                	sw	a5,0(s0)
    8000096c:	60a2                	ld	ra,8(sp)
    8000096e:	6402                	ld	s0,0(sp)
    80000970:	0141                	addi	sp,sp,16
    80000972:	8082                	ret

0000000080000974 <memset>:
    80000974:	832a                	mv	t1,a0
    80000976:	c611                	beqz	a2,80000982 <memset+0xe>
    80000978:	00b30023          	sb	a1,0(t1)
    8000097c:	167d                	addi	a2,a2,-1
    8000097e:	0305                	addi	t1,t1,1
    80000980:	fe65                	bnez	a2,80000978 <memset+0x4>
    80000982:	8082                	ret

0000000080000984 <_free_r>:
    80000984:	cdd9                	beqz	a1,80000a22 <_free_r+0x9e>
    80000986:	ff85b783          	ld	a5,-8(a1)
    8000098a:	1101                	addi	sp,sp,-32
    8000098c:	e822                	sd	s0,16(sp)
    8000098e:	ec06                	sd	ra,24(sp)
    80000990:	ff858413          	addi	s0,a1,-8
    80000994:	0007d363          	bgez	a5,8000099a <_free_r+0x16>
    80000998:	943e                	add	s0,s0,a5
    8000099a:	e42a                	sd	a0,8(sp)
    8000099c:	212000ef          	jal	80000bae <__malloc_lock>
    800009a0:	83818713          	addi	a4,gp,-1992 # 800020b0 <__malloc_free_list>
    800009a4:	631c                	ld	a5,0(a4)
    800009a6:	6522                	ld	a0,8(sp)
    800009a8:	eb81                	bnez	a5,800009b8 <_free_r+0x34>
    800009aa:	00043423          	sd	zero,8(s0)
    800009ae:	e300                	sd	s0,0(a4)
    800009b0:	6442                	ld	s0,16(sp)
    800009b2:	60e2                	ld	ra,24(sp)
    800009b4:	6105                	addi	sp,sp,32
    800009b6:	aaed                	j	80000bb0 <__malloc_unlock>
    800009b8:	00f47d63          	bgeu	s0,a5,800009d2 <_free_r+0x4e>
    800009bc:	6010                	ld	a2,0(s0)
    800009be:	00c406b3          	add	a3,s0,a2
    800009c2:	00d79663          	bne	a5,a3,800009ce <_free_r+0x4a>
    800009c6:	6394                	ld	a3,0(a5)
    800009c8:	679c                	ld	a5,8(a5)
    800009ca:	96b2                	add	a3,a3,a2
    800009cc:	e014                	sd	a3,0(s0)
    800009ce:	e41c                	sd	a5,8(s0)
    800009d0:	bff9                	j	800009ae <_free_r+0x2a>
    800009d2:	873e                	mv	a4,a5
    800009d4:	679c                	ld	a5,8(a5)
    800009d6:	c399                	beqz	a5,800009dc <_free_r+0x58>
    800009d8:	fef47de3          	bgeu	s0,a5,800009d2 <_free_r+0x4e>
    800009dc:	6314                	ld	a3,0(a4)
    800009de:	00d70633          	add	a2,a4,a3
    800009e2:	00861f63          	bne	a2,s0,80000a00 <_free_r+0x7c>
    800009e6:	6010                	ld	a2,0(s0)
    800009e8:	96b2                	add	a3,a3,a2
    800009ea:	e314                	sd	a3,0(a4)
    800009ec:	00d70633          	add	a2,a4,a3
    800009f0:	fcc790e3          	bne	a5,a2,800009b0 <_free_r+0x2c>
    800009f4:	6390                	ld	a2,0(a5)
    800009f6:	679c                	ld	a5,8(a5)
    800009f8:	96b2                	add	a3,a3,a2
    800009fa:	e314                	sd	a3,0(a4)
    800009fc:	e71c                	sd	a5,8(a4)
    800009fe:	bf4d                	j	800009b0 <_free_r+0x2c>
    80000a00:	00c47563          	bgeu	s0,a2,80000a0a <_free_r+0x86>
    80000a04:	47b1                	li	a5,12
    80000a06:	c11c                	sw	a5,0(a0)
    80000a08:	b765                	j	800009b0 <_free_r+0x2c>
    80000a0a:	6010                	ld	a2,0(s0)
    80000a0c:	00c406b3          	add	a3,s0,a2
    80000a10:	00d79663          	bne	a5,a3,80000a1c <_free_r+0x98>
    80000a14:	6394                	ld	a3,0(a5)
    80000a16:	679c                	ld	a5,8(a5)
    80000a18:	96b2                	add	a3,a3,a2
    80000a1a:	e014                	sd	a3,0(s0)
    80000a1c:	e41c                	sd	a5,8(s0)
    80000a1e:	e700                	sd	s0,8(a4)
    80000a20:	bf41                	j	800009b0 <_free_r+0x2c>
    80000a22:	8082                	ret

0000000080000a24 <sbrk_aligned>:
    80000a24:	1101                	addi	sp,sp,-32
    80000a26:	e04a                	sd	s2,0(sp)
    80000a28:	83018913          	addi	s2,gp,-2000 # 800020a8 <__malloc_sbrk_start>
    80000a2c:	00093783          	ld	a5,0(s2)
    80000a30:	e822                	sd	s0,16(sp)
    80000a32:	e426                	sd	s1,8(sp)
    80000a34:	ec06                	sd	ra,24(sp)
    80000a36:	84aa                	mv	s1,a0
    80000a38:	842e                	mv	s0,a1
    80000a3a:	e791                	bnez	a5,80000a46 <sbrk_aligned+0x22>
    80000a3c:	4581                	li	a1,0
    80000a3e:	647000ef          	jal	80001884 <_sbrk_r>
    80000a42:	00a93023          	sd	a0,0(s2)
    80000a46:	85a2                	mv	a1,s0
    80000a48:	8526                	mv	a0,s1
    80000a4a:	63b000ef          	jal	80001884 <_sbrk_r>
    80000a4e:	597d                	li	s2,-1
    80000a50:	01251a63          	bne	a0,s2,80000a64 <sbrk_aligned+0x40>
    80000a54:	547d                	li	s0,-1
    80000a56:	60e2                	ld	ra,24(sp)
    80000a58:	8522                	mv	a0,s0
    80000a5a:	6442                	ld	s0,16(sp)
    80000a5c:	64a2                	ld	s1,8(sp)
    80000a5e:	6902                	ld	s2,0(sp)
    80000a60:	6105                	addi	sp,sp,32
    80000a62:	8082                	ret
    80000a64:	00750413          	addi	s0,a0,7
    80000a68:	9861                	andi	s0,s0,-8
    80000a6a:	fe8506e3          	beq	a0,s0,80000a56 <sbrk_aligned+0x32>
    80000a6e:	40a405b3          	sub	a1,s0,a0
    80000a72:	8526                	mv	a0,s1
    80000a74:	611000ef          	jal	80001884 <_sbrk_r>
    80000a78:	fd251fe3          	bne	a0,s2,80000a56 <sbrk_aligned+0x32>
    80000a7c:	bfe1                	j	80000a54 <sbrk_aligned+0x30>

0000000080000a7e <_malloc_r>:
    80000a7e:	00758793          	addi	a5,a1,7
    80000a82:	7179                	addi	sp,sp,-48
    80000a84:	9be1                	andi	a5,a5,-8
    80000a86:	ec26                	sd	s1,24(sp)
    80000a88:	e84a                	sd	s2,16(sp)
    80000a8a:	f406                	sd	ra,40(sp)
    80000a8c:	f022                	sd	s0,32(sp)
    80000a8e:	e44e                	sd	s3,8(sp)
    80000a90:	e052                	sd	s4,0(sp)
    80000a92:	07a1                	addi	a5,a5,8
    80000a94:	4741                	li	a4,16
    80000a96:	892a                	mv	s2,a0
    80000a98:	44c1                	li	s1,16
    80000a9a:	00e7e363          	bltu	a5,a4,80000aa0 <_malloc_r+0x22>
    80000a9e:	84be                	mv	s1,a5
    80000aa0:	80000737          	lui	a4,0x80000
    80000aa4:	fff74713          	not	a4,a4
    80000aa8:	00f76463          	bltu	a4,a5,80000ab0 <_malloc_r+0x32>
    80000aac:	00b4fe63          	bgeu	s1,a1,80000ac8 <_malloc_r+0x4a>
    80000ab0:	47b1                	li	a5,12
    80000ab2:	00f92023          	sw	a5,0(s2)
    80000ab6:	4501                	li	a0,0
    80000ab8:	70a2                	ld	ra,40(sp)
    80000aba:	7402                	ld	s0,32(sp)
    80000abc:	64e2                	ld	s1,24(sp)
    80000abe:	6942                	ld	s2,16(sp)
    80000ac0:	69a2                	ld	s3,8(sp)
    80000ac2:	6a02                	ld	s4,0(sp)
    80000ac4:	6145                	addi	sp,sp,48
    80000ac6:	8082                	ret
    80000ac8:	854a                	mv	a0,s2
    80000aca:	0e4000ef          	jal	80000bae <__malloc_lock>
    80000ace:	83818993          	addi	s3,gp,-1992 # 800020b0 <__malloc_free_list>
    80000ad2:	0009b783          	ld	a5,0(s3)
    80000ad6:	843e                	mv	s0,a5
    80000ad8:	ec21                	bnez	s0,80000b30 <_malloc_r+0xb2>
    80000ada:	85a6                	mv	a1,s1
    80000adc:	854a                	mv	a0,s2
    80000ade:	f47ff0ef          	jal	80000a24 <sbrk_aligned>
    80000ae2:	57fd                	li	a5,-1
    80000ae4:	842a                	mv	s0,a0
    80000ae6:	0af51f63          	bne	a0,a5,80000ba4 <_malloc_r+0x126>
    80000aea:	0009b403          	ld	s0,0(s3)
    80000aee:	87a2                	mv	a5,s0
    80000af0:	efd1                	bnez	a5,80000b8c <_malloc_r+0x10e>
    80000af2:	c055                	beqz	s0,80000b96 <_malloc_r+0x118>
    80000af4:	00043a03          	ld	s4,0(s0)
    80000af8:	4581                	li	a1,0
    80000afa:	854a                	mv	a0,s2
    80000afc:	9a22                	add	s4,s4,s0
    80000afe:	587000ef          	jal	80001884 <_sbrk_r>
    80000b02:	08aa1a63          	bne	s4,a0,80000b96 <_malloc_r+0x118>
    80000b06:	601c                	ld	a5,0(s0)
    80000b08:	854a                	mv	a0,s2
    80000b0a:	8c9d                	sub	s1,s1,a5
    80000b0c:	85a6                	mv	a1,s1
    80000b0e:	f17ff0ef          	jal	80000a24 <sbrk_aligned>
    80000b12:	57fd                	li	a5,-1
    80000b14:	08f50163          	beq	a0,a5,80000b96 <_malloc_r+0x118>
    80000b18:	601c                	ld	a5,0(s0)
    80000b1a:	97a6                	add	a5,a5,s1
    80000b1c:	e01c                	sd	a5,0(s0)
    80000b1e:	0009b783          	ld	a5,0(s3)
    80000b22:	c3d9                	beqz	a5,80000ba8 <_malloc_r+0x12a>
    80000b24:	6798                	ld	a4,8(a5)
    80000b26:	06871663          	bne	a4,s0,80000b92 <_malloc_r+0x114>
    80000b2a:	0007b423          	sd	zero,8(a5)
    80000b2e:	a015                	j	80000b52 <_malloc_r+0xd4>
    80000b30:	6014                	ld	a3,0(s0)
    80000b32:	9e85                	subw	a3,a3,s1
    80000b34:	0406c963          	bltz	a3,80000b86 <_malloc_r+0x108>
    80000b38:	473d                	li	a4,15
    80000b3a:	02d75e63          	bge	a4,a3,80000b76 <_malloc_r+0xf8>
    80000b3e:	e004                	sd	s1,0(s0)
    80000b40:	00940733          	add	a4,s0,s1
    80000b44:	02879763          	bne	a5,s0,80000b72 <_malloc_r+0xf4>
    80000b48:	00e9b023          	sd	a4,0(s3)
    80000b4c:	641c                	ld	a5,8(s0)
    80000b4e:	e314                	sd	a3,0(a4)
    80000b50:	e71c                	sd	a5,8(a4)
    80000b52:	854a                	mv	a0,s2
    80000b54:	05c000ef          	jal	80000bb0 <__malloc_unlock>
    80000b58:	00f40513          	addi	a0,s0,15
    80000b5c:	00840793          	addi	a5,s0,8
    80000b60:	9961                	andi	a0,a0,-8
    80000b62:	40f507bb          	subw	a5,a0,a5
    80000b66:	dba9                	beqz	a5,80000ab8 <_malloc_r+0x3a>
    80000b68:	943e                	add	s0,s0,a5
    80000b6a:	40f007bb          	negw	a5,a5
    80000b6e:	e01c                	sd	a5,0(s0)
    80000b70:	b7a1                	j	80000ab8 <_malloc_r+0x3a>
    80000b72:	e798                	sd	a4,8(a5)
    80000b74:	bfe1                	j	80000b4c <_malloc_r+0xce>
    80000b76:	6418                	ld	a4,8(s0)
    80000b78:	00879563          	bne	a5,s0,80000b82 <_malloc_r+0x104>
    80000b7c:	00e9b023          	sd	a4,0(s3)
    80000b80:	bfc9                	j	80000b52 <_malloc_r+0xd4>
    80000b82:	e798                	sd	a4,8(a5)
    80000b84:	b7f9                	j	80000b52 <_malloc_r+0xd4>
    80000b86:	87a2                	mv	a5,s0
    80000b88:	6400                	ld	s0,8(s0)
    80000b8a:	b7b9                	j	80000ad8 <_malloc_r+0x5a>
    80000b8c:	843e                	mv	s0,a5
    80000b8e:	679c                	ld	a5,8(a5)
    80000b90:	b785                	j	80000af0 <_malloc_r+0x72>
    80000b92:	87ba                	mv	a5,a4
    80000b94:	b779                	j	80000b22 <_malloc_r+0xa4>
    80000b96:	47b1                	li	a5,12
    80000b98:	00f92023          	sw	a5,0(s2)
    80000b9c:	854a                	mv	a0,s2
    80000b9e:	012000ef          	jal	80000bb0 <__malloc_unlock>
    80000ba2:	bf11                	j	80000ab6 <_malloc_r+0x38>
    80000ba4:	e104                	sd	s1,0(a0)
    80000ba6:	b775                	j	80000b52 <_malloc_r+0xd4>
    80000ba8:	00003423          	sd	zero,8(zero) # 8 <__boot_hart+0x8>
    80000bac:	9002                	ebreak

0000000080000bae <__malloc_lock>:
    80000bae:	8082                	ret

0000000080000bb0 <__malloc_unlock>:
    80000bb0:	8082                	ret

0000000080000bb2 <__sfputc_r>:
    80000bb2:	465c                	lw	a5,12(a2)
    80000bb4:	fff7871b          	addiw	a4,a5,-1
    80000bb8:	c658                	sw	a4,12(a2)
    80000bba:	00075a63          	bgez	a4,80000bce <__sfputc_r+0x1c>
    80000bbe:	561c                	lw	a5,40(a2)
    80000bc0:	00f74563          	blt	a4,a5,80000bca <__sfputc_r+0x18>
    80000bc4:	47a9                	li	a5,10
    80000bc6:	00f59463          	bne	a1,a5,80000bce <__sfputc_r+0x1c>
    80000bca:	3290006f          	j	800016f2 <__swbuf_r>
    80000bce:	621c                	ld	a5,0(a2)
    80000bd0:	852e                	mv	a0,a1
    80000bd2:	00178713          	addi	a4,a5,1
    80000bd6:	e218                	sd	a4,0(a2)
    80000bd8:	00b78023          	sb	a1,0(a5)
    80000bdc:	8082                	ret

0000000080000bde <__sfputs_r>:
    80000bde:	7179                	addi	sp,sp,-48
    80000be0:	f022                	sd	s0,32(sp)
    80000be2:	ec26                	sd	s1,24(sp)
    80000be4:	e84a                	sd	s2,16(sp)
    80000be6:	e44e                	sd	s3,8(sp)
    80000be8:	e052                	sd	s4,0(sp)
    80000bea:	f406                	sd	ra,40(sp)
    80000bec:	892a                	mv	s2,a0
    80000bee:	89ae                	mv	s3,a1
    80000bf0:	8432                	mv	s0,a2
    80000bf2:	00d604b3          	add	s1,a2,a3
    80000bf6:	5a7d                	li	s4,-1
    80000bf8:	00941463          	bne	s0,s1,80000c00 <__sfputs_r+0x22>
    80000bfc:	4501                	li	a0,0
    80000bfe:	a811                	j	80000c12 <__sfputs_r+0x34>
    80000c00:	00044583          	lbu	a1,0(s0)
    80000c04:	864e                	mv	a2,s3
    80000c06:	854a                	mv	a0,s2
    80000c08:	fabff0ef          	jal	80000bb2 <__sfputc_r>
    80000c0c:	0405                	addi	s0,s0,1
    80000c0e:	ff4515e3          	bne	a0,s4,80000bf8 <__sfputs_r+0x1a>
    80000c12:	70a2                	ld	ra,40(sp)
    80000c14:	7402                	ld	s0,32(sp)
    80000c16:	64e2                	ld	s1,24(sp)
    80000c18:	6942                	ld	s2,16(sp)
    80000c1a:	69a2                	ld	s3,8(sp)
    80000c1c:	6a02                	ld	s4,0(sp)
    80000c1e:	6145                	addi	sp,sp,48
    80000c20:	8082                	ret

0000000080000c22 <__sprint_r>:
    80000c22:	6a1c                	ld	a5,16(a2)
    80000c24:	1141                	addi	sp,sp,-16
    80000c26:	e022                	sd	s0,0(sp)
    80000c28:	e406                	sd	ra,8(sp)
    80000c2a:	8432                	mv	s0,a2
    80000c2c:	cb99                	beqz	a5,80000c42 <__sprint_r+0x20>
    80000c2e:	7ee000ef          	jal	8000141c <__sfvwrite_r>
    80000c32:	00043823          	sd	zero,16(s0)
    80000c36:	60a2                	ld	ra,8(sp)
    80000c38:	00042423          	sw	zero,8(s0)
    80000c3c:	6402                	ld	s0,0(sp)
    80000c3e:	0141                	addi	sp,sp,16
    80000c40:	8082                	ret
    80000c42:	4501                	li	a0,0
    80000c44:	bfcd                	j	80000c36 <__sprint_r+0x14>

0000000080000c46 <_vfiprintf_r>:
    80000c46:	7155                	addi	sp,sp,-208
    80000c48:	e1a2                	sd	s0,192(sp)
    80000c4a:	fd26                	sd	s1,184(sp)
    80000c4c:	f94a                	sd	s2,176(sp)
    80000c4e:	f54e                	sd	s3,168(sp)
    80000c50:	f152                	sd	s4,160(sp)
    80000c52:	e586                	sd	ra,200(sp)
    80000c54:	ed56                	sd	s5,152(sp)
    80000c56:	e95a                	sd	s6,144(sp)
    80000c58:	e55e                	sd	s7,136(sp)
    80000c5a:	e162                	sd	s8,128(sp)
    80000c5c:	fce6                	sd	s9,120(sp)
    80000c5e:	f8ea                	sd	s10,112(sp)
    80000c60:	8a2a                	mv	s4,a0
    80000c62:	892e                	mv	s2,a1
    80000c64:	84b2                	mv	s1,a2
    80000c66:	8436                	mv	s0,a3
    80000c68:	4981                	li	s3,0
    80000c6a:	c509                	beqz	a0,80000c74 <_vfiprintf_r+0x2e>
    80000c6c:	613c                	ld	a5,64(a0)
    80000c6e:	e399                	bnez	a5,80000c74 <_vfiprintf_r+0x2e>
    80000c70:	9c7ff0ef          	jal	80000636 <__sinit>
    80000c74:	01095783          	lhu	a5,16(s2)
    80000c78:	8ba1                	andi	a5,a5,8
    80000c7a:	cbe1                	beqz	a5,80000d4a <_vfiprintf_r+0x104>
    80000c7c:	01893783          	ld	a5,24(s2)
    80000c80:	c7e9                	beqz	a5,80000d4a <_vfiprintf_r+0x104>
    80000c82:	02000793          	li	a5,32
    80000c86:	02f104a3          	sb	a5,41(sp)
    80000c8a:	5afd                	li	s5,-1
    80000c8c:	03000793          	li	a5,48
    80000c90:	d202                	sw	zero,36(sp)
    80000c92:	02f10523          	sb	a5,42(sp)
    80000c96:	e422                	sd	s0,8(sp)
    80000c98:	02500b93          	li	s7,37
    80000c9c:	020a9c13          	slli	s8,s5,0x20
    80000ca0:	00001b17          	auipc	s6,0x1
    80000ca4:	220b0b13          	addi	s6,s6,544 # 80001ec0 <__tbss_end+0xb8>
    80000ca8:	4c85                	li	s9,1
    80000caa:	8426                	mv	s0,s1
    80000cac:	00044783          	lbu	a5,0(s0)
    80000cb0:	c399                	beqz	a5,80000cb6 <_vfiprintf_r+0x70>
    80000cb2:	0d779063          	bne	a5,s7,80000d72 <_vfiprintf_r+0x12c>
    80000cb6:	40940d3b          	subw	s10,s0,s1
    80000cba:	000d0e63          	beqz	s10,80000cd6 <_vfiprintf_r+0x90>
    80000cbe:	86ea                	mv	a3,s10
    80000cc0:	8626                	mv	a2,s1
    80000cc2:	85ca                	mv	a1,s2
    80000cc4:	8552                	mv	a0,s4
    80000cc6:	f19ff0ef          	jal	80000bde <__sfputs_r>
    80000cca:	1d550963          	beq	a0,s5,80000e9c <_vfiprintf_r+0x256>
    80000cce:	5792                	lw	a5,36(sp)
    80000cd0:	01a787bb          	addw	a5,a5,s10
    80000cd4:	d23e                	sw	a5,36(sp)
    80000cd6:	00044783          	lbu	a5,0(s0)
    80000cda:	1c078163          	beqz	a5,80000e9c <_vfiprintf_r+0x256>
    80000cde:	00140493          	addi	s1,s0,1
    80000ce2:	e862                	sd	s8,16(sp)
    80000ce4:	ec02                	sd	zero,24(sp)
    80000ce6:	040109a3          	sb	zero,83(sp)
    80000cea:	d482                	sw	zero,104(sp)
    80000cec:	0004c583          	lbu	a1,0(s1)
    80000cf0:	4615                	li	a2,5
    80000cf2:	855a                	mv	a0,s6
    80000cf4:	377000ef          	jal	8000186a <memchr>
    80000cf8:	47c2                	lw	a5,16(sp)
    80000cfa:	00148413          	addi	s0,s1,1
    80000cfe:	ed25                	bnez	a0,80000d76 <_vfiprintf_r+0x130>
    80000d00:	0107f713          	andi	a4,a5,16
    80000d04:	c709                	beqz	a4,80000d0e <_vfiprintf_r+0xc8>
    80000d06:	02000713          	li	a4,32
    80000d0a:	04e109a3          	sb	a4,83(sp)
    80000d0e:	0087f713          	andi	a4,a5,8
    80000d12:	c709                	beqz	a4,80000d1c <_vfiprintf_r+0xd6>
    80000d14:	02b00713          	li	a4,43
    80000d18:	04e109a3          	sb	a4,83(sp)
    80000d1c:	0004c683          	lbu	a3,0(s1)
    80000d20:	02a00713          	li	a4,42
    80000d24:	06e68163          	beq	a3,a4,80000d86 <_vfiprintf_r+0x140>
    80000d28:	47f2                	lw	a5,28(sp)
    80000d2a:	8426                	mv	s0,s1
    80000d2c:	4681                	li	a3,0
    80000d2e:	4625                	li	a2,9
    80000d30:	4829                	li	a6,10
    80000d32:	00044703          	lbu	a4,0(s0)
    80000d36:	00140513          	addi	a0,s0,1
    80000d3a:	fd07059b          	addiw	a1,a4,-48 # 7fffffd0 <__heap_size+0x7ffdffd0>
    80000d3e:	872e                	mv	a4,a1
    80000d40:	08b67a63          	bgeu	a2,a1,80000dd4 <_vfiprintf_r+0x18e>
    80000d44:	caa9                	beqz	a3,80000d96 <_vfiprintf_r+0x150>
    80000d46:	ce3e                	sw	a5,28(sp)
    80000d48:	a0b9                	j	80000d96 <_vfiprintf_r+0x150>
    80000d4a:	85ca                	mv	a1,s2
    80000d4c:	8552                	mv	a0,s4
    80000d4e:	24f000ef          	jal	8000179c <__swsetup_r>
    80000d52:	d905                	beqz	a0,80000c82 <_vfiprintf_r+0x3c>
    80000d54:	557d                	li	a0,-1
    80000d56:	60ae                	ld	ra,200(sp)
    80000d58:	640e                	ld	s0,192(sp)
    80000d5a:	74ea                	ld	s1,184(sp)
    80000d5c:	794a                	ld	s2,176(sp)
    80000d5e:	79aa                	ld	s3,168(sp)
    80000d60:	7a0a                	ld	s4,160(sp)
    80000d62:	6aea                	ld	s5,152(sp)
    80000d64:	6b4a                	ld	s6,144(sp)
    80000d66:	6baa                	ld	s7,136(sp)
    80000d68:	6c0a                	ld	s8,128(sp)
    80000d6a:	7ce6                	ld	s9,120(sp)
    80000d6c:	7d46                	ld	s10,112(sp)
    80000d6e:	6169                	addi	sp,sp,208
    80000d70:	8082                	ret
    80000d72:	0405                	addi	s0,s0,1
    80000d74:	bf25                	j	80000cac <_vfiprintf_r+0x66>
    80000d76:	41650533          	sub	a0,a0,s6
    80000d7a:	00ac953b          	sllw	a0,s9,a0
    80000d7e:	8fc9                	or	a5,a5,a0
    80000d80:	c83e                	sw	a5,16(sp)
    80000d82:	84a2                	mv	s1,s0
    80000d84:	b7a5                	j	80000cec <_vfiprintf_r+0xa6>
    80000d86:	6722                	ld	a4,8(sp)
    80000d88:	00870693          	addi	a3,a4,8
    80000d8c:	4318                	lw	a4,0(a4)
    80000d8e:	e436                	sd	a3,8(sp)
    80000d90:	02074b63          	bltz	a4,80000dc6 <_vfiprintf_r+0x180>
    80000d94:	ce3a                	sw	a4,28(sp)
    80000d96:	00044703          	lbu	a4,0(s0)
    80000d9a:	02e00793          	li	a5,46
    80000d9e:	06f71163          	bne	a4,a5,80000e00 <_vfiprintf_r+0x1ba>
    80000da2:	00144703          	lbu	a4,1(s0)
    80000da6:	02a00793          	li	a5,42
    80000daa:	02f71b63          	bne	a4,a5,80000de0 <_vfiprintf_r+0x19a>
    80000dae:	67a2                	ld	a5,8(sp)
    80000db0:	0409                	addi	s0,s0,2
    80000db2:	00878713          	addi	a4,a5,8
    80000db6:	e43a                	sd	a4,8(sp)
    80000db8:	4398                	lw	a4,0(a5)
    80000dba:	87ba                	mv	a5,a4
    80000dbc:	00075363          	bgez	a4,80000dc2 <_vfiprintf_r+0x17c>
    80000dc0:	57fd                	li	a5,-1
    80000dc2:	ca3e                	sw	a5,20(sp)
    80000dc4:	a835                	j	80000e00 <_vfiprintf_r+0x1ba>
    80000dc6:	40e0073b          	negw	a4,a4
    80000dca:	0027e793          	ori	a5,a5,2
    80000dce:	ce3a                	sw	a4,28(sp)
    80000dd0:	c83e                	sw	a5,16(sp)
    80000dd2:	b7d1                	j	80000d96 <_vfiprintf_r+0x150>
    80000dd4:	02f807bb          	mulw	a5,a6,a5
    80000dd8:	842a                	mv	s0,a0
    80000dda:	4685                	li	a3,1
    80000ddc:	9fb9                	addw	a5,a5,a4
    80000dde:	bf91                	j	80000d32 <_vfiprintf_r+0xec>
    80000de0:	0405                	addi	s0,s0,1
    80000de2:	ca02                	sw	zero,20(sp)
    80000de4:	4681                	li	a3,0
    80000de6:	4781                	li	a5,0
    80000de8:	4625                	li	a2,9
    80000dea:	4829                	li	a6,10
    80000dec:	00044703          	lbu	a4,0(s0)
    80000df0:	00140513          	addi	a0,s0,1
    80000df4:	fd07059b          	addiw	a1,a4,-48
    80000df8:	872e                	mv	a4,a1
    80000dfa:	06b67c63          	bgeu	a2,a1,80000e72 <_vfiprintf_r+0x22c>
    80000dfe:	f2f1                	bnez	a3,80000dc2 <_vfiprintf_r+0x17c>
    80000e00:	00044583          	lbu	a1,0(s0)
    80000e04:	460d                	li	a2,3
    80000e06:	00001517          	auipc	a0,0x1
    80000e0a:	0c250513          	addi	a0,a0,194 # 80001ec8 <__tbss_end+0xc0>
    80000e0e:	25d000ef          	jal	8000186a <memchr>
    80000e12:	cd11                	beqz	a0,80000e2e <_vfiprintf_r+0x1e8>
    80000e14:	00001797          	auipc	a5,0x1
    80000e18:	0b478793          	addi	a5,a5,180 # 80001ec8 <__tbss_end+0xc0>
    80000e1c:	8d1d                	sub	a0,a0,a5
    80000e1e:	47c2                	lw	a5,16(sp)
    80000e20:	04000713          	li	a4,64
    80000e24:	00a7173b          	sllw	a4,a4,a0
    80000e28:	8fd9                	or	a5,a5,a4
    80000e2a:	0405                	addi	s0,s0,1
    80000e2c:	c83e                	sw	a5,16(sp)
    80000e2e:	00044583          	lbu	a1,0(s0)
    80000e32:	4619                	li	a2,6
    80000e34:	00001517          	auipc	a0,0x1
    80000e38:	09c50513          	addi	a0,a0,156 # 80001ed0 <__tbss_end+0xc8>
    80000e3c:	00140493          	addi	s1,s0,1
    80000e40:	02b10423          	sb	a1,40(sp)
    80000e44:	227000ef          	jal	8000186a <memchr>
    80000e48:	c135                	beqz	a0,80000eac <_vfiprintf_r+0x266>
    80000e4a:	00000793          	li	a5,0
    80000e4e:	eb85                	bnez	a5,80000e7e <_vfiprintf_r+0x238>
    80000e50:	4742                	lw	a4,16(sp)
    80000e52:	67a2                	ld	a5,8(sp)
    80000e54:	10077713          	andi	a4,a4,256
    80000e58:	00878693          	addi	a3,a5,8
    80000e5c:	c709                	beqz	a4,80000e66 <_vfiprintf_r+0x220>
    80000e5e:	07bd                	addi	a5,a5,15
    80000e60:	9bc1                	andi	a5,a5,-16
    80000e62:	01078693          	addi	a3,a5,16
    80000e66:	e436                	sd	a3,8(sp)
    80000e68:	5792                	lw	a5,36(sp)
    80000e6a:	013787bb          	addw	a5,a5,s3
    80000e6e:	d23e                	sw	a5,36(sp)
    80000e70:	bd2d                	j	80000caa <_vfiprintf_r+0x64>
    80000e72:	02f807bb          	mulw	a5,a6,a5
    80000e76:	842a                	mv	s0,a0
    80000e78:	4685                	li	a3,1
    80000e7a:	9fb9                	addw	a5,a5,a4
    80000e7c:	bf85                	j	80000dec <_vfiprintf_r+0x1a6>
    80000e7e:	0038                	addi	a4,sp,8
    80000e80:	00000697          	auipc	a3,0x0
    80000e84:	d5e68693          	addi	a3,a3,-674 # 80000bde <__sfputs_r>
    80000e88:	864a                	mv	a2,s2
    80000e8a:	080c                	addi	a1,sp,16
    80000e8c:	8552                	mv	a0,s4
    80000e8e:	00000097          	auipc	ra,0x0
    80000e92:	000000e7          	jalr	zero # 0 <__boot_hart>
    80000e96:	89aa                	mv	s3,a0
    80000e98:	fd5518e3          	bne	a0,s5,80000e68 <_vfiprintf_r+0x222>
    80000e9c:	01095783          	lhu	a5,16(s2)
    80000ea0:	0407f793          	andi	a5,a5,64
    80000ea4:	ea0798e3          	bnez	a5,80000d54 <_vfiprintf_r+0x10e>
    80000ea8:	5512                	lw	a0,36(sp)
    80000eaa:	b575                	j	80000d56 <_vfiprintf_r+0x110>
    80000eac:	0038                	addi	a4,sp,8
    80000eae:	00000697          	auipc	a3,0x0
    80000eb2:	d3068693          	addi	a3,a3,-720 # 80000bde <__sfputs_r>
    80000eb6:	864a                	mv	a2,s2
    80000eb8:	080c                	addi	a1,sp,16
    80000eba:	8552                	mv	a0,s4
    80000ebc:	134000ef          	jal	80000ff0 <_printf_i>
    80000ec0:	bfd9                	j	80000e96 <_vfiprintf_r+0x250>

0000000080000ec2 <vfiprintf>:
    80000ec2:	86b2                	mv	a3,a2
    80000ec4:	862e                	mv	a2,a1
    80000ec6:	85aa                	mv	a1,a0
    80000ec8:	00001517          	auipc	a0,0x1
    80000ecc:	1b053503          	ld	a0,432(a0) # 80002078 <_impure_ptr>
    80000ed0:	bb9d                	j	80000c46 <_vfiprintf_r>

0000000080000ed2 <_printf_common>:
    80000ed2:	715d                	addi	sp,sp,-80
    80000ed4:	f052                	sd	s4,32(sp)
    80000ed6:	ec56                	sd	s5,24(sp)
    80000ed8:	8a36                	mv	s4,a3
    80000eda:	8aba                	mv	s5,a4
    80000edc:	4994                	lw	a3,16(a1)
    80000ede:	4598                	lw	a4,8(a1)
    80000ee0:	e0a2                	sd	s0,64(sp)
    80000ee2:	f84a                	sd	s2,48(sp)
    80000ee4:	f44e                	sd	s3,40(sp)
    80000ee6:	e486                	sd	ra,72(sp)
    80000ee8:	fc26                	sd	s1,56(sp)
    80000eea:	e85a                	sd	s6,16(sp)
    80000eec:	e45e                	sd	s7,8(sp)
    80000eee:	89aa                	mv	s3,a0
    80000ef0:	842e                	mv	s0,a1
    80000ef2:	8932                	mv	s2,a2
    80000ef4:	87ba                	mv	a5,a4
    80000ef6:	00e6c363          	blt	a3,a4,80000efc <_printf_common+0x2a>
    80000efa:	87b6                	mv	a5,a3
    80000efc:	00f92023          	sw	a5,0(s2)
    80000f00:	04344703          	lbu	a4,67(s0)
    80000f04:	c701                	beqz	a4,80000f0c <_printf_common+0x3a>
    80000f06:	2785                	addiw	a5,a5,1
    80000f08:	00f92023          	sw	a5,0(s2)
    80000f0c:	401c                	lw	a5,0(s0)
    80000f0e:	0207f793          	andi	a5,a5,32
    80000f12:	c791                	beqz	a5,80000f1e <_printf_common+0x4c>
    80000f14:	00092783          	lw	a5,0(s2)
    80000f18:	2789                	addiw	a5,a5,2
    80000f1a:	00f92023          	sw	a5,0(s2)
    80000f1e:	4004                	lw	s1,0(s0)
    80000f20:	8899                	andi	s1,s1,6
    80000f22:	e891                	bnez	s1,80000f36 <_printf_common+0x64>
    80000f24:	01940b13          	addi	s6,s0,25
    80000f28:	5bfd                	li	s7,-1
    80000f2a:	445c                	lw	a5,12(s0)
    80000f2c:	00092703          	lw	a4,0(s2)
    80000f30:	9f99                	subw	a5,a5,a4
    80000f32:	06f4c063          	blt	s1,a5,80000f92 <_printf_common+0xc0>
    80000f36:	04344783          	lbu	a5,67(s0)
    80000f3a:	00f03633          	snez	a2,a5
    80000f3e:	00f036b3          	snez	a3,a5
    80000f42:	401c                	lw	a5,0(s0)
    80000f44:	0207f793          	andi	a5,a5,32
    80000f48:	ebb5                	bnez	a5,80000fbc <_printf_common+0xea>
    80000f4a:	04340613          	addi	a2,s0,67
    80000f4e:	85d2                	mv	a1,s4
    80000f50:	854e                	mv	a0,s3
    80000f52:	9a82                	jalr	s5
    80000f54:	57fd                	li	a5,-1
    80000f56:	04f50563          	beq	a0,a5,80000fa0 <_printf_common+0xce>
    80000f5a:	401c                	lw	a5,0(s0)
    80000f5c:	4711                	li	a4,4
    80000f5e:	4481                	li	s1,0
    80000f60:	8b99                	andi	a5,a5,6
    80000f62:	00e79b63          	bne	a5,a4,80000f78 <_printf_common+0xa6>
    80000f66:	00092783          	lw	a5,0(s2)
    80000f6a:	4444                	lw	s1,12(s0)
    80000f6c:	9c9d                	subw	s1,s1,a5
    80000f6e:	02049793          	slli	a5,s1,0x20
    80000f72:	0007d363          	bgez	a5,80000f78 <_printf_common+0xa6>
    80000f76:	4481                	li	s1,0
    80000f78:	441c                	lw	a5,8(s0)
    80000f7a:	4818                	lw	a4,16(s0)
    80000f7c:	00f75463          	bge	a4,a5,80000f84 <_printf_common+0xb2>
    80000f80:	9f99                	subw	a5,a5,a4
    80000f82:	9cbd                	addw	s1,s1,a5
    80000f84:	4901                	li	s2,0
    80000f86:	0469                	addi	s0,s0,26
    80000f88:	5b7d                	li	s6,-1
    80000f8a:	05249a63          	bne	s1,s2,80000fde <_printf_common+0x10c>
    80000f8e:	4501                	li	a0,0
    80000f90:	a809                	j	80000fa2 <_printf_common+0xd0>
    80000f92:	4685                	li	a3,1
    80000f94:	865a                	mv	a2,s6
    80000f96:	85d2                	mv	a1,s4
    80000f98:	854e                	mv	a0,s3
    80000f9a:	9a82                	jalr	s5
    80000f9c:	01751e63          	bne	a0,s7,80000fb8 <_printf_common+0xe6>
    80000fa0:	557d                	li	a0,-1
    80000fa2:	60a6                	ld	ra,72(sp)
    80000fa4:	6406                	ld	s0,64(sp)
    80000fa6:	74e2                	ld	s1,56(sp)
    80000fa8:	7942                	ld	s2,48(sp)
    80000faa:	79a2                	ld	s3,40(sp)
    80000fac:	7a02                	ld	s4,32(sp)
    80000fae:	6ae2                	ld	s5,24(sp)
    80000fb0:	6b42                	ld	s6,16(sp)
    80000fb2:	6ba2                	ld	s7,8(sp)
    80000fb4:	6161                	addi	sp,sp,80
    80000fb6:	8082                	ret
    80000fb8:	2485                	addiw	s1,s1,1
    80000fba:	bf85                	j	80000f2a <_printf_common+0x58>
    80000fbc:	00d407b3          	add	a5,s0,a3
    80000fc0:	03000693          	li	a3,48
    80000fc4:	04d781a3          	sb	a3,67(a5)
    80000fc8:	0016071b          	addiw	a4,a2,1
    80000fcc:	0026069b          	addiw	a3,a2,2
    80000fd0:	04544603          	lbu	a2,69(s0)
    80000fd4:	00e407b3          	add	a5,s0,a4
    80000fd8:	04c781a3          	sb	a2,67(a5)
    80000fdc:	b7bd                	j	80000f4a <_printf_common+0x78>
    80000fde:	4685                	li	a3,1
    80000fe0:	8622                	mv	a2,s0
    80000fe2:	85d2                	mv	a1,s4
    80000fe4:	854e                	mv	a0,s3
    80000fe6:	9a82                	jalr	s5
    80000fe8:	fb650ce3          	beq	a0,s6,80000fa0 <_printf_common+0xce>
    80000fec:	2905                	addiw	s2,s2,1
    80000fee:	bf71                	j	80000f8a <_printf_common+0xb8>

0000000080000ff0 <_printf_i>:
    80000ff0:	715d                	addi	sp,sp,-80
    80000ff2:	e0a2                	sd	s0,64(sp)
    80000ff4:	f84a                	sd	s2,48(sp)
    80000ff6:	f44e                	sd	s3,40(sp)
    80000ff8:	f052                	sd	s4,32(sp)
    80000ffa:	e486                	sd	ra,72(sp)
    80000ffc:	fc26                	sd	s1,56(sp)
    80000ffe:	ec56                	sd	s5,24(sp)
    80001000:	e85a                	sd	s6,16(sp)
    80001002:	0185c803          	lbu	a6,24(a1)
    80001006:	07800793          	li	a5,120
    8000100a:	892a                	mv	s2,a0
    8000100c:	842e                	mv	s0,a1
    8000100e:	89b2                	mv	s3,a2
    80001010:	8a36                	mv	s4,a3
    80001012:	0307e263          	bltu	a5,a6,80001036 <_printf_i+0x46>
    80001016:	06200793          	li	a5,98
    8000101a:	04358693          	addi	a3,a1,67
    8000101e:	0307e163          	bltu	a5,a6,80001040 <_printf_i+0x50>
    80001022:	1c080663          	beqz	a6,800011ee <_printf_i+0x1fe>
    80001026:	05800793          	li	a5,88
    8000102a:	00001617          	auipc	a2,0x1
    8000102e:	eae60613          	addi	a2,a2,-338 # 80001ed8 <__tbss_end+0xd0>
    80001032:	14f80a63          	beq	a6,a5,80001186 <_printf_i+0x196>
    80001036:	04240493          	addi	s1,s0,66
    8000103a:	05040123          	sb	a6,66(s0)
    8000103e:	a815                	j	80001072 <_printf_i+0x82>
    80001040:	f9d8079b          	addiw	a5,a6,-99
    80001044:	0ff7f793          	zext.b	a5,a5
    80001048:	4655                	li	a2,21
    8000104a:	fef666e3          	bltu	a2,a5,80001036 <_printf_i+0x46>
    8000104e:	00001617          	auipc	a2,0x1
    80001052:	eb660613          	addi	a2,a2,-330 # 80001f04 <__tbss_end+0xfc>
    80001056:	078a                	slli	a5,a5,0x2
    80001058:	97b2                	add	a5,a5,a2
    8000105a:	439c                	lw	a5,0(a5)
    8000105c:	97b2                	add	a5,a5,a2
    8000105e:	8782                	jr	a5
    80001060:	631c                	ld	a5,0(a4)
    80001062:	04258493          	addi	s1,a1,66
    80001066:	00878693          	addi	a3,a5,8
    8000106a:	439c                	lw	a5,0(a5)
    8000106c:	e314                	sd	a3,0(a4)
    8000106e:	04f58123          	sb	a5,66(a1)
    80001072:	4785                	li	a5,1
    80001074:	aa4d                	j	80001226 <_printf_i+0x236>
    80001076:	419c                	lw	a5,0(a1)
    80001078:	6308                	ld	a0,0(a4)
    8000107a:	0807f613          	andi	a2,a5,128
    8000107e:	00850593          	addi	a1,a0,8
    80001082:	c20d                	beqz	a2,800010a4 <_printf_i+0xb4>
    80001084:	611c                	ld	a5,0(a0)
    80001086:	e30c                	sd	a1,0(a4)
    80001088:	0007d863          	bgez	a5,80001098 <_printf_i+0xa8>
    8000108c:	02d00713          	li	a4,45
    80001090:	40f007b3          	neg	a5,a5
    80001094:	04e401a3          	sb	a4,67(s0)
    80001098:	00001617          	auipc	a2,0x1
    8000109c:	e4060613          	addi	a2,a2,-448 # 80001ed8 <__tbss_end+0xd0>
    800010a0:	4829                	li	a6,10
    800010a2:	a83d                	j	800010e0 <_printf_i+0xf0>
    800010a4:	0407f613          	andi	a2,a5,64
    800010a8:	411c                	lw	a5,0(a0)
    800010aa:	e30c                	sd	a1,0(a4)
    800010ac:	de71                	beqz	a2,80001088 <_printf_i+0x98>
    800010ae:	0107979b          	slliw	a5,a5,0x10
    800010b2:	4107d79b          	sraiw	a5,a5,0x10
    800010b6:	bfc9                	j	80001088 <_printf_i+0x98>
    800010b8:	4190                	lw	a2,0(a1)
    800010ba:	631c                	ld	a5,0(a4)
    800010bc:	08067513          	andi	a0,a2,128
    800010c0:	00878593          	addi	a1,a5,8
    800010c4:	cd41                	beqz	a0,8000115c <_printf_i+0x16c>
    800010c6:	639c                	ld	a5,0(a5)
    800010c8:	e30c                	sd	a1,0(a4)
    800010ca:	06f00713          	li	a4,111
    800010ce:	00001617          	auipc	a2,0x1
    800010d2:	e0a60613          	addi	a2,a2,-502 # 80001ed8 <__tbss_end+0xd0>
    800010d6:	0ee81e63          	bne	a6,a4,800011d2 <_printf_i+0x1e2>
    800010da:	4821                	li	a6,8
    800010dc:	040401a3          	sb	zero,67(s0)
    800010e0:	4058                	lw	a4,4(s0)
    800010e2:	c418                	sw	a4,8(s0)
    800010e4:	00074563          	bltz	a4,800010ee <_printf_i+0xfe>
    800010e8:	400c                	lw	a1,0(s0)
    800010ea:	99ed                	andi	a1,a1,-5
    800010ec:	c00c                	sw	a1,0(s0)
    800010ee:	e399                	bnez	a5,800010f4 <_printf_i+0x104>
    800010f0:	84b6                	mv	s1,a3
    800010f2:	cf19                	beqz	a4,80001110 <_printf_i+0x120>
    800010f4:	84b6                	mv	s1,a3
    800010f6:	0307f733          	remu	a4,a5,a6
    800010fa:	14fd                	addi	s1,s1,-1
    800010fc:	9732                	add	a4,a4,a2
    800010fe:	00074703          	lbu	a4,0(a4)
    80001102:	00e48023          	sb	a4,0(s1)
    80001106:	873e                	mv	a4,a5
    80001108:	0307d7b3          	divu	a5,a5,a6
    8000110c:	ff0775e3          	bgeu	a4,a6,800010f6 <_printf_i+0x106>
    80001110:	47a1                	li	a5,8
    80001112:	00f81e63          	bne	a6,a5,8000112e <_printf_i+0x13e>
    80001116:	401c                	lw	a5,0(s0)
    80001118:	8b85                	andi	a5,a5,1
    8000111a:	cb91                	beqz	a5,8000112e <_printf_i+0x13e>
    8000111c:	4058                	lw	a4,4(s0)
    8000111e:	481c                	lw	a5,16(s0)
    80001120:	00e7c763          	blt	a5,a4,8000112e <_printf_i+0x13e>
    80001124:	03000793          	li	a5,48
    80001128:	fef48fa3          	sb	a5,-1(s1)
    8000112c:	14fd                	addi	s1,s1,-1
    8000112e:	8e85                	sub	a3,a3,s1
    80001130:	c814                	sw	a3,16(s0)
    80001132:	8752                	mv	a4,s4
    80001134:	86ce                	mv	a3,s3
    80001136:	0070                	addi	a2,sp,12
    80001138:	85a2                	mv	a1,s0
    8000113a:	854a                	mv	a0,s2
    8000113c:	d97ff0ef          	jal	80000ed2 <_printf_common>
    80001140:	5afd                	li	s5,-1
    80001142:	0f551663          	bne	a0,s5,8000122e <_printf_i+0x23e>
    80001146:	557d                	li	a0,-1
    80001148:	60a6                	ld	ra,72(sp)
    8000114a:	6406                	ld	s0,64(sp)
    8000114c:	74e2                	ld	s1,56(sp)
    8000114e:	7942                	ld	s2,48(sp)
    80001150:	79a2                	ld	s3,40(sp)
    80001152:	7a02                	ld	s4,32(sp)
    80001154:	6ae2                	ld	s5,24(sp)
    80001156:	6b42                	ld	s6,16(sp)
    80001158:	6161                	addi	sp,sp,80
    8000115a:	8082                	ret
    8000115c:	439c                	lw	a5,0(a5)
    8000115e:	04067613          	andi	a2,a2,64
    80001162:	e30c                	sd	a1,0(a4)
    80001164:	c601                	beqz	a2,8000116c <_printf_i+0x17c>
    80001166:	17c2                	slli	a5,a5,0x30
    80001168:	93c1                	srli	a5,a5,0x30
    8000116a:	b785                	j	800010ca <_printf_i+0xda>
    8000116c:	1782                	slli	a5,a5,0x20
    8000116e:	9381                	srli	a5,a5,0x20
    80001170:	bfa9                	j	800010ca <_printf_i+0xda>
    80001172:	419c                	lw	a5,0(a1)
    80001174:	0a07e793          	ori	a5,a5,160
    80001178:	c19c                	sw	a5,0(a1)
    8000117a:	07800813          	li	a6,120
    8000117e:	00001617          	auipc	a2,0x1
    80001182:	d7260613          	addi	a2,a2,-654 # 80001ef0 <__tbss_end+0xe8>
    80001186:	050402a3          	sb	a6,69(s0)
    8000118a:	400c                	lw	a1,0(s0)
    8000118c:	631c                	ld	a5,0(a4)
    8000118e:	0805f813          	andi	a6,a1,128
    80001192:	00878513          	addi	a0,a5,8
    80001196:	00080d63          	beqz	a6,800011b0 <_printf_i+0x1c0>
    8000119a:	639c                	ld	a5,0(a5)
    8000119c:	e308                	sd	a0,0(a4)
    8000119e:	0015f713          	andi	a4,a1,1
    800011a2:	c701                	beqz	a4,800011aa <_printf_i+0x1ba>
    800011a4:	0205e593          	ori	a1,a1,32
    800011a8:	c00c                	sw	a1,0(s0)
    800011aa:	cf99                	beqz	a5,800011c8 <_printf_i+0x1d8>
    800011ac:	4841                	li	a6,16
    800011ae:	b73d                	j	800010dc <_printf_i+0xec>
    800011b0:	439c                	lw	a5,0(a5)
    800011b2:	0405f813          	andi	a6,a1,64
    800011b6:	e308                	sd	a0,0(a4)
    800011b8:	00080563          	beqz	a6,800011c2 <_printf_i+0x1d2>
    800011bc:	17c2                	slli	a5,a5,0x30
    800011be:	93c1                	srli	a5,a5,0x30
    800011c0:	bff9                	j	8000119e <_printf_i+0x1ae>
    800011c2:	1782                	slli	a5,a5,0x20
    800011c4:	9381                	srli	a5,a5,0x20
    800011c6:	bfe1                	j	8000119e <_printf_i+0x1ae>
    800011c8:	4018                	lw	a4,0(s0)
    800011ca:	fdf77713          	andi	a4,a4,-33
    800011ce:	c018                	sw	a4,0(s0)
    800011d0:	bff1                	j	800011ac <_printf_i+0x1bc>
    800011d2:	4829                	li	a6,10
    800011d4:	b721                	j	800010dc <_printf_i+0xec>
    800011d6:	4190                	lw	a2,0(a1)
    800011d8:	631c                	ld	a5,0(a4)
    800011da:	49cc                	lw	a1,20(a1)
    800011dc:	08067813          	andi	a6,a2,128
    800011e0:	00878513          	addi	a0,a5,8
    800011e4:	00080963          	beqz	a6,800011f6 <_printf_i+0x206>
    800011e8:	e308                	sd	a0,0(a4)
    800011ea:	639c                	ld	a5,0(a5)
    800011ec:	e38c                	sd	a1,0(a5)
    800011ee:	00042823          	sw	zero,16(s0)
    800011f2:	84b6                	mv	s1,a3
    800011f4:	bf3d                	j	80001132 <_printf_i+0x142>
    800011f6:	e308                	sd	a0,0(a4)
    800011f8:	04067613          	andi	a2,a2,64
    800011fc:	639c                	ld	a5,0(a5)
    800011fe:	c601                	beqz	a2,80001206 <_printf_i+0x216>
    80001200:	00b79023          	sh	a1,0(a5)
    80001204:	b7ed                	j	800011ee <_printf_i+0x1fe>
    80001206:	c38c                	sw	a1,0(a5)
    80001208:	b7dd                	j	800011ee <_printf_i+0x1fe>
    8000120a:	631c                	ld	a5,0(a4)
    8000120c:	41d0                	lw	a2,4(a1)
    8000120e:	4581                	li	a1,0
    80001210:	00878693          	addi	a3,a5,8
    80001214:	e314                	sd	a3,0(a4)
    80001216:	6384                	ld	s1,0(a5)
    80001218:	8526                	mv	a0,s1
    8000121a:	650000ef          	jal	8000186a <memchr>
    8000121e:	c119                	beqz	a0,80001224 <_printf_i+0x234>
    80001220:	8d05                	sub	a0,a0,s1
    80001222:	c048                	sw	a0,4(s0)
    80001224:	405c                	lw	a5,4(s0)
    80001226:	c81c                	sw	a5,16(s0)
    80001228:	040401a3          	sb	zero,67(s0)
    8000122c:	b719                	j	80001132 <_printf_i+0x142>
    8000122e:	4814                	lw	a3,16(s0)
    80001230:	8626                	mv	a2,s1
    80001232:	85ce                	mv	a1,s3
    80001234:	854a                	mv	a0,s2
    80001236:	9a02                	jalr	s4
    80001238:	f15507e3          	beq	a0,s5,80001146 <_printf_i+0x156>
    8000123c:	401c                	lw	a5,0(s0)
    8000123e:	8b89                	andi	a5,a5,2
    80001240:	eb85                	bnez	a5,80001270 <_printf_i+0x280>
    80001242:	4458                	lw	a4,12(s0)
    80001244:	47b2                	lw	a5,12(sp)
    80001246:	0007051b          	sext.w	a0,a4
    8000124a:	eef75fe3          	bge	a4,a5,80001148 <_printf_i+0x158>
    8000124e:	0007851b          	sext.w	a0,a5
    80001252:	bddd                	j	80001148 <_printf_i+0x158>
    80001254:	4685                	li	a3,1
    80001256:	8656                	mv	a2,s5
    80001258:	85ce                	mv	a1,s3
    8000125a:	854a                	mv	a0,s2
    8000125c:	9a02                	jalr	s4
    8000125e:	ef6504e3          	beq	a0,s6,80001146 <_printf_i+0x156>
    80001262:	2485                	addiw	s1,s1,1
    80001264:	445c                	lw	a5,12(s0)
    80001266:	4732                	lw	a4,12(sp)
    80001268:	9f99                	subw	a5,a5,a4
    8000126a:	fef4c5e3          	blt	s1,a5,80001254 <_printf_i+0x264>
    8000126e:	bfd1                	j	80001242 <_printf_i+0x252>
    80001270:	4481                	li	s1,0
    80001272:	01940a93          	addi	s5,s0,25
    80001276:	5b7d                	li	s6,-1
    80001278:	b7f5                	j	80001264 <_printf_i+0x274>

000000008000127a <__sflush_r>:
    8000127a:	01059783          	lh	a5,16(a1)
    8000127e:	7179                	addi	sp,sp,-48
    80001280:	f022                	sd	s0,32(sp)
    80001282:	ec26                	sd	s1,24(sp)
    80001284:	f406                	sd	ra,40(sp)
    80001286:	e84a                	sd	s2,16(sp)
    80001288:	e44e                	sd	s3,8(sp)
    8000128a:	0087f713          	andi	a4,a5,8
    8000128e:	84aa                	mv	s1,a0
    80001290:	842e                	mv	s0,a1
    80001292:	eb69                	bnez	a4,80001364 <__sflush_r+0xea>
    80001294:	4598                	lw	a4,8(a1)
    80001296:	00e04563          	bgtz	a4,800012a0 <__sflush_r+0x26>
    8000129a:	5db8                	lw	a4,120(a1)
    8000129c:	0ae05b63          	blez	a4,80001352 <__sflush_r+0xd8>
    800012a0:	6838                	ld	a4,80(s0)
    800012a2:	cb45                	beqz	a4,80001352 <__sflush_r+0xd8>
    800012a4:	0004a903          	lw	s2,0(s1)
    800012a8:	03379693          	slli	a3,a5,0x33
    800012ac:	0004a023          	sw	zero,0(s1)
    800012b0:	7c0c                	ld	a1,56(s0)
    800012b2:	0606de63          	bgez	a3,8000132e <__sflush_r+0xb4>
    800012b6:	6c50                	ld	a2,152(s0)
    800012b8:	01045783          	lhu	a5,16(s0)
    800012bc:	8b91                	andi	a5,a5,4
    800012be:	c799                	beqz	a5,800012cc <__sflush_r+0x52>
    800012c0:	441c                	lw	a5,8(s0)
    800012c2:	8e1d                	sub	a2,a2,a5
    800012c4:	703c                	ld	a5,96(s0)
    800012c6:	c399                	beqz	a5,800012cc <__sflush_r+0x52>
    800012c8:	5c3c                	lw	a5,120(s0)
    800012ca:	8e1d                	sub	a2,a2,a5
    800012cc:	683c                	ld	a5,80(s0)
    800012ce:	7c0c                	ld	a1,56(s0)
    800012d0:	4681                	li	a3,0
    800012d2:	8526                	mv	a0,s1
    800012d4:	9782                	jalr	a5
    800012d6:	577d                	li	a4,-1
    800012d8:	01045783          	lhu	a5,16(s0)
    800012dc:	00e51d63          	bne	a0,a4,800012f6 <__sflush_r+0x7c>
    800012e0:	4094                	lw	a3,0(s1)
    800012e2:	4775                	li	a4,29
    800012e4:	06d76963          	bltu	a4,a3,80001356 <__sflush_r+0xdc>
    800012e8:	20400737          	lui	a4,0x20400
    800012ec:	0705                	addi	a4,a4,1 # 20400001 <__heap_size+0x203e0001>
    800012ee:	00d75733          	srl	a4,a4,a3
    800012f2:	8b05                	andi	a4,a4,1
    800012f4:	c32d                	beqz	a4,80001356 <__sflush_r+0xdc>
    800012f6:	6c18                	ld	a4,24(s0)
    800012f8:	00042423          	sw	zero,8(s0)
    800012fc:	e018                	sd	a4,0(s0)
    800012fe:	03379713          	slli	a4,a5,0x33
    80001302:	00075863          	bgez	a4,80001312 <__sflush_r+0x98>
    80001306:	57fd                	li	a5,-1
    80001308:	00f51463          	bne	a0,a5,80001310 <__sflush_r+0x96>
    8000130c:	409c                	lw	a5,0(s1)
    8000130e:	e391                	bnez	a5,80001312 <__sflush_r+0x98>
    80001310:	ec48                	sd	a0,152(s0)
    80001312:	702c                	ld	a1,96(s0)
    80001314:	0124a023          	sw	s2,0(s1)
    80001318:	cd8d                	beqz	a1,80001352 <__sflush_r+0xd8>
    8000131a:	07c40793          	addi	a5,s0,124
    8000131e:	00f58563          	beq	a1,a5,80001328 <__sflush_r+0xae>
    80001322:	8526                	mv	a0,s1
    80001324:	e60ff0ef          	jal	80000984 <_free_r>
    80001328:	06043023          	sd	zero,96(s0)
    8000132c:	a01d                	j	80001352 <__sflush_r+0xd8>
    8000132e:	4601                	li	a2,0
    80001330:	4685                	li	a3,1
    80001332:	8526                	mv	a0,s1
    80001334:	9702                	jalr	a4
    80001336:	57fd                	li	a5,-1
    80001338:	862a                	mv	a2,a0
    8000133a:	f6f51fe3          	bne	a0,a5,800012b8 <__sflush_r+0x3e>
    8000133e:	409c                	lw	a5,0(s1)
    80001340:	dfa5                	beqz	a5,800012b8 <__sflush_r+0x3e>
    80001342:	4775                	li	a4,29
    80001344:	00e78563          	beq	a5,a4,8000134e <__sflush_r+0xd4>
    80001348:	4759                	li	a4,22
    8000134a:	04e79663          	bne	a5,a4,80001396 <__sflush_r+0x11c>
    8000134e:	0124a023          	sw	s2,0(s1)
    80001352:	4501                	li	a0,0
    80001354:	a881                	j	800013a4 <__sflush_r+0x12a>
    80001356:	0407e793          	ori	a5,a5,64
    8000135a:	0107979b          	slliw	a5,a5,0x10
    8000135e:	4107d79b          	sraiw	a5,a5,0x10
    80001362:	a835                	j	8000139e <__sflush_r+0x124>
    80001364:	0185b983          	ld	s3,24(a1)
    80001368:	fe0985e3          	beqz	s3,80001352 <__sflush_r+0xd8>
    8000136c:	0005b903          	ld	s2,0(a1)
    80001370:	8b8d                	andi	a5,a5,3
    80001372:	0135b023          	sd	s3,0(a1)
    80001376:	4139093b          	subw	s2,s2,s3
    8000137a:	4701                	li	a4,0
    8000137c:	e391                	bnez	a5,80001380 <__sflush_r+0x106>
    8000137e:	5198                	lw	a4,32(a1)
    80001380:	c458                	sw	a4,12(s0)
    80001382:	fd2058e3          	blez	s2,80001352 <__sflush_r+0xd8>
    80001386:	643c                	ld	a5,72(s0)
    80001388:	7c0c                	ld	a1,56(s0)
    8000138a:	86ca                	mv	a3,s2
    8000138c:	864e                	mv	a2,s3
    8000138e:	8526                	mv	a0,s1
    80001390:	9782                	jalr	a5
    80001392:	02a04063          	bgtz	a0,800013b2 <__sflush_r+0x138>
    80001396:	01041783          	lh	a5,16(s0)
    8000139a:	0407e793          	ori	a5,a5,64
    8000139e:	00f41823          	sh	a5,16(s0)
    800013a2:	557d                	li	a0,-1
    800013a4:	70a2                	ld	ra,40(sp)
    800013a6:	7402                	ld	s0,32(sp)
    800013a8:	64e2                	ld	s1,24(sp)
    800013aa:	6942                	ld	s2,16(sp)
    800013ac:	69a2                	ld	s3,8(sp)
    800013ae:	6145                	addi	sp,sp,48
    800013b0:	8082                	ret
    800013b2:	99aa                	add	s3,s3,a0
    800013b4:	40a9093b          	subw	s2,s2,a0
    800013b8:	b7e9                	j	80001382 <__sflush_r+0x108>

00000000800013ba <_fflush_r>:
    800013ba:	6d9c                	ld	a5,24(a1)
    800013bc:	cb8d                	beqz	a5,800013ee <_fflush_r+0x34>
    800013be:	1101                	addi	sp,sp,-32
    800013c0:	e822                	sd	s0,16(sp)
    800013c2:	ec06                	sd	ra,24(sp)
    800013c4:	842a                	mv	s0,a0
    800013c6:	c519                	beqz	a0,800013d4 <_fflush_r+0x1a>
    800013c8:	613c                	ld	a5,64(a0)
    800013ca:	e789                	bnez	a5,800013d4 <_fflush_r+0x1a>
    800013cc:	e42e                	sd	a1,8(sp)
    800013ce:	a68ff0ef          	jal	80000636 <__sinit>
    800013d2:	65a2                	ld	a1,8(sp)
    800013d4:	01059783          	lh	a5,16(a1)
    800013d8:	c791                	beqz	a5,800013e4 <_fflush_r+0x2a>
    800013da:	8522                	mv	a0,s0
    800013dc:	6442                	ld	s0,16(sp)
    800013de:	60e2                	ld	ra,24(sp)
    800013e0:	6105                	addi	sp,sp,32
    800013e2:	bd61                	j	8000127a <__sflush_r>
    800013e4:	60e2                	ld	ra,24(sp)
    800013e6:	6442                	ld	s0,16(sp)
    800013e8:	4501                	li	a0,0
    800013ea:	6105                	addi	sp,sp,32
    800013ec:	8082                	ret
    800013ee:	4501                	li	a0,0
    800013f0:	8082                	ret

00000000800013f2 <fflush>:
    800013f2:	85aa                	mv	a1,a0
    800013f4:	ed19                	bnez	a0,80001412 <fflush+0x20>
    800013f6:	00001617          	auipc	a2,0x1
    800013fa:	bda60613          	addi	a2,a2,-1062 # 80001fd0 <__sglue>
    800013fe:	00000597          	auipc	a1,0x0
    80001402:	fbc58593          	addi	a1,a1,-68 # 800013ba <_fflush_r>
    80001406:	00001517          	auipc	a0,0x1
    8000140a:	be250513          	addi	a0,a0,-1054 # 80001fe8 <_impure_data>
    8000140e:	a6cff06f          	j	8000067a <_fwalk_sglue>
    80001412:	00001517          	auipc	a0,0x1
    80001416:	c6653503          	ld	a0,-922(a0) # 80002078 <_impure_ptr>
    8000141a:	b745                	j	800013ba <_fflush_r>

000000008000141c <__sfvwrite_r>:
    8000141c:	6a1c                	ld	a5,16(a2)
    8000141e:	e399                	bnez	a5,80001424 <__sfvwrite_r+0x8>
    80001420:	4501                	li	a0,0
    80001422:	8082                	ret
    80001424:	0105d783          	lhu	a5,16(a1)
    80001428:	7159                	addi	sp,sp,-112
    8000142a:	f0a2                	sd	s0,96(sp)
    8000142c:	e8ca                	sd	s2,80(sp)
    8000142e:	e0d2                	sd	s4,64(sp)
    80001430:	f486                	sd	ra,104(sp)
    80001432:	eca6                	sd	s1,88(sp)
    80001434:	e4ce                	sd	s3,72(sp)
    80001436:	fc56                	sd	s5,56(sp)
    80001438:	f85a                	sd	s6,48(sp)
    8000143a:	f45e                	sd	s7,40(sp)
    8000143c:	f062                	sd	s8,32(sp)
    8000143e:	ec66                	sd	s9,24(sp)
    80001440:	e86a                	sd	s10,16(sp)
    80001442:	e46e                	sd	s11,8(sp)
    80001444:	8ba1                	andi	a5,a5,8
    80001446:	892a                	mv	s2,a0
    80001448:	842e                	mv	s0,a1
    8000144a:	8a32                	mv	s4,a2
    8000144c:	cfc1                	beqz	a5,800014e4 <__sfvwrite_r+0xc8>
    8000144e:	6d9c                	ld	a5,24(a1)
    80001450:	cbd1                	beqz	a5,800014e4 <__sfvwrite_r+0xc8>
    80001452:	01041783          	lh	a5,16(s0)
    80001456:	000a3983          	ld	s3,0(s4)
    8000145a:	0027f713          	andi	a4,a5,2
    8000145e:	e765                	bnez	a4,80001546 <__sfvwrite_r+0x12a>
    80001460:	8b85                	andi	a5,a5,1
    80001462:	4a81                	li	s5,0
    80001464:	16078063          	beqz	a5,800015c4 <__sfvwrite_r+0x1a8>
    80001468:	4501                	li	a0,0
    8000146a:	4b81                	li	s7,0
    8000146c:	4b01                	li	s6,0
    8000146e:	240b0063          	beqz	s6,800016ae <__sfvwrite_r+0x292>
    80001472:	e919                	bnez	a0,80001488 <__sfvwrite_r+0x6c>
    80001474:	865a                	mv	a2,s6
    80001476:	45a9                	li	a1,10
    80001478:	855e                	mv	a0,s7
    8000147a:	3f0000ef          	jal	8000186a <memchr>
    8000147e:	22050f63          	beqz	a0,800016bc <__sfvwrite_r+0x2a0>
    80001482:	0505                	addi	a0,a0,1
    80001484:	41750abb          	subw	s5,a0,s7
    80001488:	8c56                	mv	s8,s5
    8000148a:	015b7363          	bgeu	s6,s5,80001490 <__sfvwrite_r+0x74>
    8000148e:	8c5a                	mv	s8,s6
    80001490:	6008                	ld	a0,0(s0)
    80001492:	6c1c                	ld	a5,24(s0)
    80001494:	4444                	lw	s1,12(s0)
    80001496:	5014                	lw	a3,32(s0)
    80001498:	22a7f563          	bgeu	a5,a0,800016c2 <__sfvwrite_r+0x2a6>
    8000149c:	9cb5                	addw	s1,s1,a3
    8000149e:	2384d263          	bge	s1,s8,800016c2 <__sfvwrite_r+0x2a6>
    800014a2:	85de                	mv	a1,s7
    800014a4:	8626                	mv	a2,s1
    800014a6:	406000ef          	jal	800018ac <memmove>
    800014aa:	601c                	ld	a5,0(s0)
    800014ac:	85a2                	mv	a1,s0
    800014ae:	854a                	mv	a0,s2
    800014b0:	97a6                	add	a5,a5,s1
    800014b2:	e01c                	sd	a5,0(s0)
    800014b4:	f07ff0ef          	jal	800013ba <_fflush_r>
    800014b8:	0e051f63          	bnez	a0,800015b6 <__sfvwrite_r+0x19a>
    800014bc:	409a8abb          	subw	s5,s5,s1
    800014c0:	4505                	li	a0,1
    800014c2:	000a9763          	bnez	s5,800014d0 <__sfvwrite_r+0xb4>
    800014c6:	85a2                	mv	a1,s0
    800014c8:	854a                	mv	a0,s2
    800014ca:	ef1ff0ef          	jal	800013ba <_fflush_r>
    800014ce:	e565                	bnez	a0,800015b6 <__sfvwrite_r+0x19a>
    800014d0:	010a3783          	ld	a5,16(s4)
    800014d4:	9ba6                	add	s7,s7,s1
    800014d6:	409b0b33          	sub	s6,s6,s1
    800014da:	8f85                	sub	a5,a5,s1
    800014dc:	00fa3823          	sd	a5,16(s4)
    800014e0:	f7d9                	bnez	a5,8000146e <__sfvwrite_r+0x52>
    800014e2:	a091                	j	80001526 <__sfvwrite_r+0x10a>
    800014e4:	85a2                	mv	a1,s0
    800014e6:	854a                	mv	a0,s2
    800014e8:	2b4000ef          	jal	8000179c <__swsetup_r>
    800014ec:	d13d                	beqz	a0,80001452 <__sfvwrite_r+0x36>
    800014ee:	557d                	li	a0,-1
    800014f0:	a825                	j	80001528 <__sfvwrite_r+0x10c>
    800014f2:	0009ba83          	ld	s5,0(s3)
    800014f6:	0089b483          	ld	s1,8(s3)
    800014fa:	09c1                	addi	s3,s3,16
    800014fc:	643c                	ld	a5,72(s0)
    800014fe:	7c0c                	ld	a1,56(s0)
    80001500:	d8ed                	beqz	s1,800014f2 <__sfvwrite_r+0xd6>
    80001502:	86a6                	mv	a3,s1
    80001504:	009b7363          	bgeu	s6,s1,8000150a <__sfvwrite_r+0xee>
    80001508:	86da                	mv	a3,s6
    8000150a:	2681                	sext.w	a3,a3
    8000150c:	8656                	mv	a2,s5
    8000150e:	854a                	mv	a0,s2
    80001510:	9782                	jalr	a5
    80001512:	0aa05263          	blez	a0,800015b6 <__sfvwrite_r+0x19a>
    80001516:	010a3783          	ld	a5,16(s4)
    8000151a:	9aaa                	add	s5,s5,a0
    8000151c:	8c89                	sub	s1,s1,a0
    8000151e:	8f89                	sub	a5,a5,a0
    80001520:	00fa3823          	sd	a5,16(s4)
    80001524:	ffe1                	bnez	a5,800014fc <__sfvwrite_r+0xe0>
    80001526:	4501                	li	a0,0
    80001528:	70a6                	ld	ra,104(sp)
    8000152a:	7406                	ld	s0,96(sp)
    8000152c:	64e6                	ld	s1,88(sp)
    8000152e:	6946                	ld	s2,80(sp)
    80001530:	69a6                	ld	s3,72(sp)
    80001532:	6a06                	ld	s4,64(sp)
    80001534:	7ae2                	ld	s5,56(sp)
    80001536:	7b42                	ld	s6,48(sp)
    80001538:	7ba2                	ld	s7,40(sp)
    8000153a:	7c02                	ld	s8,32(sp)
    8000153c:	6ce2                	ld	s9,24(sp)
    8000153e:	6d42                	ld	s10,16(sp)
    80001540:	6da2                	ld	s11,8(sp)
    80001542:	6165                	addi	sp,sp,112
    80001544:	8082                	ret
    80001546:	80000b37          	lui	s6,0x80000
    8000154a:	4a81                	li	s5,0
    8000154c:	4481                	li	s1,0
    8000154e:	c00b4b13          	xori	s6,s6,-1024
    80001552:	b76d                	j	800014fc <__sfvwrite_r+0xe0>
    80001554:	0009ba83          	ld	s5,0(s3)
    80001558:	0089bc83          	ld	s9,8(s3)
    8000155c:	09c1                	addi	s3,s3,16
    8000155e:	4444                	lw	s1,12(s0)
    80001560:	01041783          	lh	a5,16(s0)
    80001564:	6008                	ld	a0,0(s0)
    80001566:	8d26                	mv	s10,s1
    80001568:	fe0c86e3          	beqz	s9,80001554 <__sfvwrite_r+0x138>
    8000156c:	2007f713          	andi	a4,a5,512
    80001570:	c37d                	beqz	a4,80001656 <__sfvwrite_r+0x23a>
    80001572:	089ce763          	bltu	s9,s1,80001600 <__sfvwrite_r+0x1e4>
    80001576:	4807f713          	andi	a4,a5,1152
    8000157a:	c359                	beqz	a4,80001600 <__sfvwrite_r+0x1e4>
    8000157c:	5004                	lw	s1,32(s0)
    8000157e:	6c0c                	ld	a1,24(s0)
    80001580:	029b84bb          	mulw	s1,s7,s1
    80001584:	8d0d                	sub	a0,a0,a1
    80001586:	00050d9b          	sext.w	s11,a0
    8000158a:	001d8713          	addi	a4,s11,1
    8000158e:	9766                	add	a4,a4,s9
    80001590:	0384c4bb          	divw	s1,s1,s8
    80001594:	00e4f563          	bgeu	s1,a4,8000159e <__sfvwrite_r+0x182>
    80001598:	2505                	addiw	a0,a0,1
    8000159a:	019504bb          	addw	s1,a0,s9
    8000159e:	4007f793          	andi	a5,a5,1024
    800015a2:	cbc9                	beqz	a5,80001634 <__sfvwrite_r+0x218>
    800015a4:	85a6                	mv	a1,s1
    800015a6:	854a                	mv	a0,s2
    800015a8:	cd6ff0ef          	jal	80000a7e <_malloc_r>
    800015ac:	8d2a                	mv	s10,a0
    800015ae:	e11d                	bnez	a0,800015d4 <__sfvwrite_r+0x1b8>
    800015b0:	47b1                	li	a5,12
    800015b2:	00f92023          	sw	a5,0(s2)
    800015b6:	01045783          	lhu	a5,16(s0)
    800015ba:	0407e793          	ori	a5,a5,64
    800015be:	00f41823          	sh	a5,16(s0)
    800015c2:	b735                	j	800014ee <__sfvwrite_r+0xd2>
    800015c4:	80000b37          	lui	s6,0x80000
    800015c8:	4c81                	li	s9,0
    800015ca:	fffb4b13          	not	s6,s6
    800015ce:	4b8d                	li	s7,3
    800015d0:	4c09                	li	s8,2
    800015d2:	b771                	j	8000155e <__sfvwrite_r+0x142>
    800015d4:	6c0c                	ld	a1,24(s0)
    800015d6:	866e                	mv	a2,s11
    800015d8:	2fa000ef          	jal	800018d2 <memcpy>
    800015dc:	01045783          	lhu	a5,16(s0)
    800015e0:	b7f7f793          	andi	a5,a5,-1153
    800015e4:	0807e793          	ori	a5,a5,128
    800015e8:	00f41823          	sh	a5,16(s0)
    800015ec:	01a43c23          	sd	s10,24(s0)
    800015f0:	d004                	sw	s1,32(s0)
    800015f2:	9d6e                	add	s10,s10,s11
    800015f4:	41b484bb          	subw	s1,s1,s11
    800015f8:	01a43023          	sd	s10,0(s0)
    800015fc:	c444                	sw	s1,12(s0)
    800015fe:	8d66                	mv	s10,s9
    80001600:	84e6                	mv	s1,s9
    80001602:	01acf363          	bgeu	s9,s10,80001608 <__sfvwrite_r+0x1ec>
    80001606:	8d66                	mv	s10,s9
    80001608:	6008                	ld	a0,0(s0)
    8000160a:	866a                	mv	a2,s10
    8000160c:	85d6                	mv	a1,s5
    8000160e:	29e000ef          	jal	800018ac <memmove>
    80001612:	445c                	lw	a5,12(s0)
    80001614:	41a787bb          	subw	a5,a5,s10
    80001618:	c45c                	sw	a5,12(s0)
    8000161a:	601c                	ld	a5,0(s0)
    8000161c:	97ea                	add	a5,a5,s10
    8000161e:	e01c                	sd	a5,0(s0)
    80001620:	010a3783          	ld	a5,16(s4)
    80001624:	9aa6                	add	s5,s5,s1
    80001626:	409c8cb3          	sub	s9,s9,s1
    8000162a:	8f85                	sub	a5,a5,s1
    8000162c:	00fa3823          	sd	a5,16(s4)
    80001630:	f79d                	bnez	a5,8000155e <__sfvwrite_r+0x142>
    80001632:	bdd5                	j	80001526 <__sfvwrite_r+0x10a>
    80001634:	8626                	mv	a2,s1
    80001636:	854a                	mv	a0,s2
    80001638:	2b0000ef          	jal	800018e8 <_realloc_r>
    8000163c:	8d2a                	mv	s10,a0
    8000163e:	f55d                	bnez	a0,800015ec <__sfvwrite_r+0x1d0>
    80001640:	6c0c                	ld	a1,24(s0)
    80001642:	854a                	mv	a0,s2
    80001644:	b40ff0ef          	jal	80000984 <_free_r>
    80001648:	01045783          	lhu	a5,16(s0)
    8000164c:	f7f7f793          	andi	a5,a5,-129
    80001650:	00f41823          	sh	a5,16(s0)
    80001654:	bfb1                	j	800015b0 <__sfvwrite_r+0x194>
    80001656:	6c1c                	ld	a5,24(s0)
    80001658:	00a7e563          	bltu	a5,a0,80001662 <__sfvwrite_r+0x246>
    8000165c:	5014                	lw	a3,32(s0)
    8000165e:	02dcf763          	bgeu	s9,a3,8000168c <__sfvwrite_r+0x270>
    80001662:	009cf363          	bgeu	s9,s1,80001668 <__sfvwrite_r+0x24c>
    80001666:	84e6                	mv	s1,s9
    80001668:	8626                	mv	a2,s1
    8000166a:	85d6                	mv	a1,s5
    8000166c:	240000ef          	jal	800018ac <memmove>
    80001670:	445c                	lw	a5,12(s0)
    80001672:	4097873b          	subw	a4,a5,s1
    80001676:	601c                	ld	a5,0(s0)
    80001678:	c458                	sw	a4,12(s0)
    8000167a:	97a6                	add	a5,a5,s1
    8000167c:	e01c                	sd	a5,0(s0)
    8000167e:	f34d                	bnez	a4,80001620 <__sfvwrite_r+0x204>
    80001680:	85a2                	mv	a1,s0
    80001682:	854a                	mv	a0,s2
    80001684:	d37ff0ef          	jal	800013ba <_fflush_r>
    80001688:	dd41                	beqz	a0,80001620 <__sfvwrite_r+0x204>
    8000168a:	b735                	j	800015b6 <__sfvwrite_r+0x19a>
    8000168c:	87e6                	mv	a5,s9
    8000168e:	019b7363          	bgeu	s6,s9,80001694 <__sfvwrite_r+0x278>
    80001692:	87da                	mv	a5,s6
    80001694:	02d7c7bb          	divw	a5,a5,a3
    80001698:	6438                	ld	a4,72(s0)
    8000169a:	7c0c                	ld	a1,56(s0)
    8000169c:	8656                	mv	a2,s5
    8000169e:	854a                	mv	a0,s2
    800016a0:	02d786bb          	mulw	a3,a5,a3
    800016a4:	9702                	jalr	a4
    800016a6:	84aa                	mv	s1,a0
    800016a8:	f6a04ce3          	bgtz	a0,80001620 <__sfvwrite_r+0x204>
    800016ac:	b729                	j	800015b6 <__sfvwrite_r+0x19a>
    800016ae:	0009bb83          	ld	s7,0(s3)
    800016b2:	0089bb03          	ld	s6,8(s3)
    800016b6:	4501                	li	a0,0
    800016b8:	09c1                	addi	s3,s3,16
    800016ba:	bb55                	j	8000146e <__sfvwrite_r+0x52>
    800016bc:	001b0a9b          	addiw	s5,s6,1 # ffffffff80000001 <__heap_end+0xfffffffefffdd001>
    800016c0:	b3e1                	j	80001488 <__sfvwrite_r+0x6c>
    800016c2:	00dc4b63          	blt	s8,a3,800016d8 <__sfvwrite_r+0x2bc>
    800016c6:	643c                	ld	a5,72(s0)
    800016c8:	7c0c                	ld	a1,56(s0)
    800016ca:	865e                	mv	a2,s7
    800016cc:	854a                	mv	a0,s2
    800016ce:	9782                	jalr	a5
    800016d0:	84aa                	mv	s1,a0
    800016d2:	dea045e3          	bgtz	a0,800014bc <__sfvwrite_r+0xa0>
    800016d6:	b5c5                	j	800015b6 <__sfvwrite_r+0x19a>
    800016d8:	8662                	mv	a2,s8
    800016da:	85de                	mv	a1,s7
    800016dc:	1d0000ef          	jal	800018ac <memmove>
    800016e0:	445c                	lw	a5,12(s0)
    800016e2:	84e2                	mv	s1,s8
    800016e4:	418787bb          	subw	a5,a5,s8
    800016e8:	c45c                	sw	a5,12(s0)
    800016ea:	601c                	ld	a5,0(s0)
    800016ec:	97e2                	add	a5,a5,s8
    800016ee:	e01c                	sd	a5,0(s0)
    800016f0:	b3f1                	j	800014bc <__sfvwrite_r+0xa0>

00000000800016f2 <__swbuf_r>:
    800016f2:	7179                	addi	sp,sp,-48
    800016f4:	f022                	sd	s0,32(sp)
    800016f6:	ec26                	sd	s1,24(sp)
    800016f8:	e84a                	sd	s2,16(sp)
    800016fa:	f406                	sd	ra,40(sp)
    800016fc:	e44e                	sd	s3,8(sp)
    800016fe:	892a                	mv	s2,a0
    80001700:	84ae                	mv	s1,a1
    80001702:	8432                	mv	s0,a2
    80001704:	c509                	beqz	a0,8000170e <__swbuf_r+0x1c>
    80001706:	613c                	ld	a5,64(a0)
    80001708:	e399                	bnez	a5,8000170e <__swbuf_r+0x1c>
    8000170a:	f2dfe0ef          	jal	80000636 <__sinit>
    8000170e:	541c                	lw	a5,40(s0)
    80001710:	c45c                	sw	a5,12(s0)
    80001712:	01045783          	lhu	a5,16(s0)
    80001716:	8ba1                	andi	a5,a5,8
    80001718:	c399                	beqz	a5,8000171e <__swbuf_r+0x2c>
    8000171a:	6c1c                	ld	a5,24(s0)
    8000171c:	ef99                	bnez	a5,8000173a <__swbuf_r+0x48>
    8000171e:	85a2                	mv	a1,s0
    80001720:	854a                	mv	a0,s2
    80001722:	07a000ef          	jal	8000179c <__swsetup_r>
    80001726:	c911                	beqz	a0,8000173a <__swbuf_r+0x48>
    80001728:	54fd                	li	s1,-1
    8000172a:	70a2                	ld	ra,40(sp)
    8000172c:	7402                	ld	s0,32(sp)
    8000172e:	6942                	ld	s2,16(sp)
    80001730:	69a2                	ld	s3,8(sp)
    80001732:	8526                	mv	a0,s1
    80001734:	64e2                	ld	s1,24(sp)
    80001736:	6145                	addi	sp,sp,48
    80001738:	8082                	ret
    8000173a:	601c                	ld	a5,0(s0)
    8000173c:	6c18                	ld	a4,24(s0)
    8000173e:	0ff4f993          	zext.b	s3,s1
    80001742:	84ce                	mv	s1,s3
    80001744:	40e7853b          	subw	a0,a5,a4
    80001748:	501c                	lw	a5,32(s0)
    8000174a:	00f54763          	blt	a0,a5,80001758 <__swbuf_r+0x66>
    8000174e:	85a2                	mv	a1,s0
    80001750:	854a                	mv	a0,s2
    80001752:	c69ff0ef          	jal	800013ba <_fflush_r>
    80001756:	f969                	bnez	a0,80001728 <__swbuf_r+0x36>
    80001758:	445c                	lw	a5,12(s0)
    8000175a:	37fd                	addiw	a5,a5,-1
    8000175c:	c45c                	sw	a5,12(s0)
    8000175e:	601c                	ld	a5,0(s0)
    80001760:	00178713          	addi	a4,a5,1
    80001764:	e018                	sd	a4,0(s0)
    80001766:	01378023          	sb	s3,0(a5)
    8000176a:	5018                	lw	a4,32(s0)
    8000176c:	0015079b          	addiw	a5,a0,1
    80001770:	00f70963          	beq	a4,a5,80001782 <__swbuf_r+0x90>
    80001774:	01045783          	lhu	a5,16(s0)
    80001778:	8b85                	andi	a5,a5,1
    8000177a:	dbc5                	beqz	a5,8000172a <__swbuf_r+0x38>
    8000177c:	47a9                	li	a5,10
    8000177e:	faf496e3          	bne	s1,a5,8000172a <__swbuf_r+0x38>
    80001782:	85a2                	mv	a1,s0
    80001784:	854a                	mv	a0,s2
    80001786:	c35ff0ef          	jal	800013ba <_fflush_r>
    8000178a:	d145                	beqz	a0,8000172a <__swbuf_r+0x38>
    8000178c:	bf71                	j	80001728 <__swbuf_r+0x36>

000000008000178e <__swbuf>:
    8000178e:	862e                	mv	a2,a1
    80001790:	85aa                	mv	a1,a0
    80001792:	00001517          	auipc	a0,0x1
    80001796:	8e653503          	ld	a0,-1818(a0) # 80002078 <_impure_ptr>
    8000179a:	bfa1                	j	800016f2 <__swbuf_r>

000000008000179c <__swsetup_r>:
    8000179c:	1101                	addi	sp,sp,-32
    8000179e:	e822                	sd	s0,16(sp)
    800017a0:	e426                	sd	s1,8(sp)
    800017a2:	ec06                	sd	ra,24(sp)
    800017a4:	84aa                	mv	s1,a0
    800017a6:	00001517          	auipc	a0,0x1
    800017aa:	8d253503          	ld	a0,-1838(a0) # 80002078 <_impure_ptr>
    800017ae:	842e                	mv	s0,a1
    800017b0:	c509                	beqz	a0,800017ba <__swsetup_r+0x1e>
    800017b2:	613c                	ld	a5,64(a0)
    800017b4:	e399                	bnez	a5,800017ba <__swsetup_r+0x1e>
    800017b6:	e81fe0ef          	jal	80000636 <__sinit>
    800017ba:	01041783          	lh	a5,16(s0)
    800017be:	0087f713          	andi	a4,a5,8
    800017c2:	eb29                	bnez	a4,80001814 <__swsetup_r+0x78>
    800017c4:	0107f713          	andi	a4,a5,16
    800017c8:	eb09                	bnez	a4,800017da <__swsetup_r+0x3e>
    800017ca:	4725                	li	a4,9
    800017cc:	c098                	sw	a4,0(s1)
    800017ce:	0407e793          	ori	a5,a5,64
    800017d2:	00f41823          	sh	a5,16(s0)
    800017d6:	557d                	li	a0,-1
    800017d8:	a8ad                	j	80001852 <__swsetup_r+0xb6>
    800017da:	8b91                	andi	a5,a5,4
    800017dc:	c795                	beqz	a5,80001808 <__swsetup_r+0x6c>
    800017de:	702c                	ld	a1,96(s0)
    800017e0:	c991                	beqz	a1,800017f4 <__swsetup_r+0x58>
    800017e2:	07c40793          	addi	a5,s0,124
    800017e6:	00f58563          	beq	a1,a5,800017f0 <__swsetup_r+0x54>
    800017ea:	8526                	mv	a0,s1
    800017ec:	998ff0ef          	jal	80000984 <_free_r>
    800017f0:	06043023          	sd	zero,96(s0)
    800017f4:	01045783          	lhu	a5,16(s0)
    800017f8:	00042423          	sw	zero,8(s0)
    800017fc:	fdb7f793          	andi	a5,a5,-37
    80001800:	00f41823          	sh	a5,16(s0)
    80001804:	6c1c                	ld	a5,24(s0)
    80001806:	e01c                	sd	a5,0(s0)
    80001808:	01045783          	lhu	a5,16(s0)
    8000180c:	0087e793          	ori	a5,a5,8
    80001810:	00f41823          	sh	a5,16(s0)
    80001814:	6c1c                	ld	a5,24(s0)
    80001816:	ef89                	bnez	a5,80001830 <__swsetup_r+0x94>
    80001818:	01045783          	lhu	a5,16(s0)
    8000181c:	20000713          	li	a4,512
    80001820:	2807f793          	andi	a5,a5,640
    80001824:	00e78663          	beq	a5,a4,80001830 <__swsetup_r+0x94>
    80001828:	85a2                	mv	a1,s0
    8000182a:	8526                	mv	a0,s1
    8000182c:	198000ef          	jal	800019c4 <__smakebuf_r>
    80001830:	01041783          	lh	a5,16(s0)
    80001834:	0017f713          	andi	a4,a5,1
    80001838:	c315                	beqz	a4,8000185c <__swsetup_r+0xc0>
    8000183a:	5018                	lw	a4,32(s0)
    8000183c:	00042623          	sw	zero,12(s0)
    80001840:	40e0073b          	negw	a4,a4
    80001844:	d418                	sw	a4,40(s0)
    80001846:	6c18                	ld	a4,24(s0)
    80001848:	4501                	li	a0,0
    8000184a:	e701                	bnez	a4,80001852 <__swsetup_r+0xb6>
    8000184c:	0807f713          	andi	a4,a5,128
    80001850:	ff3d                	bnez	a4,800017ce <__swsetup_r+0x32>
    80001852:	60e2                	ld	ra,24(sp)
    80001854:	6442                	ld	s0,16(sp)
    80001856:	64a2                	ld	s1,8(sp)
    80001858:	6105                	addi	sp,sp,32
    8000185a:	8082                	ret
    8000185c:	0027f713          	andi	a4,a5,2
    80001860:	4681                	li	a3,0
    80001862:	e311                	bnez	a4,80001866 <__swsetup_r+0xca>
    80001864:	5014                	lw	a3,32(s0)
    80001866:	c454                	sw	a3,12(s0)
    80001868:	bff9                	j	80001846 <__swsetup_r+0xaa>

000000008000186a <memchr>:
    8000186a:	0ff5f593          	zext.b	a1,a1
    8000186e:	962a                	add	a2,a2,a0
    80001870:	00c51463          	bne	a0,a2,80001878 <memchr+0xe>
    80001874:	4501                	li	a0,0
    80001876:	8082                	ret
    80001878:	00054783          	lbu	a5,0(a0)
    8000187c:	feb78de3          	beq	a5,a1,80001876 <memchr+0xc>
    80001880:	0505                	addi	a0,a0,1
    80001882:	b7fd                	j	80001870 <memchr+0x6>

0000000080001884 <_sbrk_r>:
    80001884:	1141                	addi	sp,sp,-16
    80001886:	e022                	sd	s0,0(sp)
    80001888:	842a                	mv	s0,a0
    8000188a:	852e                	mv	a0,a1
    8000188c:	8201a423          	sw	zero,-2008(gp) # 800020a0 <errno>
    80001890:	e406                	sd	ra,8(sp)
    80001892:	2b6000ef          	jal	80001b48 <_sbrk>
    80001896:	57fd                	li	a5,-1
    80001898:	00f51663          	bne	a0,a5,800018a4 <_sbrk_r+0x20>
    8000189c:	8281a783          	lw	a5,-2008(gp) # 800020a0 <errno>
    800018a0:	c391                	beqz	a5,800018a4 <_sbrk_r+0x20>
    800018a2:	c01c                	sw	a5,0(s0)
    800018a4:	60a2                	ld	ra,8(sp)
    800018a6:	6402                	ld	s0,0(sp)
    800018a8:	0141                	addi	sp,sp,16
    800018aa:	8082                	ret

00000000800018ac <memmove>:
    800018ac:	c215                	beqz	a2,800018d0 <memmove+0x24>
    800018ae:	832a                	mv	t1,a0
    800018b0:	4685                	li	a3,1
    800018b2:	00b56763          	bltu	a0,a1,800018c0 <memmove+0x14>
    800018b6:	56fd                	li	a3,-1
    800018b8:	fff60713          	addi	a4,a2,-1
    800018bc:	933a                	add	t1,t1,a4
    800018be:	95ba                	add	a1,a1,a4
    800018c0:	00058383          	lb	t2,0(a1)
    800018c4:	00730023          	sb	t2,0(t1)
    800018c8:	167d                	addi	a2,a2,-1
    800018ca:	9336                	add	t1,t1,a3
    800018cc:	95b6                	add	a1,a1,a3
    800018ce:	fa6d                	bnez	a2,800018c0 <memmove+0x14>
    800018d0:	8082                	ret

00000000800018d2 <memcpy>:
    800018d2:	832a                	mv	t1,a0
    800018d4:	ca09                	beqz	a2,800018e6 <memcpy+0x14>
    800018d6:	00058383          	lb	t2,0(a1)
    800018da:	00730023          	sb	t2,0(t1)
    800018de:	167d                	addi	a2,a2,-1
    800018e0:	0305                	addi	t1,t1,1
    800018e2:	0585                	addi	a1,a1,1
    800018e4:	fa6d                	bnez	a2,800018d6 <memcpy+0x4>
    800018e6:	8082                	ret

00000000800018e8 <_realloc_r>:
    800018e8:	7179                	addi	sp,sp,-48
    800018ea:	f022                	sd	s0,32(sp)
    800018ec:	f406                	sd	ra,40(sp)
    800018ee:	ec26                	sd	s1,24(sp)
    800018f0:	e84a                	sd	s2,16(sp)
    800018f2:	e44e                	sd	s3,8(sp)
    800018f4:	e052                	sd	s4,0(sp)
    800018f6:	8432                	mv	s0,a2
    800018f8:	e999                	bnez	a1,8000190e <_realloc_r+0x26>
    800018fa:	7402                	ld	s0,32(sp)
    800018fc:	70a2                	ld	ra,40(sp)
    800018fe:	64e2                	ld	s1,24(sp)
    80001900:	6942                	ld	s2,16(sp)
    80001902:	69a2                	ld	s3,8(sp)
    80001904:	6a02                	ld	s4,0(sp)
    80001906:	85b2                	mv	a1,a2
    80001908:	6145                	addi	sp,sp,48
    8000190a:	974ff06f          	j	80000a7e <_malloc_r>
    8000190e:	ee09                	bnez	a2,80001928 <_realloc_r+0x40>
    80001910:	874ff0ef          	jal	80000984 <_free_r>
    80001914:	4481                	li	s1,0
    80001916:	70a2                	ld	ra,40(sp)
    80001918:	7402                	ld	s0,32(sp)
    8000191a:	6942                	ld	s2,16(sp)
    8000191c:	69a2                	ld	s3,8(sp)
    8000191e:	6a02                	ld	s4,0(sp)
    80001920:	8526                	mv	a0,s1
    80001922:	64e2                	ld	s1,24(sp)
    80001924:	6145                	addi	sp,sp,48
    80001926:	8082                	ret
    80001928:	8a2a                	mv	s4,a0
    8000192a:	84ae                	mv	s1,a1
    8000192c:	188000ef          	jal	80001ab4 <_malloc_usable_size_r>
    80001930:	892a                	mv	s2,a0
    80001932:	00856663          	bltu	a0,s0,8000193e <_realloc_r+0x56>
    80001936:	00155793          	srli	a5,a0,0x1
    8000193a:	fc87eee3          	bltu	a5,s0,80001916 <_realloc_r+0x2e>
    8000193e:	85a2                	mv	a1,s0
    80001940:	8552                	mv	a0,s4
    80001942:	93cff0ef          	jal	80000a7e <_malloc_r>
    80001946:	89aa                	mv	s3,a0
    80001948:	e119                	bnez	a0,8000194e <_realloc_r+0x66>
    8000194a:	84ce                	mv	s1,s3
    8000194c:	b7e9                	j	80001916 <_realloc_r+0x2e>
    8000194e:	8622                	mv	a2,s0
    80001950:	00897363          	bgeu	s2,s0,80001956 <_realloc_r+0x6e>
    80001954:	864a                	mv	a2,s2
    80001956:	85a6                	mv	a1,s1
    80001958:	854e                	mv	a0,s3
    8000195a:	f79ff0ef          	jal	800018d2 <memcpy>
    8000195e:	85a6                	mv	a1,s1
    80001960:	8552                	mv	a0,s4
    80001962:	822ff0ef          	jal	80000984 <_free_r>
    80001966:	b7d5                	j	8000194a <_realloc_r+0x62>

0000000080001968 <__swhatbuf_r>:
    80001968:	7175                	addi	sp,sp,-144
    8000196a:	e122                	sd	s0,128(sp)
    8000196c:	842e                	mv	s0,a1
    8000196e:	01259583          	lh	a1,18(a1)
    80001972:	fca6                	sd	s1,120(sp)
    80001974:	f8ca                	sd	s2,112(sp)
    80001976:	e506                	sd	ra,136(sp)
    80001978:	84b2                	mv	s1,a2
    8000197a:	8936                	mv	s2,a3
    8000197c:	0205d363          	bgez	a1,800019a2 <__swhatbuf_r+0x3a>
    80001980:	01045783          	lhu	a5,16(s0)
    80001984:	0807f793          	andi	a5,a5,128
    80001988:	eb95                	bnez	a5,800019bc <__swhatbuf_r+0x54>
    8000198a:	40000713          	li	a4,1024
    8000198e:	60aa                	ld	ra,136(sp)
    80001990:	640a                	ld	s0,128(sp)
    80001992:	00f92023          	sw	a5,0(s2)
    80001996:	e098                	sd	a4,0(s1)
    80001998:	7946                	ld	s2,112(sp)
    8000199a:	74e6                	ld	s1,120(sp)
    8000199c:	4501                	li	a0,0
    8000199e:	6149                	addi	sp,sp,144
    800019a0:	8082                	ret
    800019a2:	0030                	addi	a2,sp,8
    800019a4:	0be000ef          	jal	80001a62 <_fstat_r>
    800019a8:	fc054ce3          	bltz	a0,80001980 <__swhatbuf_r+0x18>
    800019ac:	47b2                	lw	a5,12(sp)
    800019ae:	673d                	lui	a4,0xf
    800019b0:	8ff9                	and	a5,a5,a4
    800019b2:	6709                	lui	a4,0x2
    800019b4:	8f99                	sub	a5,a5,a4
    800019b6:	0017b793          	seqz	a5,a5
    800019ba:	bfc1                	j	8000198a <__swhatbuf_r+0x22>
    800019bc:	4781                	li	a5,0
    800019be:	04000713          	li	a4,64
    800019c2:	b7f1                	j	8000198e <__swhatbuf_r+0x26>

00000000800019c4 <__smakebuf_r>:
    800019c4:	0105d783          	lhu	a5,16(a1)
    800019c8:	7139                	addi	sp,sp,-64
    800019ca:	f822                	sd	s0,48(sp)
    800019cc:	fc06                	sd	ra,56(sp)
    800019ce:	f426                	sd	s1,40(sp)
    800019d0:	f04a                	sd	s2,32(sp)
    800019d2:	ec4e                	sd	s3,24(sp)
    800019d4:	8b89                	andi	a5,a5,2
    800019d6:	842e                	mv	s0,a1
    800019d8:	cf91                	beqz	a5,800019f4 <__smakebuf_r+0x30>
    800019da:	07f40793          	addi	a5,s0,127
    800019de:	e01c                	sd	a5,0(s0)
    800019e0:	ec1c                	sd	a5,24(s0)
    800019e2:	4785                	li	a5,1
    800019e4:	d01c                	sw	a5,32(s0)
    800019e6:	70e2                	ld	ra,56(sp)
    800019e8:	7442                	ld	s0,48(sp)
    800019ea:	74a2                	ld	s1,40(sp)
    800019ec:	7902                	ld	s2,32(sp)
    800019ee:	69e2                	ld	s3,24(sp)
    800019f0:	6121                	addi	sp,sp,64
    800019f2:	8082                	ret
    800019f4:	0054                	addi	a3,sp,4
    800019f6:	0030                	addi	a2,sp,8
    800019f8:	84aa                	mv	s1,a0
    800019fa:	f6fff0ef          	jal	80001968 <__swhatbuf_r>
    800019fe:	69a2                	ld	s3,8(sp)
    80001a00:	892a                	mv	s2,a0
    80001a02:	8526                	mv	a0,s1
    80001a04:	85ce                	mv	a1,s3
    80001a06:	878ff0ef          	jal	80000a7e <_malloc_r>
    80001a0a:	ed01                	bnez	a0,80001a22 <__smakebuf_r+0x5e>
    80001a0c:	01041783          	lh	a5,16(s0)
    80001a10:	2007f713          	andi	a4,a5,512
    80001a14:	fb69                	bnez	a4,800019e6 <__smakebuf_r+0x22>
    80001a16:	9bf1                	andi	a5,a5,-4
    80001a18:	0027e793          	ori	a5,a5,2
    80001a1c:	00f41823          	sh	a5,16(s0)
    80001a20:	bf6d                	j	800019da <__smakebuf_r+0x16>
    80001a22:	01045783          	lhu	a5,16(s0)
    80001a26:	e008                	sd	a0,0(s0)
    80001a28:	ec08                	sd	a0,24(s0)
    80001a2a:	0807e793          	ori	a5,a5,128
    80001a2e:	00f41823          	sh	a5,16(s0)
    80001a32:	4792                	lw	a5,4(sp)
    80001a34:	03342023          	sw	s3,32(s0)
    80001a38:	cf91                	beqz	a5,80001a54 <__smakebuf_r+0x90>
    80001a3a:	01241583          	lh	a1,18(s0)
    80001a3e:	8526                	mv	a0,s1
    80001a40:	04c000ef          	jal	80001a8c <_isatty_r>
    80001a44:	c901                	beqz	a0,80001a54 <__smakebuf_r+0x90>
    80001a46:	01045783          	lhu	a5,16(s0)
    80001a4a:	9bf1                	andi	a5,a5,-4
    80001a4c:	0017e793          	ori	a5,a5,1
    80001a50:	00f41823          	sh	a5,16(s0)
    80001a54:	01045783          	lhu	a5,16(s0)
    80001a58:	0127e533          	or	a0,a5,s2
    80001a5c:	00a41823          	sh	a0,16(s0)
    80001a60:	b759                	j	800019e6 <__smakebuf_r+0x22>

0000000080001a62 <_fstat_r>:
    80001a62:	1141                	addi	sp,sp,-16
    80001a64:	e022                	sd	s0,0(sp)
    80001a66:	842a                	mv	s0,a0
    80001a68:	852e                	mv	a0,a1
    80001a6a:	85b2                	mv	a1,a2
    80001a6c:	8201a423          	sw	zero,-2008(gp) # 800020a0 <errno>
    80001a70:	e406                	sd	ra,8(sp)
    80001a72:	090000ef          	jal	80001b02 <_fstat>
    80001a76:	57fd                	li	a5,-1
    80001a78:	00f51663          	bne	a0,a5,80001a84 <_fstat_r+0x22>
    80001a7c:	8281a783          	lw	a5,-2008(gp) # 800020a0 <errno>
    80001a80:	c391                	beqz	a5,80001a84 <_fstat_r+0x22>
    80001a82:	c01c                	sw	a5,0(s0)
    80001a84:	60a2                	ld	ra,8(sp)
    80001a86:	6402                	ld	s0,0(sp)
    80001a88:	0141                	addi	sp,sp,16
    80001a8a:	8082                	ret

0000000080001a8c <_isatty_r>:
    80001a8c:	1141                	addi	sp,sp,-16
    80001a8e:	e022                	sd	s0,0(sp)
    80001a90:	842a                	mv	s0,a0
    80001a92:	852e                	mv	a0,a1
    80001a94:	8201a423          	sw	zero,-2008(gp) # 800020a0 <errno>
    80001a98:	e406                	sd	ra,8(sp)
    80001a9a:	07c000ef          	jal	80001b16 <_isatty>
    80001a9e:	57fd                	li	a5,-1
    80001aa0:	00f51663          	bne	a0,a5,80001aac <_isatty_r+0x20>
    80001aa4:	8281a783          	lw	a5,-2008(gp) # 800020a0 <errno>
    80001aa8:	c391                	beqz	a5,80001aac <_isatty_r+0x20>
    80001aaa:	c01c                	sw	a5,0(s0)
    80001aac:	60a2                	ld	ra,8(sp)
    80001aae:	6402                	ld	s0,0(sp)
    80001ab0:	0141                	addi	sp,sp,16
    80001ab2:	8082                	ret

0000000080001ab4 <_malloc_usable_size_r>:
    80001ab4:	ff85b503          	ld	a0,-8(a1)
    80001ab8:	0005079b          	sext.w	a5,a0
    80001abc:	1561                	addi	a0,a0,-8
    80001abe:	0007d663          	bgez	a5,80001aca <_malloc_usable_size_r+0x16>
    80001ac2:	95aa                	add	a1,a1,a0
    80001ac4:	6188                	ld	a0,0(a1)
    80001ac6:	17e1                	addi	a5,a5,-8
    80001ac8:	953e                	add	a0,a0,a5
    80001aca:	8082                	ret

0000000080001acc <_close>:
    80001acc:	1141                	addi	sp,sp,-16
    80001ace:	e406                	sd	ra,8(sp)
    80001ad0:	15c000ef          	jal	80001c2c <__errno>
    80001ad4:	60a2                	ld	ra,8(sp)
    80001ad6:	47a5                	li	a5,9
    80001ad8:	c11c                	sw	a5,0(a0)
    80001ada:	557d                	li	a0,-1
    80001adc:	0141                	addi	sp,sp,16
    80001ade:	8082                	ret

0000000080001ae0 <_exit>:
    80001ae0:	0015179b          	slliw	a5,a0,0x1
    80001ae4:	0017e793          	ori	a5,a5,1
    80001ae8:	2781                	sext.w	a5,a5
    80001aea:	07c2                	slli	a5,a5,0x10
    80001aec:	83c1                	srli	a5,a5,0x10
    80001aee:	00000717          	auipc	a4,0x0
    80001af2:	4d270713          	addi	a4,a4,1234 # 80001fc0 <tohost>
    80001af6:	00000697          	auipc	a3,0x0
    80001afa:	4c06b923          	sd	zero,1234(a3) # 80001fc8 <fromhost>
    80001afe:	e31c                	sd	a5,0(a4)
    80001b00:	bfdd                	j	80001af6 <_exit+0x16>

0000000080001b02 <_fstat>:
    80001b02:	1141                	addi	sp,sp,-16
    80001b04:	e406                	sd	ra,8(sp)
    80001b06:	126000ef          	jal	80001c2c <__errno>
    80001b0a:	60a2                	ld	ra,8(sp)
    80001b0c:	47a5                	li	a5,9
    80001b0e:	c11c                	sw	a5,0(a0)
    80001b10:	557d                	li	a0,-1
    80001b12:	0141                	addi	sp,sp,16
    80001b14:	8082                	ret

0000000080001b16 <_isatty>:
    80001b16:	357d                	addiw	a0,a0,-1
    80001b18:	00253513          	sltiu	a0,a0,2
    80001b1c:	8082                	ret

0000000080001b1e <_lseek>:
    80001b1e:	1141                	addi	sp,sp,-16
    80001b20:	e406                	sd	ra,8(sp)
    80001b22:	10a000ef          	jal	80001c2c <__errno>
    80001b26:	60a2                	ld	ra,8(sp)
    80001b28:	47a5                	li	a5,9
    80001b2a:	c11c                	sw	a5,0(a0)
    80001b2c:	557d                	li	a0,-1
    80001b2e:	0141                	addi	sp,sp,16
    80001b30:	8082                	ret

0000000080001b32 <_read>:
    80001b32:	1141                	addi	sp,sp,-16
    80001b34:	e406                	sd	ra,8(sp)
    80001b36:	0f6000ef          	jal	80001c2c <__errno>
    80001b3a:	60a2                	ld	ra,8(sp)
    80001b3c:	05800793          	li	a5,88
    80001b40:	c11c                	sw	a5,0(a0)
    80001b42:	557d                	li	a0,-1
    80001b44:	0141                	addi	sp,sp,16
    80001b46:	8082                	ret

0000000080001b48 <_sbrk>:
    80001b48:	00000717          	auipc	a4,0x0
    80001b4c:	53870713          	addi	a4,a4,1336 # 80002080 <curbrk>
    80001b50:	631c                	ld	a5,0(a4)
    80001b52:	d8818693          	addi	a3,gp,-632 # 80002600 <_end>
    80001b56:	953e                	add	a0,a0,a5
    80001b58:	00d56b63          	bltu	a0,a3,80001b6e <_sbrk+0x26>
    80001b5c:	00021697          	auipc	a3,0x21
    80001b60:	4a468693          	addi	a3,a3,1188 # 80023000 <__heap_end>
    80001b64:	00d57563          	bgeu	a0,a3,80001b6e <_sbrk+0x26>
    80001b68:	e308                	sd	a0,0(a4)
    80001b6a:	853e                	mv	a0,a5
    80001b6c:	8082                	ret
    80001b6e:	1141                	addi	sp,sp,-16
    80001b70:	e406                	sd	ra,8(sp)
    80001b72:	0ba000ef          	jal	80001c2c <__errno>
    80001b76:	60a2                	ld	ra,8(sp)
    80001b78:	47b1                	li	a5,12
    80001b7a:	c11c                	sw	a5,0(a0)
    80001b7c:	57fd                	li	a5,-1
    80001b7e:	853e                	mv	a0,a5
    80001b80:	0141                	addi	sp,sp,16
    80001b82:	8082                	ret

0000000080001b84 <_write>:
    80001b84:	04000693          	li	a3,64
    80001b88:	a0b9                	j	80001bd6 <htif_syscall>

0000000080001b8a <handle_trap>:
    80001b8a:	1141                	addi	sp,sp,-16
    80001b8c:	02159513          	slli	a0,a1,0x21
    80001b90:	e406                	sd	ra,8(sp)
    80001b92:	9105                	srli	a0,a0,0x21
    80001b94:	0005d463          	bgez	a1,80001b9c <handle_trap+0x12>
    80001b98:	40a0053b          	negw	a0,a0
    80001b9c:	f45ff0ef          	jal	80001ae0 <_exit>

0000000080001ba0 <__init_tls>:
    80001ba0:	1141                	addi	sp,sp,-16
    80001ba2:	00000613          	li	a2,0
    80001ba6:	00000597          	auipc	a1,0x0
    80001baa:	26258593          	addi	a1,a1,610 # 80001e08 <__tbss_end>
    80001bae:	8512                	mv	a0,tp
    80001bb0:	e022                	sd	s0,0(sp)
    80001bb2:	e406                	sd	ra,8(sp)
    80001bb4:	8412                	mv	s0,tp
    80001bb6:	d1dff0ef          	jal	800018d2 <memcpy>
    80001bba:	00000513          	li	a0,0
    80001bbe:	9522                	add	a0,a0,s0
    80001bc0:	6402                	ld	s0,0(sp)
    80001bc2:	60a2                	ld	ra,8(sp)
    80001bc4:	00000613          	li	a2,0
    80001bc8:	4581                	li	a1,0
    80001bca:	0141                	addi	sp,sp,16
    80001bcc:	da9fe06f          	j	80000974 <memset>

0000000080001bd0 <__main>:
    80001bd0:	10500073          	wfi
    80001bd4:	bff5                	j	80001bd0 <__main>

0000000080001bd6 <htif_syscall>:
    80001bd6:	7139                	addi	sp,sp,-64
    80001bd8:	e036                	sd	a3,0(sp)
    80001bda:	e42a                	sd	a0,8(sp)
    80001bdc:	fff007b7          	lui	a5,0xfff00
    80001be0:	e82e                	sd	a1,16(sp)
    80001be2:	83c1                	srli	a5,a5,0x10
    80001be4:	ec32                	sd	a2,24(sp)
    80001be6:	860a                	mv	a2,sp
    80001be8:	8e7d                	and	a2,a2,a5
    80001bea:	84018713          	addi	a4,gp,-1984 # 800020b8 <htif_lock>
    80001bee:	56fd                	li	a3,-1
    80001bf0:	431c                	lw	a5,0(a4)
    80001bf2:	fffd                	bnez	a5,80001bf0 <htif_syscall+0x1a>
    80001bf4:	0cd727af          	amoswap.w.aq	a5,a3,(a4)
    80001bf8:	ffe5                	bnez	a5,80001bf0 <htif_syscall+0x1a>
    80001bfa:	0110000f          	fence	w,w
    80001bfe:	00000697          	auipc	a3,0x0
    80001c02:	3c268693          	addi	a3,a3,962 # 80001fc0 <tohost>
    80001c06:	e290                	sd	a2,0(a3)
    80001c08:	669c                	ld	a5,8(a3)
    80001c0a:	dffd                	beqz	a5,80001c08 <htif_syscall+0x32>
    80001c0c:	00000797          	auipc	a5,0x0
    80001c10:	3a07be23          	sd	zero,956(a5) # 80001fc8 <fromhost>
    80001c14:	0a07202f          	amoswap.w.rl	zero,zero,(a4)
    80001c18:	0220000f          	fence	r,r
    80001c1c:	6502                	ld	a0,0(sp)
    80001c1e:	6121                	addi	sp,sp,64
    80001c20:	8082                	ret

0000000080001c22 <atexit>:
    80001c22:	85aa                	mv	a1,a0
    80001c24:	4681                	li	a3,0
    80001c26:	4601                	li	a2,0
    80001c28:	4501                	li	a0,0
    80001c2a:	a045                	j	80001cca <__register_exitproc>

0000000080001c2c <__errno>:
    80001c2c:	00000517          	auipc	a0,0x0
    80001c30:	44c53503          	ld	a0,1100(a0) # 80002078 <_impure_ptr>
    80001c34:	8082                	ret

0000000080001c36 <__libc_init_array>:
    80001c36:	1101                	addi	sp,sp,-32
    80001c38:	e822                	sd	s0,16(sp)
    80001c3a:	e426                	sd	s1,8(sp)
    80001c3c:	00000417          	auipc	s0,0x0
    80001c40:	36c40413          	addi	s0,s0,876 # 80001fa8 <__fini_array_end>
    80001c44:	00000497          	auipc	s1,0x0
    80001c48:	36448493          	addi	s1,s1,868 # 80001fa8 <__fini_array_end>
    80001c4c:	8c81                	sub	s1,s1,s0
    80001c4e:	e04a                	sd	s2,0(sp)
    80001c50:	ec06                	sd	ra,24(sp)
    80001c52:	848d                	srai	s1,s1,0x3
    80001c54:	4901                	li	s2,0
    80001c56:	02991563          	bne	s2,s1,80001c80 <__libc_init_array+0x4a>
    80001c5a:	00000417          	auipc	s0,0x0
    80001c5e:	34e40413          	addi	s0,s0,846 # 80001fa8 <__fini_array_end>
    80001c62:	00000497          	auipc	s1,0x0
    80001c66:	34648493          	addi	s1,s1,838 # 80001fa8 <__fini_array_end>
    80001c6a:	8c81                	sub	s1,s1,s0
    80001c6c:	848d                	srai	s1,s1,0x3
    80001c6e:	4901                	li	s2,0
    80001c70:	00991d63          	bne	s2,s1,80001c8a <__libc_init_array+0x54>
    80001c74:	60e2                	ld	ra,24(sp)
    80001c76:	6442                	ld	s0,16(sp)
    80001c78:	64a2                	ld	s1,8(sp)
    80001c7a:	6902                	ld	s2,0(sp)
    80001c7c:	6105                	addi	sp,sp,32
    80001c7e:	8082                	ret
    80001c80:	601c                	ld	a5,0(s0)
    80001c82:	0905                	addi	s2,s2,1
    80001c84:	0421                	addi	s0,s0,8
    80001c86:	9782                	jalr	a5
    80001c88:	b7f9                	j	80001c56 <__libc_init_array+0x20>
    80001c8a:	601c                	ld	a5,0(s0)
    80001c8c:	0905                	addi	s2,s2,1
    80001c8e:	0421                	addi	s0,s0,8
    80001c90:	9782                	jalr	a5
    80001c92:	bff9                	j	80001c70 <__libc_init_array+0x3a>

0000000080001c94 <__libc_fini_array>:
    80001c94:	1101                	addi	sp,sp,-32
    80001c96:	e822                	sd	s0,16(sp)
    80001c98:	e426                	sd	s1,8(sp)
    80001c9a:	00000417          	auipc	s0,0x0
    80001c9e:	30e40413          	addi	s0,s0,782 # 80001fa8 <__fini_array_end>
    80001ca2:	00000497          	auipc	s1,0x0
    80001ca6:	30648493          	addi	s1,s1,774 # 80001fa8 <__fini_array_end>
    80001caa:	8c05                	sub	s0,s0,s1
    80001cac:	ec06                	sd	ra,24(sp)
    80001cae:	840d                	srai	s0,s0,0x3
    80001cb0:	e411                	bnez	s0,80001cbc <__libc_fini_array+0x28>
    80001cb2:	60e2                	ld	ra,24(sp)
    80001cb4:	6442                	ld	s0,16(sp)
    80001cb6:	64a2                	ld	s1,8(sp)
    80001cb8:	6105                	addi	sp,sp,32
    80001cba:	8082                	ret
    80001cbc:	147d                	addi	s0,s0,-1
    80001cbe:	00341793          	slli	a5,s0,0x3
    80001cc2:	97a6                	add	a5,a5,s1
    80001cc4:	639c                	ld	a5,0(a5)
    80001cc6:	9782                	jalr	a5
    80001cc8:	b7e5                	j	80001cb0 <__libc_fini_array+0x1c>

0000000080001cca <__register_exitproc>:
    80001cca:	88aa                	mv	a7,a0
    80001ccc:	85018513          	addi	a0,gp,-1968 # 800020c8 <__atexit>
    80001cd0:	6118                	ld	a4,0(a0)
    80001cd2:	ef01                	bnez	a4,80001cea <__register_exitproc+0x20>
    80001cd4:	c7018793          	addi	a5,gp,-912 # 800024e8 <__atexit0>
    80001cd8:	e11c                	sd	a5,0(a0)
    80001cda:	00000713          	li	a4,0
    80001cde:	c701                	beqz	a4,80001ce6 <__register_exitproc+0x1c>
    80001ce0:	6318                	ld	a4,0(a4)
    80001ce2:	10e7b823          	sd	a4,272(a5)
    80001ce6:	c7018713          	addi	a4,gp,-912 # 800024e8 <__atexit0>
    80001cea:	471c                	lw	a5,8(a4)
    80001cec:	487d                	li	a6,31
    80001cee:	557d                	li	a0,-1
    80001cf0:	04f84763          	blt	a6,a5,80001d3e <__register_exitproc+0x74>
    80001cf4:	02088d63          	beqz	a7,80001d2e <__register_exitproc+0x64>
    80001cf8:	11073803          	ld	a6,272(a4)
    80001cfc:	04080163          	beqz	a6,80001d3e <__register_exitproc+0x74>
    80001d00:	00379513          	slli	a0,a5,0x3
    80001d04:	9542                	add	a0,a0,a6
    80001d06:	e110                	sd	a2,0(a0)
    80001d08:	20082303          	lw	t1,512(a6)
    80001d0c:	4605                	li	a2,1
    80001d0e:	00f6163b          	sllw	a2,a2,a5
    80001d12:	00c36333          	or	t1,t1,a2
    80001d16:	20682023          	sw	t1,512(a6)
    80001d1a:	10d53023          	sd	a3,256(a0)
    80001d1e:	4689                	li	a3,2
    80001d20:	00d89763          	bne	a7,a3,80001d2e <__register_exitproc+0x64>
    80001d24:	20482683          	lw	a3,516(a6)
    80001d28:	8ed1                	or	a3,a3,a2
    80001d2a:	20d82223          	sw	a3,516(a6)
    80001d2e:	0017869b          	addiw	a3,a5,1
    80001d32:	0789                	addi	a5,a5,2
    80001d34:	078e                	slli	a5,a5,0x3
    80001d36:	c714                	sw	a3,8(a4)
    80001d38:	973e                	add	a4,a4,a5
    80001d3a:	e30c                	sd	a1,0(a4)
    80001d3c:	4501                	li	a0,0
    80001d3e:	8082                	ret

0000000080001d40 <__call_exitprocs>:
    80001d40:	711d                	addi	sp,sp,-96
    80001d42:	f852                	sd	s4,48(sp)
    80001d44:	f456                	sd	s5,40(sp)
    80001d46:	f05a                	sd	s6,32(sp)
    80001d48:	ec5e                	sd	s7,24(sp)
    80001d4a:	ec86                	sd	ra,88(sp)
    80001d4c:	e8a2                	sd	s0,80(sp)
    80001d4e:	e4a6                	sd	s1,72(sp)
    80001d50:	e0ca                	sd	s2,64(sp)
    80001d52:	fc4e                	sd	s3,56(sp)
    80001d54:	e862                	sd	s8,16(sp)
    80001d56:	e466                	sd	s9,8(sp)
    80001d58:	8aaa                	mv	s5,a0
    80001d5a:	8a2e                	mv	s4,a1
    80001d5c:	85018b13          	addi	s6,gp,-1968 # 800020c8 <__atexit>
    80001d60:	4b85                	li	s7,1
    80001d62:	000b3483          	ld	s1,0(s6)
    80001d66:	cc81                	beqz	s1,80001d7e <__call_exitprocs+0x3e>
    80001d68:	4480                	lw	s0,8(s1)
    80001d6a:	1104b983          	ld	s3,272(s1)
    80001d6e:	fff4091b          	addiw	s2,s0,-1
    80001d72:	040e                	slli	s0,s0,0x3
    80001d74:	00898cb3          	add	s9,s3,s0
    80001d78:	9426                	add	s0,s0,s1
    80001d7a:	00095f63          	bgez	s2,80001d98 <__call_exitprocs+0x58>
    80001d7e:	60e6                	ld	ra,88(sp)
    80001d80:	6446                	ld	s0,80(sp)
    80001d82:	64a6                	ld	s1,72(sp)
    80001d84:	6906                	ld	s2,64(sp)
    80001d86:	79e2                	ld	s3,56(sp)
    80001d88:	7a42                	ld	s4,48(sp)
    80001d8a:	7aa2                	ld	s5,40(sp)
    80001d8c:	7b02                	ld	s6,32(sp)
    80001d8e:	6be2                	ld	s7,24(sp)
    80001d90:	6c42                	ld	s8,16(sp)
    80001d92:	6ca2                	ld	s9,8(sp)
    80001d94:	6125                	addi	sp,sp,96
    80001d96:	8082                	ret
    80001d98:	000a0c63          	beqz	s4,80001db0 <__call_exitprocs+0x70>
    80001d9c:	00099663          	bnez	s3,80001da8 <__call_exitprocs+0x68>
    80001da0:	397d                	addiw	s2,s2,-1
    80001da2:	1ce1                	addi	s9,s9,-8
    80001da4:	1461                	addi	s0,s0,-8
    80001da6:	bfd1                	j	80001d7a <__call_exitprocs+0x3a>
    80001da8:	0f8cb783          	ld	a5,248(s9)
    80001dac:	ff479ae3          	bne	a5,s4,80001da0 <__call_exitprocs+0x60>
    80001db0:	449c                	lw	a5,8(s1)
    80001db2:	6418                	ld	a4,8(s0)
    80001db4:	37fd                	addiw	a5,a5,-1
    80001db6:	03279963          	bne	a5,s2,80001de8 <__call_exitprocs+0xa8>
    80001dba:	0124a423          	sw	s2,8(s1)
    80001dbe:	d36d                	beqz	a4,80001da0 <__call_exitprocs+0x60>
    80001dc0:	0084ac03          	lw	s8,8(s1)
    80001dc4:	00098963          	beqz	s3,80001dd6 <__call_exitprocs+0x96>
    80001dc8:	2009a783          	lw	a5,512(s3)
    80001dcc:	012b96bb          	sllw	a3,s7,s2
    80001dd0:	8ff5                	and	a5,a5,a3
    80001dd2:	2781                	sext.w	a5,a5
    80001dd4:	ef89                	bnez	a5,80001dee <__call_exitprocs+0xae>
    80001dd6:	9702                	jalr	a4
    80001dd8:	4498                	lw	a4,8(s1)
    80001dda:	000b3783          	ld	a5,0(s6)
    80001dde:	f98712e3          	bne	a4,s8,80001d62 <__call_exitprocs+0x22>
    80001de2:	faf48fe3          	beq	s1,a5,80001da0 <__call_exitprocs+0x60>
    80001de6:	bfb5                	j	80001d62 <__call_exitprocs+0x22>
    80001de8:	00043423          	sd	zero,8(s0)
    80001dec:	bfc9                	j	80001dbe <__call_exitprocs+0x7e>
    80001dee:	2049a783          	lw	a5,516(s3)
    80001df2:	ff8cb583          	ld	a1,-8(s9)
    80001df6:	8ff5                	and	a5,a5,a3
    80001df8:	2781                	sext.w	a5,a5
    80001dfa:	e781                	bnez	a5,80001e02 <__call_exitprocs+0xc2>
    80001dfc:	8556                	mv	a0,s5
    80001dfe:	9702                	jalr	a4
    80001e00:	bfe1                	j	80001dd8 <__call_exitprocs+0x98>
    80001e02:	852e                	mv	a0,a1
    80001e04:	9702                	jalr	a4
    80001e06:	bfc9                	j	80001dd8 <__call_exitprocs+0x98>

Disassembly of section .rodata:

0000000080001e08 <__tbss_end>:
    80001e08:	6552                	ld	a0,272(sp)
    80001e0a:	6e6f7073          	csrci	0x6e6,30
    80001e0e:	74206573          	csrrsi	a0,0x742,0
    80001e12:	6761                	lui	a4,0x18
    80001e14:	2520                	fld	fs0,72(a0)
    80001e16:	2064                	fld	fs1,192(s0)
    80001e18:	6f64                	ld	s1,216(a4)
    80001e1a:	7365                	lui	t1,0xffff9
    80001e1c:	6e20                	ld	s0,88(a2)
    80001e1e:	6d20746f          	jal	s0,800094f0 <__global_pointer$+0x6c78>
    80001e22:	7461                	lui	s0,0xffff8
    80001e24:	72206863          	bltu	zero,sp,80002554 <__atexit0+0x6c>
    80001e28:	7165                	addi	sp,sp,-400
    80001e2a:	6575                	lui	a0,0x1d
    80001e2c:	74207473          	csrrci	s0,0x742,0
    80001e30:	6761                	lui	a4,0x18
    80001e32:	2520                	fld	fs0,72(a0)
    80001e34:	0a64                	addi	s1,sp,284
	...
    80001e3e:	0000                	unimp
    80001e40:	64726f57          	.insn	4, 0x64726f57
    80001e44:	2520                	fld	fs0,72(a0)
    80001e46:	2064                	fld	fs1,192(s0)
    80001e48:	6e69                	lui	t3,0x1a
    80001e4a:	7320                	ld	s0,96(a4)
    80001e4c:	6365                	lui	t1,0x19
    80001e4e:	6f74                	ld	a3,216(a4)
    80001e50:	2072                	fld	ft0,280(sp)
    80001e52:	7825                	lui	a6,0xfffe9
    80001e54:	6420                	ld	s0,72(s0)
    80001e56:	2073656f          	jal	a0,8003885c <__heap_end+0x1585c>
    80001e5a:	6f6e                	ld	t5,216(sp)
    80001e5c:	2074                	fld	fa3,192(s0)
    80001e5e:	616d                	addi	sp,sp,240
    80001e60:	6374                	ld	a3,192(a4)
    80001e62:	2068                	fld	fa0,192(s0)
    80001e64:	7865                	lui	a6,0xffff9
    80001e66:	6570                	ld	a2,200(a0)
    80001e68:	64657463          	bgeu	a0,t1,800024b0 <__sf+0x1e0>
    80001e6c:	000a                	c.slli	zero,0x2
    80001e6e:	0000                	unimp
    80001e70:	7845                	lui	a6,0xffff1
    80001e72:	6570                	ld	a2,200(a0)
    80001e74:	64657463          	bgeu	a0,t1,800024bc <__sf+0x1ec>
    80001e78:	2520                	fld	fs0,72(a0)
    80001e7a:	786c                	ld	a1,240(s0)
    80001e7c:	202c                	fld	fa1,64(s0)
    80001e7e:	20746f67          	.insn	4, 0x20746f67
    80001e82:	6c25                	lui	s8,0x9
    80001e84:	0a78                	addi	a4,sp,284
    80001e86:	0000                	unimp
    80001e88:	74697257          	.insn	4, 0x74697257
    80001e8c:	6e69                	lui	t3,0x1a
    80001e8e:	75252067          	.insn	4, 0x75252067
    80001e92:	6f20                	ld	s0,88(a4)
    80001e94:	2066                	fld	ft0,88(sp)
    80001e96:	7525                	lui	a0,0xfffe9
    80001e98:	7320                	ld	s0,96(a4)
    80001e9a:	6365                	lui	t1,0x19
    80001e9c:	6f74                	ld	a3,216(a4)
    80001e9e:	7372                	ld	t1,312(sp)
    80001ea0:	000a                	c.slli	zero,0x2
    80001ea2:	0000                	unimp
    80001ea4:	0000                	unimp
    80001ea6:	0000                	unimp
    80001ea8:	63656843          	fmadd.d	fa6,fa0,fs6,fa2,unknown
    80001eac:	676e696b          	.insn	4, 0x676e696b
    80001eb0:	7320                	ld	s0,96(a4)
    80001eb2:	6365                	lui	t1,0x19
    80001eb4:	6f74                	ld	a3,216(a4)
    80001eb6:	7372                	ld	t1,312(sp)
    80001eb8:	000a                	c.slli	zero,0x2
    80001eba:	0000                	unimp
    80001ebc:	0000                	unimp
    80001ebe:	0000                	unimp
    80001ec0:	2b302d23          	sw	s3,698(zero) # 2ba <__stack_align+0x2aa>
    80001ec4:	0020                	addi	s0,sp,8
    80001ec6:	0000                	unimp
    80001ec8:	6c68                	ld	a0,216(s0)
    80001eca:	004c                	addi	a1,sp,4
    80001ecc:	0000                	unimp
    80001ece:	0000                	unimp
    80001ed0:	6665                	lui	a2,0x19
    80001ed2:	47464567          	.insn	4, 0x47464567
    80001ed6:	0000                	unimp
    80001ed8:	3130                	fld	fa2,96(a0)
    80001eda:	3332                	fld	ft6,296(sp)
    80001edc:	3534                	fld	fa3,104(a0)
    80001ede:	3736                	fld	fa4,360(sp)
    80001ee0:	3938                	fld	fa4,112(a0)
    80001ee2:	4241                	li	tp,16
    80001ee4:	46454443          	.insn	4, 0x46454443
	...
    80001ef0:	3130                	fld	fa2,96(a0)
    80001ef2:	3332                	fld	ft6,296(sp)
    80001ef4:	3534                	fld	fa3,104(a0)
    80001ef6:	3736                	fld	fa4,360(sp)
    80001ef8:	3938                	fld	fa4,112(a0)
    80001efa:	6261                	lui	tp,0x18
    80001efc:	66656463          	bltu	a0,t1,80002564 <__atexit0+0x7c>
    80001f00:	0000                	unimp
    80001f02:	0000                	unimp
    80001f04:	f15c                	sd	a5,160(a0)
    80001f06:	ffff                	.insn	2, 0xffff
    80001f08:	f172                	sd	t3,160(sp)
    80001f0a:	ffff                	.insn	2, 0xffff
    80001f0c:	f132                	sd	a2,160(sp)
    80001f0e:	ffff                	.insn	2, 0xffff
    80001f10:	f132                	sd	a2,160(sp)
    80001f12:	ffff                	.insn	2, 0xffff
    80001f14:	f132                	sd	a2,160(sp)
    80001f16:	ffff                	.insn	2, 0xffff
    80001f18:	f132                	sd	a2,160(sp)
    80001f1a:	ffff                	.insn	2, 0xffff
    80001f1c:	f172                	sd	t3,160(sp)
    80001f1e:	ffff                	.insn	2, 0xffff
    80001f20:	f132                	sd	a2,160(sp)
    80001f22:	ffff                	.insn	2, 0xffff
    80001f24:	f132                	sd	a2,160(sp)
    80001f26:	ffff                	.insn	2, 0xffff
    80001f28:	f132                	sd	a2,160(sp)
    80001f2a:	ffff                	.insn	2, 0xffff
    80001f2c:	f132                	sd	a2,160(sp)
    80001f2e:	ffff                	.insn	2, 0xffff
    80001f30:	f2d2                	sd	s4,352(sp)
    80001f32:	ffff                	.insn	2, 0xffff
    80001f34:	f1b4                	sd	a3,96(a1)
    80001f36:	ffff                	.insn	2, 0xffff
    80001f38:	f26e                	sd	s11,288(sp)
    80001f3a:	ffff                	.insn	2, 0xffff
    80001f3c:	f132                	sd	a2,160(sp)
    80001f3e:	ffff                	.insn	2, 0xffff
    80001f40:	f132                	sd	a2,160(sp)
    80001f42:	ffff                	.insn	2, 0xffff
    80001f44:	f306                	sd	ra,416(sp)
    80001f46:	ffff                	.insn	2, 0xffff
    80001f48:	f132                	sd	a2,160(sp)
    80001f4a:	ffff                	.insn	2, 0xffff
    80001f4c:	f1b4                	sd	a3,96(a1)
    80001f4e:	ffff                	.insn	2, 0xffff
    80001f50:	f132                	sd	a2,160(sp)
    80001f52:	ffff                	.insn	2, 0xffff
    80001f54:	f132                	sd	a2,160(sp)
    80001f56:	ffff                	.insn	2, 0xffff
    80001f58:	f276                	sd	t4,288(sp)
    80001f5a:	ffff                	.insn	2, 0xffff
    80001f5c:	0000                	unimp
	...

0000000080001f60 <argv>:
    80001f60:	1f70                	addi	a2,sp,956
    80001f62:	8000                	.insn	2, 0x8000
	...

0000000080001f70 <name>:
    80001f70:	70696863          	bltu	s2,t1,80002680 <_end+0x80>
    80001f74:	6179                	addi	sp,sp,464
    80001f76:	6472                	ld	s0,280(sp)
	...

Disassembly of section .eh_frame:

0000000080001f80 <.eh_frame>:
    80001f80:	0010                	.insn	2, 0x0010
    80001f82:	0000                	unimp
    80001f84:	0000                	unimp
    80001f86:	0000                	unimp
    80001f88:	00527a03          	.insn	4, 0x00527a03
    80001f8c:	7c01                	lui	s8,0xfffe0
    80001f8e:	0101                	addi	sp,sp,0
    80001f90:	00020d1b          	sext.w	s10,tp
    80001f94:	0010                	.insn	2, 0x0010
    80001f96:	0000                	unimp
    80001f98:	0018                	.insn	2, 0x0018
    80001f9a:	0000                	unimp
    80001f9c:	e064                	sd	s1,192(s0)
    80001f9e:	ffff                	.insn	2, 0xffff
    80001fa0:	0144                	addi	s1,sp,132
    80001fa2:	0000                	unimp
    80001fa4:	0000                	unimp
	...

Disassembly of section .htif:

0000000080001fc0 <tohost>:
	...

0000000080001fc8 <fromhost>:
	...

Disassembly of section .data.__sglue:

0000000080001fd0 <__sglue>:
	...
    80001fd8:	00000003          	lb	zero,0(zero) # 0 <__boot_hart>
    80001fdc:	0000                	unimp
    80001fde:	0000                	unimp
    80001fe0:	22d0                	fld	fa2,128(a3)
    80001fe2:	8000                	.insn	2, 0x8000
    80001fe4:	0000                	unimp
	...

Disassembly of section .data._impure_data:

0000000080001fe8 <_impure_data>:
	...
    80001ff0:	22d0                	fld	fa2,128(a3)
    80001ff2:	8000                	.insn	2, 0x8000
    80001ff4:	0000                	unimp
    80001ff6:	0000                	unimp
    80001ff8:	2380                	fld	fs0,0(a5)
    80001ffa:	8000                	.insn	2, 0x8000
    80001ffc:	0000                	unimp
    80001ffe:	0000                	unimp
    80002000:	2430                	fld	fa2,72(s0)
    80002002:	8000                	.insn	2, 0x8000
	...

Disassembly of section .sdata:

0000000080002078 <_impure_ptr>:
    80002078:	1fe8                	addi	a0,sp,1020
    8000207a:	8000                	.insn	2, 0x8000
    8000207c:	0000                	unimp
	...

0000000080002080 <curbrk>:
    80002080:	2600                	fld	fs0,8(a2)
    80002082:	8000                	.insn	2, 0x8000
    80002084:	0000                	unimp
	...

0000000080002088 <environ>:
    80002088:	20c0                	fld	fs0,128(s1)
    8000208a:	8000                	.insn	2, 0x8000
    8000208c:	0000                	unimp
	...

0000000080002090 <__atexit_dummy>:
    80002090:	1d40                	addi	s0,sp,692
    80002092:	8000                	.insn	2, 0x8000
    80002094:	0000                	unimp
	...

Disassembly of section .debug_info:

0000000000000000 <.debug_info>:
       0:	00000963          	beqz	zero,12 <__stack_align+0x2>
       4:	0005                	c.nop	1
       6:	0801                	addi	a6,a6,0 # ffffffffffff1000 <__heap_end+0xffffffff7ffce000>
       8:	0000                	unimp
       a:	0000                	unimp
       c:	0000f51b          	.insn	4, 0xf51b
      10:	0c00                	addi	s0,sp,528
      12:	0000                	unimp
      14:	0000                	unimp
      16:	0041                	c.nop	16
      18:	0000                	unimp
      1a:	0108                	addi	a0,sp,128
	...
      28:	0000                	unimp
      2a:	0106                	slli	sp,sp,0x1
      2c:	5906                	lw	s2,96(sp)
      2e:	0000                	unimp
      30:	0900                	addi	s0,sp,144
      32:	0000                	unimp
      34:	0000                	unimp
      36:	2b04                	fld	fs1,16(a4)
      38:	3d18                	fld	fa4,56(a0)
      3a:	0000                	unimp
      3c:	0600                	addi	s0,sp,768
      3e:	0801                	addi	a6,a6,0
      40:	00000057          	.insn	4, 0x0057
      44:	0206                	slli	tp,tp,0x1
      46:	9b05                	andi	a4,a4,-31
      48:	0001                	nop
      4a:	0600                	addi	s0,sp,768
      4c:	0702                	c.slli64	a4
      4e:	0000002b          	.insn	4, 0x002b
      52:	041c                	addi	a5,sp,512
      54:	6905                	lui	s2,0x1
      56:	746e                	ld	s0,248(sp)
      58:	0900                	addi	s0,sp,144
      5a:	00000087          	.insn	4, 0x0087
      5e:	4f04                	lw	s1,24(a4)
      60:	6519                	lui	a0,0x6
      62:	0000                	unimp
      64:	0600                	addi	s0,sp,768
      66:	0704                	addi	s1,sp,896
      68:	000000c3          	fmadd.s	ft1,ft0,ft0,ft0,rne
      6c:	0806                	slli	a6,a6,0x1
      6e:	e005                	bnez	s0,8e <__stack_align+0x7e>
      70:	0000                	unimp
      72:	0900                	addi	s0,sp,144
      74:	01a5                	addi	gp,gp,9 # 80002881 <__global_pointer$+0x9>
      76:	0000                	unimp
      78:	6904                	ld	s1,16(a0)
      7a:	7f19                	lui	t5,0xfffe6
      7c:	0000                	unimp
      7e:	0600                	addi	s0,sp,768
      80:	0708                	addi	a0,sp,896
      82:	00be                	slli	ra,ra,0xf
      84:	0000                	unimp
      86:	1209                	addi	tp,tp,-30 # 17fe2 <__stack_size+0xffe2>
      88:	0000                	unimp
      8a:	0400                	addi	s0,sp,512
      8c:	1ae8                	addi	a0,sp,380
      8e:	007f 0000 2a09 0003 	.insn	10, 0x050000032a090000007f
      96:	0500 
      98:	17d6                	slli	a5,a5,0x35
      9a:	007f 0000 0806 db05 	.insn	10, 0xdb0508060000007f
      a2:	0000 
      a4:	0600                	addi	s0,sp,768
      a6:	0801                	addi	a6,a6,0
      a8:	0060                	addi	s0,sp,12
      aa:	0000                	unimp
      ac:	a51d                	j	6d2 <__stack_align+0x6c2>
      ae:	0000                	unimp
      b0:	1000                	addi	s0,sp,32
      b2:	00ac                	addi	a1,sp,72
      b4:	0000                	unimp
      b6:	b11e                	fsd	ft7,160(sp)
      b8:	0000                	unimp
      ba:	0600                	addi	s0,sp,768
      bc:	0708                	addi	a0,sp,896
      be:	00b9                	addi	ra,ra,14 # 80000e9c <_vfiprintf_r+0x256>
      c0:	0000                	unimp
      c2:	0209                	addi	tp,tp,2 # 2 <__boot_hart+0x2>
      c4:	0000                	unimp
      c6:	0600                	addi	s0,sp,768
      c8:	1318                	addi	a4,sp,416
      ca:	0031                	c.nop	12
      cc:	0000                	unimp
      ce:	c212                	sw	tp,4(sp)
      d0:	0000                	unimp
      d2:	0900                	addi	s0,sp,144
      d4:	0089                	addi	ra,ra,2
      d6:	0000                	unimp
      d8:	3006                	fld	ft0,96(sp)
      da:	5914                	lw	a3,48(a0)
      dc:	0000                	unimp
      de:	1200                	addi	s0,sp,288
      e0:	000000d3          	fadd.s	ft1,ft0,ft0,rne
      e4:	a709                	j	7e6 <__stack_align+0x7d6>
      e6:	0001                	nop
      e8:	0600                	addi	s0,sp,768
      ea:	143c                	addi	a5,sp,552
      ec:	00000073          	ecall
      f0:	e412                	sd	tp,8(sp)
      f2:	0000                	unimp
      f4:	0900                	addi	s0,sp,144
      f6:	0014                	.insn	2, 0x0014
      f8:	0000                	unimp
      fa:	5206                	lw	tp,96(sp)
      fc:	8615                	srai	a2,a2,0x5
      fe:	0000                	unimp
     100:	1f00                	addi	s0,sp,944
     102:	007f 0000 0111 0000 	.insn	10, 0x7f20000001110000007f
     10a:	7f20 
     10c:	0000                	unimp
     10e:	3f00                	fld	fs0,56(a4)
     110:	2100                	fld	fs0,0(a0)
     112:	00d0                	addi	a2,sp,68
     114:	0000                	unimp
     116:	0a01                	addi	s4,s4,0
     118:	0001010f          	.insn	4, 0x0001010f
     11c:	0900                	addi	s0,sp,144
     11e:	0020d003          	lhu	zero,2(ra)
     122:	0080                	addi	s0,sp,64
     124:	0000                	unimp
     126:	2200                	fld	fs0,0(a2)
     128:	0292                	slli	t0,t0,0x4
     12a:	0000                	unimp
     12c:	39065d07          	.insn	4, 0x39065d07
     130:	0001                	nop
     132:	1600                	addi	s0,sp,800
     134:	0052                	c.slli	zero,0x14
     136:	0000                	unimp
     138:	2300                	fld	fs0,0(a4)
     13a:	0194                	addi	a3,sp,192
     13c:	0000                	unimp
     13e:	ce08                	sw	a0,24(a2)
     140:	5205                	li	tp,-31
     142:	0000                	unimp
     144:	5000                	lw	s0,32(s0)
     146:	0001                	nop
     148:	1600                	addi	s0,sp,800
     14a:	00b6                	slli	ra,ra,0xd
     14c:	0000                	unimp
     14e:	0024                	addi	s1,sp,8
     150:	f225                	bnez	a2,b0 <__stack_align+0xa0>
     152:	0004                	.insn	2, 0x0004
     154:	0100                	addi	s0,sp,128
     156:	0052053b          	addw	a0,tp,t0
     15a:	0000                	unimp
     15c:	022c                	addi	a1,sp,264
     15e:	8000                	.insn	2, 0x8000
     160:	0000                	unimp
     162:	0000                	unimp
     164:	00a0                	addi	s0,sp,72
     166:	0000                	unimp
     168:	0000                	unimp
     16a:	0000                	unimp
     16c:	9c01                	subw	s0,s0,s0
     16e:	02a0                	addi	s0,sp,328
     170:	0000                	unimp
     172:	990c                	.insn	2, 0x990c
     174:	0000                	unimp
     176:	3d00                	fld	fs0,56(a0)
     178:	0000650f          	.insn	4, 0x650f
     17c:	0c00                	addi	s0,sp,528
     17e:	0000                	unimp
     180:	0c00                	addi	s0,sp,528
     182:	01c0                	addi	s0,sp,196
     184:	0000                	unimp
     186:	0f3e                	slli	t5,t5,0xf
     188:	0065                	c.nop	25
     18a:	0000                	unimp
     18c:	001a                	c.slli	zero,0x6
     18e:	0000                	unimp
     190:	0000c817          	auipc	a6,0xc
     194:	cf00                	sw	s0,24(a4)
     196:	0001                	nop
     198:	1300                	addi	s0,sp,416
     19a:	0069                	c.nop	26
     19c:	5242                	lw	tp,48(sp)
     19e:	0000                	unimp
     1a0:	3600                	fld	fs0,40(a2)
     1a2:	0000                	unimp
     1a4:	0500                	addi	s0,sp,640
     1a6:	00d8                	addi	a4,sp,68
     1a8:	0000                	unimp
     1aa:	240c                	fld	fa1,8(s0)
     1ac:	0000                	unimp
     1ae:	4300                	lw	s0,0(a4)
     1b0:	00005207          	.insn	4, 0x5207
     1b4:	4f00                	lw	s0,24(a4)
     1b6:	0000                	unimp
     1b8:	0d00                	addi	s0,sp,656
     1ba:	027c                	addi	a5,sp,268
     1bc:	8000                	.insn	2, 0x8000
     1be:	0000                	unimp
     1c0:	0000                	unimp
     1c2:	02f4                	addi	a3,sp,332
     1c4:	0000                	unimp
     1c6:	0102                	c.slli64	sp
     1c8:	025a                	slli	tp,tp,0x16
     1ca:	0079                	c.nop	30
     1cc:	0000                	unimp
     1ce:	1700                	addi	s0,sp,928
     1d0:	00e8                	addi	a0,sp,76
     1d2:	0000                	unimp
     1d4:	020e                	slli	tp,tp,0x3
     1d6:	0000                	unimp
     1d8:	49006913          	ori	s2,zero,1168
     1dc:	0052                	c.slli	zero,0x14
     1de:	0000                	unimp
     1e0:	005c                	addi	a5,sp,4
     1e2:	0000                	unimp
     1e4:	f805                	bnez	s0,114 <__stack_align+0x104>
     1e6:	0000                	unimp
     1e8:	0c00                	addi	s0,sp,528
     1ea:	0024                	addi	s1,sp,8
     1ec:	0000                	unimp
     1ee:	074a                	slli	a4,a4,0x12
     1f0:	0052                	c.slli	zero,0x14
     1f2:	0000                	unimp
     1f4:	0075                	c.nop	29
     1f6:	0000                	unimp
     1f8:	a40d                	j	41a <__stack_align+0x40a>
     1fa:	0002                	c.slli64	zero
     1fc:	0080                	addi	s0,sp,64
     1fe:	0000                	unimp
     200:	a000                	fsd	fs0,0(s0)
     202:	0002                	c.slli64	zero
     204:	0200                	addi	s0,sp,256
     206:	5a01                	li	s4,-32
     208:	7802                	ld	a6,32(sp)
     20a:	0000                	unimp
     20c:	0000                	unimp
     20e:	00059407          	.insn	4, 0x00059407
     212:	2c00                	fld	fs0,24(s0)
     214:	0002                	c.slli64	zero
     216:	0080                	addi	s0,sp,64
     218:	0000                	unimp
     21a:	b200                	fsd	fs0,32(a2)
     21c:	0000                	unimp
     21e:	0100                	addi	s0,sp,128
     220:	1a3d                	addi	s4,s4,-17
     222:	0254                	addi	a3,sp,260
     224:	0000                	unimp
     226:	d526                	sw	s1,168(sp)
     228:	0005                	c.nop	1
     22a:	2c00                	fld	fs0,24(s0)
     22c:	0002                	c.slli64	zero
     22e:	0080                	addi	s0,sp,64
     230:	0000                	unimp
     232:	b200                	fsd	fs0,32(a2)
     234:	0000                	unimp
     236:	0300                	addi	s0,sp,384
     238:	0911                	addi	s2,s2,4 # 1004 <__stack_align+0xff4>
     23a:	e501                	bnez	a0,242 <__stack_align+0x232>
     23c:	0005                	c.nop	1
     23e:	8200                	.insn	2, 0x8200
     240:	0000                	unimp
     242:	0500                	addi	s0,sp,640
     244:	00b2                	slli	ra,ra,0xc
     246:	0000                	unimp
     248:	0005f103          	.insn	4, 0x0005f103
     24c:	8200                	.insn	2, 0x8200
     24e:	0000                	unimp
     250:	0000                	unimp
     252:	0000                	unimp
     254:	0002680f          	.insn	4, 0x0002680f
     258:	0080                	addi	s0,sp,64
     25a:	0000                	unimp
     25c:	3900                	fld	fs0,48(a0)
     25e:	0001                	nop
     260:	7e00                	ld	s0,56(a2)
     262:	0002                	c.slli64	zero
     264:	0200                	addi	s0,sp,256
     266:	5a01                	li	s4,-32
     268:	0309                	addi	t1,t1,2 # 19002 <__stack_size+0x11002>
     26a:	1e88                	addi	a0,sp,880
     26c:	8000                	.insn	2, 0x8000
     26e:	0000                	unimp
     270:	0000                	unimp
     272:	0102                	c.slli64	sp
     274:	0240015b          	.insn	4, 0x0240015b
     278:	5c01                	li	s8,-32
     27a:	8302                	jr	t1
     27c:	0000                	unimp
     27e:	940d                	srai	s0,s0,0x23
     280:	0002                	c.slli64	zero
     282:	0080                	addi	s0,sp,64
     284:	0000                	unimp
     286:	3900                	fld	fs0,48(a0)
     288:	0001                	nop
     28a:	0200                	addi	s0,sp,256
     28c:	5a01                	li	s4,-32
     28e:	0309                	addi	t1,t1,2
     290:	1ea8                	addi	a0,sp,888
     292:	8000                	.insn	2, 0x8000
     294:	0000                	unimp
     296:	0000                	unimp
     298:	0102                	c.slli64	sp
     29a:	0083025b          	.insn	4, 0x0083025b
     29e:	0000                	unimp
     2a0:	00004527          	.insn	4, 0x4527
     2a4:	0100                	addi	s0,sp,128
     2a6:	061f f401 0002      	.insn	6, 0x0002f401061f
     2ac:	0400                	addi	s0,sp,512
     2ae:	01b0                	addi	a2,sp,200
     2b0:	0000                	unimp
     2b2:	1f01                	addi	t5,t5,-32 # fffffffffffe5fe0 <__heap_end+0xffffffff7ffc2fe0>
     2b4:	6520                	ld	s0,72(a0)
     2b6:	0000                	unimp
     2b8:	1100                	addi	s0,sp,160
     2ba:	000a                	c.slli	zero,0x2
     2bc:	0000                	unimp
     2be:	0621                	addi	a2,a2,8 # 19008 <__stack_size+0x11008>
     2c0:	0052                	c.slli	zero,0x14
     2c2:	0000                	unimp
     2c4:	b711                	j	1c8 <__stack_align+0x1b8>
     2c6:	0001                	nop
     2c8:	2100                	fld	fs0,0(a0)
     2ca:	0000520f          	.insn	4, 0x520f
     2ce:	1800                	addi	s0,sp,48
     2d0:	690e                	ld	s2,192(sp)
     2d2:	0100                	addi	s0,sp,128
     2d4:	0b2e                	slli	s6,s6,0xb
     2d6:	0052                	c.slli	zero,0x14
     2d8:	0000                	unimp
     2da:	1118                	addi	a4,sp,160
     2dc:	0079                	c.nop	30
     2de:	0000                	unimp
     2e0:	007f112f          	.insn	4, 0x007f112f
     2e4:	0000                	unimp
     2e6:	3e11                	addiw	t3,t3,-28 # 19fe4 <__stack_size+0x11fe4>
     2e8:	0000                	unimp
     2ea:	3000                	fld	fs0,32(s0)
     2ec:	7f11                	lui	t5,0xfffe4
     2ee:	0000                	unimp
     2f0:	0000                	unimp
     2f2:	0000                	unimp
     2f4:	1e28                	addi	a0,sp,824
     2f6:	0000                	unimp
     2f8:	0100                	addi	s0,sp,128
     2fa:	060c                	addi	a1,sp,768
     2fc:	02cc                	addi	a1,sp,324
     2fe:	8000                	.insn	2, 0x8000
     300:	0000                	unimp
     302:	0000                	unimp
     304:	00a4                	addi	s1,sp,72
     306:	0000                	unimp
     308:	0000                	unimp
     30a:	0000                	unimp
     30c:	9c01                	subw	s0,s0,s0
     30e:	00000553          	fadd.s	fa0,ft0,ft0,rne
     312:	b029                	j	fffffffffffffb1c <__heap_end+0xffffffff7ffdcb1c>
     314:	0001                	nop
     316:	0100                	addi	s0,sp,128
     318:	200c                	fld	fa1,0(s0)
     31a:	0065                	c.nop	25
     31c:	0000                	unimp
     31e:	0094                	addi	a3,sp,64
     320:	0000                	unimp
     322:	0a0c                	addi	a1,sp,272
     324:	0000                	unimp
     326:	0e00                	addi	s0,sp,784
     328:	5206                	lw	tp,96(sp)
     32a:	0000                	unimp
     32c:	ae00                	fsd	fs0,24(a2)
     32e:	0000                	unimp
     330:	0c00                	addi	s0,sp,528
     332:	000001b7          	lui	gp,0x0
     336:	0f0e                	slli	t5,t5,0x3
     338:	0052                	c.slli	zero,0x14
     33a:	0000                	unimp
     33c:	000000bb          	addw	ra,zero,zero
     340:	cc2a                	sw	a0,24(sp)
     342:	0002                	c.slli64	zero
     344:	0080                	addi	s0,sp,64
     346:	0000                	unimp
     348:	3000                	fld	fs0,32(s0)
     34a:	0000                	unimp
     34c:	0000                	unimp
     34e:	0000                	unimp
     350:	6200                	ld	s0,0(a2)
     352:	13000003          	lb	zero,304(zero) # 130 <__stack_align+0x120>
     356:	0069                	c.nop	26
     358:	5210                	lw	a2,32(a2)
     35a:	0000                	unimp
     35c:	c800                	sw	s0,16(s0)
     35e:	0000                	unimp
     360:	0000                	unimp
     362:	00063207          	fld	ft4,0(a2)
     366:	fc00                	sd	s0,56(s0)
     368:	0002                	c.slli64	zero
     36a:	0080                	addi	s0,sp,64
     36c:	0000                	unimp
     36e:	0c00                	addi	s0,sp,528
     370:	0000                	unimp
     372:	0100                	addi	s0,sp,128
     374:	038b0913          	addi	s2,s6,56
     378:	0000                	unimp
     37a:	420a                	lw	tp,128(sp)
     37c:	0006                	c.slli	zero,0x1
     37e:	0500                	addi	s0,sp,640
     380:	000c                	.insn	2, 0x000c
     382:	0000                	unimp
     384:	4e08                	lw	a0,24(a2)
     386:	0006                	c.slli	zero,0x1
     388:	0000                	unimp
     38a:	0b00                	addi	s0,sp,400
     38c:	00000553          	fadd.s	fa0,ft0,ft0,rne
     390:	030c                	addi	a1,sp,384
     392:	8000                	.insn	2, 0x8000
     394:	0000                	unimp
     396:	0000                	unimp
     398:	002c                	addi	a1,sp,8
     39a:	0000                	unimp
     39c:	0000                	unimp
     39e:	0000                	unimp
     3a0:	1401                	addi	s0,s0,-32 # ffffffffffff7fe0 <__heap_end+0xffffffff7ffd4fe0>
     3a2:	d00c                	sw	a1,32(s0)
     3a4:	0004                	.insn	2, 0x0004
     3a6:	0100                	addi	s0,sp,128
     3a8:	00000587          	.insn	4, 0x0587
     3ac:	00dd                	addi	ra,ra,23
     3ae:	0000                	unimp
     3b0:	7b01                	lui	s6,0xfffe0
     3b2:	0005                	c.nop	1
     3b4:	dd00                	sw	s0,56(a0)
     3b6:	0000                	unimp
     3b8:	0100                	addi	s0,sp,128
     3ba:	0000056f          	jal	a0,3ba <__stack_align+0x3aa>
     3be:	000000eb          	.insn	4, 0x00eb
     3c2:	6301                	.insn	2, 0x6301
     3c4:	0005                	c.nop	1
     3c6:	f800                	sd	s0,48(s0)
     3c8:	0000                	unimp
     3ca:	0b00                	addi	s0,sp,400
     3cc:	05a1                	addi	a1,a1,8
     3ce:	0000                	unimp
     3d0:	030c                	addi	a1,sp,384
     3d2:	8000                	.insn	2, 0x8000
     3d4:	0000                	unimp
     3d6:	0000                	unimp
     3d8:	0008                	.insn	2, 0x0008
     3da:	0000                	unimp
     3dc:	0000                	unimp
     3de:	0000                	unimp
     3e0:	03031f03          	lh	t5,48(t1)
     3e4:	0004                	.insn	2, 0x0004
     3e6:	0100                	addi	s0,sp,128
     3e8:	000005b7          	lui	a1,0x0
     3ec:	010e                	slli	sp,sp,0x3
     3ee:	0000                	unimp
     3f0:	ab01                	j	900 <__stack_align+0x8f0>
     3f2:	0005                	c.nop	1
     3f4:	2400                	fld	fs0,8(s0)
     3f6:	0001                	nop
     3f8:	0300                	addi	s0,sp,384
     3fa:	000005c3          	fmadd.s	fa1,ft0,ft0,ft0,rne
     3fe:	0124                	addi	s1,sp,136
     400:	0000                	unimp
     402:	0700                	addi	s0,sp,896
     404:	00000603          	lb	a2,0(zero) # 0 <__boot_hart>
     408:	0314                	addi	a3,sp,384
     40a:	8000                	.insn	2, 0x8000
     40c:	0000                	unimp
     40e:	0000                	unimp
     410:	001c                	.insn	2, 0x001c
     412:	0000                	unimp
     414:	3d032003          	lw	zero,976(t1)
     418:	0004                	.insn	2, 0x0004
     41a:	0100                	addi	s0,sp,128
     41c:	0619                	addi	a2,a2,6
     41e:	0000                	unimp
     420:	0136                	slli	sp,sp,0xd
     422:	0000                	unimp
     424:	0d01                	addi	s10,s10,0
     426:	0006                	c.slli	zero,0x1
     428:	4300                	lw	s0,0(a4)
     42a:	0001                	nop
     42c:	0500                	addi	s0,sp,640
     42e:	001c                	.insn	2, 0x001c
     430:	0000                	unimp
     432:	00062503          	lw	a0,0(a2)
     436:	4300                	lw	s0,0(a4)
     438:	0001                	nop
     43a:	0000                	unimp
     43c:	0700                	addi	s0,sp,896
     43e:	00000603          	lb	a2,0(zero) # 0 <__boot_hart>
     442:	0318                	addi	a4,sp,384
     444:	8000                	.insn	2, 0x8000
     446:	0000                	unimp
     448:	0000                	unimp
     44a:	002c                	addi	a1,sp,8
     44c:	0000                	unimp
     44e:	77032103          	lw	sp,1904(t1)
     452:	0004                	.insn	2, 0x0004
     454:	0100                	addi	s0,sp,128
     456:	0619                	addi	a2,a2,6
     458:	0000                	unimp
     45a:	0155                	addi	sp,sp,21
     45c:	0000                	unimp
     45e:	0d01                	addi	s10,s10,0
     460:	0006                	c.slli	zero,0x1
     462:	6300                	ld	s0,0(a4)
     464:	0001                	nop
     466:	0500                	addi	s0,sp,640
     468:	002c                	addi	a1,sp,8
     46a:	0000                	unimp
     46c:	00062503          	lw	a0,0(a2)
     470:	6300                	ld	s0,0(a4)
     472:	0001                	nop
     474:	0000                	unimp
     476:	0b00                	addi	s0,sp,400
     478:	0660                	addi	s0,sp,780
     47a:	0000                	unimp
     47c:	0328                	addi	a0,sp,392
     47e:	8000                	.insn	2, 0x8000
     480:	0000                	unimp
     482:	0000                	unimp
     484:	0004                	.insn	2, 0x0004
     486:	0000                	unimp
     488:	0000                	unimp
     48a:	0000                	unimp
     48c:	af032203          	lw	tp,-1296(t1)
     490:	0004                	.insn	2, 0x0004
     492:	0100                	addi	s0,sp,128
     494:	0676                	slli	a2,a2,0x1d
     496:	0000                	unimp
     498:	0175                	addi	sp,sp,29
     49a:	0000                	unimp
     49c:	6a01                	.insn	2, 0x6a01
     49e:	0006                	c.slli	zero,0x1
     4a0:	8300                	.insn	2, 0x8300
     4a2:	0001                	nop
     4a4:	0300                	addi	s0,sp,384
     4a6:	0682                	c.slli64	a3
     4a8:	0000                	unimp
     4aa:	00000183          	lb	gp,0(zero) # 0 <__boot_hart>
     4ae:	1900                	addi	s0,sp,176
     4b0:	0632                	slli	a2,a2,0xc
     4b2:	0000                	unimp
     4b4:	0330                	addi	a2,sp,392
     4b6:	8000                	.insn	2, 0x8000
     4b8:	0000                	unimp
     4ba:	0000                	unimp
     4bc:	0008                	.insn	2, 0x0008
     4be:	0000                	unimp
     4c0:	0000                	unimp
     4c2:	0000                	unimp
     4c4:	420a                	lw	tp,128(sp)
     4c6:	0006                	c.slli	zero,0x1
     4c8:	0800                	addi	s0,sp,16
     4ca:	064e                	slli	a2,a2,0x13
     4cc:	0000                	unimp
     4ce:	0000                	unimp
     4d0:	00063207          	fld	ft4,0(a2)
     4d4:	3800                	fld	fs0,48(s0)
     4d6:	00800003          	lb	zero,8(zero) # 8 <__boot_hart+0x8>
     4da:	0000                	unimp
     4dc:	3c00                	fld	fs0,56(s0)
     4de:	0000                	unimp
     4e0:	0100                	addi	s0,sp,128
     4e2:	0915                	addi	s2,s2,5
     4e4:	04f9                	addi	s1,s1,30
     4e6:	0000                	unimp
     4e8:	420a                	lw	tp,128(sp)
     4ea:	0006                	c.slli	zero,0x1
     4ec:	0500                	addi	s0,sp,640
     4ee:	003c                	addi	a5,sp,8
     4f0:	0000                	unimp
     4f2:	4e08                	lw	a0,24(a2)
     4f4:	0006                	c.slli	zero,0x1
     4f6:	0000                	unimp
     4f8:	0b00                	addi	s0,sp,400
     4fa:	0632                	slli	a2,a2,0xc
     4fc:	0000                	unimp
     4fe:	0344                	addi	s1,sp,388
     500:	8000                	.insn	2, 0x8000
     502:	0000                	unimp
     504:	0000                	unimp
     506:	0008                	.insn	2, 0x0008
     508:	0000                	unimp
     50a:	0000                	unimp
     50c:	0000                	unimp
     50e:	1601                	addi	a2,a2,-32
     510:	200d                	.insn	2, 0x200d
     512:	0005                	c.nop	1
     514:	0a00                	addi	s0,sp,272
     516:	0642                	slli	a2,a2,0x10
     518:	0000                	unimp
     51a:	4e08                	lw	a0,24(a2)
     51c:	0006                	c.slli	zero,0x1
     51e:	0000                	unimp
     520:	0003680f          	.insn	4, 0x0003680f
     524:	0080                	addi	s0,sp,64
     526:	0000                	unimp
     528:	3900                	fld	fs0,48(a0)
     52a:	0001                	nop
     52c:	3f00                	fld	fs0,56(a4)
     52e:	0005                	c.nop	1
     530:	0200                	addi	s0,sp,256
     532:	5a01                	li	s4,-32
     534:	0309                	addi	t1,t1,2
     536:	1e08                	addi	a0,sp,816
     538:	8000                	.insn	2, 0x8000
     53a:	0000                	unimp
     53c:	0000                	unimp
     53e:	0d00                	addi	s0,sp,656
     540:	0370                	addi	a2,sp,396
     542:	8000                	.insn	2, 0x8000
     544:	0000                	unimp
     546:	0000                	unimp
     548:	00000127          	.insn	4, 0x0127
     54c:	0102                	c.slli64	sp
     54e:	015a                	slli	sp,sp,0x16
     550:	0031                	c.nop	12
     552:	1400                	addi	s0,sp,544
     554:	0065                	c.nop	25
     556:	0000                	unimp
     558:	651c1903          	lh	s2,1617(s8) # fffffffffffe0651 <__heap_end+0xffffffff7ffbd651>
     55c:	0000                	unimp
     55e:	9400                	.insn	2, 0x9400
     560:	0005                	c.nop	1
     562:	0400                	addi	s0,sp,512
     564:	0082                	c.slli64	ra
     566:	0000                	unimp
     568:	7f111a03          	lh	s4,2033(sp)
     56c:	0000                	unimp
     56e:	0400                	addi	s0,sp,512
     570:	000004b3          	add	s1,zero,zero
     574:	65101b03          	lh	s6,1617(zero) # 651 <__stack_align+0x641>
     578:	0000                	unimp
     57a:	2b00                	fld	fs0,16(a4)
     57c:	656c                	ld	a1,200(a0)
     57e:	006e                	c.slli	zero,0x1b
     580:	65101c03          	lh	s8,1617(zero) # 651 <__stack_align+0x641>
     584:	0000                	unimp
     586:	0400                	addi	s0,sp,512
     588:	03f2                	slli	t2,t2,0x1c
     58a:	0000                	unimp
     58c:	3d111d03          	lh	s10,977(sp)
     590:	0000                	unimp
     592:	0000                	unimp
     594:	922c                	.insn	2, 0x922c
     596:	0000                	unimp
     598:	0300                	addi	s0,sp,384
     59a:	0092160f          	.insn	4, 0x0092160f
     59e:	0000                	unimp
     5a0:	00e91503          	lh	a0,14(s2)
     5a4:	0000                	unimp
     5a6:	d02a                	sw	a0,32(sp)
     5a8:	0005                	c.nop	1
     5aa:	0400                	addi	s0,sp,512
     5ac:	0082                	c.slli64	ra
     5ae:	0000                	unimp
     5b0:	2a02                	fld	fs4,0(sp)
     5b2:	7f2e                	ld	t5,232(sp)
     5b4:	0000                	unimp
     5b6:	0400                	addi	s0,sp,512
     5b8:	0052                	c.slli	zero,0x14
     5ba:	0000                	unimp
     5bc:	2a02                	fld	fs4,0(sp)
     5be:	e43d                	bnez	s0,62c <__stack_align+0x61c>
     5c0:	0000                	unimp
     5c2:	0e00                	addi	s0,sp,784
     5c4:	7470                	ld	a2,232(s0)
     5c6:	0072                	c.slli	zero,0x1c
     5c8:	2c02                	fld	fs8,0(sp)
     5ca:	d015                	beqz	s0,4ee <__stack_align+0x4de>
     5cc:	0005                	c.nop	1
     5ce:	0000                	unimp
     5d0:	f010                	sd	a2,32(s0)
     5d2:	0000                	unimp
     5d4:	1400                	addi	s0,sp,544
     5d6:	000001c7          	fmsub.s	ft3,ft0,ft0,ft0,rne
     5da:	2402                	fld	fs0,0(sp)
     5dc:	d318                	sw	a4,32(a4)
     5de:	0000                	unimp
     5e0:	fe00                	sd	s0,56(a2)
     5e2:	0005                	c.nop	1
     5e4:	0400                	addi	s0,sp,512
     5e6:	0082                	c.slli64	ra
     5e8:	0000                	unimp
     5ea:	2402                	fld	fs0,0(sp)
     5ec:	f52d                	bnez	a0,556 <__stack_align+0x546>
     5ee:	0000                	unimp
     5f0:	0e00                	addi	s0,sp,784
     5f2:	7470                	ld	a2,232(s0)
     5f4:	0072                	c.slli	zero,0x1c
     5f6:	2602                	fld	fa2,0(sp)
     5f8:	fe15                	bnez	a2,534 <__stack_align+0x524>
     5fa:	0005                	c.nop	1
     5fc:	0000                	unimp
     5fe:	df10                	sw	a2,56(a4)
     600:	0000                	unimp
     602:	1500                	addi	s0,sp,672
     604:	00a2                	slli	ra,ra,0x8
     606:	0000                	unimp
     608:	321e                	fld	ft4,480(sp)
     60a:	0006                	c.slli	zero,0x1
     60c:	0400                	addi	s0,sp,512
     60e:	0082                	c.slli64	ra
     610:	0000                	unimp
     612:	1e02                	slli	t3,t3,0x20
     614:	f52a                	sd	a0,168(sp)
     616:	0000                	unimp
     618:	0400                	addi	s0,sp,512
     61a:	0052                	c.slli	zero,0x14
     61c:	0000                	unimp
     61e:	1e02                	slli	t3,t3,0x20
     620:	d339                	beqz	a4,566 <__stack_align+0x556>
     622:	0000                	unimp
     624:	0e00                	addi	s0,sp,784
     626:	7470                	ld	a2,232(s0)
     628:	0072                	c.slli	zero,0x1c
     62a:	2002                	fld	ft0,0(sp)
     62c:	fe15                	bnez	a2,568 <__stack_align+0x558>
     62e:	0005                	c.nop	1
     630:	0000                	unimp
     632:	d214                	sw	a3,32(a2)
     634:	0001                	nop
     636:	0200                	addi	s0,sp,256
     638:	170c                	addi	a1,sp,928
     63a:	00c2                	slli	ra,ra,0x10
     63c:	0000                	unimp
     63e:	0000065b          	.insn	4, 0x065b
     642:	8204                	.insn	2, 0x8204
     644:	0000                	unimp
     646:	0200                	addi	s0,sp,256
     648:	2b0c                	fld	fa1,16(a4)
     64a:	00f5                	addi	ra,ra,29
     64c:	0000                	unimp
     64e:	700e                	.insn	2, 0x700e
     650:	7274                	ld	a3,224(a2)
     652:	0200                	addi	s0,sp,256
     654:	140e                	slli	s0,s0,0x23
     656:	0000065b          	.insn	4, 0x065b
     65a:	1000                	addi	s0,sp,32
     65c:	00ce                	slli	ra,ra,0x13
     65e:	0000                	unimp
     660:	ae15                	j	994 <__stack_align+0x984>
     662:	0000                	unimp
     664:	0600                	addi	s0,sp,768
     666:	0000068f          	.insn	4, 0x068f
     66a:	8204                	.insn	2, 0x8204
     66c:	0000                	unimp
     66e:	0200                	addi	s0,sp,256
     670:	2906                	fld	fs2,64(sp)
     672:	00f5                	addi	ra,ra,29
     674:	0000                	unimp
     676:	5204                	lw	s1,32(a2)
     678:	0000                	unimp
     67a:	0200                	addi	s0,sp,256
     67c:	3706                	fld	fa4,96(sp)
     67e:	00c2                	slli	ra,ra,0x10
     680:	0000                	unimp
     682:	700e                	.insn	2, 0x700e
     684:	7274                	ld	a3,224(a2)
     686:	0200                	addi	s0,sp,256
     688:	1408                	addi	a0,sp,544
     68a:	0000065b          	.insn	4, 0x065b
     68e:	2d00                	fld	fs0,24(a0)
     690:	02a0                	addi	s0,sp,328
     692:	0000                	unimp
     694:	0370                	addi	a2,sp,396
     696:	8000                	.insn	2, 0x8000
     698:	0000                	unimp
     69a:	0000                	unimp
     69c:	00e8                	addi	a0,sp,76
     69e:	0000                	unimp
     6a0:	0000                	unimp
     6a2:	0000                	unimp
     6a4:	9c01                	subw	s0,s0,s0
     6a6:	ad01                	j	cb6 <__stack_align+0xca6>
     6a8:	0002                	c.slli64	zero
     6aa:	9500                	.insn	2, 0x9500
     6ac:	0001                	nop
     6ae:	0300                	addi	s0,sp,384
     6b0:	02b9                	addi	t0,t0,14
     6b2:	0000                	unimp
     6b4:	01c0                	addi	s0,sp,196
     6b6:	0000                	unimp
     6b8:	0002c403          	lbu	s0,0(t0)
     6bc:	d600                	sw	s0,40(a2)
     6be:	0001                	nop
     6c0:	0700                	addi	s0,sp,896
     6c2:	0632                	slli	a2,a2,0xc
     6c4:	0000                	unimp
     6c6:	0374                	addi	a3,sp,396
     6c8:	8000                	.insn	2, 0x8000
     6ca:	0000                	unimp
     6cc:	0000                	unimp
     6ce:	004c                	addi	a1,sp,4
     6d0:	0000                	unimp
     6d2:	2301                	sext.w	t1,t1
     6d4:	ea09                	bnez	a2,6e6 <__stack_align+0x6d6>
     6d6:	0006                	c.slli	zero,0x1
     6d8:	0a00                	addi	s0,sp,272
     6da:	0642                	slli	a2,a2,0x10
     6dc:	0000                	unimp
     6de:	4c05                	li	s8,1
     6e0:	0000                	unimp
     6e2:	0800                	addi	s0,sp,16
     6e4:	064e                	slli	a2,a2,0x13
     6e6:	0000                	unimp
     6e8:	0000                	unimp
     6ea:	00055307          	.insn	4, 0x00055307
     6ee:	9000                	.insn	2, 0x9000
     6f0:	00800003          	lb	zero,8(zero) # 8 <__boot_hart+0x8>
     6f4:	0000                	unimp
     6f6:	5f00                	lw	s0,56(a4)
     6f8:	0000                	unimp
     6fa:	0100                	addi	s0,sp,128
     6fc:	0c24                	addi	s1,sp,536
     6fe:	0829                	addi	a6,a6,10 # c19a <__stack_size+0x419a>
     700:	0000                	unimp
     702:	8701                	c.srai64	a4
     704:	0005                	c.nop	1
     706:	eb00                	sd	s0,16(a4)
     708:	0001                	nop
     70a:	0100                	addi	s0,sp,128
     70c:	0000057b          	.insn	4, 0x057b
     710:	01f9                	addi	gp,gp,30 # 1e <__stack_align+0xe>
     712:	0000                	unimp
     714:	6f01                	.insn	2, 0x6f01
     716:	0005                	c.nop	1
     718:	0700                	addi	s0,sp,896
     71a:	0002                	c.slli64	zero
     71c:	0100                	addi	s0,sp,128
     71e:	00000563          	beqz	zero,728 <__stack_align+0x718>
     722:	0214                	addi	a3,sp,256
     724:	0000                	unimp
     726:	0005a107          	flw	ft2,0(a1) # 0 <__boot_hart>
     72a:	9000                	.insn	2, 0x9000
     72c:	00800003          	lb	zero,8(zero) # 8 <__boot_hart+0x8>
     730:	0000                	unimp
     732:	6f00                	ld	s0,24(a4)
     734:	0000                	unimp
     736:	0300                	addi	s0,sp,384
     738:	031f 0760 0000      	.insn	6, 0x0760031f
     73e:	b701                	j	63e <__stack_align+0x62e>
     740:	0005                	c.nop	1
     742:	2a00                	fld	fs0,16(a2)
     744:	0002                	c.slli64	zero
     746:	0100                	addi	s0,sp,128
     748:	000005ab          	.insn	4, 0x05ab
     74c:	0240                	addi	s0,sp,260
     74e:	0000                	unimp
     750:	6f05                	lui	t5,0x1
     752:	0000                	unimp
     754:	0300                	addi	s0,sp,384
     756:	000005c3          	fmadd.s	fa1,ft0,ft0,ft0,rne
     75a:	0240                	addi	s0,sp,260
     75c:	0000                	unimp
     75e:	0000                	unimp
     760:	0006030b          	.insn	4, 0x0006030b
     764:	9c00                	.insn	2, 0x9c00
     766:	00800003          	lb	zero,8(zero) # 8 <__boot_hart+0x8>
     76a:	0000                	unimp
     76c:	0800                	addi	s0,sp,16
     76e:	0000                	unimp
     770:	0000                	unimp
     772:	0000                	unimp
     774:	0300                	addi	s0,sp,384
     776:	0320                	addi	s0,sp,392
     778:	0798                	addi	a4,sp,960
     77a:	0000                	unimp
     77c:	1901                	addi	s2,s2,-32
     77e:	0006                	c.slli	zero,0x1
     780:	5200                	lw	s0,32(a2)
     782:	0002                	c.slli64	zero
     784:	0100                	addi	s0,sp,128
     786:	060d                	addi	a2,a2,3
     788:	0000                	unimp
     78a:	025f 0000 2503      	.insn	6, 0x25030000025f
     790:	0006                	c.slli	zero,0x1
     792:	5f00                	lw	s0,56(a4)
     794:	0002                	c.slli64	zero
     796:	0000                	unimp
     798:	0006030b          	.insn	4, 0x0006030b
     79c:	a400                	fsd	fs0,8(s0)
     79e:	00800003          	lb	zero,8(zero) # 8 <__boot_hart+0x8>
     7a2:	0000                	unimp
     7a4:	0c00                	addi	s0,sp,528
     7a6:	0000                	unimp
     7a8:	0000                	unimp
     7aa:	0000                	unimp
     7ac:	0300                	addi	s0,sp,384
     7ae:	0321                	addi	t1,t1,8
     7b0:	07d0                	addi	a2,sp,964
     7b2:	0000                	unimp
     7b4:	1901                	addi	s2,s2,-32
     7b6:	0006                	c.slli	zero,0x1
     7b8:	7100                	ld	s0,32(a0)
     7ba:	0002                	c.slli64	zero
     7bc:	0100                	addi	s0,sp,128
     7be:	060d                	addi	a2,a2,3
     7c0:	0000                	unimp
     7c2:	027f 0000 2503 0006 	.insn	10, 0x7f00000625030000027f
     7ca:	7f00 
     7cc:	0002                	c.slli64	zero
     7ce:	0000                	unimp
     7d0:	0006600b          	.insn	4, 0x0006600b
     7d4:	b000                	fsd	fs0,32(s0)
     7d6:	00800003          	lb	zero,8(zero) # 8 <__boot_hart+0x8>
     7da:	0000                	unimp
     7dc:	0400                	addi	s0,sp,512
     7de:	0000                	unimp
     7e0:	0000                	unimp
     7e2:	0000                	unimp
     7e4:	0300                	addi	s0,sp,384
     7e6:	0322                	slli	t1,t1,0x8
     7e8:	0808                	addi	a0,sp,16
     7ea:	0000                	unimp
     7ec:	7601                	lui	a2,0xfffe0
     7ee:	0006                	c.slli	zero,0x1
     7f0:	9100                	.insn	2, 0x9100
     7f2:	0002                	c.slli64	zero
     7f4:	0100                	addi	s0,sp,128
     7f6:	066a                	slli	a2,a2,0x1a
     7f8:	0000                	unimp
     7fa:	029f 0000 8203      	.insn	6, 0x82030000029f
     800:	0006                	c.slli	zero,0x1
     802:	9f00                	.insn	2, 0x9f00
     804:	0002                	c.slli64	zero
     806:	0000                	unimp
     808:	3219                	addiw	tp,tp,-26 # ffffffffffffffe6 <__heap_end+0xffffffff7ffdcfe6>
     80a:	0006                	c.slli	zero,0x1
     80c:	b800                	fsd	fs0,48(s0)
     80e:	00800003          	lb	zero,8(zero) # 8 <__boot_hart+0x8>
     812:	0000                	unimp
     814:	0800                	addi	s0,sp,16
     816:	0000                	unimp
     818:	0000                	unimp
     81a:	0000                	unimp
     81c:	0a00                	addi	s0,sp,272
     81e:	0642                	slli	a2,a2,0x10
     820:	0000                	unimp
     822:	4e08                	lw	a0,24(a2)
     824:	0006                	c.slli	zero,0x1
     826:	0000                	unimp
     828:	0700                	addi	s0,sp,896
     82a:	0632                	slli	a2,a2,0xc
     82c:	0000                	unimp
     82e:	03c0                	addi	s0,sp,452
     830:	8000                	.insn	2, 0x8000
     832:	0000                	unimp
     834:	0000                	unimp
     836:	007f 0000 2501 5209 	.insn	10, 0x0008520925010000007f
     83e:	0008 
     840:	0a00                	addi	s0,sp,272
     842:	0642                	slli	a2,a2,0x10
     844:	0000                	unimp
     846:	7f05                	lui	t5,0xfffe1
     848:	0000                	unimp
     84a:	0800                	addi	s0,sp,16
     84c:	064e                	slli	a2,a2,0x13
     84e:	0000                	unimp
     850:	0000                	unimp
     852:	0006320b          	.insn	4, 0x0006320b
     856:	cc00                	sw	s0,24(s0)
     858:	00800003          	lb	zero,8(zero) # 8 <__boot_hart+0x8>
     85c:	0000                	unimp
     85e:	0800                	addi	s0,sp,16
     860:	0000                	unimp
     862:	0000                	unimp
     864:	0000                	unimp
     866:	0100                	addi	s0,sp,128
     868:	0d26                	slli	s10,s10,0x9
     86a:	0879                	addi	a6,a6,30
     86c:	0000                	unimp
     86e:	420a                	lw	tp,128(sp)
     870:	0006                	c.slli	zero,0x1
     872:	0800                	addi	s0,sp,16
     874:	064e                	slli	a2,a2,0x13
     876:	0000                	unimp
     878:	0700                	addi	s0,sp,896
     87a:	02a0                	addi	s0,sp,328
     87c:	0000                	unimp
     87e:	03d8                	addi	a4,sp,452
     880:	8000                	.insn	2, 0x8000
     882:	0000                	unimp
     884:	0000                	unimp
     886:	0000008f          	.insn	4, 0x008f
     88a:	1f01                	addi	t5,t5,-32 # fffffffffffe0fe0 <__heap_end+0xffffffff7ffbdfe0>
     88c:	3306                	fld	ft6,96(sp)
     88e:	0009                	c.nop	2
     890:	0a00                	addi	s0,sp,272
     892:	02ad                	addi	t0,t0,11
     894:	0000                	unimp
     896:	8f05                	sub	a4,a4,s1
     898:	0000                	unimp
     89a:	0800                	addi	s0,sp,16
     89c:	02b9                	addi	t0,t0,14
     89e:	0000                	unimp
     8a0:	c408                	sw	a0,8(s0)
     8a2:	0002                	c.slli64	zero
     8a4:	1a00                	addi	s0,sp,304
     8a6:	000002cf          	fnmadd.s	ft5,ft0,ft0,ft0,rne
     8aa:	0000008f          	.insn	4, 0x008f
     8ae:	0002d003          	lhu	zero,0(t0)
     8b2:	b100                	fsd	fs0,32(a0)
     8b4:	0002                	c.slli64	zero
     8b6:	1a00                	addi	s0,sp,304
     8b8:	02da                	slli	t0,t0,0x16
     8ba:	0000                	unimp
     8bc:	009f 0000 db03      	.insn	6, 0xdb030000009f
     8c2:	0002                	c.slli64	zero
     8c4:	c500                	sw	s0,8(a0)
     8c6:	0002                	c.slli64	zero
     8c8:	0300                	addi	s0,sp,384
     8ca:	02e6                	slli	t0,t0,0x19
     8cc:	0000                	unimp
     8ce:	02d9                	addi	t0,t0,22
     8d0:	0000                	unimp
     8d2:	0004280f          	.insn	4, 0x0004280f
     8d6:	0080                	addi	s0,sp,64
     8d8:	0000                	unimp
     8da:	3900                	fld	fs0,48(a0)
     8dc:	0001                	nop
     8de:	f100                	sd	s0,32(a0)
     8e0:	0008                	.insn	2, 0x0008
     8e2:	0200                	addi	s0,sp,256
     8e4:	5a01                	li	s4,-32
     8e6:	0309                	addi	t1,t1,2
     8e8:	1e40                	addi	s0,sp,820
     8ea:	8000                	.insn	2, 0x8000
     8ec:	0000                	unimp
     8ee:	0000                	unimp
     8f0:	0f00                	addi	s0,sp,912
     8f2:	043c                	addi	a5,sp,520
     8f4:	8000                	.insn	2, 0x8000
     8f6:	0000                	unimp
     8f8:	0000                	unimp
     8fa:	0139                	addi	sp,sp,14
     8fc:	0000                	unimp
     8fe:	091c                	addi	a5,sp,144
     900:	0000                	unimp
     902:	0102                	c.slli64	sp
     904:	095a                	slli	s2,s2,0x16
     906:	001e7003          	.insn	4, 0x001e7003
     90a:	0080                	addi	s0,sp,64
     90c:	0000                	unimp
     90e:	0200                	addi	s0,sp,256
     910:	5b01                	li	s6,-32
     912:	7802                	ld	a6,32(sp)
     914:	0200                	addi	s0,sp,256
     916:	5c01                	li	s8,-32
     918:	7902                	ld	s2,32(sp)
     91a:	0000                	unimp
     91c:	440d                	li	s0,3
     91e:	0004                	.insn	2, 0x0004
     920:	0080                	addi	s0,sp,64
     922:	0000                	unimp
     924:	2700                	fld	fs0,8(a4)
     926:	0001                	nop
     928:	0200                	addi	s0,sp,256
     92a:	5a01                	li	s4,-32
     92c:	3101                	addiw	sp,sp,-32
     92e:	0000                	unimp
     930:	0000                	unimp
     932:	0f00                	addi	s0,sp,912
     934:	0450                	addi	a2,sp,516
     936:	8000                	.insn	2, 0x8000
     938:	0000                	unimp
     93a:	0000                	unimp
     93c:	0139                	addi	sp,sp,14
     93e:	0000                	unimp
     940:	0952                	slli	s2,s2,0x14
     942:	0000                	unimp
     944:	0102                	c.slli64	sp
     946:	095a                	slli	s2,s2,0x16
     948:	001e0803          	lb	a6,1(t3)
     94c:	0080                	addi	s0,sp,64
     94e:	0000                	unimp
     950:	0000                	unimp
     952:	580d                	li	a6,-29
     954:	0004                	.insn	2, 0x0004
     956:	0080                	addi	s0,sp,64
     958:	0000                	unimp
     95a:	2700                	fld	fs0,8(a4)
     95c:	0001                	nop
     95e:	0200                	addi	s0,sp,256
     960:	5a01                	li	s4,-32
     962:	3101                	addiw	sp,sp,-32
     964:	0000                	unimp
     966:	cd00                	sw	s0,24(a0)
     968:	0000                	unimp
     96a:	0500                	addi	s0,sp,640
     96c:	0100                	addi	s0,sp,128
     96e:	7708                	ld	a0,40(a4)
     970:	0002                	c.slli64	zero
     972:	0200                	addi	s0,sp,256
     974:	01e8                	addi	a0,sp,204
     976:	0000                	unimp
     978:	d51d                	beqz	a0,8a6 <__stack_align+0x896>
     97a:	0002                	c.slli64	zero
     97c:	8d00                	.insn	2, 0x8d00
     97e:	0002                	c.slli64	zero
     980:	cc00                	sw	s0,24(s0)
     982:	001a                	c.slli	zero,0x6
     984:	0080                	addi	s0,sp,64
     986:	0000                	unimp
     988:	1400                	addi	s0,sp,544
     98a:	0000                	unimp
     98c:	0000                	unimp
     98e:	0000                	unimp
     990:	8200                	.insn	2, 0x8200
     992:	0006                	c.slli	zero,0x1
     994:	0300                	addi	s0,sp,384
     996:	0504                	addi	s1,sp,640
     998:	6e69                	lui	t3,0x1a
     99a:	0074                	addi	a3,sp,12
     99c:	0801                	addi	a6,a6,0
     99e:	e005                	bnez	s0,9be <__stack_align+0x9ae>
     9a0:	0000                	unimp
     9a2:	0100                	addi	s0,sp,128
     9a4:	0708                	addi	a0,sp,896
     9a6:	00be                	slli	ra,ra,0xf
     9a8:	0000                	unimp
     9aa:	0801                	addi	a6,a6,0
     9ac:	db05                	beqz	a4,8dc <__stack_align+0x8cc>
     9ae:	0000                	unimp
     9b0:	0100                	addi	s0,sp,128
     9b2:	0410                	addi	a2,sp,512
     9b4:	027e                	slli	tp,tp,0x1f
     9b6:	0000                	unimp
     9b8:	0401                	addi	s0,s0,0
     9ba:	0000c307          	.insn	4, 0xc307
     9be:	0100                	addi	s0,sp,128
     9c0:	0601                	addi	a2,a2,0 # fffffffffffe0000 <__heap_end+0xffffffff7ffbd000>
     9c2:	0059                	c.nop	22
     9c4:	0000                	unimp
     9c6:	0101                	addi	sp,sp,0
     9c8:	5708                	lw	a0,40(a4)
     9ca:	0000                	unimp
     9cc:	0100                	addi	s0,sp,128
     9ce:	0502                	c.slli64	a0
     9d0:	0000019b          	sext.w	gp,zero
     9d4:	0201                	addi	tp,tp,0 # 0 <__boot_hart>
     9d6:	00002b07          	flw	fs6,0(zero) # 0 <__boot_hart>
     9da:	0100                	addi	s0,sp,128
     9dc:	0801                	addi	a6,a6,0
     9de:	0060                	addi	s0,sp,12
     9e0:	0000                	unimp
     9e2:	0801                	addi	a6,a6,0
     9e4:	0000b907          	fld	fs2,0(ra)
     9e8:	0400                	addi	s0,sp,512
     9ea:	0276                	slli	tp,tp,0x1d
     9ec:	0000                	unimp
     9ee:	1302                	slli	t1,t1,0x20
     9f0:	8e0d                	sub	a2,a2,a1
     9f2:	0000                	unimp
     9f4:	0500                	addi	s0,sp,640
     9f6:	2e08                	fld	fa0,24(a2)
     9f8:	0000                	unimp
     9fa:	0600                	addi	s0,sp,768
     9fc:	01dc                	addi	a5,sp,196
     9fe:	0000                	unimp
     a00:	0401                	addi	s0,s0,0
     a02:	2e05                	addiw	t3,t3,1 # 1a001 <__stack_size+0x12001>
     a04:	0000                	unimp
     a06:	cc00                	sw	s0,24(s0)
     a08:	001a                	c.slli	zero,0x6
     a0a:	0080                	addi	s0,sp,64
     a0c:	0000                	unimp
     a0e:	1400                	addi	s0,sp,544
     a10:	0000                	unimp
     a12:	0000                	unimp
     a14:	0000                	unimp
     a16:	0100                	addi	s0,sp,128
     a18:	079c                	addi	a5,sp,960
     a1a:	000001e3          	beqz	zero,121c <__stack_align+0x120c>
     a1e:	0401                	addi	s0,s0,0
     a20:	2e10                	fld	fa2,24(a2)
     a22:	0000                	unimp
     a24:	ff00                	sd	s0,56(a4)
     a26:	0002                	c.slli64	zero
     a28:	0800                	addi	s0,sp,16
     a2a:	1ad4                	addi	a3,sp,372
     a2c:	8000                	.insn	2, 0x8000
     a2e:	0000                	unimp
     a30:	0000                	unimp
     a32:	0082                	c.slli64	ra
     a34:	0000                	unimp
     a36:	0000                	unimp
     a38:	00e0                	addi	s0,sp,76
     a3a:	0000                	unimp
     a3c:	0005                	c.nop	1
     a3e:	0801                	addi	a6,a6,0
     a40:	02f4                	addi	a3,sp,332
     a42:	0000                	unimp
     a44:	e804                	sd	s1,16(s0)
     a46:	0001                	nop
     a48:	1d00                	addi	s0,sp,688
     a4a:	000002f3          	.insn	4, 0x02f3
     a4e:	028d                	addi	t0,t0,3
     a50:	0000                	unimp
     a52:	1ae0                	addi	s0,sp,380
     a54:	8000                	.insn	2, 0x8000
     a56:	0000                	unimp
     a58:	0000                	unimp
     a5a:	0022                	c.slli	zero,0x8
     a5c:	0000                	unimp
     a5e:	0000                	unimp
     a60:	0000                	unimp
     a62:	0718                	addi	a4,sp,896
     a64:	0000                	unimp
     a66:	0801                	addi	a6,a6,0
     a68:	e005                	bnez	s0,a88 <__stack_align+0xa78>
     a6a:	0000                	unimp
     a6c:	0100                	addi	s0,sp,128
     a6e:	0708                	addi	a0,sp,896
     a70:	00be                	slli	ra,ra,0xf
     a72:	0000                	unimp
     a74:	0405                	addi	s0,s0,1
     a76:	6905                	lui	s2,0x1
     a78:	746e                	ld	s0,248(sp)
     a7a:	0100                	addi	s0,sp,128
     a7c:	0508                	addi	a0,sp,640
     a7e:	000000db          	.insn	4, 0x00db
     a82:	1001                	c.nop	-32
     a84:	7e04                	ld	s1,56(a2)
     a86:	0002                	c.slli64	zero
     a88:	0100                	addi	s0,sp,128
     a8a:	0601                	addi	a2,a2,0
     a8c:	0059                	c.nop	22
     a8e:	0000                	unimp
     a90:	0101                	addi	sp,sp,0
     a92:	5708                	lw	a0,40(a4)
     a94:	0000                	unimp
     a96:	0100                	addi	s0,sp,128
     a98:	0502                	c.slli64	a0
     a9a:	0000019b          	sext.w	gp,zero
     a9e:	0201                	addi	tp,tp,0 # 0 <__boot_hart>
     aa0:	00002b07          	flw	fs6,0(zero) # 0 <__boot_hart>
     aa4:	0100                	addi	s0,sp,128
     aa6:	0704                	addi	s1,sp,896
     aa8:	000000c3          	fmadd.s	ft1,ft0,ft0,ft0,rne
     aac:	a502                	fsd	ft0,136(sp)
     aae:	0001                	nop
     ab0:	0200                	addi	s0,sp,256
     ab2:	1969                	addi	s2,s2,-6 # ffa <__stack_align+0xfea>
     ab4:	0035                	c.nop	13
     ab6:	0000                	unimp
     ab8:	a702                	fsd	ft0,392(sp)
     aba:	0001                	nop
     abc:	0300                	addi	s0,sp,384
     abe:	143c                	addi	a5,sp,552
     ac0:	0074                	addi	a3,sp,12
     ac2:	0000                	unimp
     ac4:	8006                	c.mv	zero,ra
     ac6:	0000                	unimp
     ac8:	0100                	addi	s0,sp,128
     aca:	0801                	addi	a6,a6,0
     acc:	0060                	addi	s0,sp,12
     ace:	0000                	unimp
     ad0:	00028a03          	lb	s4,0(t0)
     ad4:	0600                	addi	s0,sp,768
     ad6:	008c                	addi	a1,sp,64
     ad8:	0000                	unimp
     ada:	00029703          	lh	a4,0(t0)
     ade:	0700                	addi	s0,sp,896
     ae0:	008c                	addi	a1,sp,64
     ae2:	0000                	unimp
     ae4:	00029107          	.insn	4, 0x00029107
     ae8:	0100                	addi	s0,sp,128
     aea:	2104                	fld	fs1,0(a0)
     aec:	1ae0                	addi	s0,sp,380
     aee:	8000                	.insn	2, 0x8000
     af0:	0000                	unimp
     af2:	0000                	unimp
     af4:	0022                	c.slli	zero,0x8
     af6:	0000                	unimp
     af8:	0000                	unimp
     afa:	0000                	unimp
     afc:	9c01                	subw	s0,s0,s0
     afe:	a008                	fsd	fa0,0(s0)
     b00:	0002                	c.slli64	zero
     b02:	0100                	addi	s0,sp,128
     b04:	2b04                	fld	fs1,16(a4)
     b06:	003c                	addi	a5,sp,8
     b08:	0000                	unimp
     b0a:	5a01                	li	s4,-32
     b0c:	6309                	lui	t1,0x2
     b0e:	646d                	lui	s0,0x1b
     b10:	0100                	addi	s0,sp,128
     b12:	0e06                	slli	t3,t3,0x1
     b14:	0080                	addi	s0,sp,64
     b16:	0000                	unimp
     b18:	5f01                	li	t5,-32
     b1a:	0000                	unimp
     b1c:	02da                	slli	t0,t0,0x16
     b1e:	0000                	unimp
     b20:	0005                	c.nop	1
     b22:	0801                	addi	a6,a6,0
     b24:	00000387          	.insn	4, 0x0387
     b28:	e806                	sd	ra,16(sp)
     b2a:	0001                	nop
     b2c:	1d00                	addi	s0,sp,688
     b2e:	00000313          	li	t1,0
     b32:	028d                	addi	t0,t0,3
     b34:	0000                	unimp
     b36:	1b02                	slli	s6,s6,0x20
     b38:	8000                	.insn	2, 0x8000
     b3a:	0000                	unimp
     b3c:	0000                	unimp
     b3e:	0014                	.insn	2, 0x0014
     b40:	0000                	unimp
     b42:	0000                	unimp
     b44:	0000                	unimp
     b46:	000007d7          	.insn	4, 0x07d7
     b4a:	69050407          	.insn	4, 0x69050407
     b4e:	746e                	ld	s0,248(sp)
     b50:	0300                	addi	s0,sp,384
     b52:	0508                	addi	a0,sp,640
     b54:	00e0                	addi	s0,sp,76
     b56:	0000                	unimp
     b58:	be070803          	lb	a6,-1056(a4) # 17be0 <__stack_size+0xfbe0>
     b5c:	0000                	unimp
     b5e:	0300                	addi	s0,sp,384
     b60:	0508                	addi	a0,sp,640
     b62:	000000db          	.insn	4, 0x00db
     b66:	7e041003          	lh	zero,2016(s0) # 1b7e0 <__stack_size+0x137e0>
     b6a:	0002                	c.slli64	zero
     b6c:	0300                	addi	s0,sp,384
     b6e:	0704                	addi	s1,sp,896
     b70:	000000c3          	fmadd.s	ft1,ft0,ft0,ft0,rne
     b74:	59060103          	lb	sp,1424(a2)
     b78:	0000                	unimp
     b7a:	0300                	addi	s0,sp,384
     b7c:	0801                	addi	a6,a6,0
     b7e:	00000057          	.insn	4, 0x0057
     b82:	9b050203          	lb	tp,-1616(a0) # 59b0 <__stack_align+0x59a0>
     b86:	0001                	nop
     b88:	0300                	addi	s0,sp,384
     b8a:	0702                	c.slli64	a4
     b8c:	0000002b          	.insn	4, 0x002b
     b90:	8701                	c.srai64	a4
     b92:	0000                	unimp
     b94:	0200                	addi	s0,sp,256
     b96:	0051194f          	fnmadd.s	fs2,ft2,ft5,ft0,rtz
     b9a:	0000                	unimp
     b9c:	3101                	addiw	sp,sp,-32
     b9e:	03000003          	lb	zero,48(zero) # 30 <__stack_align+0x20>
     ba2:	0e1e                	slli	t3,t3,0x7
     ba4:	0035                	c.nop	13
     ba6:	0000                	unimp
     ba8:	2501                	sext.w	a0,a0
     baa:	03000003          	lb	zero,48(zero) # 30 <__stack_align+0x20>
     bae:	0e22                	slli	t3,t3,0x8
     bb0:	0035                	c.nop	13
     bb2:	0000                	unimp
     bb4:	5401                	li	s0,-32
     bb6:	03000003          	lb	zero,48(zero) # 30 <__stack_align+0x20>
     bba:	0e2e                	slli	t3,t3,0xb
     bbc:	0035                	c.nop	13
     bbe:	0000                	unimp
     bc0:	ea01                	bnez	a2,bd0 <__stack_align+0xbc0>
     bc2:	0002                	c.slli64	zero
     bc4:	0300                	addi	s0,sp,384
     bc6:	0f38                	addi	a4,sp,920
     bc8:	0066                	c.slli	zero,0x19
     bca:	0000                	unimp
     bcc:	a501                	j	11cc <__stack_align+0x11bc>
     bce:	0002                	c.slli64	zero
     bd0:	0300                	addi	s0,sp,384
     bd2:	183c                	addi	a5,sp,56
     bd4:	006d                	c.nop	27
     bd6:	0000                	unimp
     bd8:	4b01                	li	s6,0
     bda:	03000003          	lb	zero,48(zero) # 30 <__stack_align+0x20>
     bde:	006d183f 7b010000 	.insn	8, 0x7b010000006d183f
     be6:	03000003          	lb	zero,48(zero) # 30 <__stack_align+0x20>
     bea:	006d184b          	fnmsub.s	fa6,fs10,ft6,ft0,rtz
     bee:	0000                	unimp
     bf0:	7201                	lui	tp,0xfffe0
     bf2:	03000003          	lb	zero,48(zero) # 30 <__stack_align+0x20>
     bf6:	145a                	slli	s0,s0,0x36
     bf8:	0074                	addi	a3,sp,12
     bfa:	0000                	unimp
     bfc:	5301                	li	t1,-32
     bfe:	03000003          	lb	zero,48(zero) # 30 <__stack_align+0x20>
     c02:	1066                	c.slli	zero,0x39
     c04:	0098                	addi	a4,sp,64
     c06:	0000                	unimp
     c08:	1301                	addi	t1,t1,-32 # 1fe0 <__stack_align+0x1fd0>
     c0a:	03000003          	lb	zero,48(zero) # 30 <__stack_align+0x20>
     c0e:	18d5                	addi	a7,a7,-11
     c10:	006d                	c.nop	27
     c12:	0000                	unimp
     c14:	60080103          	lb	sp,1536(a6)
     c18:	0000                	unimp
     c1a:	0300                	addi	s0,sp,384
     c1c:	0708                	addi	a0,sp,896
     c1e:	00b9                	addi	ra,ra,14
     c20:	0000                	unimp
     c22:	3301                	addiw	t1,t1,-32
     c24:	04000003          	lb	zero,64(zero) # 40 <__stack_align+0x30>
     c28:	1461                	addi	s0,s0,-8
     c2a:	0080                	addi	s0,sp,64
     c2c:	0000                	unimp
     c2e:	2701                	sext.w	a4,a4
     c30:	04000003          	lb	zero,64(zero) # 40 <__stack_align+0x30>
     c34:	1566                	slli	a0,a0,0x39
     c36:	008c                	addi	a1,sp,64
     c38:	0000                	unimp
     c3a:	0c01                	addi	s8,s8,0
     c3c:	04000003          	lb	zero,64(zero) # 40 <__stack_align+0x30>
     c40:	1271                	addi	tp,tp,-4 # fffffffffffdfffc <__heap_end+0xffffffff7ffbcffc>
     c42:	0035                	c.nop	13
     c44:	0000                	unimp
     c46:	7d01                	lui	s10,0xfffe0
     c48:	04000003          	lb	zero,64(zero) # 40 <__stack_align+0x30>
     c4c:	1289                	addi	t0,t0,-30
     c4e:	00c8                	addi	a0,sp,68
     c50:	0000                	unimp
     c52:	5501                	li	a0,-32
     c54:	04000003          	lb	zero,64(zero) # 40 <__stack_align+0x30>
     c58:	00e0129b          	slliw	t0,zero,0xe
     c5c:	0000                	unimp
     c5e:	ec01                	bnez	s0,c76 <__stack_align+0xc66>
     c60:	0002                	c.slli64	zero
     c62:	0400                	addi	s0,sp,512
     c64:	129f 00a4 0000      	.insn	6, 0x00a4129f
     c6a:	a701                	j	136a <__stack_align+0x135a>
     c6c:	0002                	c.slli64	zero
     c6e:	0400                	addi	s0,sp,512
     c70:	00b012a3          	sh	a1,5(zero) # 5 <__boot_hart+0x5>
     c74:	0000                	unimp
     c76:	4d01                	li	s10,0
     c78:	04000003          	lb	zero,64(zero) # 40 <__stack_align+0x30>
     c7c:	00bc12a7          	.insn	4, 0x00bc12a7
     c80:	0000                	unimp
     c82:	7401                	lui	s0,0xfffe0
     c84:	04000003          	lb	zero,64(zero) # 40 <__stack_align+0x30>
     c88:	00d412bb          	sllw	t0,s0,a3
     c8c:	0000                	unimp
     c8e:	1501                	addi	a0,a0,-32
     c90:	04000003          	lb	zero,64(zero) # 40 <__stack_align+0x30>
     c94:	13c0                	addi	s0,sp,484
     c96:	00ec                	addi	a1,sp,76
     c98:	0000                	unimp
     c9a:	6204                	ld	s1,0(a2)
     c9c:	10000003          	lb	zero,256(zero) # 100 <__stack_align+0xf0>
     ca0:	2f05                	addiw	t5,t5,1
     ca2:	01a5                	addi	gp,gp,9 # 80002881 <__global_pointer$+0x9>
     ca4:	0000                	unimp
     ca6:	5b02                	lw	s6,32(sp)
     ca8:	05000003          	lb	zero,80(zero) # 50 <__stack_align+0x40>
     cac:	0930                	addi	a2,sp,152
     cae:	011e                	slli	sp,sp,0x7
     cb0:	0000                	unimp
     cb2:	0200                	addi	s0,sp,256
     cb4:	02b6                	slli	t0,t0,0xd
     cb6:	0000                	unimp
     cb8:	3105                	addiw	sp,sp,-31
     cba:	00003507          	fld	fa0,0(zero) # 0 <__boot_hart>
     cbe:	0800                	addi	s0,sp,16
     cc0:	0400                	addi	s0,sp,512
     cc2:	036d                	addi	t1,t1,27
     cc4:	0000                	unimp
     cc6:	0668                	addi	a0,sp,780
     cc8:	0002681b          	.insn	4, 0x0002681b
     ccc:	0200                	addi	s0,sp,256
     cce:	00000383          	lb	t2,0(zero) # 0 <__boot_hart>
     cd2:	1d06                	slli	s10,s10,0x21
     cd4:	420a                	lw	tp,128(sp)
     cd6:	0001                	nop
     cd8:	0000                	unimp
     cda:	ce02                	sw	zero,28(sp)
     cdc:	0002                	c.slli64	zero
     cde:	0600                	addi	s0,sp,768
     ce0:	0a1e                	slli	s4,s4,0x7
     ce2:	012a                	slli	sp,sp,0xa
     ce4:	0000                	unimp
     ce6:	0202                	c.slli64	tp
     ce8:	02fc                	addi	a5,sp,332
     cea:	0000                	unimp
     cec:	1f06                	slli	t5,t5,0x21
     cee:	660a                	ld	a2,128(sp)
     cf0:	0001                	nop
     cf2:	0400                	addi	s0,sp,512
     cf4:	ad02                	fsd	ft0,152(sp)
     cf6:	0002                	c.slli64	zero
     cf8:	0600                	addi	s0,sp,768
     cfa:	0b20                	addi	s0,sp,408
     cfc:	0172                	slli	sp,sp,0x1c
     cfe:	0000                	unimp
     d00:	0208                	addi	a0,sp,256
     d02:	0344                	addi	s1,sp,388
     d04:	0000                	unimp
     d06:	2106                	fld	ft2,64(sp)
     d08:	4e0a                	lw	t3,128(sp)
     d0a:	0001                	nop
     d0c:	0a00                	addi	s0,sp,272
     d0e:	8a02                	jr	s4
     d10:	06000003          	lb	zero,96(zero) # 60 <__stack_align+0x50>
     d14:	0a22                	slli	s4,s4,0x8
     d16:	015a                	slli	sp,sp,0x16
     d18:	0000                	unimp
     d1a:	020c                	addi	a1,sp,256
     d1c:	031d                	addi	t1,t1,7
     d1e:	0000                	unimp
     d20:	2306                	fld	ft6,64(sp)
     d22:	420a                	lw	tp,128(sp)
     d24:	0001                	nop
     d26:	0e00                	addi	s0,sp,784
     d28:	be02                	fsd	ft0,312(sp)
     d2a:	0002                	c.slli64	zero
     d2c:	0600                	addi	s0,sp,768
     d2e:	0a24                	addi	s1,sp,280
     d30:	0136                	slli	sp,sp,0xd
     d32:	0000                	unimp
     d34:	0210                	addi	a2,sp,256
     d36:	0304                	addi	s1,sp,384
     d38:	0000                	unimp
     d3a:	2a06                	fld	fs4,64(sp)
     d3c:	00017e13          	andi	t3,sp,0
     d40:	1800                	addi	s0,sp,48
     d42:	c602                	sw	zero,12(sp)
     d44:	0002                	c.slli64	zero
     d46:	0600                	addi	s0,sp,768
     d48:	017e132b          	.insn	4, 0x017e132b
     d4c:	0000                	unimp
     d4e:	0228                	addi	a0,sp,264
     d50:	033c                	addi	a5,sp,392
     d52:	0000                	unimp
     d54:	2c06                	fld	fs8,64(sp)
     d56:	00017e13          	andi	t3,sp,0
     d5a:	3800                	fld	fs0,48(s0)
     d5c:	d502                	sw	zero,168(sp)
     d5e:	0002                	c.slli64	zero
     d60:	0600                	addi	s0,sp,768
     d62:	112d                	addi	sp,sp,-21
     d64:	0112                	slli	sp,sp,0x4
     d66:	0000                	unimp
     d68:	0248                	addi	a0,sp,260
     d6a:	02f2                	slli	t0,t0,0x1c
     d6c:	0000                	unimp
     d6e:	2e06                	fld	ft8,64(sp)
     d70:	060c                	addi	a1,sp,768
     d72:	0001                	nop
     d74:	5000                	lw	s0,32(s0)
     d76:	e002                	sd	zero,0(sp)
     d78:	0002                	c.slli64	zero
     d7a:	0600                	addi	s0,sp,768
     d7c:	0930                	addi	a2,sp,152
     d7e:	0268                	addi	a0,sp,268
     d80:	0000                	unimp
     d82:	0058                	addi	a4,sp,4
     d84:	3508                	fld	fa0,40(a0)
     d86:	0000                	unimp
     d88:	7800                	ld	s0,48(s0)
     d8a:	0002                	c.slli64	zero
     d8c:	0900                	addi	s0,sp,144
     d8e:	003c                	addi	a5,sp,8
     d90:	0000                	unimp
     d92:	0001                	nop
     d94:	760a                	ld	a2,160(sp)
     d96:	0002                	c.slli64	zero
     d98:	0700                	addi	s0,sp,896
     d9a:	02840d13          	addi	s10,s0,40 # fffffffffffe0028 <__heap_end+0xffffffff7ffbd028>
     d9e:	0000                	unimp
     da0:	2e05                	addiw	t3,t3,1
     da2:	0000                	unimp
     da4:	0b00                	addi	s0,sp,400
     da6:	0000036b          	.insn	4, 0x036b
     daa:	0501                	addi	a0,a0,0
     dac:	2e05                	addiw	t3,t3,1
     dae:	0000                	unimp
     db0:	0200                	addi	s0,sp,256
     db2:	0080001b          	addiw	zero,zero,8
     db6:	0000                	unimp
     db8:	1400                	addi	s0,sp,544
     dba:	0000                	unimp
     dbc:	0000                	unimp
     dbe:	0000                	unimp
     dc0:	0100                	addi	s0,sp,128
     dc2:	d89c                	sw	a5,48(s1)
     dc4:	0002                	c.slli64	zero
     dc6:	0c00                	addi	s0,sp,528
     dc8:	000001e3          	beqz	zero,15ca <__stack_align+0x15ba>
     dcc:	0501                	addi	a0,a0,0
     dce:	2e10                	fld	fa2,24(a2)
     dd0:	0000                	unimp
     dd2:	1900                	addi	s0,sp,176
     dd4:	0d000003          	lb	zero,208(zero) # d0 <__stack_align+0xc0>
     dd8:	01007473          	csrrci	s0,0x10,0
     ddc:	2305                	addiw	t1,t1,1
     dde:	02d8                	addi	a4,sp,324
     de0:	0000                	unimp
     de2:	00000327          	.insn	4, 0x0327
     de6:	0a0e                	slli	s4,s4,0x3
     de8:	0080001b          	addiw	zero,zero,8
     dec:	0000                	unimp
     dee:	7800                	ld	s0,48(s0)
     df0:	0002                	c.slli64	zero
     df2:	0000                	unimp
     df4:	a505                	j	1414 <__stack_align+0x1404>
     df6:	0001                	nop
     df8:	0000                	unimp
     dfa:	000000a7          	.insn	4, 0x00a7
     dfe:	0005                	c.nop	1
     e00:	0801                	addi	a6,a6,0
     e02:	045c                	addi	a5,sp,516
     e04:	0000                	unimp
     e06:	e802                	sd	zero,16(sp)
     e08:	0001                	nop
     e0a:	1d00                	addi	s0,sp,688
     e0c:	0335                	addi	t1,t1,13
     e0e:	0000                	unimp
     e10:	028d                	addi	t0,t0,3
     e12:	0000                	unimp
     e14:	1b16                	slli	s6,s6,0x25
     e16:	8000                	.insn	2, 0x8000
     e18:	0000                	unimp
     e1a:	0000                	unimp
     e1c:	0008                	.insn	2, 0x0008
     e1e:	0000                	unimp
     e20:	0000                	unimp
     e22:	0000                	unimp
     e24:	088a                	slli	a7,a7,0x2
     e26:	0000                	unimp
     e28:	0101                	addi	sp,sp,0
     e2a:	5906                	lw	s2,96(sp)
     e2c:	0000                	unimp
     e2e:	0100                	addi	s0,sp,128
     e30:	0801                	addi	a6,a6,0
     e32:	00000057          	.insn	4, 0x0057
     e36:	0201                	addi	tp,tp,0 # 0 <__boot_hart>
     e38:	9b05                	andi	a4,a4,-31
     e3a:	0001                	nop
     e3c:	0100                	addi	s0,sp,128
     e3e:	0702                	c.slli64	a4
     e40:	0000002b          	.insn	4, 0x002b
     e44:	69050403          	lb	s0,1680(a0)
     e48:	746e                	ld	s0,248(sp)
     e4a:	0100                	addi	s0,sp,128
     e4c:	0704                	addi	s1,sp,896
     e4e:	000000c3          	fmadd.s	ft1,ft0,ft0,ft0,rne
     e52:	0801                	addi	a6,a6,0
     e54:	e005                	bnez	s0,e74 <__stack_align+0xe64>
     e56:	0000                	unimp
     e58:	0100                	addi	s0,sp,128
     e5a:	0708                	addi	a0,sp,896
     e5c:	00be                	slli	ra,ra,0xf
     e5e:	0000                	unimp
     e60:	0801                	addi	a6,a6,0
     e62:	db05                	beqz	a4,d92 <__stack_align+0xd82>
     e64:	0000                	unimp
     e66:	0100                	addi	s0,sp,128
     e68:	0801                	addi	a6,a6,0
     e6a:	0060                	addi	s0,sp,12
     e6c:	0000                	unimp
     e6e:	1001                	c.nop	-32
     e70:	7e04                	ld	s1,56(a2)
     e72:	0002                	c.slli64	zero
     e74:	0400                	addi	s0,sp,512
     e76:	0391                	addi	t2,t2,4
     e78:	0000                	unimp
     e7a:	0401                	addi	s0,s0,0
     e7c:	4a05                	li	s4,1
     e7e:	0000                	unimp
     e80:	1600                	addi	s0,sp,800
     e82:	0080001b          	addiw	zero,zero,8
     e86:	0000                	unimp
     e88:	0800                	addi	s0,sp,16
     e8a:	0000                	unimp
     e8c:	0000                	unimp
     e8e:	0000                	unimp
     e90:	0100                	addi	s0,sp,128
     e92:	059c                	addi	a5,sp,704
     e94:	000001e3          	beqz	zero,1696 <__stack_align+0x1686>
     e98:	0401                	addi	s0,s0,0
     e9a:	4a11                	li	s4,4
     e9c:	0000                	unimp
     e9e:	4100                	lw	s0,0(a0)
     ea0:	00000003          	lb	zero,0(zero) # 0 <__boot_hart>
     ea4:	0d00                	addi	s0,sp,656
     ea6:	0001                	nop
     ea8:	0500                	addi	s0,sp,640
     eaa:	0100                	addi	s0,sp,128
     eac:	b208                	fsd	fa0,32(a2)
     eae:	0004                	.insn	2, 0x0004
     eb0:	0400                	addi	s0,sp,512
     eb2:	01e8                	addi	a0,sp,204
     eb4:	0000                	unimp
     eb6:	451d                	li	a0,7
     eb8:	8d000003          	lb	zero,-1840(zero) # fffffffffffff8d0 <__heap_end+0xffffffff7ffdc8d0>
     ebc:	0002                	c.slli64	zero
     ebe:	1e00                	addi	s0,sp,816
     ec0:	0080001b          	addiw	zero,zero,8
     ec4:	0000                	unimp
     ec6:	1400                	addi	s0,sp,544
     ec8:	0000                	unimp
     eca:	0000                	unimp
     ecc:	0000                	unimp
     ece:	f100                	sd	s0,32(a0)
     ed0:	0008                	.insn	2, 0x0008
     ed2:	0500                	addi	s0,sp,640
     ed4:	0504                	addi	s1,sp,640
     ed6:	6e69                	lui	t3,0x1a
     ed8:	0074                	addi	a3,sp,12
     eda:	0801                	addi	a6,a6,0
     edc:	e005                	bnez	s0,efc <__stack_align+0xeec>
     ede:	0000                	unimp
     ee0:	0100                	addi	s0,sp,128
     ee2:	0708                	addi	a0,sp,896
     ee4:	00be                	slli	ra,ra,0xf
     ee6:	0000                	unimp
     ee8:	0801                	addi	a6,a6,0
     eea:	db05                	beqz	a4,e1a <__stack_align+0xe0a>
     eec:	0000                	unimp
     eee:	0100                	addi	s0,sp,128
     ef0:	0410                	addi	a2,sp,512
     ef2:	027e                	slli	tp,tp,0x1f
     ef4:	0000                	unimp
     ef6:	0401                	addi	s0,s0,0
     ef8:	0000c307          	.insn	4, 0xc307
     efc:	0100                	addi	s0,sp,128
     efe:	0601                	addi	a2,a2,0
     f00:	0059                	c.nop	22
     f02:	0000                	unimp
     f04:	0101                	addi	sp,sp,0
     f06:	5708                	lw	a0,40(a4)
     f08:	0000                	unimp
     f0a:	0100                	addi	s0,sp,128
     f0c:	0502                	c.slli64	a0
     f0e:	0000019b          	sext.w	gp,zero
     f12:	0201                	addi	tp,tp,0 # 0 <__boot_hart>
     f14:	00002b07          	flw	fs6,0(zero) # 0 <__boot_hart>
     f18:	0200                	addi	s0,sp,256
     f1a:	0354                	addi	a3,sp,388
     f1c:	0000                	unimp
     f1e:	2e02                	fld	ft8,0(sp)
     f20:	350e                	fld	fa0,224(sp)
     f22:	0000                	unimp
     f24:	0200                	addi	s0,sp,256
     f26:	00000353          	fadd.s	ft6,ft0,ft0,rne
     f2a:	6602                	ld	a2,0(sp)
     f2c:	7410                	ld	a2,40(s0)
     f2e:	0000                	unimp
     f30:	0100                	addi	s0,sp,128
     f32:	0801                	addi	a6,a6,0
     f34:	0060                	addi	s0,sp,12
     f36:	0000                	unimp
     f38:	0801                	addi	a6,a6,0
     f3a:	0000b907          	fld	fs2,0(ra)
     f3e:	0200                	addi	s0,sp,256
     f40:	0355                	addi	t1,t1,21
     f42:	0000                	unimp
     f44:	80129b03          	lh	s6,-2047(t0)
     f48:	0000                	unimp
     f4a:	0600                	addi	s0,sp,768
     f4c:	0276                	slli	tp,tp,0x1d
     f4e:	0000                	unimp
     f50:	1304                	addi	s1,sp,416
     f52:	b20d                	j	874 <__stack_align+0x864>
     f54:	0000                	unimp
     f56:	0700                	addi	s0,sp,896
     f58:	2e08                	fld	fa0,24(a2)
     f5a:	0000                	unimp
     f5c:	0800                	addi	s0,sp,16
     f5e:	0399                	addi	t2,t2,6
     f60:	0000                	unimp
     f62:	0501                	addi	a0,a0,0
     f64:	00009a07          	.insn	4, 0x9a07
     f68:	1e00                	addi	s0,sp,816
     f6a:	0080001b          	addiw	zero,zero,8
     f6e:	0000                	unimp
     f70:	1400                	addi	s0,sp,544
     f72:	0000                	unimp
     f74:	0000                	unimp
     f76:	0000                	unimp
     f78:	0100                	addi	s0,sp,128
     f7a:	099c                	addi	a5,sp,208
     f7c:	000001e3          	beqz	zero,177e <__stack_align+0x176e>
     f80:	0501                	addi	a0,a0,0
     f82:	2e12                	fld	ft8,256(sp)
     f84:	0000                	unimp
     f86:	5b00                	lw	s0,48(a4)
     f88:	03000003          	lb	zero,48(zero) # 30 <__stack_align+0x20>
     f8c:	7470                	ld	a2,232(s0)
     f8e:	0072                	c.slli	zero,0x1c
     f90:	9a1e                	add	s4,s4,t2
     f92:	0000                	unimp
     f94:	6900                	ld	s0,16(a0)
     f96:	03000003          	lb	zero,48(zero) # 30 <__stack_align+0x20>
     f9a:	6964                	ld	s1,208(a0)
     f9c:	0072                	c.slli	zero,0x1c
     f9e:	00002e27          	fsw	ft0,28(zero) # 1c <__stack_align+0xc>
     fa2:	7700                	ld	s0,40(a4)
     fa4:	0a000003          	lb	zero,160(zero) # a0 <__stack_align+0x90>
     fa8:	1b26                	slli	s6,s6,0x29
     faa:	8000                	.insn	2, 0x8000
     fac:	0000                	unimp
     fae:	0000                	unimp
     fb0:	00a6                	slli	ra,ra,0x9
     fb2:	0000                	unimp
     fb4:	0000                	unimp
     fb6:	0000010f          	.insn	4, 0x010f
     fba:	0005                	c.nop	1
     fbc:	0801                	addi	a6,a6,0
     fbe:	0551                	addi	a0,a0,20
     fc0:	0000                	unimp
     fc2:	e804                	sd	s1,16(s0)
     fc4:	0001                	nop
     fc6:	1d00                	addi	s0,sp,688
     fc8:	0354                	addi	a3,sp,388
     fca:	0000                	unimp
     fcc:	028d                	addi	t0,t0,3
     fce:	0000                	unimp
     fd0:	1b32                	slli	s6,s6,0x2c
     fd2:	8000                	.insn	2, 0x8000
     fd4:	0000                	unimp
     fd6:	0000                	unimp
     fd8:	0016                	c.slli	zero,0x5
     fda:	0000                	unimp
     fdc:	0000                	unimp
     fde:	0000                	unimp
     fe0:	0991                	addi	s3,s3,4
     fe2:	0000                	unimp
     fe4:	0405                	addi	s0,s0,1
     fe6:	6905                	lui	s2,0x1
     fe8:	746e                	ld	s0,248(sp)
     fea:	0100                	addi	s0,sp,128
     fec:	0508                	addi	a0,sp,640
     fee:	00e0                	addi	s0,sp,76
     ff0:	0000                	unimp
     ff2:	2a02                	fld	fs4,0(sp)
     ff4:	02000003          	lb	zero,32(zero) # 20 <__stack_align+0x10>
     ff8:	17d6                	slli	a5,a5,0x35
     ffa:	0048                	addi	a0,sp,4
     ffc:	0000                	unimp
     ffe:	0801                	addi	a6,a6,0
    1000:	0000be07          	fld	ft8,0(ra)
    1004:	0100                	addi	s0,sp,128
    1006:	0508                	addi	a0,sp,640
    1008:	000000db          	.insn	4, 0x00db
    100c:	1001                	c.nop	-32
    100e:	7e04                	ld	s1,56(a2)
    1010:	0002                	c.slli64	zero
    1012:	0100                	addi	s0,sp,128
    1014:	0704                	addi	s1,sp,896
    1016:	000000c3          	fmadd.s	ft1,ft0,ft0,ft0,rne
    101a:	0101                	addi	sp,sp,0
    101c:	5906                	lw	s2,96(sp)
    101e:	0000                	unimp
    1020:	0100                	addi	s0,sp,128
    1022:	0801                	addi	a6,a6,0
    1024:	00000057          	.insn	4, 0x0057
    1028:	0201                	addi	tp,tp,0 # 0 <__boot_hart>
    102a:	9b05                	andi	a4,a4,-31
    102c:	0001                	nop
    102e:	0100                	addi	s0,sp,128
    1030:	0702                	c.slli64	a4
    1032:	0000002b          	.insn	4, 0x002b
    1036:	a602                	fsd	ft0,264(sp)
    1038:	03000003          	lb	zero,48(zero) # 30 <__stack_align+0x20>
    103c:	00351793          	slli	a5,a0,0x3
    1040:	0000                	unimp
    1042:	0806                	slli	a6,a6,0x1
    1044:	0101                	addi	sp,sp,0
    1046:	6008                	ld	a0,0(s0)
    1048:	0000                	unimp
    104a:	0100                	addi	s0,sp,128
    104c:	0708                	addi	a0,sp,896
    104e:	00b9                	addi	ra,ra,14
    1050:	0000                	unimp
    1052:	a702                	fsd	ft0,392(sp)
    1054:	04000003          	lb	zero,64(zero) # 40 <__stack_align+0x30>
    1058:	12b6                	slli	t0,t0,0x2d
    105a:	0080                	addi	s0,sp,64
    105c:	0000                	unimp
    105e:	00027607          	.insn	4, 0x00027607
    1062:	0500                	addi	s0,sp,640
    1064:	00b40d13          	addi	s10,s0,11
    1068:	0000                	unimp
    106a:	0808                	addi	a0,sp,16
    106c:	002e                	c.slli	zero,0xb
    106e:	0000                	unimp
    1070:	a009                	j	1072 <__stack_align+0x1062>
    1072:	01000003          	lb	zero,16(zero) # 10 <__stack_align>
    1076:	0905                	addi	s2,s2,1 # 1001 <__stack_align+0xff1>
    1078:	009c                	addi	a5,sp,64
    107a:	0000                	unimp
    107c:	1b32                	slli	s6,s6,0x2c
    107e:	8000                	.insn	2, 0x8000
    1080:	0000                	unimp
    1082:	0000                	unimp
    1084:	0016                	c.slli	zero,0x5
    1086:	0000                	unimp
    1088:	0000                	unimp
    108a:	0000                	unimp
    108c:	9c01                	subw	s0,s0,s0
    108e:	e30a                	sd	sp,384(sp)
    1090:	0001                	nop
    1092:	0100                	addi	s0,sp,128
    1094:	1305                	addi	t1,t1,-31
    1096:	002e                	c.slli	zero,0xb
    1098:	0000                	unimp
    109a:	0391                	addi	t2,t2,4
    109c:	0000                	unimp
    109e:	72747003          	.insn	4, 0x72747003
    10a2:	1f00                	addi	s0,sp,944
    10a4:	008c                	addi	a1,sp,64
    10a6:	0000                	unimp
    10a8:	039f 0000 6c03      	.insn	6, 0x6c030000039f
    10ae:	6e65                	lui	t3,0x19
    10b0:	2b00                	fld	fs0,16(a4)
    10b2:	003c                	addi	a5,sp,8
    10b4:	0000                	unimp
    10b6:	03ad                	addi	t2,t2,11
    10b8:	0000                	unimp
    10ba:	001b3a0b          	.insn	4, 0x001b3a0b
    10be:	0080                	addi	s0,sp,64
    10c0:	0000                	unimp
    10c2:	a800                	fsd	fs0,16(s0)
    10c4:	0000                	unimp
    10c6:	0000                	unimp
    10c8:	3200                	fld	fs0,32(a2)
    10ca:	0001                	nop
    10cc:	0500                	addi	s0,sp,640
    10ce:	0100                	addi	s0,sp,128
    10d0:	f708                	sd	a0,40(a4)
    10d2:	0005                	c.nop	1
    10d4:	0500                	addi	s0,sp,640
    10d6:	01e8                	addi	a0,sp,204
    10d8:	0000                	unimp
    10da:	621d                	lui	tp,0x7
    10dc:	8d000003          	lb	zero,-1840(zero) # fffffffffffff8d0 <__heap_end+0xffffffff7ffdc8d0>
    10e0:	0002                	c.slli64	zero
    10e2:	4800                	lw	s0,16(s0)
    10e4:	0080001b          	addiw	zero,zero,8
    10e8:	0000                	unimp
    10ea:	3c00                	fld	fs0,56(s0)
    10ec:	0000                	unimp
    10ee:	0000                	unimp
    10f0:	0000                	unimp
    10f2:	3a00                	fld	fs0,48(a2)
    10f4:	000a                	c.slli	zero,0x2
    10f6:	0600                	addi	s0,sp,768
    10f8:	000003af          	.insn	4, 0x03af
    10fc:	9102                	jalr	sp
    10fe:	3a1a                	fld	fs4,416(sp)
    1100:	0000                	unimp
    1102:	0100                	addi	s0,sp,128
    1104:	0508                	addi	a0,sp,640
    1106:	00e0                	addi	s0,sp,76
    1108:	0000                	unimp
    110a:	0801                	addi	a6,a6,0
    110c:	0000be07          	fld	ft8,0(ra)
    1110:	0700                	addi	s0,sp,896
    1112:	0504                	addi	s1,sp,640
    1114:	6e69                	lui	t3,0x1a
    1116:	0074                	addi	a3,sp,12
    1118:	0801                	addi	a6,a6,0
    111a:	db05                	beqz	a4,104a <__stack_align+0x103a>
    111c:	0000                	unimp
    111e:	0100                	addi	s0,sp,128
    1120:	0410                	addi	a2,sp,512
    1122:	027e                	slli	tp,tp,0x1f
    1124:	0000                	unimp
    1126:	0401                	addi	s0,s0,0
    1128:	0000c307          	.insn	4, 0xc307
    112c:	0100                	addi	s0,sp,128
    112e:	0601                	addi	a2,a2,0
    1130:	0059                	c.nop	22
    1132:	0000                	unimp
    1134:	0101                	addi	sp,sp,0
    1136:	5708                	lw	a0,40(a4)
    1138:	0000                	unimp
    113a:	0100                	addi	s0,sp,128
    113c:	0502                	c.slli64	a0
    113e:	0000019b          	sext.w	gp,zero
    1142:	0201                	addi	tp,tp,0 # 7000 <__stack_size_min+0x1000>
    1144:	00002b07          	flw	fs6,0(zero) # 0 <__boot_hart>
    1148:	0800                	addi	s0,sp,16
    114a:	0208                	addi	a0,sp,256
    114c:	00000087          	.insn	4, 0x0087
    1150:	0101                	addi	sp,sp,0
    1152:	6008                	ld	a0,0(s0)
    1154:	0000                	unimp
    1156:	0100                	addi	s0,sp,128
    1158:	0708                	addi	a0,sp,896
    115a:	00b9                	addi	ra,ra,14
    115c:	0000                	unimp
    115e:	8709                	srai	a4,a4,0x2
    1160:	0000                	unimp
    1162:	a000                	fsd	fs0,0(s0)
    1164:	0000                	unimp
    1166:	0a00                	addi	s0,sp,272
    1168:	0300                	addi	s0,sp,384
    116a:	000003bf 00950d06 	.insn	8, 0x00950d06000003bf
    1172:	0000                	unimp
    1174:	0003c40b          	.insn	4, 0x0003c40b
    1178:	0100                	addi	s0,sp,128
    117a:	00820e07          	.insn	4, 0x00820e07
    117e:	0000                	unimp
    1180:	0309                	addi	t1,t1,2
    1182:	2080                	fld	fs0,0(s1)
    1184:	8000                	.insn	2, 0x8000
    1186:	0000                	unimp
    1188:	0000                	unimp
    118a:	760c                	ld	a1,40(a2)
    118c:	0002                	c.slli64	zero
    118e:	0300                	addi	s0,sp,384
    1190:	00cd0d13          	addi	s10,s10,12 # fffffffffffe000c <__heap_end+0xffffffff7ffbd00c>
    1194:	0000                	unimp
    1196:	4802                	lw	a6,0(sp)
    1198:	0000                	unimp
    119a:	0d00                	addi	s0,sp,656
    119c:	000003cb          	fnmsub.s	ft7,ft0,ft0,ft0,rne
    11a0:	0901                	addi	s2,s2,0
    11a2:	00008007          	.insn	4, 0x8007
    11a6:	4800                	lw	s0,16(s0)
    11a8:	0080001b          	addiw	zero,zero,8
    11ac:	0000                	unimp
    11ae:	3c00                	fld	fs0,56(s0)
    11b0:	0000                	unimp
    11b2:	0000                	unimp
    11b4:	0000                	unimp
    11b6:	0100                	addi	s0,sp,128
    11b8:	0e9c                	addi	a5,sp,848
    11ba:	03d1                	addi	t2,t2,20
    11bc:	0000                	unimp
    11be:	0901                	addi	s2,s2,0
    11c0:	00002e17          	auipc	t3,0x2
    11c4:	c700                	sw	s0,8(a4)
    11c6:	03000003          	lb	zero,48(zero) # 30 <__stack_align+0x20>
    11ca:	03b9                	addi	t2,t2,14
    11cc:	0000                	unimp
    11ce:	0095110b          	.insn	4, 0x0095110b
    11d2:	0000                	unimp
    11d4:	dd04                	sw	s1,56(a0)
    11d6:	0c000003          	lb	zero,192(zero) # c0 <__stack_align+0xb0>
    11da:	0082                	c.slli64	ra
    11dc:	0000                	unimp
    11de:	03d5                	addi	t2,t2,21
    11e0:	0000                	unimp
    11e2:	d604                	sw	s1,40(a2)
    11e4:	0d000003          	lb	zero,208(zero) # d0 <__stack_align+0xc0>
    11e8:	0082                	c.slli64	ra
    11ea:	0000                	unimp
    11ec:	03ed                	addi	t2,t2,27
    11ee:	0000                	unimp
    11f0:	001b760f          	.insn	4, 0x001b760f
    11f4:	0080                	addi	s0,sp,64
    11f6:	0000                	unimp
    11f8:	c100                	sw	s0,0(a0)
    11fa:	0000                	unimp
    11fc:	0000                	unimp
    11fe:	7400                	ld	s0,40(s0)
    1200:	0001                	nop
    1202:	0500                	addi	s0,sp,640
    1204:	0100                	addi	s0,sp,128
    1206:	d108                	sw	a0,32(a0)
    1208:	0006                	c.slli	zero,0x1
    120a:	0600                	addi	s0,sp,768
    120c:	01e8                	addi	a0,sp,204
    120e:	0000                	unimp
    1210:	701d                	c.lui	zero,0xfffe7
    1212:	8d000003          	lb	zero,-1840(zero) # fffffffffffff8d0 <__heap_end+0xffffffff7ffdc8d0>
    1216:	0002                	c.slli64	zero
    1218:	8400                	.insn	2, 0x8400
    121a:	0080001b          	addiw	zero,zero,8
    121e:	0000                	unimp
    1220:	0600                	addi	s0,sp,768
    1222:	0000                	unimp
    1224:	0000                	unimp
    1226:	0000                	unimp
    1228:	5f00                	lw	s0,56(a4)
    122a:	0700000b          	.insn	4, 0x0700000b
    122e:	0504                	addi	s1,sp,640
    1230:	6e69                	lui	t3,0x1a
    1232:	0074                	addi	a3,sp,12
    1234:	0801                	addi	a6,a6,0
    1236:	e005                	bnez	s0,1256 <__stack_align+0x1246>
    1238:	0000                	unimp
    123a:	0200                	addi	s0,sp,256
    123c:	032a                	slli	t1,t1,0xa
    123e:	0000                	unimp
    1240:	d602                	sw	zero,44(sp)
    1242:	00004817          	auipc	a6,0x4
    1246:	0100                	addi	s0,sp,128
    1248:	0708                	addi	a0,sp,896
    124a:	00be                	slli	ra,ra,0xf
    124c:	0000                	unimp
    124e:	0801                	addi	a6,a6,0 # 5242 <__stack_align+0x5232>
    1250:	db05                	beqz	a4,1180 <__stack_align+0x1170>
    1252:	0000                	unimp
    1254:	0100                	addi	s0,sp,128
    1256:	0410                	addi	a2,sp,512
    1258:	027e                	slli	tp,tp,0x1f
    125a:	0000                	unimp
    125c:	0401                	addi	s0,s0,0
    125e:	0000c307          	.insn	4, 0xc307
    1262:	0100                	addi	s0,sp,128
    1264:	0601                	addi	a2,a2,0
    1266:	0059                	c.nop	22
    1268:	0000                	unimp
    126a:	0101                	addi	sp,sp,0
    126c:	5708                	lw	a0,40(a4)
    126e:	0000                	unimp
    1270:	0100                	addi	s0,sp,128
    1272:	0502                	c.slli64	a0
    1274:	0000019b          	sext.w	gp,zero
    1278:	0201                	addi	tp,tp,0 # 0 <__boot_hart>
    127a:	00002b07          	flw	fs6,0(zero) # 0 <__boot_hart>
    127e:	0200                	addi	s0,sp,256
    1280:	01a5                	addi	gp,gp,9 # 80002881 <__global_pointer$+0x9>
    1282:	0000                	unimp
    1284:	48196903          	lwu	s2,1153(s2)
    1288:	0000                	unimp
    128a:	0200                	addi	s0,sp,256
    128c:	0012                	c.slli	zero,0x4
    128e:	0000                	unimp
    1290:	481ae803          	lwu	a6,1153(s5)
    1294:	0000                	unimp
    1296:	0200                	addi	s0,sp,256
    1298:	03a6                	slli	t2,t2,0x9
    129a:	0000                	unimp
    129c:	9304                	.insn	2, 0x9304
    129e:	00003517          	auipc	a0,0x3
    12a2:	0100                	addi	s0,sp,128
    12a4:	0801                	addi	a6,a6,0
    12a6:	0060                	addi	s0,sp,12
    12a8:	0000                	unimp
    12aa:	0801                	addi	a6,a6,0
    12ac:	0000b907          	fld	fs2,0(ra)
    12b0:	0200                	addi	s0,sp,256
    12b2:	000001a7          	.insn	4, 0x01a7
    12b6:	3c05                	addiw	s8,s8,-31
    12b8:	8014                	.insn	2, 0x8014
    12ba:	0000                	unimp
    12bc:	0200                	addi	s0,sp,256
    12be:	0014                	.insn	2, 0x0014
    12c0:	0000                	unimp
    12c2:	5205                	li	tp,-31
    12c4:	8c15                	sub	s0,s0,a3
    12c6:	0000                	unimp
    12c8:	0200                	addi	s0,sp,256
    12ca:	000003a7          	.insn	4, 0x03a7
    12ce:	b606                	fsd	ft1,296(sp)
    12d0:	9812                	add	a6,a6,tp
    12d2:	0000                	unimp
    12d4:	0800                	addi	s0,sp,16
    12d6:	03e4                	addi	s1,sp,460
    12d8:	0000                	unimp
    12da:	350d1a07          	.insn	4, 0x350d1a07
    12de:	0000                	unimp
    12e0:	fb00                	sd	s0,48(a4)
    12e2:	0000                	unimp
    12e4:	0300                	addi	s0,sp,384
    12e6:	00b2                	slli	ra,ra,0xc
    12e8:	0000                	unimp
    12ea:	0000b203          	ld	tp,0(ra)
    12ee:	0300                	addi	s0,sp,384
    12f0:	00b2                	slli	ra,ra,0xc
    12f2:	0000                	unimp
    12f4:	00004803          	lbu	a6,0(zero) # 0 <__boot_hart>
    12f8:	0000                	unimp
    12fa:	f109                	bnez	a0,11fc <__stack_align+0x11ec>
    12fc:	01000003          	lb	zero,16(zero) # 10 <__stack_align>
    1300:	0906                	slli	s2,s2,0x1
    1302:	00ca                	slli	ra,ra,0x12
    1304:	0000                	unimp
    1306:	1b84                	addi	s1,sp,496
    1308:	8000                	.insn	2, 0x8000
    130a:	0000                	unimp
    130c:	0000                	unimp
    130e:	0006                	c.slli	zero,0x1
    1310:	0000                	unimp
    1312:	0000                	unimp
    1314:	0000                	unimp
    1316:	9c01                	subw	s0,s0,s0
    1318:	0170                	addi	a2,sp,140
    131a:	0000                	unimp
    131c:	6605                	lui	a2,0x1
    131e:	0064                	addi	s1,sp,12
    1320:	2e14                	fld	fa3,24(a2)
    1322:	0000                	unimp
    1324:	ff00                	sd	s0,56(a4)
    1326:	05000003          	lb	zero,80(zero) # 50 <__stack_align+0x40>
    132a:	7470                	ld	a2,232(s0)
    132c:	0072                	c.slli	zero,0x1c
    132e:	7024                	ld	s1,96(s0)
    1330:	0001                	nop
    1332:	0d00                	addi	s0,sp,656
    1334:	0004                	.insn	2, 0x0004
    1336:	0500                	addi	s0,sp,640
    1338:	656c                	ld	a1,200(a0)
    133a:	006e                	c.slli	zero,0x1b
    133c:	3c30                	fld	fa2,120(s0)
    133e:	0000                	unimp
    1340:	1b00                	addi	s0,sp,432
    1342:	0004                	.insn	2, 0x0004
    1344:	0a00                	addi	s0,sp,272
    1346:	1b8a                	slli	s7,s7,0x22
    1348:	8000                	.insn	2, 0x8000
    134a:	0000                	unimp
    134c:	0000                	unimp
    134e:	00d6                	slli	ra,ra,0x15
    1350:	0000                	unimp
    1352:	0104                	addi	s1,sp,128
    1354:	035a                	slli	t1,t1,0x16
    1356:	045a01a3          	sb	t0,67(s4)
    135a:	5b01                	li	s6,-32
    135c:	5b01a303          	lw	t1,1456(gp) # 80002e28 <__global_pointer$+0x5b0>
    1360:	0104                	addi	s1,sp,128
    1362:	035c                	addi	a5,sp,388
    1364:	045c01a3          	sb	t0,67(s8)
    1368:	5d01                	li	s10,-32
    136a:	0802                	c.slli64	a6
    136c:	0040                	addi	s0,sp,4
    136e:	0b00                	addi	s0,sp,400
    1370:	7608                	ld	a0,40(a2)
    1372:	0001                	nop
    1374:	0c00                	addi	s0,sp,528
    1376:	2500                	fld	fs0,8(a0)
    1378:	0000                	unimp
    137a:	0500                	addi	s0,sp,640
    137c:	0100                	addi	s0,sp,128
    137e:	7b08                	ld	a0,48(a4)
    1380:	01000007          	.insn	4, 0x01000007
    1384:	0bec                	addi	a1,sp,476
    1386:	0000                	unimp
    1388:	0000                	unimp
    138a:	8000                	.insn	2, 0x8000
    138c:	0000                	unimp
    138e:	0000                	unimp
    1390:	0498                	addi	a4,sp,576
    1392:	03f8                	addi	a4,sp,460
    1394:	0000                	unimp
    1396:	00000407          	.insn	4, 0x0407
    139a:	0000044f          	fnmadd.s	fs0,ft0,ft0,ft0,rne
    139e:	8001                	c.srli64	s0
    13a0:	0024                	addi	s1,sp,8
    13a2:	0000                	unimp
    13a4:	0005                	c.nop	1
    13a6:	0801                	addi	a6,a6,0
    13a8:	0000078f          	.insn	4, 0x078f
    13ac:	1e01                	addi	t3,t3,-32 # 19fe0 <__stack_size+0x11fe0>
    13ae:	0010                	.insn	2, 0x0010
    13b0:	ee00                	sd	s0,24(a2)
    13b2:	0001                	nop
    13b4:	0080                	addi	s0,sp,64
    13b6:	0000                	unimp
    13b8:	6200                	ld	s0,0(a2)
    13ba:	0000045b          	.insn	4, 0x045b
    13be:	00000407          	.insn	4, 0x0407
    13c2:	0000044f          	fnmadd.s	fs0,ft0,ft0,ft0,rne
    13c6:	8001                	c.srli64	s0
    13c8:	0136                	slli	sp,sp,0xd
    13ca:	0000                	unimp
    13cc:	0005                	c.nop	1
    13ce:	0801                	addi	a6,a6,0
    13d0:	000007a3          	sb	zero,15(zero) # f <__stack_shift>
    13d4:	e804                	sd	s1,16(s0)
    13d6:	0001                	nop
    13d8:	1d00                	addi	s0,sp,688
    13da:	0398                	addi	a4,sp,448
    13dc:	0000                	unimp
    13de:	028d                	addi	t0,t0,3
    13e0:	0000                	unimp
    13e2:	1b8a                	slli	s7,s7,0x22
    13e4:	8000                	.insn	2, 0x8000
    13e6:	0000                	unimp
    13e8:	0000                	unimp
    13ea:	0016                	c.slli	zero,0x5
    13ec:	0000                	unimp
    13ee:	0000                	unimp
    13f0:	0000                	unimp
    13f2:	107e                	c.slli	zero,0x3f
    13f4:	0000                	unimp
    13f6:	0101                	addi	sp,sp,0
    13f8:	5906                	lw	s2,96(sp)
    13fa:	0000                	unimp
    13fc:	0100                	addi	s0,sp,128
    13fe:	0801                	addi	a6,a6,0
    1400:	00000057          	.insn	4, 0x0057
    1404:	0201                	addi	tp,tp,0 # 0 <__boot_hart>
    1406:	9b05                	andi	a4,a4,-31
    1408:	0001                	nop
    140a:	0100                	addi	s0,sp,128
    140c:	0702                	c.slli64	a4
    140e:	0000002b          	.insn	4, 0x002b
    1412:	0405                	addi	s0,s0,1
    1414:	6905                	lui	s2,0x1
    1416:	746e                	ld	s0,248(sp)
    1418:	0100                	addi	s0,sp,128
    141a:	0704                	addi	s1,sp,896
    141c:	000000c3          	fmadd.s	ft1,ft0,ft0,ft0,rne
    1420:	0801                	addi	a6,a6,0
    1422:	e005                	bnez	s0,1442 <__stack_align+0x1432>
    1424:	0000                	unimp
    1426:	0100                	addi	s0,sp,128
    1428:	0708                	addi	a0,sp,896
    142a:	00be                	slli	ra,ra,0xf
    142c:	0000                	unimp
    142e:	7f02                	ld	t5,32(sp)
    1430:	0004                	.insn	2, 0x0004
    1432:	0200                	addi	s0,sp,256
    1434:	19e6                	slli	s3,s3,0x39
    1436:	0058                	addi	a4,sp,4
    1438:	0000                	unimp
    143a:	1202                	slli	tp,tp,0x20
    143c:	0000                	unimp
    143e:	0200                	addi	s0,sp,256
    1440:	1ae8                	addi	a0,sp,380
    1442:	005f 0000 8102      	.insn	6, 0x81020000005f
    1448:	0004                	.insn	2, 0x0004
    144a:	0300                	addi	s0,sp,384
    144c:	144d                	addi	s0,s0,-13
    144e:	0066                	c.slli	zero,0x19
    1450:	0000                	unimp
    1452:	1402                	slli	s0,s0,0x20
    1454:	0000                	unimp
    1456:	0300                	addi	s0,sp,384
    1458:	1552                	slli	a0,a0,0x34
    145a:	0072                	c.slli	zero,0x1c
    145c:	0000                	unimp
    145e:	0801                	addi	a6,a6,0
    1460:	db05                	beqz	a4,1390 <__stack_align+0x1380>
    1462:	0000                	unimp
    1464:	0100                	addi	s0,sp,128
    1466:	0410                	addi	a2,sp,512
    1468:	027e                	slli	tp,tp,0x1f
    146a:	0000                	unimp
    146c:	0101                	addi	sp,sp,0
    146e:	6008                	ld	a0,0(s0)
    1470:	0000                	unimp
    1472:	0600                	addi	s0,sp,768
    1474:	0291                	addi	t0,t0,4
    1476:	0000                	unimp
    1478:	4104                	lw	s1,0(a0)
    147a:	bd0d                	j	12ac <__stack_align+0x129c>
    147c:	0000                	unimp
    147e:	0700                	addi	s0,sp,896
    1480:	004a                	c.slli	zero,0x12
    1482:	0000                	unimp
    1484:	0800                	addi	s0,sp,16
    1486:	046d                	addi	s0,s0,27
    1488:	0000                	unimp
    148a:	0401                	addi	s0,s0,0
    148c:	8a1c                	.insn	2, 0x8a1c
    148e:	0080001b          	addiw	zero,zero,8
    1492:	0000                	unimp
    1494:	1600                	addi	s0,sp,800
    1496:	0000                	unimp
    1498:	0000                	unimp
    149a:	0000                	unimp
    149c:	0100                	addi	s0,sp,128
    149e:	339c                	fld	fa5,32(a5)
    14a0:	0001                	nop
    14a2:	0900                	addi	s0,sp,144
    14a4:	7065                	c.lui	zero,0xffff9
    14a6:	04010063          	beqz	sp,14e6 <__stack_align+0x14d6>
    14aa:	8a32                	mv	s4,a2
    14ac:	0000                	unimp
    14ae:	3500                	fld	fs0,40(a0)
    14b0:	0004                	.insn	2, 0x0004
    14b2:	0300                	addi	s0,sp,384
    14b4:	0479                	addi	s0,s0,30
    14b6:	0000                	unimp
    14b8:	8a41                	andi	a2,a2,16
    14ba:	0000                	unimp
    14bc:	4300                	lw	s0,0(a4)
    14be:	0004                	.insn	2, 0x0004
    14c0:	0300                	addi	s0,sp,384
    14c2:	0000048f          	.insn	4, 0x048f
    14c6:	8a52                	mv	s4,s4
    14c8:	0000                	unimp
    14ca:	5100                	lw	s0,32(a0)
    14cc:	0004                	.insn	2, 0x0004
    14ce:	0300                	addi	s0,sp,384
    14d0:	048a                	slli	s1,s1,0x2
    14d2:	0000                	unimp
    14d4:	3362                	fld	ft6,56(sp)
    14d6:	0001                	nop
    14d8:	5f00                	lw	s0,56(a4)
    14da:	0004                	.insn	2, 0x0004
    14dc:	0a00                	addi	s0,sp,272
    14de:	02a0                	addi	s0,sp,328
    14e0:	0000                	unimp
    14e2:	0701                	addi	a4,a4,0
    14e4:	4a09                	li	s4,2
    14e6:	0000                	unimp
    14e8:	6d00                	ld	s0,24(a0)
    14ea:	0004                	.insn	2, 0x0004
    14ec:	0b00                	addi	s0,sp,400
    14ee:	1ba0                	addi	s0,sp,504
    14f0:	8000                	.insn	2, 0x8000
    14f2:	0000                	unimp
    14f4:	0000                	unimp
    14f6:	000000ab          	.insn	4, 0x00ab
    14fa:	0c00                	addi	s0,sp,528
    14fc:	8a08                	.insn	2, 0x8a08
    14fe:	0000                	unimp
    1500:	0000                	unimp
    1502:	0165                	addi	sp,sp,25
    1504:	0000                	unimp
    1506:	0005                	c.nop	1
    1508:	0801                	addi	a6,a6,0
    150a:	085d                	addi	a6,a6,23
    150c:	0000                	unimp
    150e:	e808                	sd	a0,16(s0)
    1510:	0001                	nop
    1512:	1d00                	addi	s0,sp,688
    1514:	03b2                	slli	t2,t2,0xc
    1516:	0000                	unimp
    1518:	028d                	addi	t0,t0,3
    151a:	0000                	unimp
    151c:	1ba0                	addi	s0,sp,504
    151e:	8000                	.insn	2, 0x8000
    1520:	0000                	unimp
    1522:	0000                	unimp
    1524:	0030                	addi	a2,sp,8
    1526:	0000                	unimp
    1528:	0000                	unimp
    152a:	0000                	unimp
    152c:	1135                	addi	sp,sp,-19
    152e:	0000                	unimp
    1530:	0801                	addi	a6,a6,0
    1532:	e005                	bnez	s0,1552 <__stack_align+0x1542>
    1534:	0000                	unimp
    1536:	0900                	addi	s0,sp,144
    1538:	032a                	slli	t1,t1,0xa
    153a:	0000                	unimp
    153c:	4117d603          	lhu	a2,1041(a5)
    1540:	0000                	unimp
    1542:	0100                	addi	s0,sp,128
    1544:	0708                	addi	a0,sp,896
    1546:	00be                	slli	ra,ra,0xf
    1548:	0000                	unimp
    154a:	040a                	slli	s0,s0,0x2
    154c:	6905                	lui	s2,0x1
    154e:	746e                	ld	s0,248(sp)
    1550:	0100                	addi	s0,sp,128
    1552:	0508                	addi	a0,sp,640
    1554:	000000db          	.insn	4, 0x00db
    1558:	1001                	c.nop	-32
    155a:	7e04                	ld	s1,56(a2)
    155c:	0002                	c.slli64	zero
    155e:	0100                	addi	s0,sp,128
    1560:	0704                	addi	s1,sp,896
    1562:	000000c3          	fmadd.s	ft1,ft0,ft0,ft0,rne
    1566:	0101                	addi	sp,sp,0
    1568:	5906                	lw	s2,96(sp)
    156a:	0000                	unimp
    156c:	0100                	addi	s0,sp,128
    156e:	0801                	addi	a6,a6,0
    1570:	00000057          	.insn	4, 0x0057
    1574:	0201                	addi	tp,tp,0 # 0 <__boot_hart>
    1576:	9b05                	andi	a4,a4,-31
    1578:	0001                	nop
    157a:	0100                	addi	s0,sp,128
    157c:	0702                	c.slli64	a4
    157e:	0000002b          	.insn	4, 0x002b
    1582:	8004080b          	.insn	4, 0x8004080b
    1586:	0000                	unimp
    1588:	0500                	addi	s0,sp,640
    158a:	008c                	addi	a1,sp,64
    158c:	0000                	unimp
    158e:	0101                	addi	sp,sp,0
    1590:	6008                	ld	a0,0(s0)
    1592:	0000                	unimp
    1594:	0100                	addi	s0,sp,128
    1596:	0708                	addi	a0,sp,896
    1598:	00b9                	addi	ra,ra,14
    159a:	0000                	unimp
    159c:	e906                	sd	ra,144(sp)
    159e:	0004                	.insn	2, 0x0004
    15a0:	2100                	fld	fs0,0(a0)
    15a2:	0080                	addi	s0,sp,64
    15a4:	0000                	unimp
    15a6:	00b8                	addi	a4,sp,72
    15a8:	0000                	unimp
    15aa:	8002                	.insn	2, 0x8002
    15ac:	0000                	unimp
    15ae:	0200                	addi	s0,sp,256
    15b0:	0048                	addi	a0,sp,4
    15b2:	0000                	unimp
    15b4:	3502                	fld	fa0,32(sp)
    15b6:	0000                	unimp
    15b8:	0000                	unimp
    15ba:	d406                	sw	ra,40(sp)
    15bc:	0004                	.insn	2, 0x0004
    15be:	1f00                	addi	s0,sp,944
    15c0:	0080                	addi	s0,sp,64
    15c2:	0000                	unimp
    15c4:	00d6                	slli	ra,ra,0x15
    15c6:	0000                	unimp
    15c8:	8202                	jr	tp
    15ca:	0000                	unimp
    15cc:	0200                	addi	s0,sp,256
    15ce:	000000db          	.insn	4, 0x00db
    15d2:	3502                	fld	fa0,32(sp)
    15d4:	0000                	unimp
    15d6:	0000                	unimp
    15d8:	e005                	bnez	s0,15f8 <__stack_align+0x15e8>
    15da:	0000                	unimp
    15dc:	0400                	addi	s0,sp,512
    15de:	00d6                	slli	ra,ra,0x15
    15e0:	0000                	unimp
    15e2:	0d0c                	addi	a1,sp,656
    15e4:	0494                	addi	a3,sp,576
    15e6:	0000                	unimp
    15e8:	0301                	addi	t1,t1,0
    15ea:	a006                	fsd	ft1,0(sp)
    15ec:	0080001b          	addiw	zero,zero,8
    15f0:	0000                	unimp
    15f2:	3000                	fld	fs0,32(s0)
    15f4:	0000                	unimp
    15f6:	0000                	unimp
    15f8:	0000                	unimp
    15fa:	0100                	addi	s0,sp,128
    15fc:	619c                	ld	a5,0(a1)
    15fe:	0001                	nop
    1600:	0e00                	addi	s0,sp,784
    1602:	04ba                	slli	s1,s1,0xe
    1604:	0000                	unimp
    1606:	0501                	addi	a0,a0,0 # 429e <__stack_align+0x428e>
    1608:	8714                	.insn	2, 0x8714
    160a:	0000                	unimp
    160c:	0100                	addi	s0,sp,128
    160e:	0354                	addi	a3,sp,388
    1610:	000004db          	.insn	4, 0x04db
    1614:	6106                	ld	sp,64(sp)
    1616:	0001                	nop
    1618:	0300                	addi	s0,sp,384
    161a:	04ac                	addi	a1,sp,584
    161c:	0000                	unimp
    161e:	00016107          	.insn	4, 0x00016107
    1622:	0300                	addi	s0,sp,384
    1624:	049f 0000 6108      	.insn	6, 0x61080000049f
    162a:	0001                	nop
    162c:	0300                	addi	s0,sp,384
    162e:	04c8                	addi	a0,sp,580
    1630:	0000                	unimp
    1632:	6109                	addi	sp,sp,128
    1634:	0001                	nop
    1636:	0f00                	addi	s0,sp,912
    1638:	1bba                	slli	s7,s7,0x2e
    163a:	8000                	.insn	2, 0x8000
    163c:	0000                	unimp
    163e:	0000                	unimp
    1640:	00b8                	addi	a4,sp,72
    1642:	0000                	unimp
    1644:	014d                	addi	sp,sp,19
    1646:	0000                	unimp
    1648:	025a0107          	.insn	4, 0x025a0107
    164c:	0078                	addi	a4,sp,12
    164e:	1000                	addi	s0,sp,32
    1650:	1bd0                	addi	a2,sp,500
    1652:	8000                	.insn	2, 0x8000
    1654:	0000                	unimp
    1656:	0000                	unimp
    1658:	009a                	slli	ra,ra,0x6
    165a:	0000                	unimp
    165c:	015b0107          	.insn	4, 0x015b0107
    1660:	0030                	addi	a2,sp,8
    1662:	1100                	addi	s0,sp,160
    1664:	008c                	addi	a1,sp,64
    1666:	0000                	unimp
    1668:	0012                	c.slli	zero,0x4
    166a:	4500                	lw	s0,8(a0)
    166c:	0000                	unimp
    166e:	0500                	addi	s0,sp,640
    1670:	0100                	addi	s0,sp,128
    1672:	4008                	lw	a0,0(s0)
    1674:	0009                	c.nop	2
    1676:	0100                	addi	s0,sp,128
    1678:	01e8                	addi	a0,sp,204
    167a:	0000                	unimp
    167c:	c91d                	beqz	a0,16b2 <__stack_align+0x16a2>
    167e:	8d000003          	lb	zero,-1840(zero) # fffffffffffff8d0 <__heap_end+0xffffffff7ffdc8d0>
    1682:	0002                	c.slli64	zero
    1684:	d000                	sw	s0,32(s0)
    1686:	0080001b          	addiw	zero,zero,8
    168a:	0000                	unimp
    168c:	0600                	addi	s0,sp,768
    168e:	0000                	unimp
    1690:	0000                	unimp
    1692:	0000                	unimp
    1694:	1400                	addi	s0,sp,544
    1696:	0012                	c.slli	zero,0x4
    1698:	0200                	addi	s0,sp,256
    169a:	04f0                	addi	a2,sp,588
    169c:	0000                	unimp
    169e:	0701                	addi	a4,a4,0
    16a0:	001bd027          	.insn	4, 0x001bd027
    16a4:	0080                	addi	s0,sp,64
    16a6:	0000                	unimp
    16a8:	0600                	addi	s0,sp,768
    16aa:	0000                	unimp
    16ac:	0000                	unimp
    16ae:	0000                	unimp
    16b0:	0100                	addi	s0,sp,128
    16b2:	009c                	addi	a5,sp,64
    16b4:	033c                	addi	a5,sp,392
    16b6:	0000                	unimp
    16b8:	0005                	c.nop	1
    16ba:	0801                	addi	a6,a6,0
    16bc:	0970                	addi	a2,sp,156
    16be:	0000                	unimp
    16c0:	e812                	sd	tp,16(sp)
    16c2:	0001                	nop
    16c4:	1d00                	addi	s0,sp,688
    16c6:	03d8                	addi	a4,sp,452
    16c8:	0000                	unimp
    16ca:	028d                	addi	t0,t0,3
    16cc:	0000                	unimp
    16ce:	1bd6                	slli	s7,s7,0x35
    16d0:	8000                	.insn	2, 0x8000
    16d2:	0000                	unimp
    16d4:	0000                	unimp
    16d6:	004c                	addi	a1,sp,4
    16d8:	0000                	unimp
    16da:	0000                	unimp
    16dc:	0000                	unimp
    16de:	127e                	slli	tp,tp,0x3f
    16e0:	0000                	unimp
    16e2:	0102                	c.slli64	sp
    16e4:	5906                	lw	s2,96(sp)
    16e6:	0000                	unimp
    16e8:	0200                	addi	s0,sp,256
    16ea:	0801                	addi	a6,a6,0
    16ec:	00000057          	.insn	4, 0x0057
    16f0:	0202                	c.slli64	tp
    16f2:	9b05                	andi	a4,a4,-31
    16f4:	0001                	nop
    16f6:	0200                	addi	s0,sp,256
    16f8:	0702                	c.slli64	a4
    16fa:	0000002b          	.insn	4, 0x002b
    16fe:	0201                	addi	tp,tp,0 # 0 <__boot_hart>
    1700:	0005                	c.nop	1
    1702:	0400                	addi	s0,sp,512
    1704:	184d                	addi	a6,a6,-13
    1706:	0056                	c.slli	zero,0x15
    1708:	0000                	unimp
    170a:	69050413          	addi	s0,a0,1680
    170e:	746e                	ld	s0,248(sp)
    1710:	0200                	addi	s0,sp,256
    1712:	0704                	addi	s1,sp,896
    1714:	000000c3          	fmadd.s	ft1,ft0,ft0,ft0,rne
    1718:	0802                	c.slli64	a6
    171a:	e005                	bnez	s0,173a <__stack_align+0x172a>
    171c:	0000                	unimp
    171e:	0100                	addi	s0,sp,128
    1720:	01a5                	addi	gp,gp,9 # 80002881 <__global_pointer$+0x9>
    1722:	0000                	unimp
    1724:	6904                	ld	s1,16(a0)
    1726:	7719                	lui	a4,0xfffe6
    1728:	0000                	unimp
    172a:	0200                	addi	s0,sp,256
    172c:	0708                	addi	a0,sp,896
    172e:	00be                	slli	ra,ra,0xf
    1730:	0000                	unimp
    1732:	1201                	addi	tp,tp,-32 # ffffffffffffffe0 <__heap_end+0xffffffff7ffdcfe0>
    1734:	0000                	unimp
    1736:	0400                	addi	s0,sp,512
    1738:	1ae8                	addi	a0,sp,380
    173a:	00000077          	.insn	4, 0x0077
    173e:	0401                	addi	s0,s0,0
    1740:	0005                	c.nop	1
    1742:	0500                	addi	s0,sp,640
    1744:	132c                	addi	a1,sp,424
    1746:	004a                	c.slli	zero,0x12
    1748:	0000                	unimp
    174a:	a701                	j	1e4a <__stack_align+0x1e3a>
    174c:	0001                	nop
    174e:	0500                	addi	s0,sp,640
    1750:	143c                	addi	a5,sp,552
    1752:	0000006b          	.insn	4, 0x006b
    1756:	9608                	.insn	2, 0x9608
    1758:	0000                	unimp
    175a:	0100                	addi	s0,sp,128
    175c:	0014                	.insn	2, 0x0014
    175e:	0000                	unimp
    1760:	5205                	li	tp,-31
    1762:	7e15                	lui	t3,0xfffe5
    1764:	0000                	unimp
    1766:	0100                	addi	s0,sp,128
    1768:	052a                	slli	a0,a0,0xa
    176a:	0000                	unimp
    176c:	1b02                	slli	s6,s6,0x20
    176e:	8a11                	andi	a2,a2,4
    1770:	0000                	unimp
    1772:	1400                	addi	s0,sp,544
    1774:	000000b3          	add	ra,zero,zero
    1778:	0415                	addi	s0,s0,5
    177a:	db090603          	lb	a2,-592(s2) # db0 <__stack_align+0xda0>
    177e:	0000                	unimp
    1780:	1600                	addi	s0,sp,800
    1782:	0511                	addi	a0,a0,4
    1784:	0000                	unimp
    1786:	b30e0703          	lb	a4,-1232(t3) # fffffffffffe4b30 <__heap_end+0xffffffff7ffc1b30>
    178a:	0000                	unimp
    178c:	0000                	unimp
    178e:	0100                	addi	s0,sp,128
    1790:	000004f7          	.insn	4, 0x04f7
    1794:	c4030803          	lb	a6,-960(t1)
    1798:	0000                	unimp
    179a:	0900                	addi	s0,sp,144
    179c:	028a                	slli	t0,t0,0x2
    179e:	0000                	unimp
    17a0:	a206                	fsd	ft1,256(sp)
    17a2:	0000                	unimp
    17a4:	0900                	addi	s0,sp,144
    17a6:	00000297          	auipc	t0,0x0
    17aa:	0000a207          	flw	ft4,0(ra)
    17ae:	0a00                	addi	s0,sp,272
    17b0:	000000e7          	jalr	zero # 0 <__boot_hart>
    17b4:	c0030907          	.insn	4, 0xc0030907
    17b8:	001f 0080 0000      	.insn	6, 0x0080001f
    17be:	0a00                	addi	s0,sp,272
    17c0:	00f1                	addi	ra,ra,28
    17c2:	0000                	unimp
    17c4:	0908                	addi	a0,sp,144
    17c6:	001fc803          	lbu	a6,1(t6)
    17ca:	0080                	addi	s0,sp,64
    17cc:	0000                	unimp
    17ce:	1700                	addi	s0,sp,928
    17d0:	050c                	addi	a1,sp,640
    17d2:	0000                	unimp
    17d4:	0a01                	addi	s4,s4,0
    17d6:	0000db13          	srli	s6,ra,0x0
    17da:	0900                	addi	s0,sp,144
    17dc:	0020b803          	ld	a6,2(ra)
    17e0:	0080                	addi	s0,sp,64
    17e2:	0000                	unimp
    17e4:	1800                	addi	s0,sp,48
    17e6:	03e4                	addi	s1,sp,460
    17e8:	0000                	unimp
    17ea:	0c01                	addi	s8,s8,0
    17ec:	6406                	ld	s0,64(sp)
    17ee:	0000                	unimp
    17f0:	d600                	sw	s0,40(a2)
    17f2:	0080001b          	addiw	zero,zero,8
    17f6:	0000                	unimp
    17f8:	4c00                	lw	s0,24(s0)
    17fa:	0000                	unimp
    17fc:	0000                	unimp
    17fe:	0000                	unimp
    1800:	0100                	addi	s0,sp,128
    1802:	899c                	.insn	2, 0x899c
    1804:	0002                	c.slli64	zero
    1806:	0500                	addi	s0,sp,640
    1808:	3061                	.insn	2, 0x3061
    180a:	1c00                	addi	s0,sp,560
    180c:	0096                	slli	ra,ra,0x5
    180e:	0000                	unimp
    1810:	047f 0000 6119 0031 	.insn	10, 0x0c01003161190000047f
    1818:	0c01 
    181a:	9629                	srai	a2,a2,0x2a
    181c:	0000                	unimp
    181e:	0100                	addi	s0,sp,128
    1820:	3261055b          	.insn	4, 0x3261055b
    1824:	3600                	fld	fs0,40(a2)
    1826:	0096                	slli	ra,ra,0x5
    1828:	0000                	unimp
    182a:	048d                	addi	s1,s1,3
    182c:	0000                	unimp
    182e:	6e05                	lui	t3,0x1
    1830:	4800                	lw	s0,16(s0)
    1832:	00000077          	.insn	4, 0x0077
    1836:	04a1                	addi	s1,s1,8
    1838:	0000                	unimp
    183a:	6675620b          	.insn	4, 0x6675620b
    183e:	0e00                	addi	s0,sp,784
    1840:	00029917          	auipc	s2,0x29
    1844:	0200                	addi	s0,sp,256
    1846:	4091                	li	ra,4
    1848:	0063730b          	.insn	4, 0x0063730b
    184c:	00960e0f          	.insn	4, 0x00960e0f
    1850:	0000                	unimp
    1852:	5c01                	li	s8,-32
    1854:	ba0c                	fsd	fa1,48(a2)
    1856:	0002                	c.slli64	zero
    1858:	ee00                	sd	s0,24(a2)
    185a:	0080001b          	addiw	zero,zero,8
    185e:	0000                	unimp
    1860:	0c00                	addi	s0,sp,528
    1862:	0000                	unimp
    1864:	0000                	unimp
    1866:	0000                	unimp
    1868:	1700                	addi	s0,sp,928
    186a:	00000217          	auipc	tp,0x0
    186e:	0002c503          	lbu	a0,0(t0) # 17a6 <__stack_align+0x1796>
    1872:	af00                	fsd	fs0,24(a4)
    1874:	0004                	.insn	2, 0x0004
    1876:	1a00                	addi	s0,sp,304
    1878:	000002eb          	.insn	4, 0x02eb
    187c:	1bee                	slli	s7,s7,0x3b
    187e:	8000                	.insn	2, 0x8000
    1880:	0000                	unimp
    1882:	0000                	unimp
    1884:	0000012b          	.insn	4, 0x012b
    1888:	f90e1203          	lh	tp,-112(t3) # f90 <__stack_align+0xf80>
    188c:	0001                	nop
    188e:	0300                	addi	s0,sp,384
    1890:	0302                	c.slli64	t1
    1892:	0000                	unimp
    1894:	04be                	slli	s1,s1,0xf
    1896:	0000                	unimp
    1898:	0002f903          	.insn	4, 0x0002f903
    189c:	c600                	sw	s0,8(a2)
    189e:	0004                	.insn	2, 0x0004
    18a0:	1b00                	addi	s0,sp,432
    18a2:	0000012b          	.insn	4, 0x012b
    18a6:	0b1c                	addi	a5,sp,400
    18a8:	00000003          	lb	zero,0(zero) # 0 <__boot_hart>
    18ac:	0d00                	addi	s0,sp,656
    18ae:	0316                	slli	t1,t1,0x5
    18b0:	0000                	unimp
    18b2:	1bf0                	addi	a2,sp,508
    18b4:	8000                	.insn	2, 0x8000
    18b6:	0000                	unimp
    18b8:	0000                	unimp
    18ba:	0002                	c.slli64	zero
    18bc:	0000                	unimp
    18be:	0000                	unimp
    18c0:	0000                	unimp
    18c2:	1010                	addi	a2,sp,32
    18c4:	241d                	addiw	s0,s0,7
    18c6:	00000003          	lb	zero,0(zero) # 0 <__boot_hart>
    18ca:	0e00                	addi	s0,sp,784
    18cc:	00000333          	add	t1,zero,zero
    18d0:	1bfa                	slli	s7,s7,0x3e
    18d2:	8000                	.insn	2, 0x8000
    18d4:	0000                	unimp
    18d6:	0000                	unimp
    18d8:	0004                	.insn	2, 0x0004
    18da:	0000                	unimp
    18dc:	0000                	unimp
    18de:	0000                	unimp
    18e0:	0c18                	addi	a4,sp,528
    18e2:	029e                	slli	t0,t0,0x7
    18e4:	0000                	unimp
    18e6:	1c14                	addi	a3,sp,560
    18e8:	8000                	.insn	2, 0x8000
    18ea:	0000                	unimp
    18ec:	0000                	unimp
    18ee:	0004                	.insn	2, 0x0004
    18f0:	0000                	unimp
    18f2:	0000                	unimp
    18f4:	0000                	unimp
    18f6:	721c                	ld	a5,32(a2)
    18f8:	0002                	c.slli64	zero
    18fa:	0300                	addi	s0,sp,384
    18fc:	02a9                	addi	t0,t0,10
    18fe:	0000                	unimp
    1900:	04d5                	addi	s1,s1,21
    1902:	0000                	unimp
    1904:	d10d                	beqz	a0,1826 <__stack_align+0x1816>
    1906:	0002                	c.slli64	zero
    1908:	1400                	addi	s0,sp,544
    190a:	001c                	.insn	2, 0x001c
    190c:	0080                	addi	s0,sp,64
    190e:	0000                	unimp
    1910:	0400                	addi	s0,sp,512
    1912:	0000                	unimp
    1914:	0000                	unimp
    1916:	0000                	unimp
    1918:	1700                	addi	s0,sp,928
    191a:	0305                	addi	t1,t1,1
    191c:	02dc                	addi	a5,sp,324
    191e:	0000                	unimp
    1920:	04d5                	addi	s1,s1,21
    1922:	0000                	unimp
    1924:	0000                	unimp
    1926:	390e                	fld	fs2,224(sp)
    1928:	18000003          	lb	zero,384(zero) # 180 <__stack_align+0x170>
    192c:	001c                	.insn	2, 0x001c
    192e:	0080                	addi	s0,sp,64
    1930:	0000                	unimp
    1932:	0400                	addi	s0,sp,512
    1934:	0000                	unimp
    1936:	0000                	unimp
    1938:	0000                	unimp
    193a:	1e00                	addi	s0,sp,816
    193c:	1e00                	addi	s0,sp,816
    193e:	00a2                	slli	ra,ra,0x8
    1940:	0000                	unimp
    1942:	0299                	addi	t0,t0,6
    1944:	0000                	unimp
    1946:	771f 0000 0700      	.insn	6, 0x07000000771f
    194c:	0800                	addi	s0,sp,16
    194e:	0289                	addi	t0,t0,2
    1950:	0000                	unimp
    1952:	4906                	lw	s2,64(sp)
    1954:	0005                	c.nop	1
    1956:	0300                	addi	s0,sp,384
    1958:	b515                	j	177c <__stack_align+0x176c>
    195a:	0002                	c.slli64	zero
    195c:	0f00                	addi	s0,sp,912
    195e:	0511                	addi	a0,a0,4
    1960:	0000                	unimp
    1962:	2c15                	addiw	s8,s8,5
    1964:	02b5                	addi	t0,t0,13
    1966:	0000                	unimp
    1968:	0700                	addi	s0,sp,896
    196a:	000000db          	.insn	4, 0x00db
    196e:	3f06                	fld	ft10,96(sp)
    1970:	0005                	c.nop	1
    1972:	0300                	addi	s0,sp,384
    1974:	d10c                	sw	a1,32(a0)
    1976:	0002                	c.slli64	zero
    1978:	0f00                	addi	s0,sp,912
    197a:	0511                	addi	a0,a0,4
    197c:	0000                	unimp
    197e:	2a0c                	fld	fa1,16(a2)
    1980:	02b5                	addi	t0,t0,13
    1982:	0000                	unimp
    1984:	0600                	addi	s0,sp,768
    1986:	0555                	addi	a0,a0,21
    1988:	0000                	unimp
    198a:	3c02                	fld	fs8,32(sp)
    198c:	02e6                	slli	t0,t0,0x19
    198e:	0000                	unimp
    1990:	7004                	ld	s1,32(s0)
    1992:	3c00                	fld	fs0,56(s0)
    1994:	0002e633          	or	a2,t0,zero
    1998:	0000                	unimp
    199a:	0000b307          	fld	ft6,0(ra)
    199e:	1000                	addi	s0,sp,32
    19a0:	0516                	slli	a0,a0,0x5
    19a2:	0000                	unimp
    19a4:	6428                	ld	a0,72(s0)
    19a6:	0000                	unimp
    19a8:	1600                	addi	s0,sp,800
    19aa:	04000003          	lb	zero,64(zero) # 40 <__stack_align+0x30>
    19ae:	0070                	addi	a2,sp,12
    19b0:	3228                	fld	fa0,96(a2)
    19b2:	02e6                	slli	t0,t0,0x19
    19b4:	0000                	unimp
    19b6:	7604                	ld	s1,40(a2)
    19b8:	2800                	fld	fs0,16(s0)
    19ba:	b33e                	fsd	fa5,416(sp)
    19bc:	0000                	unimp
    19be:	2000                	fld	fs0,0(s0)
    19c0:	006e                	c.slli	zero,0x1b
    19c2:	2a02                	fld	fs4,0(sp)
    19c4:	640a                	ld	s0,128(sp)
    19c6:	0000                	unimp
    19c8:	0000                	unimp
    19ca:	3310                	fld	fa2,32(a4)
    19cc:	0005                	c.nop	1
    19ce:	1d00                	addi	s0,sp,688
    19d0:	0064                	addi	s1,sp,12
    19d2:	0000                	unimp
    19d4:	032e                	slli	t1,t1,0xb
    19d6:	0000                	unimp
    19d8:	7004                	ld	s1,32(s0)
    19da:	1d00                	addi	s0,sp,688
    19dc:	2e30                	fld	fa2,88(a2)
    19de:	00000003          	lb	zero,0(zero) # 0 <__boot_hart>
    19e2:	0000bf07          	fld	ft10,0(ra)
    19e6:	1100                	addi	s0,sp,160
    19e8:	00626d77          	.insn	4, 0x00626d77
    19ec:	1116                	slli	sp,sp,0x25
    19ee:	6d72                	ld	s10,280(sp)
    19f0:	0062                	c.slli	zero,0x18
    19f2:	0015                	c.nop	5

Disassembly of section .debug_abbrev:

0000000000000000 <.debug_abbrev>:
   0:	0501                	addi	a0,a0,0
   2:	3100                	fld	fs0,32(a0)
   4:	00170213          	addi	tp,a4,1 # fffffffffffe6001 <__heap_end+0xffffffff7ffc3001>
   8:	0200                	addi	s0,sp,256
   a:	0049                	c.nop	18
   c:	1802                	slli	a6,a6,0x20
   e:	187e                	slli	a6,a6,0x3f
  10:	0000                	unimp
  12:	31003403          	ld	s0,784(zero) # 310 <__stack_align+0x300>
  16:	00170213          	addi	tp,a4,1
  1a:	0400                	addi	s0,sp,512
  1c:	0005                	c.nop	1
  1e:	0b3a0e03          	lb	t3,179(s4)
  22:	0b390b3b          	.insn	4, 0x0b390b3b
  26:	1349                	addi	t1,t1,-14
  28:	0000                	unimp
  2a:	0b05                	addi	s6,s6,1 # fffffffffffe0001 <__heap_end+0xffffffff7ffbd001>
  2c:	5501                	li	a0,-32
  2e:	06000017          	auipc	zero,0x6000
  32:	0024                	addi	s1,sp,8
  34:	0b3e0b0b          	.insn	4, 0x0b3e0b0b
  38:	00000e03          	lb	t3,0(zero) # 0 <__boot_hart>
  3c:	31011d07          	.insn	4, 0x31011d07
  40:	55015213          	.insn	4, 0x55015213
  44:	590b5817          	auipc	a6,0x590b5
  48:	010b570b          	.insn	4, 0x010b570b
  4c:	08000013          	li	zero,128
  50:	0034                	addi	a3,sp,8
  52:	1331                	addi	t1,t1,-20
  54:	0000                	unimp
  56:	1609                	addi	a2,a2,-30 # fe2 <__stack_align+0xfd2>
  58:	0300                	addi	s0,sp,384
  5a:	3a0e                	fld	fs4,224(sp)
  5c:	390b3b0b          	.insn	4, 0x390b3b0b
  60:	0013490b          	.insn	4, 0x0013490b
  64:	0a00                	addi	s0,sp,272
  66:	0005                	c.nop	1
  68:	1331                	addi	t1,t1,-20
  6a:	0000                	unimp
  6c:	31011d0b          	.insn	4, 0x31011d0b
  70:	12011113          	.insn	4, 0x12011113
  74:	590b5807          	.insn	4, 0x590b5807
  78:	010b570b          	.insn	4, 0x010b570b
  7c:	0c000013          	li	zero,192
  80:	0034                	addi	a3,sp,8
  82:	213a0e03          	lb	t3,531(s4)
  86:	3b01                	addiw	s6,s6,-32
  88:	490b390b          	.insn	4, 0x490b390b
  8c:	00170213          	addi	tp,a4,1
  90:	0d00                	addi	s0,sp,656
  92:	0148                	addi	a0,sp,132
  94:	017d                	addi	sp,sp,31
  96:	0000137f 0300340e 	.insn	12, 0x3b0b3a080300340e0000137f
  9e:	3b0b3a08 
  a2:	490b390b          	.insn	4, 0x490b390b
  a6:	0f000013          	li	zero,240
  aa:	0148                	addi	a0,sp,132
  ac:	017d                	addi	sp,sp,31
  ae:	1301137f 0f100000 	.insn	12, 0x08210b000f1000001301137f
  b6:	08210b00 
  ba:	1349                	addi	t1,t1,-14
  bc:	0000                	unimp
  be:	3411                	addiw	s0,s0,-28
  c0:	0300                	addi	s0,sp,384
  c2:	3a0e                	fld	fs4,224(sp)
  c4:	0121                	addi	sp,sp,8
  c6:	0b390b3b          	.insn	4, 0x0b390b3b
  ca:	1349                	addi	t1,t1,-14
  cc:	0000                	unimp
  ce:	3512                	fld	fa0,288(sp)
  d0:	4900                	lw	s0,16(a0)
  d2:	13000013          	li	zero,304
  d6:	0034                	addi	a3,sp,8
  d8:	213a0803          	lb	a6,531(s4)
  dc:	3b01                	addiw	s6,s6,-32
  de:	0b21390b          	.insn	4, 0x0b21390b
  e2:	1349                	addi	t1,t1,-14
  e4:	1702                	slli	a4,a4,0x20
  e6:	0000                	unimp
  e8:	2e14                	fld	fa3,24(a2)
  ea:	0301                	addi	t1,t1,0
  ec:	3a0e                	fld	fs4,224(sp)
  ee:	390b3b0b          	.insn	4, 0x390b3b0b
  f2:	4919270b          	.insn	4, 0x4919270b
  f6:	03212013          	slti	zero,sp,50
  fa:	1301                	addi	t1,t1,-32
  fc:	0000                	unimp
  fe:	2e15                	addiw	t3,t3,5
 100:	0301                	addi	t1,t1,0
 102:	3a0e                	fld	fs4,224(sp)
 104:	0221                	addi	tp,tp,8 # 1872 <__stack_align+0x1862>
 106:	21390b3b          	.insn	4, 0x21390b3b
 10a:	2714                	fld	fa3,8(a4)
 10c:	2019                	.insn	2, 0x2019
 10e:	0321                	addi	t1,t1,8
 110:	1301                	addi	t1,t1,-32
 112:	0000                	unimp
 114:	0516                	slli	a0,a0,0x5
 116:	4900                	lw	s0,16(a0)
 118:	17000013          	li	zero,368
 11c:	1755010b          	.insn	4, 0x1755010b
 120:	1301                	addi	t1,t1,-32
 122:	0000                	unimp
 124:	0b18                	addi	a4,sp,400
 126:	0001                	nop
 128:	1900                	addi	s0,sp,176
 12a:	011d                	addi	sp,sp,7
 12c:	1331                	addi	t1,t1,-20
 12e:	0111                	addi	sp,sp,4
 130:	0712                	slli	a4,a4,0x4
 132:	2158                	fld	fa4,128(a0)
 134:	25215903          	lhu	s2,594(sp)
 138:	000a2157          	.insn	4, 0x000a2157
 13c:	1a00                	addi	s0,sp,304
 13e:	1331010b          	.insn	4, 0x1331010b
 142:	1755                	addi	a4,a4,-11
 144:	0000                	unimp
 146:	2501111b          	.insn	4, 0x2501111b
 14a:	130e                	slli	t1,t1,0x23
 14c:	1b1f030b          	.insn	4, 0x1b1f030b
 150:	551f 1117 1001      	.insn	6, 0x10011117551f
 156:	1c000017          	auipc	zero,0x1c000
 15a:	0024                	addi	s1,sp,8
 15c:	0b3e0b0b          	.insn	4, 0x0b3e0b0b
 160:	00000803          	lb	a6,0(zero) # 0 <__boot_hart>
 164:	261d                	addiw	a2,a2,7
 166:	4900                	lw	s0,16(a0)
 168:	1e000013          	li	zero,480
 16c:	13490037          	lui	zero,0x13490
 170:	0000                	unimp
 172:	011f 4901 0113      	.insn	6, 0x01134901011f
 178:	20000013          	li	zero,512
 17c:	0021                	c.nop	8
 17e:	1349                	addi	t1,t1,-14
 180:	00000b2f          	.insn	4, 0x0b2f
 184:	3421                	addiw	s0,s0,-24
 186:	0300                	addi	s0,sp,384
 188:	3a0e                	fld	fs4,224(sp)
 18a:	390b3b0b          	.insn	4, 0x390b3b0b
 18e:	3f13490b          	.insn	4, 0x3f13490b
 192:	0219                	addi	tp,tp,6 # 6 <__boot_hart+0x6>
 194:	0018                	.insn	2, 0x0018
 196:	2200                	fld	fs0,0(a2)
 198:	012e                	slli	sp,sp,0xb
 19a:	0e03193f 0b3b0b3a 	.insn	8, 0x0b3b0b3a0e03193f
 1a2:	0b39                	addi	s6,s6,14
 1a4:	01871927          	.insn	4, 0x01871927
 1a8:	3c19                	addiw	s8,s8,-26
 1aa:	0119                	addi	sp,sp,6
 1ac:	23000013          	li	zero,560
 1b0:	012e                	slli	sp,sp,0xb
 1b2:	0e03193f 0b3b0b3a 	.insn	8, 0x0b3b0b3a0e03193f
 1ba:	0b39                	addi	s6,s6,14
 1bc:	13491927          	.insn	4, 0x13491927
 1c0:	193c                	addi	a5,sp,184
 1c2:	1301                	addi	t1,t1,-32
 1c4:	0000                	unimp
 1c6:	1824                	addi	s1,sp,56
 1c8:	0000                	unimp
 1ca:	2500                	fld	fs0,8(a0)
 1cc:	012e                	slli	sp,sp,0xb
 1ce:	0e03193f 0b3b0b3a 	.insn	8, 0x0b3b0b3a0e03193f
 1d6:	0b39                	addi	s6,s6,14
 1d8:	13491927          	.insn	4, 0x13491927
 1dc:	0111                	addi	sp,sp,4
 1de:	0712                	slli	a4,a4,0x4
 1e0:	1840                	addi	s0,sp,52
 1e2:	197a                	slli	s2,s2,0x3e
 1e4:	1301                	addi	t1,t1,-32
 1e6:	0000                	unimp
 1e8:	1d26                	slli	s10,s10,0x29
 1ea:	3101                	addiw	sp,sp,-32
 1ec:	55015213          	.insn	4, 0x55015213
 1f0:	590b5817          	auipc	a6,0x590b5
 1f4:	000b570b          	.insn	4, 0x000b570b
 1f8:	2700                	fld	fs0,8(a4)
 1fa:	012e                	slli	sp,sp,0xb
 1fc:	0e03193f 0b3b0b3a 	.insn	8, 0x0b3b0b3a0e03193f
 204:	0b39                	addi	s6,s6,14
 206:	0b201927          	.insn	4, 0x0b201927
 20a:	1301                	addi	t1,t1,-32
 20c:	0000                	unimp
 20e:	2e28                	fld	fa0,88(a2)
 210:	3f01                	addiw	t5,t5,-32
 212:	0319                	addi	t1,t1,6
 214:	3a0e                	fld	fs4,224(sp)
 216:	390b3b0b          	.insn	4, 0x390b3b0b
 21a:	1119270b          	.insn	4, 0x1119270b
 21e:	1201                	addi	tp,tp,-32 # ffffffffffffffe0 <__heap_end+0xffffffff7ffdcfe0>
 220:	7a184007          	.insn	4, 0x7a184007
 224:	0119                	addi	sp,sp,6
 226:	29000013          	li	zero,656
 22a:	0005                	c.nop	1
 22c:	0b3a0e03          	lb	t3,179(s4)
 230:	0b390b3b          	.insn	4, 0x0b390b3b
 234:	1349                	addi	t1,t1,-14
 236:	1702                	slli	a4,a4,0x20
 238:	0000                	unimp
 23a:	0b2a                	slli	s6,s6,0xa
 23c:	1101                	addi	sp,sp,-32
 23e:	1201                	addi	tp,tp,-32 # ffffffffffffffe0 <__heap_end+0xffffffff7ffdcfe0>
 240:	00130107          	.insn	4, 0x00130107
 244:	2b00                	fld	fs0,16(a4)
 246:	0005                	c.nop	1
 248:	0b3a0803          	lb	a6,179(s4)
 24c:	0b390b3b          	.insn	4, 0x0b390b3b
 250:	1349                	addi	t1,t1,-14
 252:	0000                	unimp
 254:	2e2c                	fld	fa1,88(a2)
 256:	0300                	addi	s0,sp,384
 258:	3a0e                	fld	fs4,224(sp)
 25a:	390b3b0b          	.insn	4, 0x390b3b0b
 25e:	4919270b          	.insn	4, 0x4919270b
 262:	000b2013          	slti	zero,s6,0
 266:	2d00                	fld	fs0,24(a0)
 268:	012e                	slli	sp,sp,0xb
 26a:	1331                	addi	t1,t1,-20
 26c:	0111                	addi	sp,sp,4
 26e:	0712                	slli	a4,a4,0x4
 270:	1840                	addi	s0,sp,52
 272:	197a                	slli	s2,s2,0x3e
 274:	0000                	unimp
 276:	0100                	addi	s0,sp,128
 278:	0024                	addi	s1,sp,8
 27a:	0b3e0b0b          	.insn	4, 0x0b3e0b0b
 27e:	00000e03          	lb	t3,0(zero) # 0 <__boot_hart>
 282:	1102                	slli	sp,sp,0x20
 284:	2501                	sext.w	a0,a0
 286:	130e                	slli	t1,t1,0x23
 288:	1b1f030b          	.insn	4, 0x1b1f030b
 28c:	111f 1201 1007      	.insn	6, 0x10071201111f
 292:	03000017          	auipc	zero,0x3000
 296:	0024                	addi	s1,sp,8
 298:	0b3e0b0b          	.insn	4, 0x0b3e0b0b
 29c:	00000803          	lb	a6,0(zero) # 0 <__boot_hart>
 2a0:	2e04                	fld	fs1,24(a2)
 2a2:	3f00                	fld	fs0,56(a4)
 2a4:	0319                	addi	t1,t1,6
 2a6:	3a0e                	fld	fs4,224(sp)
 2a8:	390b3b0b          	.insn	4, 0x390b3b0b
 2ac:	4919270b          	.insn	4, 0x4919270b
 2b0:	00193c13          	seqz	s8,s2
 2b4:	0500                	addi	s0,sp,640
 2b6:	0b0b000f          	.insn	4, 0x0b0b000f
 2ba:	1349                	addi	t1,t1,-14
 2bc:	0000                	unimp
 2be:	2e06                	fld	ft8,64(sp)
 2c0:	3f01                	addiw	t5,t5,-32
 2c2:	0319                	addi	t1,t1,6
 2c4:	3a0e                	fld	fs4,224(sp)
 2c6:	390b3b0b          	.insn	4, 0x390b3b0b
 2ca:	4919270b          	.insn	4, 0x4919270b
 2ce:	12011113          	.insn	4, 0x12011113
 2d2:	7a184007          	.insn	4, 0x7a184007
 2d6:	0019                	c.nop	6
 2d8:	0700                	addi	s0,sp,896
 2da:	0005                	c.nop	1
 2dc:	0b3a0e03          	lb	t3,179(s4)
 2e0:	0b390b3b          	.insn	4, 0x0b390b3b
 2e4:	1349                	addi	t1,t1,-14
 2e6:	1702                	slli	a4,a4,0x20
 2e8:	0000                	unimp
 2ea:	4808                	lw	a0,16(s0)
 2ec:	7d00                	ld	s0,56(a0)
 2ee:	7f01                	lui	t5,0xfffe0
 2f0:	00000013          	nop
 2f4:	2401                	sext.w	s0,s0
 2f6:	0b00                	addi	s0,sp,400
 2f8:	030b3e0b          	.insn	4, 0x030b3e0b
 2fc:	000e                	c.slli	zero,0x3
 2fe:	0200                	addi	s0,sp,256
 300:	0016                	c.slli	zero,0x5
 302:	0b3a0e03          	lb	t3,179(s4)
 306:	0b390b3b          	.insn	4, 0x0b390b3b
 30a:	1349                	addi	t1,t1,-14
 30c:	0000                	unimp
 30e:	03003403          	ld	s0,48(zero) # 30 <__stack_align+0x20>
 312:	3a0e                	fld	fs4,224(sp)
 314:	0421                	addi	s0,s0,8
 316:	21390b3b          	.insn	4, 0x21390b3b
 31a:	491a                	lw	s2,132(sp)
 31c:	3c193f13          	sltiu	t5,s2,961
 320:	0019                	c.nop	6
 322:	0400                	addi	s0,sp,512
 324:	0111                	addi	sp,sp,4
 326:	0e25                	addi	t3,t3,9
 328:	1f030b13          	addi	s6,t1,496
 32c:	01111f1b          	slliw	t5,sp,0x11
 330:	0712                	slli	a4,a4,0x4
 332:	1710                	addi	a2,sp,928
 334:	0000                	unimp
 336:	2405                	addiw	s0,s0,1
 338:	0b00                	addi	s0,sp,400
 33a:	030b3e0b          	.insn	4, 0x030b3e0b
 33e:	0008                	.insn	2, 0x0008
 340:	0600                	addi	s0,sp,768
 342:	0035                	c.nop	13
 344:	1349                	addi	t1,t1,-14
 346:	0000                	unimp
 348:	3f012e07          	flw	ft8,1008(sp)
 34c:	0319                	addi	t1,t1,6
 34e:	3a0e                	fld	fs4,224(sp)
 350:	390b3b0b          	.insn	4, 0x390b3b0b
 354:	8719270b          	.insn	4, 0x8719270b
 358:	1901                	addi	s2,s2,-32 # 2a820 <__heap_size+0xa820>
 35a:	0111                	addi	sp,sp,4
 35c:	0712                	slli	a4,a4,0x4
 35e:	1840                	addi	s0,sp,52
 360:	197a                	slli	s2,s2,0x3e
 362:	0000                	unimp
 364:	0508                	addi	a0,sp,640
 366:	0300                	addi	s0,sp,384
 368:	3a0e                	fld	fs4,224(sp)
 36a:	390b3b0b          	.insn	4, 0x390b3b0b
 36e:	0213490b          	.insn	4, 0x0213490b
 372:	0018                	.insn	2, 0x0018
 374:	0900                	addi	s0,sp,144
 376:	0034                	addi	a3,sp,8
 378:	0b3a0803          	lb	a6,179(s4)
 37c:	0b390b3b          	.insn	4, 0x0b390b3b
 380:	1349                	addi	t1,t1,-14
 382:	1802                	slli	a6,a6,0x20
 384:	0000                	unimp
 386:	0100                	addi	s0,sp,128
 388:	0016                	c.slli	zero,0x5
 38a:	0b3a0e03          	lb	t3,179(s4)
 38e:	0b390b3b          	.insn	4, 0x0b390b3b
 392:	1349                	addi	t1,t1,-14
 394:	0000                	unimp
 396:	0d02                	c.slli64	s10
 398:	0300                	addi	s0,sp,384
 39a:	3a0e                	fld	fs4,224(sp)
 39c:	390b3b0b          	.insn	4, 0x390b3b0b
 3a0:	3813490b          	.insn	4, 0x3813490b
 3a4:	0300000b          	.insn	4, 0x0300000b
 3a8:	0024                	addi	s1,sp,8
 3aa:	0b3e0b0b          	.insn	4, 0x0b3e0b0b
 3ae:	00000e03          	lb	t3,0(zero) # 0 <__boot_hart>
 3b2:	1304                	addi	s1,sp,416
 3b4:	0301                	addi	t1,t1,0
 3b6:	0b0e                	slli	s6,s6,0x3
 3b8:	3b0b3a0b          	.insn	4, 0x3b0b3a0b
 3bc:	0821390b          	.insn	4, 0x0821390b
 3c0:	1301                	addi	t1,t1,-32
 3c2:	0000                	unimp
 3c4:	0f05                	addi	t5,t5,1 # fffffffffffe0001 <__heap_end+0xffffffff7ffbd001>
 3c6:	0b00                	addi	s0,sp,400
 3c8:	0821                	addi	a6,a6,8 # 590b51f8 <__heap_size+0x590951f8>
 3ca:	1349                	addi	t1,t1,-14
 3cc:	0000                	unimp
 3ce:	1106                	slli	sp,sp,0x21
 3d0:	2501                	sext.w	a0,a0
 3d2:	130e                	slli	t1,t1,0x23
 3d4:	1b1f030b          	.insn	4, 0x1b1f030b
 3d8:	111f 1201 1007      	.insn	6, 0x10071201111f
 3de:	07000017          	auipc	zero,0x7000
 3e2:	0024                	addi	s1,sp,8
 3e4:	0b3e0b0b          	.insn	4, 0x0b3e0b0b
 3e8:	00000803          	lb	a6,0(zero) # 0 <__boot_hart>
 3ec:	0108                	addi	a0,sp,128
 3ee:	4901                	li	s2,0
 3f0:	00130113          	addi	sp,t1,1
 3f4:	0900                	addi	s0,sp,144
 3f6:	0021                	c.nop	8
 3f8:	1349                	addi	t1,t1,-14
 3fa:	00000b2f          	.insn	4, 0x0b2f
 3fe:	2e0a                	fld	ft8,128(sp)
 400:	3f00                	fld	fs0,56(a4)
 402:	0319                	addi	t1,t1,6
 404:	3a0e                	fld	fs4,224(sp)
 406:	390b3b0b          	.insn	4, 0x390b3b0b
 40a:	4919270b          	.insn	4, 0x4919270b
 40e:	00193c13          	seqz	s8,s2
 412:	0b00                	addi	s0,sp,400
 414:	012e                	slli	sp,sp,0xb
 416:	0e03193f 0b3b0b3a 	.insn	8, 0x0b3b0b3a0e03193f
 41e:	0b39                	addi	s6,s6,14
 420:	13491927          	.insn	4, 0x13491927
 424:	0111                	addi	sp,sp,4
 426:	0712                	slli	a4,a4,0x4
 428:	1840                	addi	s0,sp,52
 42a:	197a                	slli	s2,s2,0x3e
 42c:	1301                	addi	t1,t1,-32
 42e:	0000                	unimp
 430:	050c                	addi	a1,sp,640
 432:	0300                	addi	s0,sp,384
 434:	3a0e                	fld	fs4,224(sp)
 436:	390b3b0b          	.insn	4, 0x390b3b0b
 43a:	0213490b          	.insn	4, 0x0213490b
 43e:	0d000017          	auipc	zero,0xd000
 442:	0005                	c.nop	1
 444:	0b3a0803          	lb	a6,179(s4)
 448:	0b390b3b          	.insn	4, 0x0b390b3b
 44c:	1349                	addi	t1,t1,-14
 44e:	1702                	slli	a4,a4,0x20
 450:	0000                	unimp
 452:	480e                	lw	a6,192(sp)
 454:	7d00                	ld	s0,56(a0)
 456:	7f01                	lui	t5,0xfffe0
 458:	00000013          	nop
 45c:	2401                	sext.w	s0,s0
 45e:	0b00                	addi	s0,sp,400
 460:	030b3e0b          	.insn	4, 0x030b3e0b
 464:	000e                	c.slli	zero,0x3
 466:	0200                	addi	s0,sp,256
 468:	0111                	addi	sp,sp,4
 46a:	0e25                	addi	t3,t3,9
 46c:	1f030b13          	addi	s6,t1,496
 470:	01111f1b          	slliw	t5,sp,0x11
 474:	0712                	slli	a4,a4,0x4
 476:	1710                	addi	a2,sp,928
 478:	0000                	unimp
 47a:	0b002403          	lw	s0,176(zero) # b0 <__stack_align+0xa0>
 47e:	030b3e0b          	.insn	4, 0x030b3e0b
 482:	0008                	.insn	2, 0x0008
 484:	0400                	addi	s0,sp,512
 486:	012e                	slli	sp,sp,0xb
 488:	0e03193f 0b3b0b3a 	.insn	8, 0x0b3b0b3a0e03193f
 490:	0b39                	addi	s6,s6,14
 492:	13491927          	.insn	4, 0x13491927
 496:	0111                	addi	sp,sp,4
 498:	0712                	slli	a4,a4,0x4
 49a:	1840                	addi	s0,sp,52
 49c:	197a                	slli	s2,s2,0x3e
 49e:	0000                	unimp
 4a0:	0505                	addi	a0,a0,1
 4a2:	0300                	addi	s0,sp,384
 4a4:	3a0e                	fld	fs4,224(sp)
 4a6:	390b3b0b          	.insn	4, 0x390b3b0b
 4aa:	0213490b          	.insn	4, 0x0213490b
 4ae:	00000017          	auipc	zero,0x0
 4b2:	2401                	sext.w	s0,s0
 4b4:	0b00                	addi	s0,sp,400
 4b6:	030b3e0b          	.insn	4, 0x030b3e0b
 4ba:	000e                	c.slli	zero,0x3
 4bc:	0200                	addi	s0,sp,256
 4be:	0016                	c.slli	zero,0x5
 4c0:	0b3a0e03          	lb	t3,179(s4)
 4c4:	0b390b3b          	.insn	4, 0x0b390b3b
 4c8:	1349                	addi	t1,t1,-14
 4ca:	0000                	unimp
 4cc:	03000503          	lb	a0,48(zero) # 30 <__stack_align+0x20>
 4d0:	3a08                	fld	fa0,48(a2)
 4d2:	0121                	addi	sp,sp,8
 4d4:	3905213b          	.insn	4, 0x3905213b
 4d8:	0213490b          	.insn	4, 0x0213490b
 4dc:	04000017          	auipc	zero,0x4000
 4e0:	0111                	addi	sp,sp,4
 4e2:	0e25                	addi	t3,t3,9
 4e4:	1f030b13          	addi	s6,t1,496
 4e8:	01111f1b          	slliw	t5,sp,0x11
 4ec:	0712                	slli	a4,a4,0x4
 4ee:	1710                	addi	a2,sp,928
 4f0:	0000                	unimp
 4f2:	2405                	addiw	s0,s0,1
 4f4:	0b00                	addi	s0,sp,400
 4f6:	030b3e0b          	.insn	4, 0x030b3e0b
 4fa:	0008                	.insn	2, 0x0008
 4fc:	0600                	addi	s0,sp,768
 4fe:	002e                	c.slli	zero,0xb
 500:	0e03193f 0b3b0b3a 	.insn	8, 0x0b3b0b3a0e03193f
 508:	0b39                	addi	s6,s6,14
 50a:	13491927          	.insn	4, 0x13491927
 50e:	193c                	addi	a5,sp,184
 510:	0000                	unimp
 512:	0b000f07          	.insn	4, 0x0b000f07
 516:	0013490b          	.insn	4, 0x0013490b
 51a:	0800                	addi	s0,sp,16
 51c:	012e                	slli	sp,sp,0xb
 51e:	0e03193f 0b3b0b3a 	.insn	8, 0x0b3b0b3a0e03193f
 526:	0b39                	addi	s6,s6,14
 528:	13491927          	.insn	4, 0x13491927
 52c:	0111                	addi	sp,sp,4
 52e:	0712                	slli	a4,a4,0x4
 530:	1840                	addi	s0,sp,52
 532:	197a                	slli	s2,s2,0x3e
 534:	0000                	unimp
 536:	0509                	addi	a0,a0,2
 538:	0300                	addi	s0,sp,384
 53a:	3a0e                	fld	fs4,224(sp)
 53c:	390b3b0b          	.insn	4, 0x390b3b0b
 540:	0213490b          	.insn	4, 0x0213490b
 544:	0a000017          	auipc	zero,0xa000
 548:	0048                	addi	a0,sp,4
 54a:	017d                	addi	sp,sp,31
 54c:	0000137f 00240100 	.insn	12, 0x0b3e0b0b002401000000137f
 554:	0b3e0b0b 
 558:	00000e03          	lb	t3,0(zero) # 0 <__boot_hart>
 55c:	1602                	slli	a2,a2,0x20
 55e:	0300                	addi	s0,sp,384
 560:	3a0e                	fld	fs4,224(sp)
 562:	390b3b0b          	.insn	4, 0x390b3b0b
 566:	0013490b          	.insn	4, 0x0013490b
 56a:	0300                	addi	s0,sp,384
 56c:	0005                	c.nop	1
 56e:	213a0803          	lb	a6,531(s4)
 572:	3b01                	addiw	s6,s6,-32
 574:	0521                	addi	a0,a0,8
 576:	0b39                	addi	s6,s6,14
 578:	1349                	addi	t1,t1,-14
 57a:	1702                	slli	a4,a4,0x20
 57c:	0000                	unimp
 57e:	1104                	addi	s1,sp,160
 580:	2501                	sext.w	a0,a0
 582:	130e                	slli	t1,t1,0x23
 584:	1b1f030b          	.insn	4, 0x1b1f030b
 588:	111f 1201 1007      	.insn	6, 0x10071201111f
 58e:	05000017          	auipc	zero,0x5000
 592:	0024                	addi	s1,sp,8
 594:	0b3e0b0b          	.insn	4, 0x0b3e0b0b
 598:	00000803          	lb	a6,0(zero) # 0 <__boot_hart>
 59c:	0f06                	slli	t5,t5,0x1
 59e:	0b00                	addi	s0,sp,400
 5a0:	0700000b          	.insn	4, 0x0700000b
 5a4:	002e                	c.slli	zero,0xb
 5a6:	0e03193f 0b3b0b3a 	.insn	8, 0x0b3b0b3a0e03193f
 5ae:	0b39                	addi	s6,s6,14
 5b0:	13491927          	.insn	4, 0x13491927
 5b4:	193c                	addi	a5,sp,184
 5b6:	0000                	unimp
 5b8:	0f08                	addi	a0,sp,912
 5ba:	0b00                	addi	s0,sp,400
 5bc:	0013490b          	.insn	4, 0x0013490b
 5c0:	0900                	addi	s0,sp,144
 5c2:	012e                	slli	sp,sp,0xb
 5c4:	0e03193f 0b3b0b3a 	.insn	8, 0x0b3b0b3a0e03193f
 5cc:	0b39                	addi	s6,s6,14
 5ce:	13491927          	.insn	4, 0x13491927
 5d2:	0111                	addi	sp,sp,4
 5d4:	0712                	slli	a4,a4,0x4
 5d6:	1840                	addi	s0,sp,52
 5d8:	197a                	slli	s2,s2,0x3e
 5da:	0000                	unimp
 5dc:	050a                	slli	a0,a0,0x2
 5de:	0300                	addi	s0,sp,384
 5e0:	3a0e                	fld	fs4,224(sp)
 5e2:	390b3b0b          	.insn	4, 0x390b3b0b
 5e6:	0213490b          	.insn	4, 0x0213490b
 5ea:	0b000017          	auipc	zero,0xb000
 5ee:	0048                	addi	a0,sp,4
 5f0:	017d                	addi	sp,sp,31
 5f2:	0000137f 00240100 	.insn	12, 0x0b3e0b0b002401000000137f
 5fa:	0b3e0b0b 
 5fe:	00000e03          	lb	t3,0(zero) # 0 <__boot_hart>
 602:	0f02                	c.slli64	t5
 604:	0b00                	addi	s0,sp,400
 606:	0821                	addi	a6,a6,8
 608:	1349                	addi	t1,t1,-14
 60a:	0000                	unimp
 60c:	03003403          	ld	s0,48(zero) # 30 <__stack_align+0x20>
 610:	3a0e                	fld	fs4,224(sp)
 612:	0121                	addi	sp,sp,8
 614:	0b390b3b          	.insn	4, 0x0b390b3b
 618:	1349                	addi	t1,t1,-14
 61a:	193c193f 34040000 	.insn	8, 0x34040000193c193f
 622:	0300                	addi	s0,sp,384
 624:	3a0e                	fld	fs4,224(sp)
 626:	0121                	addi	sp,sp,8
 628:	21390b3b          	.insn	4, 0x21390b3b
 62c:	0213490b          	.insn	4, 0x0213490b
 630:	05000017          	auipc	zero,0x5000
 634:	0111                	addi	sp,sp,4
 636:	0e25                	addi	t3,t3,9
 638:	1f030b13          	addi	s6,t1,496
 63c:	01111f1b          	slliw	t5,sp,0x11
 640:	0712                	slli	a4,a4,0x4
 642:	1710                	addi	a2,sp,928
 644:	0000                	unimp
 646:	1606                	slli	a2,a2,0x21
 648:	0300                	addi	s0,sp,384
 64a:	3a0e                	fld	fs4,224(sp)
 64c:	390b3b0b          	.insn	4, 0x390b3b0b
 650:	0013490b          	.insn	4, 0x0013490b
 654:	0700                	addi	s0,sp,896
 656:	0024                	addi	s1,sp,8
 658:	0b3e0b0b          	.insn	4, 0x0b3e0b0b
 65c:	00000803          	lb	a6,0(zero) # 0 <__boot_hart>
 660:	0f08                	addi	a0,sp,912
 662:	0b00                	addi	s0,sp,400
 664:	0900000b          	.insn	4, 0x0900000b
 668:	0101                	addi	sp,sp,0
 66a:	1349                	addi	t1,t1,-14
 66c:	1301                	addi	t1,t1,-32
 66e:	0000                	unimp
 670:	210a                	fld	ft2,128(sp)
 672:	0000                	unimp
 674:	0b00                	addi	s0,sp,400
 676:	0034                	addi	a3,sp,8
 678:	0b3a0e03          	lb	t3,179(s4)
 67c:	0b390b3b          	.insn	4, 0x0b390b3b
 680:	1349                	addi	t1,t1,-14
 682:	1802                	slli	a6,a6,0x20
 684:	0000                	unimp
 686:	2e0c                	fld	fa1,24(a2)
 688:	3f00                	fld	fs0,56(a4)
 68a:	0319                	addi	t1,t1,6
 68c:	3a0e                	fld	fs4,224(sp)
 68e:	390b3b0b          	.insn	4, 0x390b3b0b
 692:	4919270b          	.insn	4, 0x4919270b
 696:	00193c13          	seqz	s8,s2
 69a:	0d00                	addi	s0,sp,656
 69c:	012e                	slli	sp,sp,0xb
 69e:	0e03193f 0b3b0b3a 	.insn	8, 0x0b3b0b3a0e03193f
 6a6:	0b39                	addi	s6,s6,14
 6a8:	13491927          	.insn	4, 0x13491927
 6ac:	0111                	addi	sp,sp,4
 6ae:	0712                	slli	a4,a4,0x4
 6b0:	1840                	addi	s0,sp,52
 6b2:	197a                	slli	s2,s2,0x3e
 6b4:	0000                	unimp
 6b6:	050e                	slli	a0,a0,0x3
 6b8:	0300                	addi	s0,sp,384
 6ba:	3a0e                	fld	fs4,224(sp)
 6bc:	390b3b0b          	.insn	4, 0x390b3b0b
 6c0:	0213490b          	.insn	4, 0x0213490b
 6c4:	0f000017          	auipc	zero,0xf000
 6c8:	0048                	addi	a0,sp,4
 6ca:	017d                	addi	sp,sp,31
 6cc:	0000137f 00240100 	.insn	12, 0x0b3e0b0b002401000000137f
 6d4:	0b3e0b0b 
 6d8:	00000e03          	lb	t3,0(zero) # 0 <__boot_hart>
 6dc:	1602                	slli	a2,a2,0x20
 6de:	0300                	addi	s0,sp,384
 6e0:	3a0e                	fld	fs4,224(sp)
 6e2:	390b3b0b          	.insn	4, 0x390b3b0b
 6e6:	0013490b          	.insn	4, 0x0013490b
 6ea:	0300                	addi	s0,sp,384
 6ec:	0005                	c.nop	1
 6ee:	1349                	addi	t1,t1,-14
 6f0:	0000                	unimp
 6f2:	4904                	lw	s1,16(a0)
 6f4:	0200                	addi	s0,sp,256
 6f6:	7e18                	ld	a4,56(a2)
 6f8:	0018                	.insn	2, 0x0018
 6fa:	0500                	addi	s0,sp,640
 6fc:	0005                	c.nop	1
 6fe:	213a0803          	lb	a6,531(s4)
 702:	3b01                	addiw	s6,s6,-32
 704:	0621                	addi	a2,a2,8
 706:	0b39                	addi	s6,s6,14
 708:	1349                	addi	t1,t1,-14
 70a:	1702                	slli	a4,a4,0x20
 70c:	0000                	unimp
 70e:	1106                	slli	sp,sp,0x21
 710:	2501                	sext.w	a0,a0
 712:	130e                	slli	t1,t1,0x23
 714:	1b1f030b          	.insn	4, 0x1b1f030b
 718:	111f 1201 1007      	.insn	6, 0x10071201111f
 71e:	07000017          	auipc	zero,0x7000
 722:	0024                	addi	s1,sp,8
 724:	0b3e0b0b          	.insn	4, 0x0b3e0b0b
 728:	00000803          	lb	a6,0(zero) # 0 <__boot_hart>
 72c:	2e08                	fld	fa0,24(a2)
 72e:	3f01                	addiw	t5,t5,-32 # fffffffffffdffe0 <__heap_end+0xffffffff7ffbcfe0>
 730:	0319                	addi	t1,t1,6
 732:	3a0e                	fld	fs4,224(sp)
 734:	390b3b0b          	.insn	4, 0x390b3b0b
 738:	4919270b          	.insn	4, 0x4919270b
 73c:	01193c13          	sltiu	s8,s2,17
 740:	09000013          	li	zero,144
 744:	012e                	slli	sp,sp,0xb
 746:	0e03193f 0b3b0b3a 	.insn	8, 0x0b3b0b3a0e03193f
 74e:	0b39                	addi	s6,s6,14
 750:	13491927          	.insn	4, 0x13491927
 754:	0111                	addi	sp,sp,4
 756:	0712                	slli	a4,a4,0x4
 758:	1840                	addi	s0,sp,52
 75a:	197a                	slli	s2,s2,0x3e
 75c:	1301                	addi	t1,t1,-32
 75e:	0000                	unimp
 760:	480a                	lw	a6,128(sp)
 762:	7d01                	lui	s10,0xfffe0
 764:	8201                	c.srli64	a2
 766:	1901                	addi	s2,s2,-32
 768:	0000137f 0b000f0b 	.insn	12, 0x0013490b0b000f0b0000137f
 770:	0013490b 
 774:	0c00                	addi	s0,sp,528
 776:	0026                	c.slli	zero,0x9
 778:	0000                	unimp
 77a:	0100                	addi	s0,sp,128
 77c:	0011                	c.nop	4
 77e:	1710                	addi	a2,sp,928
 780:	0111                	addi	sp,sp,4
 782:	0f12                	slli	t5,t5,0x4
 784:	0e1b0e03          	lb	t3,225(s6)
 788:	0e25                	addi	t3,t3,9
 78a:	00000513          	li	a0,0
 78e:	0100                	addi	s0,sp,128
 790:	0011                	c.nop	4
 792:	1710                	addi	a2,sp,928
 794:	0111                	addi	sp,sp,4
 796:	0f12                	slli	t5,t5,0x4
 798:	0e1b0e03          	lb	t3,225(s6)
 79c:	0e25                	addi	t3,t3,9
 79e:	00000513          	li	a0,0
 7a2:	0100                	addi	s0,sp,128
 7a4:	0024                	addi	s1,sp,8
 7a6:	0b3e0b0b          	.insn	4, 0x0b3e0b0b
 7aa:	00000e03          	lb	t3,0(zero) # 0 <__boot_hart>
 7ae:	1602                	slli	a2,a2,0x20
 7b0:	0300                	addi	s0,sp,384
 7b2:	3a0e                	fld	fs4,224(sp)
 7b4:	390b3b0b          	.insn	4, 0x390b3b0b
 7b8:	0013490b          	.insn	4, 0x0013490b
 7bc:	0300                	addi	s0,sp,384
 7be:	0005                	c.nop	1
 7c0:	213a0e03          	lb	t3,531(s4)
 7c4:	3b01                	addiw	s6,s6,-32
 7c6:	0421                	addi	s0,s0,8
 7c8:	0b39                	addi	s6,s6,14
 7ca:	1349                	addi	t1,t1,-14
 7cc:	1702                	slli	a4,a4,0x20
 7ce:	0000                	unimp
 7d0:	1104                	addi	s1,sp,160
 7d2:	2501                	sext.w	a0,a0
 7d4:	130e                	slli	t1,t1,0x23
 7d6:	1b1f030b          	.insn	4, 0x1b1f030b
 7da:	111f 1201 1007      	.insn	6, 0x10071201111f
 7e0:	05000017          	auipc	zero,0x5000
 7e4:	0024                	addi	s1,sp,8
 7e6:	0b3e0b0b          	.insn	4, 0x0b3e0b0b
 7ea:	00000803          	lb	a6,0(zero) # 0 <__boot_hart>
 7ee:	2e06                	fld	ft8,64(sp)
 7f0:	3f01                	addiw	t5,t5,-32
 7f2:	0319                	addi	t1,t1,6
 7f4:	3a0e                	fld	fs4,224(sp)
 7f6:	390b3b0b          	.insn	4, 0x390b3b0b
 7fa:	8719270b          	.insn	4, 0x8719270b
 7fe:	1901                	addi	s2,s2,-32
 800:	193c                	addi	a5,sp,184
 802:	1301                	addi	t1,t1,-32
 804:	0000                	unimp
 806:	49000507          	.insn	4, 0x49000507
 80a:	08000013          	li	zero,128
 80e:	012e                	slli	sp,sp,0xb
 810:	0e03193f 0b3b0b3a 	.insn	8, 0x0b3b0b3a0e03193f
 818:	0b39                	addi	s6,s6,14
 81a:	01111927          	.insn	4, 0x01111927
 81e:	0712                	slli	a4,a4,0x4
 820:	1840                	addi	s0,sp,52
 822:	197a                	slli	s2,s2,0x3e
 824:	1301                	addi	t1,t1,-32
 826:	0000                	unimp
 828:	0509                	addi	a0,a0,2
 82a:	0300                	addi	s0,sp,384
 82c:	3a08                	fld	fa0,48(a2)
 82e:	390b3b0b          	.insn	4, 0x390b3b0b
 832:	0213490b          	.insn	4, 0x0213490b
 836:	0a000017          	auipc	zero,0xa000
 83a:	0034                	addi	a3,sp,8
 83c:	0b3a0e03          	lb	t3,179(s4)
 840:	0b390b3b          	.insn	4, 0x0b390b3b
 844:	1349                	addi	t1,t1,-14
 846:	1702                	slli	a4,a4,0x20
 848:	0000                	unimp
 84a:	7d00480b          	.insn	4, 0x7d00480b
 84e:	7f01                	lui	t5,0xfffe0
 850:	0c000013          	li	zero,192
 854:	0b0b000f          	.insn	4, 0x0b0b000f
 858:	1349                	addi	t1,t1,-14
 85a:	0000                	unimp
 85c:	0100                	addi	s0,sp,128
 85e:	0024                	addi	s1,sp,8
 860:	0b3e0b0b          	.insn	4, 0x0b3e0b0b
 864:	00000e03          	lb	t3,0(zero) # 0 <__boot_hart>
 868:	0502                	c.slli64	a0
 86a:	4900                	lw	s0,16(a0)
 86c:	03000013          	li	zero,48
 870:	0034                	addi	a3,sp,8
 872:	213a0e03          	lb	t3,531(s4)
 876:	3b01                	addiw	s6,s6,-32
 878:	1121390b          	.insn	4, 0x1121390b
 87c:	1349                	addi	t1,t1,-14
 87e:	193c193f 37040000 	.insn	8, 0x37040000193c193f
 886:	4900                	lw	s0,16(a0)
 888:	05000013          	li	zero,80
 88c:	210b000f          	.insn	4, 0x210b000f
 890:	4908                	lw	a0,16(a0)
 892:	06000013          	li	zero,96
 896:	012e                	slli	sp,sp,0xb
 898:	0e03193f 3b02213a 	.insn	8, 0x3b02213a0e03193f
 8a0:	0921390b          	.insn	4, 0x0921390b
 8a4:	13491927          	.insn	4, 0x13491927
 8a8:	193c                	addi	a5,sp,184
 8aa:	1301                	addi	t1,t1,-32
 8ac:	0000                	unimp
 8ae:	02004907          	.insn	4, 0x02004907
 8b2:	7e18                	ld	a4,56(a2)
 8b4:	0018                	.insn	2, 0x0018
 8b6:	0800                	addi	s0,sp,16
 8b8:	0111                	addi	sp,sp,4
 8ba:	0e25                	addi	t3,t3,9
 8bc:	1f030b13          	addi	s6,t1,496
 8c0:	01111f1b          	slliw	t5,sp,0x11
 8c4:	0712                	slli	a4,a4,0x4
 8c6:	1710                	addi	a2,sp,928
 8c8:	0000                	unimp
 8ca:	1609                	addi	a2,a2,-30
 8cc:	0300                	addi	s0,sp,384
 8ce:	3a0e                	fld	fs4,224(sp)
 8d0:	390b3b0b          	.insn	4, 0x390b3b0b
 8d4:	0013490b          	.insn	4, 0x0013490b
 8d8:	0a00                	addi	s0,sp,272
 8da:	0024                	addi	s1,sp,8
 8dc:	0b3e0b0b          	.insn	4, 0x0b3e0b0b
 8e0:	00000803          	lb	a6,0(zero) # 0 <__boot_hart>
 8e4:	0b000f0b          	.insn	4, 0x0b000f0b
 8e8:	0c00000b          	.insn	4, 0x0c00000b
 8ec:	0026                	c.slli	zero,0x9
 8ee:	0000                	unimp
 8f0:	2e0d                	addiw	t3,t3,3
 8f2:	3f01                	addiw	t5,t5,-32 # fffffffffffdffe0 <__heap_end+0xffffffff7ffbcfe0>
 8f4:	0319                	addi	t1,t1,6
 8f6:	3a0e                	fld	fs4,224(sp)
 8f8:	390b3b0b          	.insn	4, 0x390b3b0b
 8fc:	1119270b          	.insn	4, 0x1119270b
 900:	1201                	addi	tp,tp,-32 # ffffffffffffffe0 <__heap_end+0xffffffff7ffdcfe0>
 902:	7a184007          	.insn	4, 0x7a184007
 906:	0119                	addi	sp,sp,6
 908:	0e000013          	li	zero,224
 90c:	0034                	addi	a3,sp,8
 90e:	0b3a0e03          	lb	t3,179(s4)
 912:	0b390b3b          	.insn	4, 0x0b390b3b
 916:	1349                	addi	t1,t1,-14
 918:	1802                	slli	a6,a6,0x20
 91a:	0000                	unimp
 91c:	7d01480f          	.insn	4, 0x7d01480f
 920:	7f01                	lui	t5,0xfffe0
 922:	00130113          	addi	sp,t1,1
 926:	1000                	addi	s0,sp,32
 928:	0148                	addi	a0,sp,132
 92a:	017d                	addi	sp,sp,31
 92c:	0182                	c.slli64	gp
 92e:	7f19                	lui	t5,0xfffe6
 930:	11000013          	li	zero,272
 934:	0101                	addi	sp,sp,0
 936:	1349                	addi	t1,t1,-14
 938:	0000                	unimp
 93a:	2112                	fld	ft2,256(sp)
 93c:	0000                	unimp
 93e:	0000                	unimp
 940:	1101                	addi	sp,sp,-32
 942:	2501                	sext.w	a0,a0
 944:	130e                	slli	t1,t1,0x23
 946:	1b1f030b          	.insn	4, 0x1b1f030b
 94a:	111f 1201 1007      	.insn	6, 0x10071201111f
 950:	02000017          	auipc	zero,0x2000
 954:	002e                	c.slli	zero,0xb
 956:	0e03193f 0b3b0b3a 	.insn	8, 0x0b3b0b3a0e03193f
 95e:	0b39                	addi	s6,s6,14
 960:	01871927          	.insn	4, 0x01871927
 964:	1119                	addi	sp,sp,-26
 966:	1201                	addi	tp,tp,-32 # ffffffffffffffe0 <__heap_end+0xffffffff7ffdcfe0>
 968:	7a184007          	.insn	4, 0x7a184007
 96c:	0019                	c.nop	6
 96e:	0000                	unimp
 970:	1601                	addi	a2,a2,-32
 972:	0300                	addi	s0,sp,384
 974:	3a0e                	fld	fs4,224(sp)
 976:	390b3b0b          	.insn	4, 0x390b3b0b
 97a:	0013490b          	.insn	4, 0x0013490b
 97e:	0200                	addi	s0,sp,256
 980:	0024                	addi	s1,sp,8
 982:	0b3e0b0b          	.insn	4, 0x0b3e0b0b
 986:	00000e03          	lb	t3,0(zero) # 0 <__boot_hart>
 98a:	31000503          	lb	a0,784(zero) # 310 <__stack_align+0x300>
 98e:	00170213          	addi	tp,a4,1
 992:	0400                	addi	s0,sp,512
 994:	0005                	c.nop	1
 996:	213a0803          	lb	a6,531(s4)
 99a:	3b02                	fld	fs6,32(sp)
 99c:	490b390b          	.insn	4, 0x490b390b
 9a0:	05000013          	li	zero,80
 9a4:	0005                	c.nop	1
 9a6:	213a0803          	lb	a6,531(s4)
 9aa:	3b01                	addiw	s6,s6,-32
 9ac:	0c21                	addi	s8,s8,8
 9ae:	0b39                	addi	s6,s6,14
 9b0:	1349                	addi	t1,t1,-14
 9b2:	1702                	slli	a4,a4,0x20
 9b4:	0000                	unimp
 9b6:	2e06                	fld	ft8,64(sp)
 9b8:	0301                	addi	t1,t1,0
 9ba:	3a0e                	fld	fs4,224(sp)
 9bc:	390b3b0b          	.insn	4, 0x390b3b0b
 9c0:	1421                	addi	s0,s0,-24
 9c2:	21201927          	.insn	4, 0x21201927
 9c6:	00130103          	lb	sp,1(t1)
 9ca:	0700                	addi	s0,sp,896
 9cc:	210b000f          	.insn	4, 0x210b000f
 9d0:	4908                	lw	a0,16(a0)
 9d2:	08000013          	li	zero,128
 9d6:	0035                	c.nop	13
 9d8:	1349                	addi	t1,t1,-14
 9da:	0000                	unimp
 9dc:	3409                	addiw	s0,s0,-30
 9de:	0300                	addi	s0,sp,384
 9e0:	3a0e                	fld	fs4,224(sp)
 9e2:	0621                	addi	a2,a2,8
 9e4:	21390b3b          	.insn	4, 0x21390b3b
 9e8:	491a                	lw	s2,132(sp)
 9ea:	3c193f13          	sltiu	t5,s2,961
 9ee:	0019                	c.nop	6
 9f0:	0a00                	addi	s0,sp,272
 9f2:	0034                	addi	a3,sp,8
 9f4:	213a1347          	fmsub.s	ft6,fs4,fs3,ft4,rtz
 9f8:	3b01                	addiw	s6,s6,-32
 9fa:	1321390b          	.insn	4, 0x1321390b
 9fe:	1802                	slli	a6,a6,0x20
 a00:	0000                	unimp
 a02:	0300340b          	.insn	4, 0x0300340b
 a06:	3a08                	fld	fa0,48(a2)
 a08:	0121                	addi	sp,sp,8
 a0a:	0b390b3b          	.insn	4, 0x0b390b3b
 a0e:	1349                	addi	t1,t1,-14
 a10:	1802                	slli	a6,a6,0x20
 a12:	0000                	unimp
 a14:	1d0c                	addi	a1,sp,688
 a16:	3101                	addiw	sp,sp,-32
 a18:	12011113          	.insn	4, 0x12011113
 a1c:	01215807          	.insn	4, 0x01215807
 a20:	0b59                	addi	s6,s6,22
 a22:	01052157          	.insn	4, 0x01052157
 a26:	0d000013          	li	zero,208
 a2a:	011d                	addi	sp,sp,7
 a2c:	1331                	addi	t1,t1,-20
 a2e:	0111                	addi	sp,sp,4
 a30:	0712                	slli	a4,a4,0x4
 a32:	2158                	fld	fa4,128(a0)
 a34:	570b5903          	lhu	s2,1392(s6)
 a38:	0e00000b          	.insn	4, 0x0e00000b
 a3c:	001d                	c.nop	7
 a3e:	1331                	addi	t1,t1,-20
 a40:	0111                	addi	sp,sp,4
 a42:	0712                	slli	a4,a4,0x4
 a44:	2158                	fld	fa4,128(a0)
 a46:	5901                	li	s2,-32
 a48:	0521570b          	.insn	4, 0x0521570b
 a4c:	0000                	unimp
 a4e:	0300050f          	.insn	4, 0x0300050f
 a52:	3a0e                	fld	fs4,224(sp)
 a54:	0321                	addi	t1,t1,8
 a56:	0b390b3b          	.insn	4, 0x0b390b3b
 a5a:	1349                	addi	t1,t1,-14
 a5c:	0000                	unimp
 a5e:	2e10                	fld	fa2,24(a2)
 a60:	0301                	addi	t1,t1,0
 a62:	3a0e                	fld	fs4,224(sp)
 a64:	0221                	addi	tp,tp,8 # 8 <__boot_hart+0x8>
 a66:	21390b3b          	.insn	4, 0x21390b3b
 a6a:	2714                	fld	fa3,8(a4)
 a6c:	4919                	li	s2,6
 a6e:	03212013          	slti	zero,sp,50
 a72:	1301                	addi	t1,t1,-32
 a74:	0000                	unimp
 a76:	2e11                	addiw	t3,t3,4
 a78:	0300                	addi	s0,sp,384
 a7a:	3a08                	fld	fa0,48(a2)
 a7c:	0221                	addi	tp,tp,8 # 8 <__boot_hart+0x8>
 a7e:	21390b3b          	.insn	4, 0x21390b3b
 a82:	2714                	fld	fa3,8(a4)
 a84:	2019                	.insn	2, 0x2019
 a86:	0321                	addi	t1,t1,8
 a88:	0000                	unimp
 a8a:	1112                	slli	sp,sp,0x24
 a8c:	2501                	sext.w	a0,a0
 a8e:	130e                	slli	t1,t1,0x23
 a90:	1b1f030b          	.insn	4, 0x1b1f030b
 a94:	111f 1201 1007      	.insn	6, 0x10071201111f
 a9a:	13000017          	auipc	zero,0x13000
 a9e:	0024                	addi	s1,sp,8
 aa0:	0b3e0b0b          	.insn	4, 0x0b3e0b0b
 aa4:	00000803          	lb	a6,0(zero) # 0 <__boot_hart>
 aa8:	2614                	fld	fa3,8(a2)
 aaa:	4900                	lw	s0,16(a0)
 aac:	15000013          	li	zero,336
 ab0:	0b0b0113          	addi	sp,s6,176
 ab4:	0b3a                	slli	s6,s6,0xe
 ab6:	0b390b3b          	.insn	4, 0x0b390b3b
 aba:	1301                	addi	t1,t1,-32
 abc:	0000                	unimp
 abe:	0d16                	slli	s10,s10,0x5
 ac0:	0300                	addi	s0,sp,384
 ac2:	3a0e                	fld	fs4,224(sp)
 ac4:	390b3b0b          	.insn	4, 0x390b3b0b
 ac8:	3813490b          	.insn	4, 0x3813490b
 acc:	1700000b          	.insn	4, 0x1700000b
 ad0:	0034                	addi	a3,sp,8
 ad2:	0b3a0e03          	lb	t3,179(s4)
 ad6:	0b390b3b          	.insn	4, 0x0b390b3b
 ada:	1349                	addi	t1,t1,-14
 adc:	1802                	slli	a6,a6,0x20
 ade:	0000                	unimp
 ae0:	2e18                	fld	fa4,24(a2)
 ae2:	3f01                	addiw	t5,t5,-32 # fffffffffffe5fe0 <__heap_end+0xffffffff7ffc2fe0>
 ae4:	0319                	addi	t1,t1,6
 ae6:	3a0e                	fld	fs4,224(sp)
 ae8:	390b3b0b          	.insn	4, 0x390b3b0b
 aec:	4919270b          	.insn	4, 0x4919270b
 af0:	12011113          	.insn	4, 0x12011113
 af4:	7a184007          	.insn	4, 0x7a184007
 af8:	0119                	addi	sp,sp,6
 afa:	19000013          	li	zero,400
 afe:	0005                	c.nop	1
 b00:	0b3a0803          	lb	a6,179(s4)
 b04:	0b390b3b          	.insn	4, 0x0b390b3b
 b08:	1349                	addi	t1,t1,-14
 b0a:	1802                	slli	a6,a6,0x20
 b0c:	0000                	unimp
 b0e:	1d1a                	slli	s10,s10,0x26
 b10:	3101                	addiw	sp,sp,-32
 b12:	55015213          	.insn	4, 0x55015213
 b16:	590b5817          	auipc	a6,0x590b5
 b1a:	010b570b          	.insn	4, 0x010b570b
 b1e:	1b000013          	li	zero,432
 b22:	1755010b          	.insn	4, 0x1755010b
 b26:	0000                	unimp
 b28:	341c                	fld	fa5,40(s0)
 b2a:	3100                	fld	fs0,32(a0)
 b2c:	1d000013          	li	zero,464
 b30:	0005                	c.nop	1
 b32:	1331                	addi	t1,t1,-20
 b34:	0000                	unimp
 b36:	011e                	slli	sp,sp,0x7
 b38:	4901                	li	s2,0
 b3a:	00130113          	addi	sp,t1,1
 b3e:	1f00                	addi	s0,sp,944
 b40:	0021                	c.nop	8
 b42:	1349                	addi	t1,t1,-14
 b44:	00000b2f          	.insn	4, 0x0b2f
 b48:	3420                	fld	fs0,104(s0)
 b4a:	0300                	addi	s0,sp,384
 b4c:	3a08                	fld	fa0,48(a2)
 b4e:	390b3b0b          	.insn	4, 0x390b3b0b
 b52:	0013490b          	.insn	4, 0x0013490b
	...

Disassembly of section .debug_loclists:

0000000000000000 <.debug_loclists>:
   0:	000002ef          	jal	t0,0 <__boot_hart>
   4:	0005                	c.nop	1
   6:	0008                	.insn	2, 0x0008
   8:	0000                	unimp
   a:	0000                	unimp
   c:	4808                	lw	a0,16(s0)
   e:	0002                	c.slli64	zero
  10:	0080                	addi	s0,sp,64
  12:	0000                	unimp
  14:	f800                	sd	s0,48(s0)
  16:	0100                	addi	s0,sp,128
  18:	64060063          	beqz	a2,658 <__stack_align+0x648>
  1c:	0002                	c.slli64	zero
  1e:	0080                	addi	s0,sp,64
  20:	0000                	unimp
  22:	0400                	addi	s0,sp,512
  24:	0300                	addi	s0,sp,384
  26:	7c05                	lui	s8,0xfffe1
  28:	3400                	fld	fs0,40(s0)
  2a:	9f25                	addw	a4,a4,s1
  2c:	0304                	addi	s1,sp,384
  2e:	055c                	addi	a5,sp,644
  30:	25340083          	lb	ra,595(s0)
  34:	009f 6806 0002      	.insn	6, 0x00026806009f
  3a:	0080                	addi	s0,sp,64
  3c:	0000                	unimp
  3e:	0400                	addi	s0,sp,512
  40:	0800                	addi	s0,sp,16
  42:	3002                	fld	ft0,32(sp)
  44:	049f 1008 4005      	.insn	6, 0x40051008049f
  4a:	0078                	addi	a4,sp,12
  4c:	9f1c                	.insn	2, 0x9f1c
  4e:	0800                	addi	s0,sp,16
  50:	0270                	addi	a2,sp,268
  52:	8000                	.insn	2, 0x8000
  54:	0000                	unimp
  56:	0000                	unimp
  58:	0110                	addi	a2,sp,128
  5a:	0059                	c.nop	22
  5c:	9406                	add	s0,s0,ra
  5e:	0002                	c.slli64	zero
  60:	0080                	addi	s0,sp,64
  62:	0000                	unimp
  64:	0400                	addi	s0,sp,512
  66:	0400                	addi	s0,sp,512
  68:	3002                	fld	ft0,32(sp)
  6a:	049f 0c04 4005      	.insn	6, 0x40050c04049f
  70:	0079                	c.nop	30
  72:	9f1c                	.insn	2, 0x9f1c
  74:	0800                	addi	s0,sp,16
  76:	0298                	addi	a4,sp,320
  78:	8000                	.insn	2, 0x8000
  7a:	0000                	unimp
  7c:	0000                	unimp
  7e:	0110                	addi	a2,sp,128
  80:	0058                	addi	a4,sp,4
  82:	2c08                	fld	fa0,24(s0)
  84:	0002                	c.slli64	zero
  86:	0080                	addi	s0,sp,64
  88:	0000                	unimp
  8a:	1c00                	addi	s0,sp,560
  8c:	0c06                	slli	s8,s8,0x1
  8e:	5018                	lw	a4,32(s0)
  90:	1001                	c.nop	-32
  92:	009f cc06 0002      	.insn	6, 0x0002cc06009f
  98:	0080                	addi	s0,sp,64
  9a:	0000                	unimp
  9c:	0400                	addi	s0,sp,512
  9e:	9400                	.insn	2, 0x9400
  a0:	0101                	addi	sp,sp,0
  a2:	045a                	slli	s0,s0,0x16
  a4:	0194                	addi	a3,sp,192
  a6:	01a4                	addi	s1,sp,200
  a8:	a304                	fsd	fs1,0(a4)
  aa:	5a01                	li	s4,-32
  ac:	009f 3808 0003      	.insn	6, 0x00033808009f
  b2:	0080                	addi	s0,sp,64
  b4:	0000                	unimp
  b6:	2f00                	fld	fs0,24(a4)
  b8:	5b01                	li	s6,-32
  ba:	0800                	addi	s0,sp,16
  bc:	034c                	addi	a1,sp,388
  be:	8000                	.insn	2, 0x8000
  c0:	0000                	unimp
  c2:	0000                	unimp
  c4:	005c011b          	addiw	sp,s8,5 # fffffffffffe1005 <__heap_end+0xffffffff7ffbe005>
  c8:	cc06                	sw	ra,24(sp)
  ca:	0002                	c.slli64	zero
  cc:	0080                	addi	s0,sp,64
  ce:	0000                	unimp
  d0:	0400                	addi	s0,sp,512
  d2:	1400                	addi	s0,sp,544
  d4:	3002                	fld	ft0,32(sp)
  d6:	049f 2814 5f01      	.insn	6, 0x5f012814049f
  dc:	0800                	addi	s0,sp,16
  de:	030c                	addi	a1,sp,384
  e0:	8000                	.insn	2, 0x8000
  e2:	0000                	unimp
  e4:	0000                	unimp
  e6:	0224                	addi	s1,sp,264
  e8:	9f31                	addw	a4,a4,a2
  ea:	0800                	addi	s0,sp,16
  ec:	030c                	addi	a1,sp,384
  ee:	8000                	.insn	2, 0x8000
  f0:	0000                	unimp
  f2:	0000                	unimp
  f4:	0124                	addi	s1,sp,136
  f6:	005a                	c.slli	zero,0x16
  f8:	0c08                	addi	a0,sp,528
  fa:	00800003          	lb	zero,8(zero) # 8 <__boot_hart+0x8>
  fe:	0000                	unimp
 100:	2400                	fld	fs0,8(s0)
 102:	030a                	slli	t1,t1,0x2
 104:	20d0                	fld	fa2,128(s1)
 106:	8000                	.insn	2, 0x8000
 108:	0000                	unimp
 10a:	0000                	unimp
 10c:	009f 0c08 0003      	.insn	6, 0x00030c08009f
 112:	0080                	addi	s0,sp,64
 114:	0000                	unimp
 116:	0800                	addi	s0,sp,16
 118:	030a                	slli	t1,t1,0x2
 11a:	20d0                	fld	fa2,128(s1)
 11c:	8000                	.insn	2, 0x8000
 11e:	0000                	unimp
 120:	0000                	unimp
 122:	009f 0c08 0003      	.insn	6, 0x00030c08009f
 128:	0080                	addi	s0,sp,64
 12a:	0000                	unimp
 12c:	0800                	addi	s0,sp,16
 12e:	0c06                	slli	s8,s8,0x1
 130:	5000                	lw	s0,32(s0)
 132:	1001                	c.nop	-32
 134:	009f 1408 0003      	.insn	6, 0x00031408009f
 13a:	0080                	addi	s0,sp,64
 13c:	0000                	unimp
 13e:	0c00                	addi	s0,sp,528
 140:	5a01                	li	s4,-32
 142:	0800                	addi	s0,sp,16
 144:	0314                	addi	a3,sp,384
 146:	8000                	.insn	2, 0x8000
 148:	0000                	unimp
 14a:	0000                	unimp
 14c:	060c                	addi	a1,sp,768
 14e:	080c                	addi	a1,sp,16
 150:	0150                	addi	a2,sp,132
 152:	9f10                	.insn	2, 0x9f10
 154:	0800                	addi	s0,sp,16
 156:	0320                	addi	s0,sp,392
 158:	8000                	.insn	2, 0x8000
 15a:	0000                	unimp
 15c:	0000                	unimp
 15e:	0208                	addi	a0,sp,256
 160:	9f31                	addw	a4,a4,a2
 162:	0800                	addi	s0,sp,16
 164:	0320                	addi	s0,sp,392
 166:	8000                	.insn	2, 0x8000
 168:	0000                	unimp
 16a:	0000                	unimp
 16c:	0608                	addi	a0,sp,768
 16e:	0c0c                	addi	a1,sp,528
 170:	0150                	addi	a2,sp,132
 172:	9f10                	.insn	2, 0x9f10
 174:	0800                	addi	s0,sp,16
 176:	0328                	addi	a0,sp,392
 178:	8000                	.insn	2, 0x8000
 17a:	0000                	unimp
 17c:	0000                	unimp
 17e:	0204                	addi	s1,sp,256
 180:	9f31                	addw	a4,a4,a2
 182:	0800                	addi	s0,sp,16
 184:	0328                	addi	a0,sp,392
 186:	8000                	.insn	2, 0x8000
 188:	0000                	unimp
 18a:	0000                	unimp
 18c:	0604                	addi	s1,sp,768
 18e:	100c                	addi	a1,sp,32
 190:	0150                	addi	a2,sp,132
 192:	9f10                	.insn	2, 0x9f10
 194:	0600                	addi	s0,sp,768
 196:	0370                	addi	a2,sp,396
 198:	8000                	.insn	2, 0x8000
 19a:	0000                	unimp
 19c:	0000                	unimp
 19e:	0004                	.insn	2, 0x0004
 1a0:	01b4                	addi	a3,sp,200
 1a2:	5a01                	li	s4,-32
 1a4:	b404                	fsd	fs1,40(s0)
 1a6:	d401                	beqz	s0,ae <__stack_align+0x9e>
 1a8:	0401                	addi	s0,s0,0
 1aa:	9f5a01a3          	sb	s5,-1565(s4)
 1ae:	d404                	sw	s1,40(s0)
 1b0:	dc01                	beqz	s0,c8 <__stack_align+0xb8>
 1b2:	0101                	addi	sp,sp,0
 1b4:	045a                	slli	s0,s0,0x16
 1b6:	01dc                	addi	a5,sp,196
 1b8:	01e8                	addi	a0,sp,204
 1ba:	a304                	fsd	fs1,0(a4)
 1bc:	5a01                	li	s4,-32
 1be:	009f c006 0003      	.insn	6, 0x0003c006009f
 1c4:	0080                	addi	s0,sp,64
 1c6:	0000                	unimp
 1c8:	0400                	addi	s0,sp,512
 1ca:	2000                	fld	fs0,0(s0)
 1cc:	5b01                	li	s6,-32
 1ce:	8404                	.insn	2, 0x8404
 1d0:	8f01                	sub	a4,a4,s0
 1d2:	0101                	addi	sp,sp,0
 1d4:	d406005b          	.insn	4, 0xd406005b
 1d8:	00800003          	lb	zero,8(zero) # 8 <__boot_hart+0x8>
 1dc:	0000                	unimp
 1de:	0400                	addi	s0,sp,512
 1e0:	4800                	lw	s0,16(s0)
 1e2:	5c01                	li	s8,-32
 1e4:	7004                	ld	s1,32(s0)
 1e6:	5c0100fb          	.insn	4, 0x5c0100fb
 1ea:	0800                	addi	s0,sp,16
 1ec:	0398                	addi	a4,sp,448
 1ee:	8000                	.insn	2, 0x8000
 1f0:	0000                	unimp
 1f2:	0000                	unimp
 1f4:	0220                	addi	s0,sp,264
 1f6:	9f30                	.insn	2, 0x9f30
 1f8:	0800                	addi	s0,sp,16
 1fa:	0398                	addi	a4,sp,448
 1fc:	8000                	.insn	2, 0x8000
 1fe:	0000                	unimp
 200:	0000                	unimp
 202:	0220                	addi	s0,sp,264
 204:	9f31                	addw	a4,a4,a2
 206:	0800                	addi	s0,sp,16
 208:	0398                	addi	a4,sp,448
 20a:	8000                	.insn	2, 0x8000
 20c:	0000                	unimp
 20e:	0000                	unimp
 210:	0120                	addi	s0,sp,136
 212:	005a                	c.slli	zero,0x16
 214:	9808                	.insn	2, 0x9808
 216:	00800003          	lb	zero,8(zero) # 8 <__boot_hart+0x8>
 21a:	0000                	unimp
 21c:	2000                	fld	fs0,0(s0)
 21e:	030a                	slli	t1,t1,0x2
 220:	20d0                	fld	fa2,128(s1)
 222:	8000                	.insn	2, 0x8000
 224:	0000                	unimp
 226:	0000                	unimp
 228:	009f 9808 0003      	.insn	6, 0x00039808009f
 22e:	0080                	addi	s0,sp,64
 230:	0000                	unimp
 232:	0400                	addi	s0,sp,512
 234:	030a                	slli	t1,t1,0x2
 236:	20d0                	fld	fa2,128(s1)
 238:	8000                	.insn	2, 0x8000
 23a:	0000                	unimp
 23c:	0000                	unimp
 23e:	009f 9808 0003      	.insn	6, 0x00039808009f
 244:	0080                	addi	s0,sp,64
 246:	0000                	unimp
 248:	0400                	addi	s0,sp,512
 24a:	0c06                	slli	s8,s8,0x1
 24c:	5000                	lw	s0,32(s0)
 24e:	1001                	c.nop	-32
 250:	009f 9c08 0003      	.insn	6, 0x00039c08009f
 256:	0080                	addi	s0,sp,64
 258:	0000                	unimp
 25a:	0800                	addi	s0,sp,16
 25c:	5a01                	li	s4,-32
 25e:	0800                	addi	s0,sp,16
 260:	039c                	addi	a5,sp,448
 262:	8000                	.insn	2, 0x8000
 264:	0000                	unimp
 266:	0000                	unimp
 268:	0608                	addi	a0,sp,768
 26a:	080c                	addi	a1,sp,16
 26c:	0150                	addi	a2,sp,132
 26e:	9f10                	.insn	2, 0x9f10
 270:	0800                	addi	s0,sp,16
 272:	03a4                	addi	s1,sp,456
 274:	8000                	.insn	2, 0x8000
 276:	0000                	unimp
 278:	0000                	unimp
 27a:	020c                	addi	a1,sp,256
 27c:	9f31                	addw	a4,a4,a2
 27e:	0800                	addi	s0,sp,16
 280:	03a4                	addi	s1,sp,456
 282:	8000                	.insn	2, 0x8000
 284:	0000                	unimp
 286:	0000                	unimp
 288:	060c                	addi	a1,sp,768
 28a:	0c0c                	addi	a1,sp,528
 28c:	0150                	addi	a2,sp,132
 28e:	9f10                	.insn	2, 0x9f10
 290:	0800                	addi	s0,sp,16
 292:	03b0                	addi	a2,sp,456
 294:	8000                	.insn	2, 0x8000
 296:	0000                	unimp
 298:	0000                	unimp
 29a:	0204                	addi	s1,sp,256
 29c:	9f30                	.insn	2, 0x9f30
 29e:	0800                	addi	s0,sp,16
 2a0:	03b0                	addi	a2,sp,456
 2a2:	8000                	.insn	2, 0x8000
 2a4:	0000                	unimp
 2a6:	0000                	unimp
 2a8:	0604                	addi	s1,sp,768
 2aa:	100c                	addi	a1,sp,32
 2ac:	0150                	addi	a2,sp,132
 2ae:	9f10                	.insn	2, 0x9f10
 2b0:	0600                	addi	s0,sp,768
 2b2:	03e4                	addi	s1,sp,460
 2b4:	8000                	.insn	2, 0x8000
 2b6:	0000                	unimp
 2b8:	0000                	unimp
 2ba:	0004                	.insn	2, 0x0004
 2bc:	0118                	addi	a4,sp,128
 2be:	4334045b          	.insn	4, 0x4334045b
 2c2:	5b01                	li	s6,-32
 2c4:	0600                	addi	s0,sp,768
 2c6:	03f4                	addi	a3,sp,460
 2c8:	8000                	.insn	2, 0x8000
 2ca:	0000                	unimp
 2cc:	0000                	unimp
 2ce:	0004                	.insn	2, 0x0004
 2d0:	0118                	addi	a4,sp,128
 2d2:	0458                	addi	a4,sp,516
 2d4:	5024                	lw	s1,96(s0)
 2d6:	5801                	li	a6,-32
 2d8:	0600                	addi	s0,sp,768
 2da:	03f4                	addi	a3,sp,460
 2dc:	8000                	.insn	2, 0x8000
 2de:	0000                	unimp
 2e0:	0000                	unimp
 2e2:	0004                	.insn	2, 0x0004
 2e4:	011c                	addi	a5,sp,128
 2e6:	0459                	addi	s0,s0,22
 2e8:	241c                	fld	fa5,8(s0)
 2ea:	7f02                	ld	t5,32(sp)
 2ec:	0478                	addi	a4,sp,524
 2ee:	5024                	lw	s1,96(s0)
 2f0:	5901                	li	s2,-32
 2f2:	1600                	addi	s0,sp,800
 2f4:	0000                	unimp
 2f6:	0500                	addi	s0,sp,640
 2f8:	0800                	addi	s0,sp,16
 2fa:	0000                	unimp
 2fc:	0000                	unimp
 2fe:	0400                	addi	s0,sp,512
 300:	0700                	addi	s0,sp,896
 302:	5a01                	li	s4,-32
 304:	0704                	addi	s1,sp,896
 306:	0414                	addi	a3,sp,512
 308:	9f5a01a3          	sb	s5,-1565(s4)
 30c:	2400                	fld	fs0,8(s0)
 30e:	0000                	unimp
 310:	0500                	addi	s0,sp,640
 312:	0800                	addi	s0,sp,16
 314:	0000                	unimp
 316:	0000                	unimp
 318:	0400                	addi	s0,sp,512
 31a:	0700                	addi	s0,sp,896
 31c:	5a01                	li	s4,-32
 31e:	0704                	addi	s1,sp,896
 320:	0414                	addi	a3,sp,512
 322:	9f5a01a3          	sb	s5,-1565(s4)
 326:	0400                	addi	s0,sp,512
 328:	0700                	addi	s0,sp,896
 32a:	5b01                	li	s6,-32
 32c:	0704                	addi	s1,sp,896
 32e:	0414                	addi	a3,sp,512
 330:	9f5b01a3          	sb	s5,-1565(s6)
 334:	1600                	addi	s0,sp,800
 336:	0000                	unimp
 338:	0500                	addi	s0,sp,640
 33a:	0800                	addi	s0,sp,16
 33c:	0000                	unimp
 33e:	0000                	unimp
 340:	0400                	addi	s0,sp,512
 342:	0200                	addi	s0,sp,256
 344:	5a01                	li	s4,-32
 346:	0204                	addi	s1,sp,256
 348:	0408                	addi	a0,sp,512
 34a:	9f5a01a3          	sb	s5,-1565(s4)
 34e:	3200                	fld	fs0,32(a2)
 350:	0000                	unimp
 352:	0500                	addi	s0,sp,640
 354:	0800                	addi	s0,sp,16
 356:	0000                	unimp
 358:	0000                	unimp
 35a:	0400                	addi	s0,sp,512
 35c:	0700                	addi	s0,sp,896
 35e:	5a01                	li	s4,-32
 360:	0704                	addi	s1,sp,896
 362:	0414                	addi	a3,sp,512
 364:	9f5a01a3          	sb	s5,-1565(s4)
 368:	0400                	addi	s0,sp,512
 36a:	0700                	addi	s0,sp,896
 36c:	5b01                	li	s6,-32
 36e:	0704                	addi	s1,sp,896
 370:	0414                	addi	a3,sp,512
 372:	9f5b01a3          	sb	s5,-1565(s6)
 376:	0400                	addi	s0,sp,512
 378:	0700                	addi	s0,sp,896
 37a:	5c01                	li	s8,-32
 37c:	0704                	addi	s1,sp,896
 37e:	0414                	addi	a3,sp,512
 380:	9f5c01a3          	sb	s5,-1565(s8)
 384:	3200                	fld	fs0,32(a2)
 386:	0000                	unimp
 388:	0500                	addi	s0,sp,640
 38a:	0800                	addi	s0,sp,16
 38c:	0000                	unimp
 38e:	0000                	unimp
 390:	0400                	addi	s0,sp,512
 392:	0700                	addi	s0,sp,896
 394:	5a01                	li	s4,-32
 396:	0704                	addi	s1,sp,896
 398:	0416                	slli	s0,s0,0x5
 39a:	9f5a01a3          	sb	s5,-1565(s4)
 39e:	0400                	addi	s0,sp,512
 3a0:	0700                	addi	s0,sp,896
 3a2:	5b01                	li	s6,-32
 3a4:	0704                	addi	s1,sp,896
 3a6:	0416                	slli	s0,s0,0x5
 3a8:	9f5b01a3          	sb	s5,-1565(s6)
 3ac:	0400                	addi	s0,sp,512
 3ae:	0700                	addi	s0,sp,896
 3b0:	5c01                	li	s8,-32
 3b2:	0704                	addi	s1,sp,896
 3b4:	0416                	slli	s0,s0,0x5
 3b6:	9f5c01a3          	sb	s5,-1565(s8)
 3ba:	3400                	fld	fs0,40(s0)
 3bc:	0000                	unimp
 3be:	0500                	addi	s0,sp,640
 3c0:	0800                	addi	s0,sp,16
 3c2:	0000                	unimp
 3c4:	0000                	unimp
 3c6:	0400                	addi	s0,sp,512
 3c8:	1000                	addi	s0,sp,32
 3ca:	5a01                	li	s4,-32
 3cc:	1004                	addi	s1,sp,32
 3ce:	043c                	addi	a5,sp,520
 3d0:	9f5a01a3          	sb	s5,-1565(s4)
 3d4:	0400                	addi	s0,sp,512
 3d6:	2410                	fld	fa2,8(s0)
 3d8:	5a01                	li	s4,-32
 3da:	2404                	fld	fs1,8(s0)
 3dc:	0926                	slli	s2,s2,0x9
 3de:	00208003          	lb	zero,2(ra)
 3e2:	0080                	addi	s0,sp,64
 3e4:	0000                	unimp
 3e6:	0400                	addi	s0,sp,512
 3e8:	2d26                	fld	fs10,72(sp)
 3ea:	5a01                	li	s4,-32
 3ec:	0400                	addi	s0,sp,512
 3ee:	2d0a                	fld	fs10,128(sp)
 3f0:	5f01                	li	t5,-32
 3f2:	3200                	fld	fs0,32(a2)
 3f4:	0000                	unimp
 3f6:	0500                	addi	s0,sp,640
 3f8:	0800                	addi	s0,sp,16
 3fa:	0000                	unimp
 3fc:	0000                	unimp
 3fe:	0400                	addi	s0,sp,512
 400:	0500                	addi	s0,sp,640
 402:	5a01                	li	s4,-32
 404:	0504                	addi	s1,sp,640
 406:	0406                	slli	s0,s0,0x1
 408:	9f5a01a3          	sb	s5,-1565(s4)
 40c:	0400                	addi	s0,sp,512
 40e:	0500                	addi	s0,sp,640
 410:	5b01                	li	s6,-32
 412:	0504                	addi	s1,sp,640
 414:	0406                	slli	s0,s0,0x1
 416:	9f5b01a3          	sb	s5,-1565(s6)
 41a:	0400                	addi	s0,sp,512
 41c:	0500                	addi	s0,sp,640
 41e:	5c01                	li	s8,-32
 420:	0504                	addi	s1,sp,640
 422:	0406                	slli	s0,s0,0x1
 424:	9f5c01a3          	sb	s5,-1565(s8)
 428:	4600                	lw	s0,8(a2)
 42a:	0000                	unimp
 42c:	0500                	addi	s0,sp,640
 42e:	0800                	addi	s0,sp,16
 430:	0000                	unimp
 432:	0000                	unimp
 434:	0400                	addi	s0,sp,512
 436:	0600                	addi	s0,sp,768
 438:	5a01                	li	s4,-32
 43a:	0604                	addi	s1,sp,768
 43c:	0416                	slli	s0,s0,0x5
 43e:	9f5a01a3          	sb	s5,-1565(s4)
 442:	0400                	addi	s0,sp,512
 444:	1500                	addi	s0,sp,672
 446:	5b01                	li	s6,-32
 448:	1504                	addi	s1,sp,672
 44a:	0416                	slli	s0,s0,0x5
 44c:	9f5b01a3          	sb	s5,-1565(s6)
 450:	0400                	addi	s0,sp,512
 452:	1500                	addi	s0,sp,672
 454:	5c01                	li	s8,-32
 456:	1504                	addi	s1,sp,672
 458:	0416                	slli	s0,s0,0x5
 45a:	9f5c01a3          	sb	s5,-1565(s8)
 45e:	0400                	addi	s0,sp,512
 460:	1500                	addi	s0,sp,672
 462:	5d01                	li	s10,-32
 464:	1504                	addi	s1,sp,672
 466:	0416                	slli	s0,s0,0x5
 468:	9f5d01a3          	sb	s5,-1565(s10) # fffffffffffdf9e3 <__heap_end+0xffffffff7ffbc9e3>
 46c:	0400                	addi	s0,sp,512
 46e:	150a                	slli	a0,a0,0x22
 470:	5a01                	li	s4,-32
 472:	6d00                	ld	s0,24(a0)
 474:	0000                	unimp
 476:	0500                	addi	s0,sp,640
 478:	0800                	addi	s0,sp,16
 47a:	0000                	unimp
 47c:	0000                	unimp
 47e:	0400                	addi	s0,sp,512
 480:	4800                	lw	s0,16(s0)
 482:	5a01                	li	s4,-32
 484:	4804                	lw	s1,16(s0)
 486:	044c                	addi	a1,sp,516
 488:	9f5a01a3          	sb	s5,-1565(s4)
 48c:	0400                	addi	s0,sp,512
 48e:	1200                	addi	s0,sp,288
 490:	5c01                	li	s8,-32
 492:	1204                	addi	s1,sp,288
 494:	0232                	slli	tp,tp,0xc
 496:	5891                	li	a7,-28
 498:	3204                	fld	fs1,32(a2)
 49a:	044c                	addi	a1,sp,516
 49c:	9f5c01a3          	sb	s5,-1565(s8)
 4a0:	0400                	addi	s0,sp,512
 4a2:	1a00                	addi	s0,sp,304
 4a4:	5d01                	li	s10,-32
 4a6:	1a04                	addi	s1,sp,304
 4a8:	044c                	addi	a1,sp,516
 4aa:	9f5d01a3          	sb	s5,-1565(s10)
 4ae:	0400                	addi	s0,sp,512
 4b0:	2414                	fld	fa3,8(s0)
 4b2:	030a                	slli	t1,t1,0x2
 4b4:	20b8                	fld	fa4,64(s1)
 4b6:	8000                	.insn	2, 0x8000
 4b8:	0000                	unimp
 4ba:	0000                	unimp
 4bc:	009f 1e04 0322      	.insn	6, 0x03221e04009f
 4c2:	ff09                	bnez	a4,3dc <__stack_align+0x3cc>
 4c4:	009f 1e04 0a22      	.insn	6, 0x0a221e04009f
 4ca:	0020b803          	ld	a6,2(ra)
 4ce:	0080                	addi	s0,sp,64
 4d0:	0000                	unimp
 4d2:	9f00                	.insn	2, 0x9f00
 4d4:	0400                	addi	s0,sp,512
 4d6:	423e                	lw	tp,204(sp)
 4d8:	030a                	slli	t1,t1,0x2
 4da:	20b8                	fld	fa4,64(s1)
 4dc:	8000                	.insn	2, 0x8000
 4de:	0000                	unimp
 4e0:	0000                	unimp
 4e2:	Address 0x4e2 is out of bounds.


Disassembly of section .debug_aranges:

0000000000000000 <.debug_aranges>:
   0:	003c                	addi	a5,sp,8
   2:	0000                	unimp
   4:	0002                	c.slli64	zero
   6:	0000                	unimp
   8:	0000                	unimp
   a:	0008                	.insn	2, 0x0008
   c:	0000                	unimp
   e:	0000                	unimp
  10:	02cc                	addi	a1,sp,324
  12:	8000                	.insn	2, 0x8000
  14:	0000                	unimp
  16:	0000                	unimp
  18:	018c                	addi	a1,sp,192
  1a:	0000                	unimp
  1c:	0000                	unimp
  1e:	0000                	unimp
  20:	022c                	addi	a1,sp,264
  22:	8000                	.insn	2, 0x8000
  24:	0000                	unimp
  26:	0000                	unimp
  28:	00a0                	addi	s0,sp,72
	...
  3e:	0000                	unimp
  40:	002c                	addi	a1,sp,8
  42:	0000                	unimp
  44:	0002                	c.slli64	zero
  46:	00000967          	jalr	s2,zero # 0 <__boot_hart>
  4a:	0008                	.insn	2, 0x0008
  4c:	0000                	unimp
  4e:	0000                	unimp
  50:	1acc                	addi	a1,sp,372
  52:	8000                	.insn	2, 0x8000
  54:	0000                	unimp
  56:	0000                	unimp
  58:	0014                	.insn	2, 0x0014
	...
  6e:	0000                	unimp
  70:	002c                	addi	a1,sp,8
  72:	0000                	unimp
  74:	0002                	c.slli64	zero
  76:	0a38                	addi	a4,sp,280
  78:	0000                	unimp
  7a:	0008                	.insn	2, 0x0008
  7c:	0000                	unimp
  7e:	0000                	unimp
  80:	1ae0                	addi	s0,sp,380
  82:	8000                	.insn	2, 0x8000
  84:	0000                	unimp
  86:	0000                	unimp
  88:	0022                	c.slli	zero,0x8
	...
  9e:	0000                	unimp
  a0:	002c                	addi	a1,sp,8
  a2:	0000                	unimp
  a4:	0002                	c.slli64	zero
  a6:	0b1c                	addi	a5,sp,400
  a8:	0000                	unimp
  aa:	0008                	.insn	2, 0x0008
  ac:	0000                	unimp
  ae:	0000                	unimp
  b0:	1b02                	slli	s6,s6,0x20
  b2:	8000                	.insn	2, 0x8000
  b4:	0000                	unimp
  b6:	0000                	unimp
  b8:	0014                	.insn	2, 0x0014
	...
  ce:	0000                	unimp
  d0:	002c                	addi	a1,sp,8
  d2:	0000                	unimp
  d4:	0002                	c.slli64	zero
  d6:	0dfa                	slli	s11,s11,0x1e
  d8:	0000                	unimp
  da:	0008                	.insn	2, 0x0008
  dc:	0000                	unimp
  de:	0000                	unimp
  e0:	1b16                	slli	s6,s6,0x25
  e2:	8000                	.insn	2, 0x8000
  e4:	0000                	unimp
  e6:	0000                	unimp
  e8:	0008                	.insn	2, 0x0008
	...
  fe:	0000                	unimp
 100:	002c                	addi	a1,sp,8
 102:	0000                	unimp
 104:	0002                	c.slli64	zero
 106:	0ea5                	addi	t4,t4,9
 108:	0000                	unimp
 10a:	0008                	.insn	2, 0x0008
 10c:	0000                	unimp
 10e:	0000                	unimp
 110:	1b1e                	slli	s6,s6,0x27
 112:	8000                	.insn	2, 0x8000
 114:	0000                	unimp
 116:	0000                	unimp
 118:	0014                	.insn	2, 0x0014
	...
 12e:	0000                	unimp
 130:	002c                	addi	a1,sp,8
 132:	0000                	unimp
 134:	0002                	c.slli64	zero
 136:	0fb6                	slli	t6,t6,0xd
 138:	0000                	unimp
 13a:	0008                	.insn	2, 0x0008
 13c:	0000                	unimp
 13e:	0000                	unimp
 140:	1b32                	slli	s6,s6,0x2c
 142:	8000                	.insn	2, 0x8000
 144:	0000                	unimp
 146:	0000                	unimp
 148:	0016                	c.slli	zero,0x5
	...
 15e:	0000                	unimp
 160:	002c                	addi	a1,sp,8
 162:	0000                	unimp
 164:	0002                	c.slli64	zero
 166:	10c9                	addi	ra,ra,-14
 168:	0000                	unimp
 16a:	0008                	.insn	2, 0x0008
 16c:	0000                	unimp
 16e:	0000                	unimp
 170:	1b48                	addi	a0,sp,436
 172:	8000                	.insn	2, 0x8000
 174:	0000                	unimp
 176:	0000                	unimp
 178:	003c                	addi	a5,sp,8
	...
 18e:	0000                	unimp
 190:	002c                	addi	a1,sp,8
 192:	0000                	unimp
 194:	0002                	c.slli64	zero
 196:	000011ff 00000008 	.insn	12, 0x1b84000000000008000011ff
 19e:	1b840000 
 1a2:	8000                	.insn	2, 0x8000
 1a4:	0000                	unimp
 1a6:	0000                	unimp
 1a8:	0006                	c.slli	zero,0x1
	...
 1be:	0000                	unimp
 1c0:	002c                	addi	a1,sp,8
 1c2:	0000                	unimp
 1c4:	0002                	c.slli64	zero
 1c6:	00001377          	.insn	4, 0x1377
 1ca:	0008                	.insn	2, 0x0008
 1cc:	0000                	unimp
 1ce:	0000                	unimp
 1d0:	0000                	unimp
 1d2:	8000                	.insn	2, 0x8000
 1d4:	0000                	unimp
 1d6:	0000                	unimp
 1d8:	01ee                	slli	gp,gp,0x1b
	...
 1ee:	0000                	unimp
 1f0:	002c                	addi	a1,sp,8
 1f2:	0000                	unimp
 1f4:	0002                	c.slli64	zero
 1f6:	13a0                	addi	s0,sp,488
 1f8:	0000                	unimp
 1fa:	0008                	.insn	2, 0x0008
 1fc:	0000                	unimp
 1fe:	0000                	unimp
 200:	01ee                	slli	gp,gp,0x1b
 202:	8000                	.insn	2, 0x8000
 204:	0000                	unimp
 206:	0000                	unimp
 208:	003e                	c.slli	zero,0xf
	...
 21e:	0000                	unimp
 220:	002c                	addi	a1,sp,8
 222:	0000                	unimp
 224:	0002                	c.slli64	zero
 226:	13c8                	addi	a0,sp,484
 228:	0000                	unimp
 22a:	0008                	.insn	2, 0x0008
 22c:	0000                	unimp
 22e:	0000                	unimp
 230:	1b8a                	slli	s7,s7,0x22
 232:	8000                	.insn	2, 0x8000
 234:	0000                	unimp
 236:	0000                	unimp
 238:	0016                	c.slli	zero,0x5
	...
 24e:	0000                	unimp
 250:	002c                	addi	a1,sp,8
 252:	0000                	unimp
 254:	0002                	c.slli64	zero
 256:	1502                	slli	a0,a0,0x20
 258:	0000                	unimp
 25a:	0008                	.insn	2, 0x0008
 25c:	0000                	unimp
 25e:	0000                	unimp
 260:	1ba0                	addi	s0,sp,504
 262:	8000                	.insn	2, 0x8000
 264:	0000                	unimp
 266:	0000                	unimp
 268:	0030                	addi	a2,sp,8
	...
 27e:	0000                	unimp
 280:	002c                	addi	a1,sp,8
 282:	0000                	unimp
 284:	0002                	c.slli64	zero
 286:	0000166b          	.insn	4, 0x166b
 28a:	0008                	.insn	2, 0x0008
 28c:	0000                	unimp
 28e:	0000                	unimp
 290:	1bd0                	addi	a2,sp,500
 292:	8000                	.insn	2, 0x8000
 294:	0000                	unimp
 296:	0000                	unimp
 298:	0006                	c.slli	zero,0x1
	...
 2ae:	0000                	unimp
 2b0:	002c                	addi	a1,sp,8
 2b2:	0000                	unimp
 2b4:	0002                	c.slli64	zero
 2b6:	16b4                	addi	a3,sp,872
 2b8:	0000                	unimp
 2ba:	0008                	.insn	2, 0x0008
 2bc:	0000                	unimp
 2be:	0000                	unimp
 2c0:	1bd6                	slli	s7,s7,0x35
 2c2:	8000                	.insn	2, 0x8000
 2c4:	0000                	unimp
 2c6:	0000                	unimp
 2c8:	004c                	addi	a1,sp,4
	...

Disassembly of section .debug_rnglists:

0000000000000000 <.debug_rnglists>:
   0:	0000011b          	sext.w	sp,zero
   4:	0005                	c.nop	1
   6:	0008                	.insn	2, 0x0008
   8:	0000                	unimp
   a:	0000                	unimp
   c:	fc05                	bnez	s0,ffffffffffffff44 <__heap_end+0xffffffff7ffdcf44>
   e:	0002                	c.slli64	zero
  10:	0080                	addi	s0,sp,64
  12:	0000                	unimp
  14:	0400                	addi	s0,sp,512
  16:	0800                	addi	s0,sp,16
  18:	0804                	addi	s1,sp,16
  1a:	000c                	.insn	2, 0x000c
  1c:	1405                	addi	s0,s0,-31
  1e:	00800003          	lb	zero,8(zero) # 8 <__boot_hart+0x8>
  22:	0000                	unimp
  24:	0400                	addi	s0,sp,512
  26:	0400                	addi	s0,sp,512
  28:	0804                	addi	s1,sp,16
  2a:	000c                	.insn	2, 0x000c
  2c:	1805                	addi	a6,a6,-31 # 590b5af7 <__heap_size+0x59095af7>
  2e:	00800003          	lb	zero,8(zero) # 8 <__boot_hart+0x8>
  32:	0000                	unimp
  34:	0400                	addi	s0,sp,512
  36:	0400                	addi	s0,sp,512
  38:	0804                	addi	s1,sp,16
  3a:	0010                	.insn	2, 0x0010
  3c:	3805                	addiw	a6,a6,-31
  3e:	00800003          	lb	zero,8(zero) # 8 <__boot_hart+0x8>
  42:	0000                	unimp
  44:	0400                	addi	s0,sp,512
  46:	0400                	addi	s0,sp,512
  48:	0404                	addi	s1,sp,512
  4a:	0008                	.insn	2, 0x0008
  4c:	7405                	lui	s0,0xfffe1
  4e:	00800003          	lb	zero,8(zero) # 8 <__boot_hart+0x8>
  52:	0000                	unimp
  54:	0400                	addi	s0,sp,512
  56:	0400                	addi	s0,sp,512
  58:	1004                	addi	s1,sp,32
  5a:	0414                	addi	a3,sp,512
  5c:	1814                	addi	a3,sp,48
  5e:	0500                	addi	s0,sp,640
  60:	0390                	addi	a2,sp,448
  62:	8000                	.insn	2, 0x8000
  64:	0000                	unimp
  66:	0000                	unimp
  68:	0004                	.insn	2, 0x0004
  6a:	0404                	addi	s1,sp,512
  6c:	3008                	fld	fa0,32(s0)
  6e:	0500                	addi	s0,sp,640
  70:	0390                	addi	a2,sp,448
  72:	8000                	.insn	2, 0x8000
  74:	0000                	unimp
  76:	0000                	unimp
  78:	0004                	.insn	2, 0x0004
  7a:	0404                	addi	s1,sp,512
  7c:	0c08                	addi	a0,sp,528
  7e:	0500                	addi	s0,sp,640
  80:	03c0                	addi	s0,sp,452
  82:	8000                	.insn	2, 0x8000
  84:	0000                	unimp
  86:	0000                	unimp
  88:	0004                	.insn	2, 0x0004
  8a:	0404                	addi	s1,sp,512
  8c:	0804                	addi	s1,sp,16
  8e:	0500                	addi	s0,sp,640
  90:	03d8                	addi	a4,sp,452
  92:	8000                	.insn	2, 0x8000
  94:	0000                	unimp
  96:	0000                	unimp
  98:	0004                	.insn	2, 0x0004
  9a:	042c                	addi	a1,sp,520
  9c:	6c40                	ld	s0,152(s0)
  9e:	0500                	addi	s0,sp,640
  a0:	03d8                	addi	a4,sp,452
  a2:	8000                	.insn	2, 0x8000
  a4:	0000                	unimp
  a6:	0000                	unimp
  a8:	0004                	.insn	2, 0x0004
  aa:	0404                	addi	s1,sp,512
  ac:	200c                	fld	fa1,0(s0)
  ae:	4004                	lw	s1,0(s0)
  b0:	006c                	addi	a1,sp,12
  b2:	2c05                	addiw	s8,s8,1
  b4:	0002                	c.slli64	zero
  b6:	0080                	addi	s0,sp,64
  b8:	0000                	unimp
  ba:	0400                	addi	s0,sp,512
  bc:	0000                	unimp
  be:	0404                	addi	s1,sp,512
  c0:	0408                	addi	a0,sp,512
  c2:	100c                	addi	a1,sp,32
  c4:	1804                	addi	s1,sp,48
  c6:	001c                	.insn	2, 0x001c
  c8:	6805                	lui	a6,0x1
  ca:	0002                	c.slli64	zero
  cc:	0080                	addi	s0,sp,64
  ce:	0000                	unimp
  d0:	0400                	addi	s0,sp,512
  d2:	0000                	unimp
  d4:	0804                	addi	s1,sp,16
  d6:	001c                	.insn	2, 0x001c
  d8:	7005                	c.lui	zero,0xfffe1
  da:	0002                	c.slli64	zero
  dc:	0080                	addi	s0,sp,64
  de:	0000                	unimp
  e0:	0400                	addi	s0,sp,512
  e2:	0400                	addi	s0,sp,512
  e4:	0804                	addi	s1,sp,16
  e6:	000c                	.insn	2, 0x000c
  e8:	9405                	srai	s0,s0,0x21
  ea:	0002                	c.slli64	zero
  ec:	0080                	addi	s0,sp,64
  ee:	0000                	unimp
  f0:	0400                	addi	s0,sp,512
  f2:	0000                	unimp
  f4:	0404                	addi	s1,sp,512
  f6:	0018                	.insn	2, 0x0018
  f8:	9805                	andi	s0,s0,-31
  fa:	0002                	c.slli64	zero
  fc:	0080                	addi	s0,sp,64
  fe:	0000                	unimp
 100:	0400                	addi	s0,sp,512
 102:	0400                	addi	s0,sp,512
 104:	0804                	addi	s1,sp,16
 106:	000c                	.insn	2, 0x000c
 108:	0002cc07          	.insn	4, 0x0002cc07
 10c:	0080                	addi	s0,sp,64
 10e:	0000                	unimp
 110:	8c00                	.insn	2, 0x8c00
 112:	022c0703          	lb	a4,34(s8)
 116:	8000                	.insn	2, 0x8000
 118:	0000                	unimp
 11a:	0000                	unimp
 11c:	01a0                	addi	s0,sp,200
 11e:	0f00                	addi	s0,sp,912
 120:	0000                	unimp
 122:	0500                	addi	s0,sp,640
 124:	0800                	addi	s0,sp,16
 126:	0000                	unimp
 128:	0000                	unimp
 12a:	0400                	addi	s0,sp,512
 12c:	1a18                	addi	a4,sp,304
 12e:	1e04                	addi	s1,sp,816
 130:	0022                	c.slli	zero,0x8

Disassembly of section .debug_line:

0000000000000000 <.debug_line>:
       0:	067e                	slli	a2,a2,0x1f
       2:	0000                	unimp
       4:	0005                	c.nop	1
       6:	0008                	.insn	2, 0x0008
       8:	0061                	c.nop	24
       a:	0000                	unimp
       c:	0101                	addi	sp,sp,0
       e:	fb01                	bnez	a4,ffffffffffffff1e <__heap_end+0xffffffff7ffdcf1e>
      10:	0d0e                	slli	s10,s10,0x3
      12:	0100                	addi	s0,sp,128
      14:	0101                	addi	sp,sp,0
      16:	0001                	nop
      18:	0000                	unimp
      1a:	0001                	nop
      1c:	0100                	addi	s0,sp,128
      1e:	0101                	addi	sp,sp,0
      20:	061f 0041 0000      	.insn	6, 0x0041061f
      26:	0075                	c.nop	29
      28:	0000                	unimp
      2a:	00a9                	addi	ra,ra,10
      2c:	0000                	unimp
      2e:	0112                	slli	sp,sp,0x4
      30:	0000                	unimp
      32:	0182                	c.slli64	gp
      34:	0000                	unimp
      36:	000001e7          	jalr	gp,zero # 0 <__boot_hart>
      3a:	0102                	c.slli64	sp
      3c:	021f 090f 0034      	.insn	6, 0x0034090f021f
      42:	0000                	unimp
      44:	3401                	addiw	s0,s0,-32 # fffffffffffe0fe0 <__heap_end+0xffffffff7ffbdfe0>
      46:	0000                	unimp
      48:	0100                	addi	s0,sp,128
      4a:	0248                	addi	a0,sp,260
      4c:	0000                	unimp
      4e:	4f01                	li	t5,0
      50:	0002                	c.slli64	zero
      52:	0100                	addi	s0,sp,128
      54:	0258                	addi	a4,sp,260
      56:	0000                	unimp
      58:	6902                	ld	s2,0(sp)
      5a:	0002                	c.slli64	zero
      5c:	0300                	addi	s0,sp,384
      5e:	0272                	slli	tp,tp,0x1c
      60:	0000                	unimp
      62:	7c04                	ld	s1,56(s0)
      64:	0002                	c.slli64	zero
      66:	0500                	addi	s0,sp,640
      68:	0285                	addi	t0,t0,1
      6a:	0000                	unimp
      6c:	0505                	addi	a0,a0,1
      6e:	0001                	nop
      70:	0209                	addi	tp,tp,2 # 2 <__boot_hart+0x2>
      72:	02cc                	addi	a1,sp,324
      74:	8000                	.insn	2, 0x8000
      76:	0000                	unimp
      78:	0000                	unimp
      7a:	05010c03          	lb	s8,80(sp)
      7e:	0302                	c.slli64	t1
      80:	0901                	addi	s2,s2,0
      82:	0000                	unimp
      84:	0301                	addi	t1,t1,0
      86:	0902                	c.slli64	s2
      88:	0000                	unimp
      8a:	0501                	addi	a0,a0,0
      8c:	09000307          	.insn	4, 0x09000307
      90:	0000                	unimp
      92:	0501                	addi	a0,a0,0
      94:	0014                	.insn	2, 0x0014
      96:	0402                	c.slli64	s0
      98:	0301                	addi	t1,t1,0
      9a:	0900                	addi	s0,sp,144
      9c:	0000                	unimp
      9e:	0501                	addi	a0,a0,0
      a0:	0103061b          	addiw	a2,t1,16
      a4:	0409                	addi	s0,s0,2
      a6:	0100                	addi	s0,sp,128
      a8:	0b05                	addi	s6,s6,1
      aa:	08097f03          	.insn	4, 0x08097f03
      ae:	0100                	addi	s0,sp,128
      b0:	1405                	addi	s0,s0,-31
      b2:	0200                	addi	s0,sp,256
      b4:	0104                	addi	s1,sp,128
      b6:	04090003          	lb	zero,64(s2)
      ba:	0100                	addi	s0,sp,128
      bc:	0305                	addi	t1,t1,1
      be:	0306                	slli	t1,t1,0x1
      c0:	0901                	addi	s2,s2,0
      c2:	0004                	.insn	2, 0x0004
      c4:	0501                	addi	a0,a0,0
      c6:	0621                	addi	a2,a2,8
      c8:	00090003          	lb	zero,0(s2)
      cc:	0100                	addi	s0,sp,128
      ce:	2505                	addiw	a0,a0,1
      d0:	0200                	addi	s0,sp,256
      d2:	0304                	addi	s1,sp,384
      d4:	0306                	slli	t1,t1,0x1
      d6:	097f 0010 0501 0014 	.insn	10, 0x0402001405010010097f
      de:	0402 
      e0:	0301                	addi	t1,t1,0
      e2:	0900                	addi	s0,sp,144
      e4:	0004                	.insn	2, 0x0004
      e6:	0401                	addi	s0,s0,0
      e8:	0502                	c.slli64	a0
      ea:	0609                	addi	a2,a2,2
      ec:	08097f03          	.insn	4, 0x08097f03
      f0:	0100                	addi	s0,sp,128
      f2:	0104                	addi	s1,sp,128
      f4:	2405                	addiw	s0,s0,1
      f6:	0200                	addi	s0,sp,256
      f8:	0104                	addi	s1,sp,128
      fa:	0306                	slli	t1,t1,0x1
      fc:	0904                	addi	s1,sp,144
      fe:	0008                	.insn	2, 0x0008
     100:	0401                	addi	s0,s0,0
     102:	0502                	c.slli64	a0
     104:	0302                	c.slli64	t1
     106:	0000097b          	.insn	4, 0x097b
     10a:	0301                	addi	t1,t1,0
     10c:	0901                	addi	s2,s2,0
     10e:	0000                	unimp
     110:	0501                	addi	a0,a0,0
     112:	0609                	addi	a2,a2,2
     114:	00090003          	lb	zero,0(s2)
     118:	0100                	addi	s0,sp,128
     11a:	0104                	addi	s1,sp,128
     11c:	2405                	addiw	s0,s0,1
     11e:	0200                	addi	s0,sp,256
     120:	0104                	addi	s1,sp,128
     122:	04090403          	lb	s0,64(s2)
     126:	0100                	addi	s0,sp,128
     128:	0205                	addi	tp,tp,1 # 1 <__boot_hart+0x1>
     12a:	0306                	slli	t1,t1,0x1
     12c:	0901                	addi	s2,s2,0
     12e:	0004                	.insn	2, 0x0004
     130:	0401                	addi	s0,s0,0
     132:	03030503          	lb	a0,48(t1)
     136:	0000090b          	.insn	4, 0x090b
     13a:	0401                	addi	s0,s0,0
     13c:	0502                	c.slli64	a0
     13e:	0302                	c.slli64	t1
     140:	090d                	addi	s2,s2,3
     142:	0000                	unimp
     144:	0301                	addi	t1,t1,0
     146:	0901                	addi	s2,s2,0
     148:	0000                	unimp
     14a:	0501                	addi	a0,a0,0
     14c:	00030607          	.insn	4, 0x00030607
     150:	0009                	c.nop	2
     152:	0100                	addi	s0,sp,128
     154:	0304                	addi	s1,sp,384
     156:	0305                	addi	t1,t1,1
     158:	0306                	slli	t1,t1,0x1
     15a:	00080973          	.insn	4, 0x00080973
     15e:	0401                	addi	s0,s0,0
     160:	0502                	c.slli64	a0
     162:	0302                	c.slli64	t1
     164:	0900                	addi	s0,sp,144
     166:	0000                	unimp
     168:	0301                	addi	t1,t1,0
     16a:	0901                	addi	s2,s2,0
     16c:	0000                	unimp
     16e:	0501                	addi	a0,a0,0
     170:	00030607          	.insn	4, 0x00030607
     174:	0009                	c.nop	2
     176:	0100                	addi	s0,sp,128
     178:	0304                	addi	s1,sp,384
     17a:	0305                	addi	t1,t1,1
     17c:	0306                	slli	t1,t1,0x1
     17e:	0900                	addi	s0,sp,144
     180:	000c                	.insn	2, 0x000c
     182:	0401                	addi	s0,s0,0
     184:	0502                	c.slli64	a0
     186:	0302                	c.slli64	t1
     188:	097f 0000 0301 0901 	.insn	10, 0x090103010000097f
     190:	0000 
     192:	0501                	addi	a0,a0,0
     194:	00030607          	.insn	4, 0x00030607
     198:	0009                	c.nop	2
     19a:	0100                	addi	s0,sp,128
     19c:	0304                	addi	s1,sp,384
     19e:	0305                	addi	t1,t1,1
     1a0:	0306                	slli	t1,t1,0x1
     1a2:	0901                	addi	s2,s2,0
     1a4:	0008                	.insn	2, 0x0008
     1a6:	0401                	addi	s0,s0,0
     1a8:	0502                	c.slli64	a0
     1aa:	0302                	c.slli64	t1
     1ac:	0966                	slli	s2,s2,0x19
     1ae:	0000                	unimp
     1b0:	0301                	addi	t1,t1,0
     1b2:	0901                	addi	s2,s2,0
     1b4:	0000                	unimp
     1b6:	0501                	addi	a0,a0,0
     1b8:	00030607          	.insn	4, 0x00030607
     1bc:	0009                	c.nop	2
     1be:	0100                	addi	s0,sp,128
     1c0:	0304                	addi	s1,sp,384
     1c2:	0305                	addi	t1,t1,1
     1c4:	0306                	slli	t1,t1,0x1
     1c6:	0004091b          	sext.w	s2,s0
     1ca:	0301                	addi	t1,t1,0
     1cc:	0901                	addi	s2,s2,0
     1ce:	0004                	.insn	2, 0x0004
     1d0:	0401                	addi	s0,s0,0
     1d2:	0502                	c.slli64	a0
     1d4:	0302                	c.slli64	t1
     1d6:	0969                	addi	s2,s2,26
     1d8:	0000                	unimp
     1da:	0301                	addi	t1,t1,0
     1dc:	0901                	addi	s2,s2,0
     1de:	0000                	unimp
     1e0:	0501                	addi	a0,a0,0
     1e2:	0609                	addi	a2,a2,2
     1e4:	00090003          	lb	zero,0(s2)
     1e8:	0100                	addi	s0,sp,128
     1ea:	0104                	addi	s1,sp,128
     1ec:	0205                	addi	tp,tp,1 # 1 <__boot_hart+0x1>
     1ee:	0306                	slli	t1,t1,0x1
     1f0:	0906                	slli	s2,s2,0x1
     1f2:	0008                	.insn	2, 0x0008
     1f4:	0401                	addi	s0,s0,0
     1f6:	0502                	c.slli64	a0
     1f8:	0609                	addi	a2,a2,2
     1fa:	00097a03          	.insn	4, 0x00097a03
     1fe:	0100                	addi	s0,sp,128
     200:	0104                	addi	s1,sp,128
     202:	2505                	addiw	a0,a0,1
     204:	0200                	addi	s0,sp,256
     206:	0104                	addi	s1,sp,128
     208:	0306                	slli	t1,t1,0x1
     20a:	0906                	slli	s2,s2,0x1
     20c:	0004                	.insn	2, 0x0004
     20e:	0401                	addi	s0,s0,0
     210:	0502                	c.slli64	a0
     212:	0302                	c.slli64	t1
     214:	0979                	addi	s2,s2,30
     216:	0000                	unimp
     218:	0301                	addi	t1,t1,0
     21a:	0901                	addi	s2,s2,0
     21c:	0000                	unimp
     21e:	0501                	addi	a0,a0,0
     220:	0609                	addi	a2,a2,2
     222:	00090003          	lb	zero,0(s2)
     226:	0100                	addi	s0,sp,128
     228:	0104                	addi	s1,sp,128
     22a:	2505                	addiw	a0,a0,1
     22c:	0200                	addi	s0,sp,256
     22e:	0104                	addi	s1,sp,128
     230:	04090603          	lb	a2,64(s2)
     234:	0100                	addi	s0,sp,128
     236:	0205                	addi	tp,tp,1 # 1 <__boot_hart+0x1>
     238:	0306                	slli	t1,t1,0x1
     23a:	0901                	addi	s2,s2,0
     23c:	0004                	.insn	2, 0x0004
     23e:	0401                	addi	s0,s0,0
     240:	0302                	c.slli64	t1
     242:	0978                	addi	a4,sp,156
     244:	0000                	unimp
     246:	0301                	addi	t1,t1,0
     248:	0901                	addi	s2,s2,0
     24a:	0000                	unimp
     24c:	0501                	addi	a0,a0,0
     24e:	0609                	addi	a2,a2,2
     250:	00090003          	lb	zero,0(s2)
     254:	0100                	addi	s0,sp,128
     256:	0104                	addi	s1,sp,128
     258:	0205                	addi	tp,tp,1 # 1 <__boot_hart+0x1>
     25a:	0306                	slli	t1,t1,0x1
     25c:	0909                	addi	s2,s2,2
     25e:	0008                	.insn	2, 0x0008
     260:	0501                	addi	a0,a0,0
     262:	0605                	addi	a2,a2,1
     264:	00090003          	lb	zero,0(s2)
     268:	0100                	addi	s0,sp,128
     26a:	0305                	addi	t1,t1,1
     26c:	0306                	slli	t1,t1,0x1
     26e:	0901                	addi	s2,s2,0
     270:	0008                	.insn	2, 0x0008
     272:	0501                	addi	a0,a0,0
     274:	0601                	addi	a2,a2,0
     276:	00097403          	.insn	4, 0x00097403
     27a:	0100                	addi	s0,sp,128
     27c:	0305                	addi	t1,t1,1
     27e:	04090c03          	lb	s8,64(s2)
     282:	0100                	addi	s0,sp,128
     284:	0105                	addi	sp,sp,1
     286:	08097403          	.insn	4, 0x08097403
     28a:	0100                	addi	s0,sp,128
     28c:	0305                	addi	t1,t1,1
     28e:	04090c03          	lb	s8,64(s2)
     292:	0100                	addi	s0,sp,128
     294:	0306                	slli	t1,t1,0x1
     296:	0902                	c.slli64	s2
     298:	0004                	.insn	2, 0x0004
     29a:	0501                	addi	a0,a0,0
     29c:	0301                	addi	t1,t1,0
     29e:	0905                	addi	s2,s2,1
     2a0:	0008                	.insn	2, 0x0008
     2a2:	0501                	addi	a0,a0,0
     2a4:	0302                	c.slli64	t1
     2a6:	0901                	addi	s2,s2,0
     2a8:	0000                	unimp
     2aa:	0301                	addi	t1,t1,0
     2ac:	0902                	c.slli64	s2
     2ae:	0000                	unimp
     2b0:	0501                	addi	a0,a0,0
     2b2:	0601                	addi	a2,a2,0
     2b4:	00097d03          	.insn	4, 0x00097d03
     2b8:	0100                	addi	s0,sp,128
     2ba:	0204                	addi	s1,sp,256
     2bc:	0905                	addi	s2,s2,1
     2be:	04096f03          	lwu	t5,64(s2)
     2c2:	0100                	addi	s0,sp,128
     2c4:	0104                	addi	s1,sp,128
     2c6:	0105                	addi	sp,sp,1
     2c8:	04091103          	lh	sp,64(s2)
     2cc:	0100                	addi	s0,sp,128
     2ce:	0204                	addi	s1,sp,256
     2d0:	0905                	addi	s2,s2,1
     2d2:	0c096f03          	lwu	t5,192(s2)
     2d6:	0100                	addi	s0,sp,128
     2d8:	0104                	addi	s1,sp,128
     2da:	2405                	addiw	s0,s0,1
     2dc:	0200                	addi	s0,sp,256
     2de:	0104                	addi	s1,sp,128
     2e0:	0306                	slli	t1,t1,0x1
     2e2:	0914                	addi	a3,sp,144
     2e4:	0004                	.insn	2, 0x0004
     2e6:	0401                	addi	s0,s0,0
     2e8:	0502                	c.slli64	a0
     2ea:	0302                	c.slli64	t1
     2ec:	0000096b          	.insn	4, 0x096b
     2f0:	0301                	addi	t1,t1,0
     2f2:	0901                	addi	s2,s2,0
     2f4:	0000                	unimp
     2f6:	0501                	addi	a0,a0,0
     2f8:	0609                	addi	a2,a2,2
     2fa:	00090003          	lb	zero,0(s2)
     2fe:	0100                	addi	s0,sp,128
     300:	0104                	addi	s1,sp,128
     302:	2405                	addiw	s0,s0,1
     304:	0200                	addi	s0,sp,256
     306:	0104                	addi	s1,sp,128
     308:	04091403          	lh	s0,64(s2)
     30c:	0100                	addi	s0,sp,128
     30e:	0205                	addi	tp,tp,1 # 1 <__boot_hart+0x1>
     310:	0306                	slli	t1,t1,0x1
     312:	0901                	addi	s2,s2,0
     314:	0004                	.insn	2, 0x0004
     316:	0401                	addi	s0,s0,0
     318:	0502                	c.slli64	a0
     31a:	09030607          	.insn	4, 0x09030607
     31e:	0009                	c.nop	2
     320:	0100                	addi	s0,sp,128
     322:	0104                	addi	s1,sp,128
     324:	0c05                	addi	s8,s8,1
     326:	04097703          	.insn	4, 0x04097703
     32a:	0100                	addi	s0,sp,128
     32c:	0304                	addi	s1,sp,384
     32e:	0305                	addi	t1,t1,1
     330:	0306                	slli	t1,t1,0x1
     332:	0004097b          	.insn	4, 0x0004097b
     336:	0401                	addi	s0,s0,0
     338:	0502                	c.slli64	a0
     33a:	0302                	c.slli64	t1
     33c:	090d                	addi	s2,s2,3
     33e:	0000                	unimp
     340:	0301                	addi	t1,t1,0
     342:	0901                	addi	s2,s2,0
     344:	0000                	unimp
     346:	0501                	addi	a0,a0,0
     348:	00030607          	.insn	4, 0x00030607
     34c:	0009                	c.nop	2
     34e:	0100                	addi	s0,sp,128
     350:	0304                	addi	s1,sp,384
     352:	0305                	addi	t1,t1,1
     354:	0306                	slli	t1,t1,0x1
     356:	00040973          	.insn	4, 0x00040973
     35a:	0401                	addi	s0,s0,0
     35c:	0502                	c.slli64	a0
     35e:	0302                	c.slli64	t1
     360:	0900                	addi	s0,sp,144
     362:	0000                	unimp
     364:	0301                	addi	t1,t1,0
     366:	0901                	addi	s2,s2,0
     368:	0000                	unimp
     36a:	0501                	addi	a0,a0,0
     36c:	00030607          	.insn	4, 0x00030607
     370:	0009                	c.nop	2
     372:	0100                	addi	s0,sp,128
     374:	0304                	addi	s1,sp,384
     376:	0305                	addi	t1,t1,1
     378:	0306                	slli	t1,t1,0x1
     37a:	0900                	addi	s0,sp,144
     37c:	0008                	.insn	2, 0x0008
     37e:	0401                	addi	s0,s0,0
     380:	0502                	c.slli64	a0
     382:	0302                	c.slli64	t1
     384:	097f 0000 0301 0901 	.insn	10, 0x090103010000097f
     38c:	0000 
     38e:	0501                	addi	a0,a0,0
     390:	00030607          	.insn	4, 0x00030607
     394:	0009                	c.nop	2
     396:	0100                	addi	s0,sp,128
     398:	0304                	addi	s1,sp,384
     39a:	0305                	addi	t1,t1,1
     39c:	0306                	slli	t1,t1,0x1
     39e:	0901                	addi	s2,s2,0
     3a0:	000c                	.insn	2, 0x000c
     3a2:	0401                	addi	s0,s0,0
     3a4:	0502                	c.slli64	a0
     3a6:	0302                	c.slli64	t1
     3a8:	0966                	slli	s2,s2,0x19
     3aa:	0000                	unimp
     3ac:	0301                	addi	t1,t1,0
     3ae:	0901                	addi	s2,s2,0
     3b0:	0000                	unimp
     3b2:	0501                	addi	a0,a0,0
     3b4:	00030607          	.insn	4, 0x00030607
     3b8:	0009                	c.nop	2
     3ba:	0100                	addi	s0,sp,128
     3bc:	0304                	addi	s1,sp,384
     3be:	0305                	addi	t1,t1,1
     3c0:	0306                	slli	t1,t1,0x1
     3c2:	0004091b          	sext.w	s2,s0
     3c6:	0301                	addi	t1,t1,0
     3c8:	0901                	addi	s2,s2,0
     3ca:	0004                	.insn	2, 0x0004
     3cc:	0401                	addi	s0,s0,0
     3ce:	0502                	c.slli64	a0
     3d0:	0302                	c.slli64	t1
     3d2:	0969                	addi	s2,s2,26
     3d4:	0000                	unimp
     3d6:	0301                	addi	t1,t1,0
     3d8:	0901                	addi	s2,s2,0
     3da:	0000                	unimp
     3dc:	0501                	addi	a0,a0,0
     3de:	0609                	addi	a2,a2,2
     3e0:	00090003          	lb	zero,0(s2)
     3e4:	0100                	addi	s0,sp,128
     3e6:	0104                	addi	s1,sp,128
     3e8:	0205                	addi	tp,tp,1 # 1 <__boot_hart+0x1>
     3ea:	0306                	slli	t1,t1,0x1
     3ec:	0916                	slli	s2,s2,0x5
     3ee:	0008                	.insn	2, 0x0008
     3f0:	0401                	addi	s0,s0,0
     3f2:	0502                	c.slli64	a0
     3f4:	0609                	addi	a2,a2,2
     3f6:	00096a03          	lwu	s4,0(s2)
     3fa:	0100                	addi	s0,sp,128
     3fc:	0104                	addi	s1,sp,128
     3fe:	2505                	addiw	a0,a0,1
     400:	0200                	addi	s0,sp,256
     402:	0104                	addi	s1,sp,128
     404:	0306                	slli	t1,t1,0x1
     406:	0916                	slli	s2,s2,0x5
     408:	0004                	.insn	2, 0x0004
     40a:	0401                	addi	s0,s0,0
     40c:	0502                	c.slli64	a0
     40e:	0302                	c.slli64	t1
     410:	0969                	addi	s2,s2,26
     412:	0000                	unimp
     414:	0301                	addi	t1,t1,0
     416:	0901                	addi	s2,s2,0
     418:	0000                	unimp
     41a:	0501                	addi	a0,a0,0
     41c:	0609                	addi	a2,a2,2
     41e:	00090003          	lb	zero,0(s2)
     422:	0100                	addi	s0,sp,128
     424:	0104                	addi	s1,sp,128
     426:	2505                	addiw	a0,a0,1
     428:	0200                	addi	s0,sp,256
     42a:	0104                	addi	s1,sp,128
     42c:	04091603          	lh	a2,64(s2)
     430:	0100                	addi	s0,sp,128
     432:	0205                	addi	tp,tp,1 # 1 <__boot_hart+0x1>
     434:	0306                	slli	t1,t1,0x1
     436:	0901                	addi	s2,s2,0
     438:	0004                	.insn	2, 0x0004
     43a:	0401                	addi	s0,s0,0
     43c:	0302                	c.slli64	t1
     43e:	0968                	addi	a0,sp,156
     440:	0000                	unimp
     442:	0301                	addi	t1,t1,0
     444:	0901                	addi	s2,s2,0
     446:	0000                	unimp
     448:	0501                	addi	a0,a0,0
     44a:	0609                	addi	a2,a2,2
     44c:	00090003          	lb	zero,0(s2)
     450:	0100                	addi	s0,sp,128
     452:	0104                	addi	s1,sp,128
     454:	0205                	addi	tp,tp,1 # 1 <__boot_hart+0x1>
     456:	0306                	slli	t1,t1,0x1
     458:	0919                	addi	s2,s2,6
     45a:	0008                	.insn	2, 0x0008
     45c:	0501                	addi	a0,a0,0
     45e:	0605                	addi	a2,a2,1
     460:	00090003          	lb	zero,0(s2)
     464:	0100                	addi	s0,sp,128
     466:	2405                	addiw	s0,s0,1
     468:	04090703          	lb	a4,64(s2)
     46c:	0100                	addi	s0,sp,128
     46e:	0b05                	addi	s6,s6,1
     470:	04097f03          	.insn	4, 0x04097f03
     474:	0100                	addi	s0,sp,128
     476:	1405                	addi	s0,s0,-31
     478:	0200                	addi	s0,sp,256
     47a:	0104                	addi	s1,sp,128
     47c:	04090003          	lb	zero,64(s2)
     480:	0100                	addi	s0,sp,128
     482:	0305                	addi	t1,t1,1
     484:	0306                	slli	t1,t1,0x1
     486:	0901                	addi	s2,s2,0
     488:	0004                	.insn	2, 0x0004
     48a:	0501                	addi	a0,a0,0
     48c:	062a                	slli	a2,a2,0xa
     48e:	00090003          	lb	zero,0(s2)
     492:	0100                	addi	s0,sp,128
     494:	1105                	addi	sp,sp,-31
     496:	04090103          	lb	sp,64(s2)
     49a:	0100                	addi	s0,sp,128
     49c:	04097f03          	.insn	4, 0x04097f03
     4a0:	0100                	addi	s0,sp,128
     4a2:	0305                	addi	t1,t1,1
     4a4:	0306                	slli	t1,t1,0x1
     4a6:	0901                	addi	s2,s2,0
     4a8:	0008                	.insn	2, 0x0008
     4aa:	0301                	addi	t1,t1,0
     4ac:	0901                	addi	s2,s2,0
     4ae:	0000                	unimp
     4b0:	0501                	addi	a0,a0,0
     4b2:	0606                	slli	a2,a2,0x1
     4b4:	00090003          	lb	zero,0(s2)
     4b8:	0100                	addi	s0,sp,128
     4ba:	2505                	addiw	a0,a0,1
     4bc:	0200                	addi	s0,sp,256
     4be:	0204                	addi	s1,sp,256
     4c0:	0306                	slli	t1,t1,0x1
     4c2:	097d                	addi	s2,s2,31
     4c4:	0004                	.insn	2, 0x0004
     4c6:	0501                	addi	a0,a0,0
     4c8:	0014                	.insn	2, 0x0014
     4ca:	0402                	c.slli64	s0
     4cc:	0301                	addi	t1,t1,0
     4ce:	0900                	addi	s0,sp,144
     4d0:	0004                	.insn	2, 0x0004
     4d2:	0501                	addi	a0,a0,0
     4d4:	0601                	addi	a2,a2,0
     4d6:	08090b03          	lb	s6,128(s2)
     4da:	0100                	addi	s0,sp,128
     4dc:	0405                	addi	s0,s0,1
     4de:	0306                	slli	t1,t1,0x1
     4e0:	0979                	addi	s2,s2,30
     4e2:	0014                	.insn	2, 0x0014
     4e4:	0301                	addi	t1,t1,0
     4e6:	0902                	c.slli64	s2
     4e8:	0010                	.insn	2, 0x0010
     4ea:	0301                	addi	t1,t1,0
     4ec:	0902                	c.slli64	s2
     4ee:	0014                	.insn	2, 0x0014
     4f0:	0501                	addi	a0,a0,0
     4f2:	09730303          	lb	t1,151(t1)
     4f6:	0008                	.insn	2, 0x0008
     4f8:	0301                	addi	t1,t1,0
     4fa:	0902                	c.slli64	s2
     4fc:	000c                	.insn	2, 0x000c
     4fe:	0901                	addi	s2,s2,0
     500:	0008                	.insn	2, 0x0008
     502:	0100                	addi	s0,sp,128
     504:	0501                	addi	a0,a0,0
     506:	0001                	nop
     508:	0209                	addi	tp,tp,2 # 2 <__boot_hart+0x2>
     50a:	022c                	addi	a1,sp,264
     50c:	8000                	.insn	2, 0x8000
     50e:	0000                	unimp
     510:	0000                	unimp
     512:	05013b03          	ld	s6,80(sp)
     516:	0302                	c.slli64	t1
     518:	0901                	addi	s2,s2,0
     51a:	0000                	unimp
     51c:	0401                	addi	s0,s0,0
     51e:	09540303          	lb	t1,149(s0)
     522:	0000                	unimp
     524:	0401                	addi	s0,s0,0
     526:	0302                	c.slli64	t1
     528:	0915                	addi	s2,s2,5
     52a:	0000                	unimp
     52c:	0301                	addi	t1,t1,0
     52e:	0901                	addi	s2,s2,0
     530:	0000                	unimp
     532:	0401                	addi	s0,s0,0
     534:	0501                	addi	a0,a0,0
     536:	0601                	addi	a2,a2,0
     538:	00091503          	lh	a0,0(s2)
     53c:	0100                	addi	s0,sp,128
     53e:	0204                	addi	s1,sp,256
     540:	0905                	addi	s2,s2,1
     542:	04096b03          	lwu	s6,64(s2)
     546:	0100                	addi	s0,sp,128
     548:	0104                	addi	s1,sp,128
     54a:	0105                	addi	sp,sp,1
     54c:	04091503          	lh	a0,64(s2)
     550:	0100                	addi	s0,sp,128
     552:	0204                	addi	s1,sp,256
     554:	0905                	addi	s2,s2,1
     556:	04096b03          	lwu	s6,64(s2)
     55a:	0100                	addi	s0,sp,128
     55c:	0104                	addi	s1,sp,128
     55e:	0105                	addi	sp,sp,1
     560:	04091503          	lh	a0,64(s2)
     564:	0100                	addi	s0,sp,128
     566:	0205                	addi	tp,tp,1 # 1 <__boot_hart+0x1>
     568:	04090403          	lb	s0,64(s2)
     56c:	0100                	addi	s0,sp,128
     56e:	0204                	addi	s1,sp,256
     570:	0905                	addi	s2,s2,1
     572:	04096703          	lwu	a4,64(s2)
     576:	0100                	addi	s0,sp,128
     578:	0104                	addi	s1,sp,128
     57a:	0205                	addi	tp,tp,1 # 1 <__boot_hart+0x1>
     57c:	0306                	slli	t1,t1,0x1
     57e:	00040917          	auipc	s2,0x40
     582:	0601                	addi	a2,a2,0
     584:	00090203          	lb	tp,0(s2) # 4057e <__heap_size+0x2057e>
     588:	0100                	addi	s0,sp,128
     58a:	0105                	addi	sp,sp,1
     58c:	0c097c03          	.insn	4, 0x0c097c03
     590:	0100                	addi	s0,sp,128
     592:	0f05                	addi	t5,t5,1
     594:	0c090203          	lb	tp,192(s2)
     598:	0100                	addi	s0,sp,128
     59a:	0205                	addi	tp,tp,1 # 1 <__boot_hart+0x1>
     59c:	0306                	slli	t1,t1,0x1
     59e:	0902                	c.slli64	s2
     5a0:	0004                	.insn	2, 0x0004
     5a2:	0301                	addi	t1,t1,0
     5a4:	0902                	c.slli64	s2
     5a6:	0004                	.insn	2, 0x0004
     5a8:	0501                	addi	a0,a0,0
     5aa:	09000307          	.insn	4, 0x09000307
     5ae:	0000                	unimp
     5b0:	0501                	addi	a0,a0,0
     5b2:	0014                	.insn	2, 0x0014
     5b4:	0402                	c.slli64	s0
     5b6:	0301                	addi	t1,t1,0
     5b8:	0900                	addi	s0,sp,144
     5ba:	0000                	unimp
     5bc:	0501                	addi	a0,a0,0
     5be:	0602                	c.slli64	a2
     5c0:	00097e03          	.insn	4, 0x00097e03
     5c4:	0100                	addi	s0,sp,128
     5c6:	0305                	addi	t1,t1,1
     5c8:	0306                	slli	t1,t1,0x1
     5ca:	00080903          	lb	s2,0(a6) # 1000 <__stack_align+0xff0>
     5ce:	0301                	addi	t1,t1,0
     5d0:	0901                	addi	s2,s2,0
     5d2:	0000                	unimp
     5d4:	0501                	addi	a0,a0,0
     5d6:	0014                	.insn	2, 0x0014
     5d8:	0402                	c.slli64	s0
     5da:	0601                	addi	a2,a2,0
     5dc:	04097e03          	.insn	4, 0x04097e03
     5e0:	0100                	addi	s0,sp,128
     5e2:	0305                	addi	t1,t1,1
     5e4:	04090203          	lb	tp,64(s2)
     5e8:	0100                	addi	s0,sp,128
     5ea:	2505                	addiw	a0,a0,1
     5ec:	0200                	addi	s0,sp,256
     5ee:	0304                	addi	s1,sp,384
     5f0:	0306                	slli	t1,t1,0x1
     5f2:	097e                	slli	s2,s2,0x1f
     5f4:	0004                	.insn	2, 0x0004
     5f6:	0501                	addi	a0,a0,0
     5f8:	0014                	.insn	2, 0x0014
     5fa:	0402                	c.slli64	s0
     5fc:	0301                	addi	t1,t1,0
     5fe:	0900                	addi	s0,sp,144
     600:	0000                	unimp
     602:	0501                	addi	a0,a0,0
     604:	0302                	c.slli64	t1
     606:	0905                	addi	s2,s2,1
     608:	0008                	.insn	2, 0x0008
     60a:	0301                	addi	t1,t1,0
     60c:	0902                	c.slli64	s2
     60e:	0010                	.insn	2, 0x0010
     610:	0501                	addi	a0,a0,0
     612:	09000307          	.insn	4, 0x09000307
     616:	0000                	unimp
     618:	0501                	addi	a0,a0,0
     61a:	0014                	.insn	2, 0x0014
     61c:	0402                	c.slli64	s0
     61e:	0301                	addi	t1,t1,0
     620:	0900                	addi	s0,sp,144
     622:	0000                	unimp
     624:	0501                	addi	a0,a0,0
     626:	0602                	c.slli64	a2
     628:	00097e03          	.insn	4, 0x00097e03
     62c:	0100                	addi	s0,sp,128
     62e:	0305                	addi	t1,t1,1
     630:	0306                	slli	t1,t1,0x1
     632:	00040903          	lb	s2,0(s0)
     636:	0301                	addi	t1,t1,0
     638:	0901                	addi	s2,s2,0
     63a:	0000                	unimp
     63c:	0501                	addi	a0,a0,0
     63e:	0014                	.insn	2, 0x0014
     640:	0402                	c.slli64	s0
     642:	0601                	addi	a2,a2,0
     644:	04097e03          	.insn	4, 0x04097e03
     648:	0100                	addi	s0,sp,128
     64a:	0305                	addi	t1,t1,1
     64c:	04090203          	lb	tp,64(s2)
     650:	0100                	addi	s0,sp,128
     652:	2505                	addiw	a0,a0,1
     654:	0200                	addi	s0,sp,256
     656:	0304                	addi	s1,sp,384
     658:	0306                	slli	t1,t1,0x1
     65a:	097e                	slli	s2,s2,0x1f
     65c:	0004                	.insn	2, 0x0004
     65e:	0501                	addi	a0,a0,0
     660:	0014                	.insn	2, 0x0014
     662:	0402                	c.slli64	s0
     664:	0301                	addi	t1,t1,0
     666:	0900                	addi	s0,sp,144
     668:	0000                	unimp
     66a:	0501                	addi	a0,a0,0
     66c:	0302                	c.slli64	t1
     66e:	0905                	addi	s2,s2,1
     670:	0008                	.insn	2, 0x0008
     672:	0501                	addi	a0,a0,0
     674:	0601                	addi	a2,a2,0
     676:	00090103          	lb	sp,0(s2)
     67a:	0100                	addi	s0,sp,128
     67c:	2009                	.insn	2, 0x2009
     67e:	0000                	unimp
     680:	0101                	addi	sp,sp,0
     682:	0092                	slli	ra,ra,0x4
     684:	0000                	unimp
     686:	0005                	c.nop	1
     688:	0008                	.insn	2, 0x0008
     68a:	00000037          	lui	zero,0x0
     68e:	0101                	addi	sp,sp,0
     690:	fb01                	bnez	a4,5a0 <__stack_align+0x590>
     692:	0d0e                	slli	s10,s10,0x3
     694:	0100                	addi	s0,sp,128
     696:	0101                	addi	sp,sp,0
     698:	0001                	nop
     69a:	0000                	unimp
     69c:	0001                	nop
     69e:	0100                	addi	s0,sp,128
     6a0:	0101                	addi	sp,sp,0
     6a2:	031f 028d 0000      	.insn	6, 0x028d031f
     6a8:	02e4                	addi	s1,sp,332
     6aa:	0000                	unimp
     6ac:	0182                	c.slli64	gp
     6ae:	0000                	unimp
     6b0:	0102                	c.slli64	sp
     6b2:	021f 030f 02dc      	.insn	6, 0x02dc030f021f
     6b8:	0000                	unimp
     6ba:	dc01                	beqz	s0,5d2 <__stack_align+0x5c2>
     6bc:	0002                	c.slli64	zero
     6be:	0100                	addi	s0,sp,128
     6c0:	000002eb          	.insn	4, 0x02eb
     6c4:	0502                	c.slli64	a0
     6c6:	0001                	nop
     6c8:	0209                	addi	tp,tp,2 # 2 <__boot_hart+0x2>
     6ca:	1acc                	addi	a1,sp,372
     6cc:	8000                	.insn	2, 0x8000
     6ce:	0000                	unimp
     6d0:	0000                	unimp
     6d2:	0516                	slli	a0,a0,0x5
     6d4:	0305                	addi	t1,t1,1
     6d6:	0901                	addi	s2,s2,0
     6d8:	0000                	unimp
     6da:	0501                	addi	a0,a0,0
     6dc:	0601                	addi	a2,a2,0
     6de:	00097f03          	.insn	4, 0x00097f03
     6e2:	0100                	addi	s0,sp,128
     6e4:	0505                	addi	a0,a0,1
     6e6:	04090103          	lb	sp,64(s2)
     6ea:	0100                	addi	s0,sp,128
     6ec:	0105                	addi	sp,sp,1
     6ee:	04090203          	lb	tp,64(s2)
     6f2:	0100                	addi	s0,sp,128
     6f4:	0b05                	addi	s6,s6,1
     6f6:	0200                	addi	s0,sp,256
     6f8:	0104                	addi	s1,sp,128
     6fa:	02097e03          	.insn	4, 0x02097e03
     6fe:	0100                	addi	s0,sp,128
     700:	0505                	addi	a0,a0,1
     702:	0306                	slli	t1,t1,0x1
     704:	0901                	addi	s2,s2,0
     706:	0004                	.insn	2, 0x0004
     708:	0501                	addi	a0,a0,0
     70a:	0601                	addi	a2,a2,0
     70c:	00090103          	lb	sp,0(s2)
     710:	0100                	addi	s0,sp,128
     712:	0609                	addi	a2,a2,2
     714:	0000                	unimp
     716:	0101                	addi	sp,sp,0
     718:	000000bb          	addw	ra,zero,zero
     71c:	0005                	c.nop	1
     71e:	0008                	.insn	2, 0x0008
     720:	0049                	c.nop	18
     722:	0000                	unimp
     724:	0101                	addi	sp,sp,0
     726:	fb01                	bnez	a4,636 <__stack_align+0x626>
     728:	0d0e                	slli	s10,s10,0x3
     72a:	0100                	addi	s0,sp,128
     72c:	0101                	addi	sp,sp,0
     72e:	0001                	nop
     730:	0000                	unimp
     732:	0001                	nop
     734:	0100                	addi	s0,sp,128
     736:	0101                	addi	sp,sp,0
     738:	051f 028d 0000      	.insn	6, 0x028d051f
     73e:	02e4                	addi	s1,sp,332
     740:	0000                	unimp
     742:	00a9                	addi	ra,ra,10
     744:	0000                	unimp
     746:	0182                	c.slli64	gp
     748:	0000                	unimp
     74a:	0301                	addi	t1,t1,0
     74c:	0000                	unimp
     74e:	0102                	c.slli64	sp
     750:	021f 050f 02fa      	.insn	6, 0x02fa050f021f
     756:	0000                	unimp
     758:	fa01                	bnez	a2,668 <__stack_align+0x658>
     75a:	0002                	c.slli64	zero
     75c:	0100                	addi	s0,sp,128
     75e:	0258                	addi	a4,sp,260
     760:	0000                	unimp
     762:	7202                	ld	tp,32(sp)
     764:	0002                	c.slli64	zero
     766:	0300                	addi	s0,sp,384
     768:	030c                	addi	a1,sp,384
     76a:	0000                	unimp
     76c:	0504                	addi	s1,sp,640
     76e:	0001                	nop
     770:	0209                	addi	tp,tp,2 # 2 <__boot_hart+0x2>
     772:	1ae0                	addi	s0,sp,380
     774:	8000                	.insn	2, 0x8000
     776:	0000                	unimp
     778:	0000                	unimp
     77a:	0516                	slli	a0,a0,0x5
     77c:	0305                	addi	t1,t1,1
     77e:	0901                	addi	s2,s2,0
     780:	0000                	unimp
     782:	0501                	addi	a0,a0,0
     784:	0614                	addi	a3,sp,768
     786:	00090003          	lb	zero,0(s2)
     78a:	0100                	addi	s0,sp,128
     78c:	0e05                	addi	t3,t3,1
     78e:	0a090003          	lb	zero,160(s2)
     792:	0100                	addi	s0,sp,128
     794:	0505                	addi	a0,a0,1
     796:	0306                	slli	t1,t1,0x1
     798:	0901                	addi	s2,s2,0
     79a:	000c                	.insn	2, 0x000c
     79c:	0501                	addi	a0,a0,0
     79e:	0309                	addi	t1,t1,2
     7a0:	0901                	addi	s2,s2,0
     7a2:	0000                	unimp
     7a4:	0501                	addi	a0,a0,0
     7a6:	0612                	slli	a2,a2,0x4
     7a8:	00090003          	lb	zero,0(s2)
     7ac:	0100                	addi	s0,sp,128
     7ae:	0905                	addi	s2,s2,1
     7b0:	0200                	addi	s0,sp,256
     7b2:	0104                	addi	s1,sp,128
     7b4:	0306                	slli	t1,t1,0x1
     7b6:	0901                	addi	s2,s2,0
     7b8:	0008                	.insn	2, 0x0008
     7ba:	0501                	addi	a0,a0,0
     7bc:	0010                	.insn	2, 0x0010
     7be:	0402                	c.slli64	s0
     7c0:	0601                	addi	a2,a2,0
     7c2:	00090003          	lb	zero,0(s2)
     7c6:	0100                	addi	s0,sp,128
     7c8:	0505                	addi	a0,a0,1
     7ca:	0306                	slli	t1,t1,0x1
     7cc:	097e                	slli	s2,s2,0x1f
     7ce:	0002                	c.slli64	zero
     7d0:	0901                	addi	s2,s2,0
     7d2:	0002                	c.slli64	zero
     7d4:	0100                	addi	s0,sp,128
     7d6:	af01                	j	ee6 <__stack_align+0xed6>
     7d8:	0000                	unimp
     7da:	0500                	addi	s0,sp,640
     7dc:	0800                	addi	s0,sp,16
     7de:	5400                	lw	s0,40(s0)
     7e0:	0000                	unimp
     7e2:	0100                	addi	s0,sp,128
     7e4:	0101                	addi	sp,sp,0
     7e6:	000d0efb          	.insn	4, 0x000d0efb
     7ea:	0101                	addi	sp,sp,0
     7ec:	0101                	addi	sp,sp,0
     7ee:	0000                	unimp
     7f0:	0100                	addi	s0,sp,128
     7f2:	0000                	unimp
     7f4:	0101                	addi	sp,sp,0
     7f6:	1f01                	addi	t5,t5,-32
     7f8:	8d04                	.insn	2, 0x8d04
     7fa:	0002                	c.slli64	zero
     7fc:	e400                	sd	s0,8(s0)
     7fe:	0002                	c.slli64	zero
     800:	a900                	fsd	fs0,16(a0)
     802:	0000                	unimp
     804:	8200                	.insn	2, 0x8200
     806:	0001                	nop
     808:	0200                	addi	s0,sp,256
     80a:	1f01                	addi	t5,t5,-32
     80c:	0f02                	c.slli64	t5
     80e:	1a08                	addi	a0,sp,304
     810:	01000003          	lb	zero,16(zero) # 10 <__stack_align>
     814:	031a                	slli	t1,t1,0x6
     816:	0000                	unimp
     818:	5801                	li	a6,-32
     81a:	0002                	c.slli64	zero
     81c:	0200                	addi	s0,sp,256
     81e:	0260                	addi	s0,sp,268
     820:	0000                	unimp
     822:	00026103          	lwu	sp,0(tp) # 0 <__boot_hart>
     826:	0300                	addi	s0,sp,384
     828:	0322                	slli	t1,t1,0x8
     82a:	0000                	unimp
     82c:	00032e03          	lw	t3,0(t1)
     830:	0300                	addi	s0,sp,384
     832:	000002eb          	.insn	4, 0x02eb
     836:	00010503          	lb	a0,0(sp)
     83a:	0209                	addi	tp,tp,2 # 2 <__boot_hart+0x2>
     83c:	1b02                	slli	s6,s6,0x20
     83e:	8000                	.insn	2, 0x8000
     840:	0000                	unimp
     842:	0000                	unimp
     844:	03050517          	auipc	a0,0x3050
     848:	0901                	addi	s2,s2,0
     84a:	0000                	unimp
     84c:	0501                	addi	a0,a0,0 # 3050844 <__heap_size+0x3030844>
     84e:	0601                	addi	a2,a2,0
     850:	00097f03          	.insn	4, 0x00097f03
     854:	0100                	addi	s0,sp,128
     856:	0505                	addi	a0,a0,1
     858:	04090103          	lb	sp,64(s2)
     85c:	0100                	addi	s0,sp,128
     85e:	0105                	addi	sp,sp,1
     860:	04090203          	lb	tp,64(s2)
     864:	0100                	addi	s0,sp,128
     866:	0b05                	addi	s6,s6,1
     868:	0200                	addi	s0,sp,256
     86a:	0104                	addi	s1,sp,128
     86c:	02097e03          	.insn	4, 0x02097e03
     870:	0100                	addi	s0,sp,128
     872:	0505                	addi	a0,a0,1
     874:	0306                	slli	t1,t1,0x1
     876:	0901                	addi	s2,s2,0
     878:	0004                	.insn	2, 0x0004
     87a:	0501                	addi	a0,a0,0
     87c:	0601                	addi	a2,a2,0
     87e:	00090103          	lb	sp,0(s2)
     882:	0100                	addi	s0,sp,128
     884:	0609                	addi	a2,a2,2
     886:	0000                	unimp
     888:	0101                	addi	sp,sp,0
     88a:	00000063          	beqz	zero,88a <__stack_align+0x87a>
     88e:	0005                	c.nop	1
     890:	0008                	.insn	2, 0x0008
     892:	002e                	c.slli	zero,0xb
     894:	0000                	unimp
     896:	0101                	addi	sp,sp,0
     898:	fb01                	bnez	a4,7a8 <__stack_align+0x798>
     89a:	0d0e                	slli	s10,s10,0x3
     89c:	0100                	addi	s0,sp,128
     89e:	0101                	addi	sp,sp,0
     8a0:	0001                	nop
     8a2:	0000                	unimp
     8a4:	0001                	nop
     8a6:	0100                	addi	s0,sp,128
     8a8:	0101                	addi	sp,sp,0
     8aa:	021f 028d 0000      	.insn	6, 0x028d021f
     8b0:	02e4                	addi	s1,sp,332
     8b2:	0000                	unimp
     8b4:	0102                	c.slli64	sp
     8b6:	021f 020f 033c      	.insn	6, 0x033c020f021f
     8bc:	0000                	unimp
     8be:	3c01                	addiw	s8,s8,-32
     8c0:	01000003          	lb	zero,16(zero) # 10 <__stack_align>
     8c4:	0105                	addi	sp,sp,1
     8c6:	0900                	addi	s0,sp,144
     8c8:	1602                	slli	a2,a2,0x20
     8ca:	0080001b          	addiw	zero,zero,8
     8ce:	0000                	unimp
     8d0:	1600                	addi	s0,sp,800
     8d2:	0505                	addi	a0,a0,1
     8d4:	00090103          	lb	sp,0(s2)
     8d8:	0100                	addi	s0,sp,128
     8da:	2305                	addiw	t1,t1,1
     8dc:	0306                	slli	t1,t1,0x1
     8de:	0900                	addi	s0,sp,144
     8e0:	0000                	unimp
     8e2:	0501                	addi	a0,a0,0
     8e4:	0301                	addi	t1,t1,0
     8e6:	0901                	addi	s2,s2,0
     8e8:	0002                	c.slli64	zero
     8ea:	0901                	addi	s2,s2,0
     8ec:	0006                	c.slli	zero,0x1
     8ee:	0100                	addi	s0,sp,128
     8f0:	9c01                	subw	s0,s0,s0
     8f2:	0000                	unimp
     8f4:	0500                	addi	s0,sp,640
     8f6:	0800                	addi	s0,sp,16
     8f8:	4100                	lw	s0,0(a0)
     8fa:	0000                	unimp
     8fc:	0100                	addi	s0,sp,128
     8fe:	0101                	addi	sp,sp,0
     900:	000d0efb          	.insn	4, 0x000d0efb
     904:	0101                	addi	sp,sp,0
     906:	0101                	addi	sp,sp,0
     908:	0000                	unimp
     90a:	0100                	addi	s0,sp,128
     90c:	0000                	unimp
     90e:	0101                	addi	sp,sp,0
     910:	1f01                	addi	t5,t5,-32
     912:	00028d03          	lb	s10,0(t0)
     916:	e400                	sd	s0,8(s0)
     918:	0002                	c.slli64	zero
     91a:	8200                	.insn	2, 0x8200
     91c:	0001                	nop
     91e:	0200                	addi	s0,sp,256
     920:	1f01                	addi	t5,t5,-32
     922:	0f02                	c.slli64	t5
     924:	4c05                	li	s8,1
     926:	01000003          	lb	zero,16(zero) # 10 <__stack_align>
     92a:	034c                	addi	a1,sp,388
     92c:	0000                	unimp
     92e:	6001                	.insn	2, 0x6001
     930:	0002                	c.slli64	zero
     932:	0200                	addi	s0,sp,256
     934:	0261                	addi	tp,tp,24 # 18 <__stack_align+0x8>
     936:	0000                	unimp
     938:	eb02                	sd	zero,400(sp)
     93a:	0002                	c.slli64	zero
     93c:	0200                	addi	s0,sp,256
     93e:	0105                	addi	sp,sp,1
     940:	0900                	addi	s0,sp,144
     942:	1e02                	slli	t3,t3,0x20
     944:	0080001b          	addiw	zero,zero,8
     948:	0000                	unimp
     94a:	1700                	addi	s0,sp,928
     94c:	0505                	addi	a0,a0,1
     94e:	00090103          	lb	sp,0(s2)
     952:	0100                	addi	s0,sp,128
     954:	0105                	addi	sp,sp,1
     956:	0306                	slli	t1,t1,0x1
     958:	097f 0000 0501 0305 	.insn	10, 0x0901030505010000097f
     960:	0901 
     962:	0004                	.insn	2, 0x0004
     964:	0501                	addi	a0,a0,0
     966:	0301                	addi	t1,t1,0
     968:	0902                	c.slli64	s2
     96a:	0004                	.insn	2, 0x0004
     96c:	0501                	addi	a0,a0,0
     96e:	0402000b          	.insn	4, 0x0402000b
     972:	0301                	addi	t1,t1,0
     974:	097e                	slli	s2,s2,0x1f
     976:	0002                	c.slli64	zero
     978:	0501                	addi	a0,a0,0
     97a:	0605                	addi	a2,a2,1
     97c:	04090103          	lb	sp,64(s2)
     980:	0100                	addi	s0,sp,128
     982:	0105                	addi	sp,sp,1
     984:	0306                	slli	t1,t1,0x1
     986:	0901                	addi	s2,s2,0
     988:	0000                	unimp
     98a:	0901                	addi	s2,s2,0
     98c:	0006                	c.slli	zero,0x1
     98e:	0100                	addi	s0,sp,128
     990:	a501                	j	f90 <__stack_align+0xf80>
     992:	0000                	unimp
     994:	0500                	addi	s0,sp,640
     996:	0800                	addi	s0,sp,16
     998:	4a00                	lw	s0,16(a2)
     99a:	0000                	unimp
     99c:	0100                	addi	s0,sp,128
     99e:	0101                	addi	sp,sp,0
     9a0:	000d0efb          	.insn	4, 0x000d0efb
     9a4:	0101                	addi	sp,sp,0
     9a6:	0101                	addi	sp,sp,0
     9a8:	0000                	unimp
     9aa:	0100                	addi	s0,sp,128
     9ac:	0000                	unimp
     9ae:	0101                	addi	sp,sp,0
     9b0:	1f01                	addi	t5,t5,-32
     9b2:	8d04                	.insn	2, 0x8d04
     9b4:	0002                	c.slli64	zero
     9b6:	e400                	sd	s0,8(s0)
     9b8:	0002                	c.slli64	zero
     9ba:	1200                	addi	s0,sp,288
     9bc:	0001                	nop
     9be:	8200                	.insn	2, 0x8200
     9c0:	0001                	nop
     9c2:	0200                	addi	s0,sp,256
     9c4:	1f01                	addi	t5,t5,-32
     9c6:	0f02                	c.slli64	t5
     9c8:	5b06                	lw	s6,96(sp)
     9ca:	01000003          	lb	zero,16(zero) # 10 <__stack_align>
     9ce:	0000035b          	.insn	4, 0x035b
     9d2:	6901                	.insn	2, 0x6901
     9d4:	0002                	c.slli64	zero
     9d6:	0200                	addi	s0,sp,256
     9d8:	0260                	addi	s0,sp,268
     9da:	0000                	unimp
     9dc:	00026103          	lwu	sp,0(tp) # 0 <__boot_hart>
     9e0:	0300                	addi	s0,sp,384
     9e2:	000002eb          	.insn	4, 0x02eb
     9e6:	00010503          	lb	a0,0(sp)
     9ea:	0209                	addi	tp,tp,2 # 2 <__boot_hart+0x2>
     9ec:	1b32                	slli	s6,s6,0x2c
     9ee:	8000                	.insn	2, 0x8000
     9f0:	0000                	unimp
     9f2:	0000                	unimp
     9f4:	03050517          	auipc	a0,0x3050
     9f8:	0901                	addi	s2,s2,0
     9fa:	0000                	unimp
     9fc:	0501                	addi	a0,a0,0 # 30509f4 <__heap_size+0x30309f4>
     9fe:	0601                	addi	a2,a2,0
     a00:	00097f03          	.insn	4, 0x00097f03
     a04:	0100                	addi	s0,sp,128
     a06:	0505                	addi	a0,a0,1
     a08:	04090103          	lb	sp,64(s2)
     a0c:	0100                	addi	s0,sp,128
     a0e:	0105                	addi	sp,sp,1
     a10:	04090203          	lb	tp,64(s2)
     a14:	0100                	addi	s0,sp,128
     a16:	0b05                	addi	s6,s6,1
     a18:	0200                	addi	s0,sp,256
     a1a:	0104                	addi	s1,sp,128
     a1c:	02097e03          	.insn	4, 0x02097e03
     a20:	0100                	addi	s0,sp,128
     a22:	0505                	addi	a0,a0,1
     a24:	0306                	slli	t1,t1,0x1
     a26:	0901                	addi	s2,s2,0
     a28:	0006                	c.slli	zero,0x1
     a2a:	0501                	addi	a0,a0,0
     a2c:	0601                	addi	a2,a2,0
     a2e:	00090103          	lb	sp,0(s2)
     a32:	0100                	addi	s0,sp,128
     a34:	0609                	addi	a2,a2,2
     a36:	0000                	unimp
     a38:	0101                	addi	sp,sp,0
     a3a:	0121                	addi	sp,sp,8
     a3c:	0000                	unimp
     a3e:	0005                	c.nop	1
     a40:	0008                	.insn	2, 0x0008
     a42:	0040                	addi	s0,sp,4
     a44:	0000                	unimp
     a46:	0101                	addi	sp,sp,0
     a48:	fb01                	bnez	a4,958 <__stack_align+0x948>
     a4a:	0d0e                	slli	s10,s10,0x3
     a4c:	0100                	addi	s0,sp,128
     a4e:	0101                	addi	sp,sp,0
     a50:	0001                	nop
     a52:	0000                	unimp
     a54:	0001                	nop
     a56:	0100                	addi	s0,sp,128
     a58:	0101                	addi	sp,sp,0
     a5a:	041f 028d 0000      	.insn	6, 0x028d041f
     a60:	02e4                	addi	s1,sp,332
     a62:	0000                	unimp
     a64:	0112                	slli	sp,sp,0x4
     a66:	0000                	unimp
     a68:	0182                	c.slli64	gp
     a6a:	0000                	unimp
     a6c:	0102                	c.slli64	sp
     a6e:	021f 040f 0369      	.insn	6, 0x0369040f021f
     a74:	0000                	unimp
     a76:	6901                	.insn	2, 0x6901
     a78:	01000003          	lb	zero,16(zero) # 10 <__stack_align>
     a7c:	0269                	addi	tp,tp,26 # 1a <__stack_align+0xa>
     a7e:	0000                	unimp
     a80:	eb02                	sd	zero,400(sp)
     a82:	0002                	c.slli64	zero
     a84:	0300                	addi	s0,sp,384
     a86:	0105                	addi	sp,sp,1
     a88:	0900                	addi	s0,sp,144
     a8a:	4802                	lw	a6,0(sp)
     a8c:	0080001b          	addiw	zero,zero,8
     a90:	0000                	unimp
     a92:	0300                	addi	s0,sp,384
     a94:	0109                	addi	sp,sp,2
     a96:	0505                	addi	a0,a0,1
     a98:	00090103          	lb	sp,0(s2)
     a9c:	0100                	addi	s0,sp,128
     a9e:	00090103          	lb	sp,0(s2)
     aa2:	0100                	addi	s0,sp,128
     aa4:	00090103          	lb	sp,0(s2)
     aa8:	0100                	addi	s0,sp,128
     aaa:	00090203          	lb	tp,0(s2)
     aae:	0100                	addi	s0,sp,128
     ab0:	0c05                	addi	s8,s8,1
     ab2:	0306                	slli	t1,t1,0x1
     ab4:	0900                	addi	s0,sp,144
     ab6:	0000                	unimp
     ab8:	0501                	addi	a0,a0,0
     aba:	0605                	addi	a2,a2,1
     abc:	0a090103          	lb	sp,160(s2)
     ac0:	0100                	addi	s0,sp,128
     ac2:	0805                	addi	a6,a6,1
     ac4:	0200                	addi	s0,sp,256
     ac6:	0104                	addi	s1,sp,128
     ac8:	0306                	slli	t1,t1,0x1
     aca:	0901                	addi	s2,s2,0
     acc:	0000                	unimp
     ace:	0501                	addi	a0,a0,0
     ad0:	030c                	addi	a1,sp,384
     ad2:	097f 0004 0501 0605 	.insn	10, 0x0103060505010004097f
     ada:	0103 
     adc:	0209                	addi	tp,tp,2 # 2 <__boot_hart+0x2>
     ade:	0100                	addi	s0,sp,128
     ae0:	0805                	addi	a6,a6,1
     ae2:	0200                	addi	s0,sp,256
     ae4:	0104                	addi	s1,sp,128
     ae6:	0306                	slli	t1,t1,0x1
     ae8:	0900                	addi	s0,sp,144
     aea:	0000                	unimp
     aec:	0501                	addi	a0,a0,0
     aee:	0605                	addi	a2,a2,1
     af0:	10090503          	lb	a0,256(s2)
     af4:	0100                	addi	s0,sp,128
     af6:	0c05                	addi	s8,s8,1
     af8:	0306                	slli	t1,t1,0x1
     afa:	0900                	addi	s0,sp,144
     afc:	0000                	unimp
     afe:	0501                	addi	a0,a0,0
     b00:	0605                	addi	a2,a2,1
     b02:	02090103          	lb	sp,32(s2)
     b06:	0100                	addi	s0,sp,128
     b08:	0105                	addi	sp,sp,1
     b0a:	0306                	slli	t1,t1,0x1
     b0c:	0901                	addi	s2,s2,0
     b0e:	0000                	unimp
     b10:	0501                	addi	a0,a0,0
     b12:	0609                	addi	a2,a2,2
     b14:	04097a03          	.insn	4, 0x04097a03
     b18:	0100                	addi	s0,sp,128
     b1a:	0105                	addi	sp,sp,1
     b1c:	0306                	slli	t1,t1,0x1
     b1e:	0978                	addi	a4,sp,156
     b20:	0000                	unimp
     b22:	0501                	addi	a0,a0,0
     b24:	0309                	addi	t1,t1,2
     b26:	0908                	addi	a0,sp,144
     b28:	0004                	.insn	2, 0x0004
     b2a:	0501                	addi	a0,a0,0
     b2c:	0301                	addi	t1,t1,0
     b2e:	0906                	slli	s2,s2,0x1
     b30:	0004                	.insn	2, 0x0004
     b32:	0501                	addi	a0,a0,0
     b34:	0402000f          	.insn	4, 0x0402000f
     b38:	0301                	addi	t1,t1,0
     b3a:	097a                	slli	s2,s2,0x1e
     b3c:	0002                	c.slli64	zero
     b3e:	0501                	addi	a0,a0,0
     b40:	0609                	addi	a2,a2,2
     b42:	04090103          	lb	sp,64(s2)
     b46:	0100                	addi	s0,sp,128
     b48:	1005                	c.nop	-31
     b4a:	0306                	slli	t1,t1,0x1
     b4c:	0900                	addi	s0,sp,144
     b4e:	0000                	unimp
     b50:	0501                	addi	a0,a0,0
     b52:	0301                	addi	t1,t1,0
     b54:	0905                	addi	s2,s2,1
     b56:	0002                	c.slli64	zero
     b58:	0901                	addi	s2,s2,0
     b5a:	0006                	c.slli	zero,0x1
     b5c:	0100                	addi	s0,sp,128
     b5e:	8901                	andi	a0,a0,0
     b60:	0000                	unimp
     b62:	0500                	addi	s0,sp,640
     b64:	0800                	addi	s0,sp,16
     b66:	5c00                	lw	s0,56(s0)
     b68:	0000                	unimp
     b6a:	0100                	addi	s0,sp,128
     b6c:	0101                	addi	sp,sp,0
     b6e:	000d0efb          	.insn	4, 0x000d0efb
     b72:	0101                	addi	sp,sp,0
     b74:	0101                	addi	sp,sp,0
     b76:	0000                	unimp
     b78:	0100                	addi	s0,sp,128
     b7a:	0000                	unimp
     b7c:	0101                	addi	sp,sp,0
     b7e:	1f01                	addi	t5,t5,-32
     b80:	8d06                	mv	s10,ra
     b82:	0002                	c.slli64	zero
     b84:	e400                	sd	s0,8(s0)
     b86:	0002                	c.slli64	zero
     b88:	1200                	addi	s0,sp,288
     b8a:	0001                	nop
     b8c:	a900                	fsd	fs0,16(a0)
     b8e:	0000                	unimp
     b90:	8200                	.insn	2, 0x8200
     b92:	0001                	nop
     b94:	0100                	addi	s0,sp,128
     b96:	02000003          	lb	zero,32(zero) # 20 <__stack_align+0x10>
     b9a:	1f01                	addi	t5,t5,-32
     b9c:	0f02                	c.slli64	t5
     b9e:	7708                	ld	a0,40(a4)
     ba0:	01000003          	lb	zero,16(zero) # 10 <__stack_align>
     ba4:	00000377          	.insn	4, 0x0377
     ba8:	6901                	.insn	2, 0x6901
     baa:	0002                	c.slli64	zero
     bac:	0200                	addi	s0,sp,256
     bae:	0258                	addi	a4,sp,260
     bb0:	0000                	unimp
     bb2:	00026003          	lwu	zero,0(tp) # 0 <__boot_hart>
     bb6:	0400                	addi	s0,sp,512
     bb8:	0272                	slli	tp,tp,0x1c
     bba:	0000                	unimp
     bbc:	6104                	ld	s1,0(a0)
     bbe:	0002                	c.slli64	zero
     bc0:	0400                	addi	s0,sp,512
     bc2:	030c                	addi	a1,sp,384
     bc4:	0000                	unimp
     bc6:	0505                	addi	a0,a0,1
     bc8:	0001                	nop
     bca:	0209                	addi	tp,tp,2 # 2 <__boot_hart+0x2>
     bcc:	1b84                	addi	s1,sp,496
     bce:	8000                	.insn	2, 0x8000
     bd0:	0000                	unimp
     bd2:	0000                	unimp
     bd4:	0518                	addi	a4,sp,640
     bd6:	0305                	addi	t1,t1,1
     bd8:	0901                	addi	s2,s2,0
     bda:	0000                	unimp
     bdc:	0501                	addi	a0,a0,0
     bde:	060c                	addi	a1,sp,768
     be0:	00090003          	lb	zero,0(s2)
     be4:	0100                	addi	s0,sp,128
     be6:	0609                	addi	a2,a2,2
     be8:	0000                	unimp
     bea:	0101                	addi	sp,sp,0
     bec:	042e                	slli	s0,s0,0xb
     bee:	0000                	unimp
     bf0:	0005                	c.nop	1
     bf2:	0008                	.insn	2, 0x0008
     bf4:	002e                	c.slli	zero,0xb
     bf6:	0000                	unimp
     bf8:	0101                	addi	sp,sp,0
     bfa:	fb01                	bnez	a4,b0a <__stack_align+0xafa>
     bfc:	0d0e                	slli	s10,s10,0x3
     bfe:	0100                	addi	s0,sp,128
     c00:	0101                	addi	sp,sp,0
     c02:	0001                	nop
     c04:	0000                	unimp
     c06:	0001                	nop
     c08:	0100                	addi	s0,sp,128
     c0a:	0101                	addi	sp,sp,0
     c0c:	021f 028d 0000      	.insn	6, 0x028d021f
     c12:	037f 0000 0102 021f 	.insn	10, 0x020f021f01020000037f
     c1a:	020f 
     c1c:	00000387          	.insn	4, 0x0387
     c20:	8701                	c.srai64	a4
     c22:	01000003          	lb	zero,16(zero) # 10 <__stack_align>
     c26:	0900                	addi	s0,sp,144
     c28:	0002                	c.slli64	zero
     c2a:	0000                	unimp
     c2c:	0080                	addi	s0,sp,64
     c2e:	0000                	unimp
     c30:	0300                	addi	s0,sp,384
     c32:	0109                	addi	sp,sp,2
     c34:	02090103          	lb	sp,32(s2)
     c38:	0100                	addi	s0,sp,128
     c3a:	02090103          	lb	sp,32(s2)
     c3e:	0100                	addi	s0,sp,128
     c40:	02090103          	lb	sp,32(s2)
     c44:	0100                	addi	s0,sp,128
     c46:	02090103          	lb	sp,32(s2)
     c4a:	0100                	addi	s0,sp,128
     c4c:	02090103          	lb	sp,32(s2)
     c50:	0100                	addi	s0,sp,128
     c52:	02090103          	lb	sp,32(s2)
     c56:	0100                	addi	s0,sp,128
     c58:	02090103          	lb	sp,32(s2)
     c5c:	0100                	addi	s0,sp,128
     c5e:	02090103          	lb	sp,32(s2)
     c62:	0100                	addi	s0,sp,128
     c64:	02090103          	lb	sp,32(s2)
     c68:	0100                	addi	s0,sp,128
     c6a:	02090103          	lb	sp,32(s2)
     c6e:	0100                	addi	s0,sp,128
     c70:	02090103          	lb	sp,32(s2)
     c74:	0100                	addi	s0,sp,128
     c76:	02090103          	lb	sp,32(s2)
     c7a:	0100                	addi	s0,sp,128
     c7c:	02090103          	lb	sp,32(s2)
     c80:	0100                	addi	s0,sp,128
     c82:	02090103          	lb	sp,32(s2)
     c86:	0100                	addi	s0,sp,128
     c88:	02090103          	lb	sp,32(s2)
     c8c:	0100                	addi	s0,sp,128
     c8e:	02090103          	lb	sp,32(s2)
     c92:	0100                	addi	s0,sp,128
     c94:	02090103          	lb	sp,32(s2)
     c98:	0100                	addi	s0,sp,128
     c9a:	02090103          	lb	sp,32(s2)
     c9e:	0100                	addi	s0,sp,128
     ca0:	02090103          	lb	sp,32(s2)
     ca4:	0100                	addi	s0,sp,128
     ca6:	02090103          	lb	sp,32(s2)
     caa:	0100                	addi	s0,sp,128
     cac:	02090103          	lb	sp,32(s2)
     cb0:	0100                	addi	s0,sp,128
     cb2:	02090103          	lb	sp,32(s2)
     cb6:	0100                	addi	s0,sp,128
     cb8:	02090103          	lb	sp,32(s2)
     cbc:	0100                	addi	s0,sp,128
     cbe:	02090103          	lb	sp,32(s2)
     cc2:	0100                	addi	s0,sp,128
     cc4:	02090103          	lb	sp,32(s2)
     cc8:	0100                	addi	s0,sp,128
     cca:	02090103          	lb	sp,32(s2)
     cce:	0100                	addi	s0,sp,128
     cd0:	02090103          	lb	sp,32(s2)
     cd4:	0100                	addi	s0,sp,128
     cd6:	02090103          	lb	sp,32(s2)
     cda:	0100                	addi	s0,sp,128
     cdc:	02090103          	lb	sp,32(s2)
     ce0:	0100                	addi	s0,sp,128
     ce2:	02090103          	lb	sp,32(s2)
     ce6:	0100                	addi	s0,sp,128
     ce8:	02090203          	lb	tp,32(s2)
     cec:	0100                	addi	s0,sp,128
     cee:	06090103          	lb	sp,96(s2)
     cf2:	0100                	addi	s0,sp,128
     cf4:	04090403          	lb	s0,64(s2)
     cf8:	0100                	addi	s0,sp,128
     cfa:	08090103          	lb	sp,128(s2)
     cfe:	0100                	addi	s0,sp,128
     d00:	04090203          	lb	tp,64(s2)
     d04:	0100                	addi	s0,sp,128
     d06:	04090103          	lb	sp,64(s2)
     d0a:	0100                	addi	s0,sp,128
     d0c:	04090103          	lb	sp,64(s2)
     d10:	0100                	addi	s0,sp,128
     d12:	04090103          	lb	sp,64(s2)
     d16:	0100                	addi	s0,sp,128
     d18:	04090103          	lb	sp,64(s2)
     d1c:	0100                	addi	s0,sp,128
     d1e:	04090103          	lb	sp,64(s2)
     d22:	0100                	addi	s0,sp,128
     d24:	04090103          	lb	sp,64(s2)
     d28:	0100                	addi	s0,sp,128
     d2a:	04090103          	lb	sp,64(s2)
     d2e:	0100                	addi	s0,sp,128
     d30:	04090103          	lb	sp,64(s2)
     d34:	0100                	addi	s0,sp,128
     d36:	04090103          	lb	sp,64(s2)
     d3a:	0100                	addi	s0,sp,128
     d3c:	04090103          	lb	sp,64(s2)
     d40:	0100                	addi	s0,sp,128
     d42:	04090103          	lb	sp,64(s2)
     d46:	0100                	addi	s0,sp,128
     d48:	04090103          	lb	sp,64(s2)
     d4c:	0100                	addi	s0,sp,128
     d4e:	04090103          	lb	sp,64(s2)
     d52:	0100                	addi	s0,sp,128
     d54:	04090103          	lb	sp,64(s2)
     d58:	0100                	addi	s0,sp,128
     d5a:	04090103          	lb	sp,64(s2)
     d5e:	0100                	addi	s0,sp,128
     d60:	04090103          	lb	sp,64(s2)
     d64:	0100                	addi	s0,sp,128
     d66:	04090103          	lb	sp,64(s2)
     d6a:	0100                	addi	s0,sp,128
     d6c:	04090103          	lb	sp,64(s2)
     d70:	0100                	addi	s0,sp,128
     d72:	04090103          	lb	sp,64(s2)
     d76:	0100                	addi	s0,sp,128
     d78:	04090103          	lb	sp,64(s2)
     d7c:	0100                	addi	s0,sp,128
     d7e:	04090103          	lb	sp,64(s2)
     d82:	0100                	addi	s0,sp,128
     d84:	04090103          	lb	sp,64(s2)
     d88:	0100                	addi	s0,sp,128
     d8a:	04090103          	lb	sp,64(s2)
     d8e:	0100                	addi	s0,sp,128
     d90:	04090103          	lb	sp,64(s2)
     d94:	0100                	addi	s0,sp,128
     d96:	04090103          	lb	sp,64(s2)
     d9a:	0100                	addi	s0,sp,128
     d9c:	04090103          	lb	sp,64(s2)
     da0:	0100                	addi	s0,sp,128
     da2:	04090103          	lb	sp,64(s2)
     da6:	0100                	addi	s0,sp,128
     da8:	04090103          	lb	sp,64(s2)
     dac:	0100                	addi	s0,sp,128
     dae:	04090103          	lb	sp,64(s2)
     db2:	0100                	addi	s0,sp,128
     db4:	04090103          	lb	sp,64(s2)
     db8:	0100                	addi	s0,sp,128
     dba:	04090103          	lb	sp,64(s2)
     dbe:	0100                	addi	s0,sp,128
     dc0:	04090103          	lb	sp,64(s2)
     dc4:	0100                	addi	s0,sp,128
     dc6:	04090803          	lb	a6,64(s2)
     dca:	0100                	addi	s0,sp,128
     dcc:	08090403          	lb	s0,128(s2)
     dd0:	0100                	addi	s0,sp,128
     dd2:	04090103          	lb	sp,64(s2)
     dd6:	0100                	addi	s0,sp,128
     dd8:	00090103          	lb	sp,0(s2)
     ddc:	0100                	addi	s0,sp,128
     dde:	04090103          	lb	sp,64(s2)
     de2:	0100                	addi	s0,sp,128
     de4:	08090103          	lb	sp,128(s2)
     de8:	0100                	addi	s0,sp,128
     dea:	04090103          	lb	sp,64(s2)
     dee:	0100                	addi	s0,sp,128
     df0:	02090303          	lb	t1,32(s2)
     df4:	0100                	addi	s0,sp,128
     df6:	02090103          	lb	sp,32(s2)
     dfa:	0100                	addi	s0,sp,128
     dfc:	04090103          	lb	sp,64(s2)
     e00:	0100                	addi	s0,sp,128
     e02:	04090303          	lb	t1,64(s2)
     e06:	0100                	addi	s0,sp,128
     e08:	08090103          	lb	sp,128(s2)
     e0c:	0100                	addi	s0,sp,128
     e0e:	04090303          	lb	t1,64(s2)
     e12:	0100                	addi	s0,sp,128
     e14:	04090303          	lb	t1,64(s2)
     e18:	0100                	addi	s0,sp,128
     e1a:	04090103          	lb	sp,64(s2)
     e1e:	0100                	addi	s0,sp,128
     e20:	08090303          	lb	t1,128(s2)
     e24:	0100                	addi	s0,sp,128
     e26:	04090103          	lb	sp,64(s2)
     e2a:	0100                	addi	s0,sp,128
     e2c:	04090103          	lb	sp,64(s2)
     e30:	0100                	addi	s0,sp,128
     e32:	04090203          	lb	tp,64(s2)
     e36:	0100                	addi	s0,sp,128
     e38:	04090103          	lb	sp,64(s2)
     e3c:	0100                	addi	s0,sp,128
     e3e:	02090103          	lb	sp,32(s2)
     e42:	0100                	addi	s0,sp,128
     e44:	04090403          	lb	s0,64(s2)
     e48:	0100                	addi	s0,sp,128
     e4a:	08090103          	lb	sp,128(s2)
     e4e:	0100                	addi	s0,sp,128
     e50:	04090103          	lb	sp,64(s2)
     e54:	0100                	addi	s0,sp,128
     e56:	04090303          	lb	t1,64(s2)
     e5a:	0100                	addi	s0,sp,128
     e5c:	02090703          	lb	a4,32(s2)
     e60:	0100                	addi	s0,sp,128
     e62:	04090103          	lb	sp,64(s2)
     e66:	0100                	addi	s0,sp,128
     e68:	02090303          	lb	t1,32(s2)
     e6c:	0100                	addi	s0,sp,128
     e6e:	02090103          	lb	sp,32(s2)
     e72:	0100                	addi	s0,sp,128
     e74:	04090103          	lb	sp,64(s2)
     e78:	0100                	addi	s0,sp,128
     e7a:	02090103          	lb	sp,32(s2)
     e7e:	0100                	addi	s0,sp,128
     e80:	02090103          	lb	sp,32(s2)
     e84:	0100                	addi	s0,sp,128
     e86:	02090103          	lb	sp,32(s2)
     e8a:	0100                	addi	s0,sp,128
     e8c:	02090103          	lb	sp,32(s2)
     e90:	0100                	addi	s0,sp,128
     e92:	02090103          	lb	sp,32(s2)
     e96:	0100                	addi	s0,sp,128
     e98:	02090103          	lb	sp,32(s2)
     e9c:	0100                	addi	s0,sp,128
     e9e:	02090103          	lb	sp,32(s2)
     ea2:	0100                	addi	s0,sp,128
     ea4:	02090103          	lb	sp,32(s2)
     ea8:	0100                	addi	s0,sp,128
     eaa:	02090103          	lb	sp,32(s2)
     eae:	0100                	addi	s0,sp,128
     eb0:	02090103          	lb	sp,32(s2)
     eb4:	0100                	addi	s0,sp,128
     eb6:	02090103          	lb	sp,32(s2)
     eba:	0100                	addi	s0,sp,128
     ebc:	02090103          	lb	sp,32(s2)
     ec0:	0100                	addi	s0,sp,128
     ec2:	02090103          	lb	sp,32(s2)
     ec6:	0100                	addi	s0,sp,128
     ec8:	02090103          	lb	sp,32(s2)
     ecc:	0100                	addi	s0,sp,128
     ece:	02090103          	lb	sp,32(s2)
     ed2:	0100                	addi	s0,sp,128
     ed4:	02090103          	lb	sp,32(s2)
     ed8:	0100                	addi	s0,sp,128
     eda:	02090103          	lb	sp,32(s2)
     ede:	0100                	addi	s0,sp,128
     ee0:	02090103          	lb	sp,32(s2)
     ee4:	0100                	addi	s0,sp,128
     ee6:	02090103          	lb	sp,32(s2)
     eea:	0100                	addi	s0,sp,128
     eec:	02090103          	lb	sp,32(s2)
     ef0:	0100                	addi	s0,sp,128
     ef2:	02090103          	lb	sp,32(s2)
     ef6:	0100                	addi	s0,sp,128
     ef8:	02090103          	lb	sp,32(s2)
     efc:	0100                	addi	s0,sp,128
     efe:	02090103          	lb	sp,32(s2)
     f02:	0100                	addi	s0,sp,128
     f04:	02090103          	lb	sp,32(s2)
     f08:	0100                	addi	s0,sp,128
     f0a:	02090103          	lb	sp,32(s2)
     f0e:	0100                	addi	s0,sp,128
     f10:	02090103          	lb	sp,32(s2)
     f14:	0100                	addi	s0,sp,128
     f16:	02090103          	lb	sp,32(s2)
     f1a:	0100                	addi	s0,sp,128
     f1c:	02090103          	lb	sp,32(s2)
     f20:	0100                	addi	s0,sp,128
     f22:	02090103          	lb	sp,32(s2)
     f26:	0100                	addi	s0,sp,128
     f28:	02090303          	lb	t1,32(s2)
     f2c:	0100                	addi	s0,sp,128
     f2e:	04090103          	lb	sp,64(s2)
     f32:	0100                	addi	s0,sp,128
     f34:	04090103          	lb	sp,64(s2)
     f38:	0100                	addi	s0,sp,128
     f3a:	04090103          	lb	sp,64(s2)
     f3e:	0100                	addi	s0,sp,128
     f40:	02090103          	lb	sp,32(s2)
     f44:	0100                	addi	s0,sp,128
     f46:	04090103          	lb	sp,64(s2)
     f4a:	0100                	addi	s0,sp,128
     f4c:	04090303          	lb	t1,64(s2)
     f50:	0100                	addi	s0,sp,128
     f52:	06090103          	lb	sp,96(s2)
     f56:	0100                	addi	s0,sp,128
     f58:	04090203          	lb	tp,64(s2)
     f5c:	0100                	addi	s0,sp,128
     f5e:	02090103          	lb	sp,32(s2)
     f62:	0100                	addi	s0,sp,128
     f64:	02090103          	lb	sp,32(s2)
     f68:	0100                	addi	s0,sp,128
     f6a:	02090103          	lb	sp,32(s2)
     f6e:	0100                	addi	s0,sp,128
     f70:	02090103          	lb	sp,32(s2)
     f74:	0100                	addi	s0,sp,128
     f76:	02090103          	lb	sp,32(s2)
     f7a:	0100                	addi	s0,sp,128
     f7c:	02090103          	lb	sp,32(s2)
     f80:	0100                	addi	s0,sp,128
     f82:	02090103          	lb	sp,32(s2)
     f86:	0100                	addi	s0,sp,128
     f88:	02090103          	lb	sp,32(s2)
     f8c:	0100                	addi	s0,sp,128
     f8e:	02090103          	lb	sp,32(s2)
     f92:	0100                	addi	s0,sp,128
     f94:	02090103          	lb	sp,32(s2)
     f98:	0100                	addi	s0,sp,128
     f9a:	02090103          	lb	sp,32(s2)
     f9e:	0100                	addi	s0,sp,128
     fa0:	02090103          	lb	sp,32(s2)
     fa4:	0100                	addi	s0,sp,128
     fa6:	02090103          	lb	sp,32(s2)
     faa:	0100                	addi	s0,sp,128
     fac:	02090103          	lb	sp,32(s2)
     fb0:	0100                	addi	s0,sp,128
     fb2:	02090103          	lb	sp,32(s2)
     fb6:	0100                	addi	s0,sp,128
     fb8:	02090103          	lb	sp,32(s2)
     fbc:	0100                	addi	s0,sp,128
     fbe:	02090103          	lb	sp,32(s2)
     fc2:	0100                	addi	s0,sp,128
     fc4:	02090103          	lb	sp,32(s2)
     fc8:	0100                	addi	s0,sp,128
     fca:	02090103          	lb	sp,32(s2)
     fce:	0100                	addi	s0,sp,128
     fd0:	02090103          	lb	sp,32(s2)
     fd4:	0100                	addi	s0,sp,128
     fd6:	02090103          	lb	sp,32(s2)
     fda:	0100                	addi	s0,sp,128
     fdc:	02090103          	lb	sp,32(s2)
     fe0:	0100                	addi	s0,sp,128
     fe2:	02090103          	lb	sp,32(s2)
     fe6:	0100                	addi	s0,sp,128
     fe8:	02090103          	lb	sp,32(s2)
     fec:	0100                	addi	s0,sp,128
     fee:	02090103          	lb	sp,32(s2)
     ff2:	0100                	addi	s0,sp,128
     ff4:	02090103          	lb	sp,32(s2)
     ff8:	0100                	addi	s0,sp,128
     ffa:	02090103          	lb	sp,32(s2)
     ffe:	0100                	addi	s0,sp,128
    1000:	02090103          	lb	sp,32(s2)
    1004:	0100                	addi	s0,sp,128
    1006:	02090103          	lb	sp,32(s2)
    100a:	0100                	addi	s0,sp,128
    100c:	02090203          	lb	tp,32(s2)
    1010:	0100                	addi	s0,sp,128
    1012:	02090203          	lb	tp,32(s2)
    1016:	0100                	addi	s0,sp,128
    1018:	0409                	addi	s0,s0,2
    101a:	0000                	unimp
    101c:	0101                	addi	sp,sp,0
    101e:	005c                	addi	a5,sp,4
    1020:	0000                	unimp
    1022:	0005                	c.nop	1
    1024:	0008                	.insn	2, 0x0008
    1026:	002e                	c.slli	zero,0xb
    1028:	0000                	unimp
    102a:	0101                	addi	sp,sp,0
    102c:	fb01                	bnez	a4,f3c <__stack_align+0xf2c>
    102e:	0d0e                	slli	s10,s10,0x3
    1030:	0100                	addi	s0,sp,128
    1032:	0101                	addi	sp,sp,0
    1034:	0001                	nop
    1036:	0000                	unimp
    1038:	0001                	nop
    103a:	0100                	addi	s0,sp,128
    103c:	0101                	addi	sp,sp,0
    103e:	021f 028d 0000      	.insn	6, 0x028d021f
    1044:	037f 0000 0102 021f 	.insn	10, 0x020f021f01020000037f
    104c:	020f 
    104e:	038e                	slli	t2,t2,0x3
    1050:	0000                	unimp
    1052:	8e01                	sub	a2,a2,s0
    1054:	01000003          	lb	zero,16(zero) # 10 <__stack_align>
    1058:	0900                	addi	s0,sp,144
    105a:	ee02                	sd	zero,280(sp)
    105c:	0001                	nop
    105e:	0080                	addi	s0,sp,64
    1060:	0000                	unimp
    1062:	0300                	addi	s0,sp,384
    1064:	0110                	addi	a2,sp,128
    1066:	0a090103          	lb	sp,160(s2)
    106a:	0100                	addi	s0,sp,128
    106c:	14090603          	lb	a2,320(s2)
    1070:	0100                	addi	s0,sp,128
    1072:	0c090103          	lb	sp,192(s2)
    1076:	0100                	addi	s0,sp,128
    1078:	1409                	addi	s0,s0,-30
    107a:	0000                	unimp
    107c:	0101                	addi	sp,sp,0
    107e:	000000b3          	add	ra,zero,zero
    1082:	0005                	c.nop	1
    1084:	0008                	.insn	2, 0x0008
    1086:	0049                	c.nop	18
    1088:	0000                	unimp
    108a:	0101                	addi	sp,sp,0
    108c:	fb01                	bnez	a4,f9c <__stack_align+0xf8c>
    108e:	0d0e                	slli	s10,s10,0x3
    1090:	0100                	addi	s0,sp,128
    1092:	0101                	addi	sp,sp,0
    1094:	0001                	nop
    1096:	0000                	unimp
    1098:	0001                	nop
    109a:	0100                	addi	s0,sp,128
    109c:	0101                	addi	sp,sp,0
    109e:	051f 028d 0000      	.insn	6, 0x028d051f
    10a4:	037f 0000 00a9 0000 	.insn	10, 0x0182000000a90000037f
    10ac:	0182 
    10ae:	0000                	unimp
    10b0:	0301                	addi	t1,t1,0
    10b2:	0000                	unimp
    10b4:	0102                	c.slli64	sp
    10b6:	021f 050f 03a0      	.insn	6, 0x03a0050f021f
    10bc:	0000                	unimp
    10be:	a001                	j	10be <__stack_align+0x10ae>
    10c0:	01000003          	lb	zero,16(zero) # 10 <__stack_align>
    10c4:	0258                	addi	a4,sp,260
    10c6:	0000                	unimp
    10c8:	7202                	ld	tp,32(sp)
    10ca:	0002                	c.slli64	zero
    10cc:	0300                	addi	s0,sp,384
    10ce:	03a8                	addi	a0,sp,456
    10d0:	0000                	unimp
    10d2:	0504                	addi	s1,sp,640
    10d4:	0001                	nop
    10d6:	0209                	addi	tp,tp,2 # 2 <__boot_hart+0x2>
    10d8:	1b8a                	slli	s7,s7,0x22
    10da:	8000                	.insn	2, 0x8000
    10dc:	0000                	unimp
    10de:	0000                	unimp
    10e0:	0516                	slli	a0,a0,0x5
    10e2:	0305                	addi	t1,t1,1
    10e4:	0902                	c.slli64	s2
    10e6:	0000                	unimp
    10e8:	0501                	addi	a0,a0,0
    10ea:	0601                	addi	a2,a2,0
    10ec:	00097e03          	.insn	4, 0x00097e03
    10f0:	0100                	addi	s0,sp,128
    10f2:	0905                	addi	s2,s2,1
    10f4:	02090203          	lb	tp,32(s2)
    10f8:	0100                	addi	s0,sp,128
    10fa:	0105                	addi	sp,sp,1
    10fc:	04097e03          	.insn	4, 0x04097e03
    1100:	0100                	addi	s0,sp,128
    1102:	0905                	addi	s2,s2,1
    1104:	02090203          	lb	tp,32(s2)
    1108:	0100                	addi	s0,sp,128
    110a:	0505                	addi	a0,a0,1
    110c:	0306                	slli	t1,t1,0x1
    110e:	0902                	c.slli64	s2
    1110:	0002                	c.slli64	zero
    1112:	0501                	addi	a0,a0,0
    1114:	062a                	slli	a2,a2,0xa
    1116:	00090003          	lb	zero,0(s2)
    111a:	0100                	addi	s0,sp,128
    111c:	0200                	addi	s0,sp,256
    111e:	0104                	addi	s1,sp,128
    1120:	04090003          	lb	zero,64(s2)
    1124:	0100                	addi	s0,sp,128
    1126:	0505                	addi	a0,a0,1
    1128:	0306                	slli	t1,t1,0x1
    112a:	0901                	addi	s2,s2,0
    112c:	0004                	.insn	2, 0x0004
    112e:	0901                	addi	s2,s2,0
    1130:	0004                	.insn	2, 0x0004
    1132:	0100                	addi	s0,sp,128
    1134:	db01                	beqz	a4,1044 <__stack_align+0x1034>
    1136:	0000                	unimp
    1138:	0500                	addi	s0,sp,640
    113a:	0800                	addi	s0,sp,16
    113c:	4000                	lw	s0,0(s0)
    113e:	0000                	unimp
    1140:	0100                	addi	s0,sp,128
    1142:	0101                	addi	sp,sp,0
    1144:	000d0efb          	.insn	4, 0x000d0efb
    1148:	0101                	addi	sp,sp,0
    114a:	0101                	addi	sp,sp,0
    114c:	0000                	unimp
    114e:	0100                	addi	s0,sp,128
    1150:	0000                	unimp
    1152:	0101                	addi	sp,sp,0
    1154:	1f01                	addi	t5,t5,-32
    1156:	8d04                	.insn	2, 0x8d04
    1158:	0002                	c.slli64	zero
    115a:	7f00                	ld	s0,56(a4)
    115c:	e7000003          	lb	zero,-400(zero) # fffffffffffffe70 <__heap_end+0xffffffff7ffdce70>
    1160:	0001                	nop
    1162:	1200                	addi	s0,sp,288
    1164:	0001                	nop
    1166:	0200                	addi	s0,sp,256
    1168:	1f01                	addi	t5,t5,-32
    116a:	0f02                	c.slli64	t5
    116c:	ba04                	fsd	fs1,48(a2)
    116e:	01000003          	lb	zero,16(zero) # 10 <__stack_align>
    1172:	03ba                	slli	t2,t2,0xe
    1174:	0000                	unimp
    1176:	c001                	beqz	s0,1176 <__stack_align+0x1166>
    1178:	02000003          	lb	zero,32(zero) # 20 <__stack_align+0x10>
    117c:	0269                	addi	tp,tp,26 # 1a <__stack_align+0xa>
    117e:	0000                	unimp
    1180:	00010503          	lb	a0,0(sp)
    1184:	0209                	addi	tp,tp,2 # 2 <__boot_hart+0x2>
    1186:	1ba0                	addi	s0,sp,504
    1188:	8000                	.insn	2, 0x8000
    118a:	0000                	unimp
    118c:	0000                	unimp
    118e:	0515                	addi	a0,a0,5
    1190:	0305                	addi	t1,t1,1
    1192:	0901                	addi	s2,s2,0
    1194:	0000                	unimp
    1196:	0301                	addi	t1,t1,0
    1198:	0901                	addi	s2,s2,0
    119a:	0000                	unimp
    119c:	0301                	addi	t1,t1,0
    119e:	0901                	addi	s2,s2,0
    11a0:	0000                	unimp
    11a2:	0301                	addi	t1,t1,0
    11a4:	0901                	addi	s2,s2,0
    11a6:	0000                	unimp
    11a8:	0301                	addi	t1,t1,0
    11aa:	0901                	addi	s2,s2,0
    11ac:	0000                	unimp
    11ae:	0301                	addi	t1,t1,0
    11b0:	0902                	c.slli64	s2
    11b2:	0000                	unimp
    11b4:	0501                	addi	a0,a0,0
    11b6:	0601                	addi	a2,a2,0
    11b8:	00097903          	.insn	4, 0x00097903
    11bc:	0100                	addi	s0,sp,128
    11be:	0505                	addi	a0,a0,1
    11c0:	02090703          	lb	a4,32(s2)
    11c4:	0100                	addi	s0,sp,128
    11c6:	0105                	addi	sp,sp,1
    11c8:	0e097903          	.insn	4, 0x0e097903
    11cc:	0100                	addi	s0,sp,128
    11ce:	0505                	addi	a0,a0,1
    11d0:	04090703          	lb	a4,64(s2)
    11d4:	0100                	addi	s0,sp,128
    11d6:	0306                	slli	t1,t1,0x1
    11d8:	0901                	addi	s2,s2,0
    11da:	0006                	c.slli	zero,0x1
    11dc:	0501                	addi	a0,a0,0
    11de:	0601                	addi	a2,a2,0
    11e0:	06090103          	lb	sp,96(s2)
    11e4:	0100                	addi	s0,sp,128
    11e6:	0505                	addi	a0,a0,1
    11e8:	04097f03          	.insn	4, 0x04097f03
    11ec:	0100                	addi	s0,sp,128
    11ee:	0105                	addi	sp,sp,1
    11f0:	04090103          	lb	sp,64(s2)
    11f4:	0100                	addi	s0,sp,128
    11f6:	0505                	addi	a0,a0,1
    11f8:	00097f03          	.insn	4, 0x00097f03
    11fc:	0100                	addi	s0,sp,128
    11fe:	0105                	addi	sp,sp,1
    1200:	02090103          	lb	sp,32(s2)
    1204:	0100                	addi	s0,sp,128
    1206:	0505                	addi	a0,a0,1
    1208:	02097f03          	.insn	4, 0x02097f03
    120c:	0100                	addi	s0,sp,128
    120e:	0409                	addi	s0,s0,2
    1210:	0000                	unimp
    1212:	0101                	addi	sp,sp,0
    1214:	0066                	c.slli	zero,0x19
    1216:	0000                	unimp
    1218:	0005                	c.nop	1
    121a:	0008                	.insn	2, 0x0008
    121c:	002e                	c.slli	zero,0xb
    121e:	0000                	unimp
    1220:	0101                	addi	sp,sp,0
    1222:	fb01                	bnez	a4,1132 <__stack_align+0x1122>
    1224:	0d0e                	slli	s10,s10,0x3
    1226:	0100                	addi	s0,sp,128
    1228:	0101                	addi	sp,sp,0
    122a:	0001                	nop
    122c:	0000                	unimp
    122e:	0001                	nop
    1230:	0100                	addi	s0,sp,128
    1232:	0101                	addi	sp,sp,0
    1234:	021f 028d 0000      	.insn	6, 0x028d021f
    123a:	037f 0000 0102 021f 	.insn	10, 0x020f021f01020000037f
    1242:	020f 
    1244:	03d1                	addi	t2,t2,20
    1246:	0000                	unimp
    1248:	d101                	beqz	a0,1148 <__stack_align+0x1138>
    124a:	01000003          	lb	zero,16(zero) # 10 <__stack_align>
    124e:	0105                	addi	sp,sp,1
    1250:	0900                	addi	s0,sp,144
    1252:	d002                	sw	zero,32(sp)
    1254:	0080001b          	addiw	zero,zero,8
    1258:	0000                	unimp
    125a:	1900                	addi	s0,sp,176
    125c:	0505                	addi	a0,a0,1
    125e:	00090103          	lb	sp,0(s2)
    1262:	0100                	addi	s0,sp,128
    1264:	0905                	addi	s2,s2,1
    1266:	0200                	addi	s0,sp,256
    1268:	0104                	addi	s1,sp,128
    126a:	00090103          	lb	sp,0(s2)
    126e:	0100                	addi	s0,sp,128
    1270:	0505                	addi	a0,a0,1
    1272:	04097f03          	.insn	4, 0x04097f03
    1276:	0100                	addi	s0,sp,128
    1278:	0209                	addi	tp,tp,2 # 2 <__boot_hart+0x2>
    127a:	0000                	unimp
    127c:	0101                	addi	sp,sp,0
    127e:	01f2                	slli	gp,gp,0x1c
    1280:	0000                	unimp
    1282:	0005                	c.nop	1
    1284:	0008                	.insn	2, 0x0008
    1286:	00000053          	fadd.s	ft0,ft0,ft0,rne
    128a:	0101                	addi	sp,sp,0
    128c:	fb01                	bnez	a4,119c <__stack_align+0x118c>
    128e:	0d0e                	slli	s10,s10,0x3
    1290:	0100                	addi	s0,sp,128
    1292:	0101                	addi	sp,sp,0
    1294:	0001                	nop
    1296:	0000                	unimp
    1298:	0001                	nop
    129a:	0100                	addi	s0,sp,128
    129c:	0101                	addi	sp,sp,0
    129e:	051f 028d 0000      	.insn	6, 0x028d051f
    12a4:	037f 0000 0301 0000 	.insn	10, 0x00a9000003010000037f
    12ac:	00a9 
    12ae:	0000                	unimp
    12b0:	0182                	c.slli64	gp
    12b2:	0000                	unimp
    12b4:	0102                	c.slli64	sp
    12b6:	021f 070f 03e0      	.insn	6, 0x03e0070f021f
    12bc:	0000                	unimp
    12be:	e001                	bnez	s0,12be <__stack_align+0x12ae>
    12c0:	01000003          	lb	zero,16(zero) # 10 <__stack_align>
    12c4:	000003e7          	jalr	t2,zero # 0 <__boot_hart>
    12c8:	f002                	sd	zero,32(sp)
    12ca:	02000003          	lb	zero,32(zero) # 20 <__stack_align+0x10>
    12ce:	0258                	addi	a4,sp,260
    12d0:	0000                	unimp
    12d2:	00027203          	.insn	4, 0x00027203
    12d6:	0400                	addi	s0,sp,512
    12d8:	030c                	addi	a1,sp,384
    12da:	0000                	unimp
    12dc:	0502                	c.slli64	a0
    12de:	0001                	nop
    12e0:	0209                	addi	tp,tp,2 # 2 <__boot_hart+0x2>
    12e2:	1bd6                	slli	s7,s7,0x35
    12e4:	8000                	.insn	2, 0x8000
    12e6:	0000                	unimp
    12e8:	0000                	unimp
    12ea:	05010c03          	lb	s8,80(sp)
    12ee:	0305                	addi	t1,t1,1
    12f0:	0901                	addi	s2,s2,0
    12f2:	0000                	unimp
    12f4:	0301                	addi	t1,t1,0
    12f6:	0901                	addi	s2,s2,0
    12f8:	0000                	unimp
    12fa:	0301                	addi	t1,t1,0
    12fc:	0902                	c.slli64	s2
    12fe:	0000                	unimp
    1300:	0501                	addi	a0,a0,0
    1302:	0601                	addi	a2,a2,0
    1304:	00097c03          	.insn	4, 0x00097c03
    1308:	0100                	addi	s0,sp,128
    130a:	0c05                	addi	s8,s8,1
    130c:	02090403          	lb	s0,32(s2)
    1310:	0100                	addi	s0,sp,128
    1312:	0505                	addi	a0,a0,1
    1314:	0306                	slli	t1,t1,0x1
    1316:	0901                	addi	s2,s2,0
    1318:	0002                	c.slli64	zero
    131a:	0501                	addi	a0,a0,0
    131c:	060c                	addi	a1,sp,768
    131e:	00090003          	lb	zero,0(s2)
    1322:	0100                	addi	s0,sp,128
    1324:	0505                	addi	a0,a0,1
    1326:	0306                	slli	t1,t1,0x1
    1328:	0901                	addi	s2,s2,0
    132a:	0002                	c.slli64	zero
    132c:	0501                	addi	a0,a0,0
    132e:	0608                	addi	a0,sp,768
    1330:	00090303          	lb	t1,0(s2)
    1334:	0100                	addi	s0,sp,128
    1336:	0c05                	addi	s8,s8,1
    1338:	04097d03          	.insn	4, 0x04097d03
    133c:	0100                	addi	s0,sp,128
    133e:	0505                	addi	a0,a0,1
    1340:	0306                	slli	t1,t1,0x1
    1342:	0901                	addi	s2,s2,0
    1344:	0002                	c.slli64	zero
    1346:	0501                	addi	a0,a0,0
    1348:	0608                	addi	a0,sp,768
    134a:	00090203          	lb	tp,0(s2)
    134e:	0100                	addi	s0,sp,128
    1350:	0c05                	addi	s8,s8,1
    1352:	02097e03          	.insn	4, 0x02097e03
    1356:	0100                	addi	s0,sp,128
    1358:	0505                	addi	a0,a0,1
    135a:	0306                	slli	t1,t1,0x1
    135c:	0902                	c.slli64	s2
    135e:	0002                	c.slli64	zero
    1360:	0501                	addi	a0,a0,0
    1362:	0608                	addi	a0,sp,768
    1364:	00090003          	lb	zero,0(s2)
    1368:	0100                	addi	s0,sp,128
    136a:	0505                	addi	a0,a0,1
    136c:	0306                	slli	t1,t1,0x1
    136e:	0901                	addi	s2,s2,0
    1370:	0004                	.insn	2, 0x0004
    1372:	0401                	addi	s0,s0,0
    1374:	0602                	c.slli64	a2
    1376:	04091503          	lh	a0,64(s2)
    137a:	0100                	addi	s0,sp,128
    137c:	0304                	addi	s1,sp,384
    137e:	1005                	c.nop	-31
    1380:	0200                	addi	s0,sp,256
    1382:	0104                	addi	s1,sp,128
    1384:	0306                	slli	t1,t1,0x1
    1386:	0964                	addi	s1,sp,156
    1388:	0002                	c.slli64	zero
    138a:	0401                	addi	s0,s0,0
    138c:	0502                	c.slli64	a0
    138e:	0305                	addi	t1,t1,1
    1390:	0910                	addi	a2,sp,144
    1392:	0000                	unimp
    1394:	0501                	addi	a0,a0,0
    1396:	060c                	addi	a1,sp,768
    1398:	00090003          	lb	zero,0(s2)
    139c:	0100                	addi	s0,sp,128
    139e:	0304                	addi	s1,sp,384
    13a0:	1005                	c.nop	-31
    13a2:	0200                	addi	s0,sp,256
    13a4:	0104                	addi	s1,sp,128
    13a6:	02097003          	.insn	4, 0x02097003
    13aa:	0100                	addi	s0,sp,128
    13ac:	0e05                	addi	t3,t3,1
    13ae:	0306                	slli	t1,t1,0x1
    13b0:	0902                	c.slli64	s2
    13b2:	0002                	c.slli64	zero
    13b4:	0401                	addi	s0,s0,0
    13b6:	0502                	c.slli64	a0
    13b8:	0305                	addi	t1,t1,1
    13ba:	0918                	addi	a4,sp,144
    13bc:	0000                	unimp
    13be:	0301                	addi	t1,t1,0
    13c0:	0902                	c.slli64	s2
    13c2:	0000                	unimp
    13c4:	0301                	addi	t1,t1,0
    13c6:	090d                	addi	s2,s2,3
    13c8:	0004                	.insn	2, 0x0004
    13ca:	0401                	addi	s0,s0,0
    13cc:	000e0503          	lb	a0,0(t3)
    13d0:	0402                	c.slli64	s0
    13d2:	0601                	addi	a2,a2,0
    13d4:	00095903          	lhu	s2,0(s2)
    13d8:	0100                	addi	s0,sp,128
    13da:	0104                	addi	s1,sp,128
    13dc:	0505                	addi	a0,a0,1
    13de:	0306                	slli	t1,t1,0x1
    13e0:	0906                	slli	s2,s2,0x1
    13e2:	0002                	c.slli64	zero
    13e4:	0401                	addi	s0,s0,0
    13e6:	0502                	c.slli64	a0
    13e8:	0320                	addi	s0,sp,392
    13ea:	097e                	slli	s2,s2,0x1f
    13ec:	0000                	unimp
    13ee:	0401                	addi	s0,s0,0
    13f0:	0501                	addi	a0,a0,0
    13f2:	0305                	addi	t1,t1,1
    13f4:	00040903          	lb	s2,0(s0)
    13f8:	0501                	addi	a0,a0,0
    13fa:	060c                	addi	a1,sp,768
    13fc:	00090003          	lb	zero,0(s2)
    1400:	0100                	addi	s0,sp,128
    1402:	0505                	addi	a0,a0,1
    1404:	0306                	slli	t1,t1,0x1
    1406:	0901                	addi	s2,s2,0
    1408:	000a                	c.slli	zero,0x2
    140a:	0501                	addi	a0,a0,0
    140c:	0015                	c.nop	5
    140e:	0402                	c.slli64	s0
    1410:	0301                	addi	t1,t1,0
    1412:	0900                	addi	s0,sp,144
    1414:	0000                	unimp
    1416:	0501                	addi	a0,a0,0
    1418:	0305                	addi	t1,t1,1
    141a:	0901                	addi	s2,s2,0
    141c:	0004                	.insn	2, 0x0004
    141e:	0501                	addi	a0,a0,0
    1420:	060e                	slli	a2,a2,0x3
    1422:	00090003          	lb	zero,0(s2)
    1426:	0100                	addi	s0,sp,128
    1428:	0505                	addi	a0,a0,1
    142a:	0306                	slli	t1,t1,0x1
    142c:	0901                	addi	s2,s2,0
    142e:	0008                	.insn	2, 0x0008
    1430:	0401                	addi	s0,s0,0
    1432:	097b0303          	lb	t1,151(s6)
    1436:	0000                	unimp
    1438:	0401                	addi	s0,s0,0
    143a:	0302                	c.slli64	t1
    143c:	0928                	addi	a0,sp,152
    143e:	0000                	unimp
    1440:	0401                	addi	s0,s0,0
    1442:	0301                	addi	t1,t1,0
    1444:	095f 0004 0401      	.insn	6, 0x04010004095f
    144a:	0502                	c.slli64	a0
    144c:	0320                	addi	s0,sp,392
    144e:	00000977          	.insn	4, 0x0977
    1452:	0401                	addi	s0,s0,0
    1454:	0501                	addi	a0,a0,0
    1456:	0305                	addi	t1,t1,1
    1458:	090a                	slli	s2,s2,0x2
    145a:	0004                	.insn	2, 0x0004
    145c:	0501                	addi	a0,a0,0
    145e:	0003060f          	.insn	4, 0x0003060f
    1462:	0009                	c.nop	2
    1464:	0100                	addi	s0,sp,128
    1466:	0105                	addi	sp,sp,1
    1468:	02090103          	lb	sp,32(s2)
    146c:	0100                	addi	s0,sp,128
    146e:	0409                	addi	s0,s0,2
    1470:	0000                	unimp
    1472:	0101                	addi	sp,sp,0

Disassembly of section .debug_str:

0000000000000000 <.debug_str>:
   0:	5f5f 6975 746e      	.insn	6, 0x746e69755f5f
   6:	5f38                	lw	a4,120(a4)
   8:	0074                	addi	a3,sp,12
   a:	6572                	ld	a0,280(sp)
   c:	5f71                	li	t5,-4
   e:	6174                	ld	a3,192(a0)
  10:	5f5f0067          	jr	1525(t5)
  14:	6975                	lui	s2,0x1d
  16:	746e                	ld	s0,248(sp)
  18:	7470                	ld	a2,232(s0)
  1a:	5f72                	lw	t5,60(sp)
  1c:	0074                	addi	a3,sp,12
  1e:	74697277          	.insn	4, 0x74697277
  22:	5f65                	li	t5,-7
  24:	74636573          	csrrsi	a0,0x746,6
  28:	7300726f          	jal	tp,7758 <__stack_size_min+0x1758>
  2c:	6f68                	ld	a0,216(a4)
  2e:	7472                	ld	s0,312(sp)
  30:	7520                	ld	s0,104(a0)
  32:	736e                	ld	t1,248(sp)
  34:	6769                	lui	a4,0x1a
  36:	656e                	ld	a0,216(sp)
  38:	2064                	fld	fs1,192(s0)
  3a:	6e69                	lui	t3,0x1a
  3c:	0074                	addi	a3,sp,12
  3e:	6361                	lui	t1,0x18
  40:	7574                	ld	a3,232(a0)
  42:	6c61                	lui	s8,0x18
  44:	6300                	ld	s0,0(a4)
  46:	6568                	ld	a0,200(a0)
  48:	735f6b63          	bltu	t5,s5,77e <__stack_align+0x76e>
  4c:	6365                	lui	t1,0x19
  4e:	6f74                	ld	a3,216(a4)
  50:	0072                	c.slli	zero,0x1c
  52:	6164                	ld	s1,192(a0)
  54:	6174                	ld	a3,192(a0)
  56:	7500                	ld	s0,40(a0)
  58:	736e                	ld	t1,248(sp)
  5a:	6769                	lui	a4,0x1a
  5c:	656e                	ld	a0,216(sp)
  5e:	2064                	fld	fs1,192(s0)
  60:	72616863          	bltu	sp,t1,790 <__stack_align+0x780>
  64:	6200                	ld	s0,0(a2)
  66:	6b6c                	ld	a1,208(a4)
  68:	6564                	ld	s1,200(a0)
  6a:	5f76                	lw	t5,124(sp)
  6c:	646e6573          	csrrsi	a0,hviprio1,28
  70:	725f 7165 6575      	.insn	6, 0x65757165725f
  76:	65007473          	csrrci	s0,0x650,0
  7a:	7078                	ld	a4,224(s0)
  7c:	6365                	lui	t1,0x19
  7e:	6574                	ld	a3,200(a0)
  80:	0064                	addi	s1,sp,12
  82:	6461                	lui	s0,0x18
  84:	7264                	ld	s1,224(a2)
  86:	5f00                	lw	s0,56(a4)
  88:	755f 6e69 3374      	.insn	6, 0x33746e69755f
  8e:	5f32                	lw	t5,44(sp)
  90:	0074                	addi	a3,sp,12
  92:	6c62                	ld	s8,24(sp)
  94:	7665646b          	.insn	4, 0x7665646b
  98:	6e5f 6573 7463      	.insn	6, 0x746365736e5f
  9e:	0073726f          	jal	tp,378a4 <__heap_size+0x178a4>
  a2:	6572                	ld	a0,280(sp)
  a4:	72775f67          	.insn	4, 0x72775f67
  a8:	7469                	lui	s0,0xffffa
  aa:	3365                	addiw	t1,t1,-7 # 18ff9 <__stack_size+0x10ff9>
  ac:	0032                	c.slli	zero,0xc
  ae:	6572                	ld	a0,280(sp)
  b0:	72775f67          	.insn	4, 0x72775f67
  b4:	7469                	lui	s0,0xffffa
  b6:	3865                	addiw	a6,a6,-7
  b8:	6c00                	ld	s0,24(s0)
  ba:	20676e6f          	jal	t3,762c0 <__heap_size+0x562c0>
  be:	6f6c                	ld	a1,216(a4)
  c0:	676e                	ld	a4,216(sp)
  c2:	7520                	ld	s0,104(a0)
  c4:	736e                	ld	t1,248(sp)
  c6:	6769                	lui	a4,0x1a
  c8:	656e                	ld	a0,216(sp)
  ca:	2064                	fld	fs1,192(s0)
  cc:	6e69                	lui	t3,0x1a
  ce:	0074                	addi	a3,sp,12
  d0:	74636573          	csrrsi	a0,0x746,6
  d4:	625f726f          	jal	tp,f7ef8 <__heap_size+0xd7ef8>
  d8:	6675                	lui	a2,0x1d
  da:	6c00                	ld	s0,24(s0)
  dc:	20676e6f          	jal	t3,762e2 <__heap_size+0x562e2>
  e0:	6f6c                	ld	a1,216(a4)
  e2:	676e                	ld	a4,216(sp)
  e4:	6920                	ld	s0,80(a0)
  e6:	746e                	ld	s0,248(sp)
  e8:	7200                	ld	s0,32(a2)
  ea:	6765                	lui	a4,0x19
  ec:	775f 6972 6574      	.insn	6, 0x65746972775f
  f2:	3436                	fld	fs0,360(sp)
  f4:	4700                	lw	s0,8(a4)
  f6:	554e                	lw	a0,240(sp)
  f8:	4320                	lw	s0,64(a4)
  fa:	3939                	addiw	s2,s2,-18 # 1cfee <__stack_size+0x14fee>
  fc:	3120                	fld	fs0,96(a0)
  fe:	2e322e33          	.insn	4, 0x2e322e33
 102:	2030                	fld	fa2,64(s0)
 104:	6d2d                	lui	s10,0xb
 106:	646f6d63          	bltu	t5,t1,760 <__stack_align+0x750>
 10a:	6c65                	lui	s8,0x19
 10c:	6d3d                	lui	s10,0xf
 10e:	6465                	lui	s0,0x19
 110:	6e61                	lui	t3,0x18
 112:	2079                	.insn	2, 0x2079
 114:	6d2d                	lui	s10,0xb
 116:	6261                	lui	tp,0x18
 118:	3d69                	addiw	s10,s10,-6 # affa <__stack_size+0x2ffa>
 11a:	706c                	ld	a1,224(s0)
 11c:	3436                	fld	fs0,360(sp)
 11e:	2064                	fld	fs1,192(s0)
 120:	6d2d                	lui	s10,0xb
 122:	646f6d63          	bltu	t5,t1,77c <__stack_align+0x76c>
 126:	6c65                	lui	s8,0x19
 128:	6d3d                	lui	s10,0xf
 12a:	6465                	lui	s0,0x19
 12c:	6e61                	lui	t3,0x18
 12e:	2079                	.insn	2, 0x2079
 130:	6d2d                	lui	s10,0xb
 132:	7574                	ld	a3,232(a0)
 134:	656e                	ld	a0,216(sp)
 136:	723d                	lui	tp,0xfffef
 138:	656b636f          	jal	t1,b678e <__heap_size+0x9678e>
 13c:	2074                	fld	fa3,192(s0)
 13e:	6d2d                	lui	s10,0xb
 140:	7369                	lui	t1,0xffffa
 142:	2d61                	addiw	s10,s10,24 # b018 <__stack_size+0x3018>
 144:	63657073          	csrci	0x636,10
 148:	323d                	addiw	tp,tp,-17 # fffffffffffeefef <__heap_end+0xffffffff7ffcbfef>
 14a:	3130                	fld	fa2,96(a0)
 14c:	3139                	addiw	sp,sp,-18
 14e:	3132                	fld	ft2,296(sp)
 150:	6d2d2033          	.insn	4, 0x6d2d2033
 154:	7261                	lui	tp,0xffff8
 156:	723d6863          	bltu	s10,gp,886 <__stack_align+0x876>
 15a:	3676                	fld	fa2,376(sp)
 15c:	6934                	ld	a3,80(a0)
 15e:	616d                	addi	sp,sp,240
 160:	6466                	ld	s0,88(sp)
 162:	7a5f 6369 7273      	.insn	6, 0x727363697a5f
 168:	2d20                	fld	fs0,88(a0)
 16a:	4f2d2067          	.insn	4, 0x4f2d2067
 16e:	2032                	fld	ft0,264(sp)
 170:	732d                	lui	t1,0xfffeb
 172:	6474                	ld	a3,200(s0)
 174:	673d                	lui	a4,0xf
 176:	756e                	ld	a0,248(sp)
 178:	3939                	addiw	s2,s2,-18
 17a:	2d20                	fld	fs0,88(a0)
 17c:	6e66                	ld	t3,88(sp)
 17e:	6f632d6f          	jal	s10,32874 <__heap_size+0x12874>
 182:	6d6d                	lui	s10,0x1b
 184:	2d206e6f          	jal	t3,6456 <__stack_size_min+0x456>
 188:	6e66                	ld	t3,88(sp)
 18a:	75622d6f          	jal	s10,228e0 <__heap_size+0x28e0>
 18e:	6c69                	lui	s8,0x1a
 190:	6974                	ld	a3,208(a0)
 192:	2d6e                	fld	fs10,216(sp)
 194:	7270                	ld	a2,224(a2)
 196:	6e69                	lui	t3,0x1a
 198:	6674                	ld	a3,200(a2)
 19a:	7300                	ld	s0,32(a4)
 19c:	6f68                	ld	a0,216(a4)
 19e:	7472                	ld	s0,312(sp)
 1a0:	6920                	ld	s0,80(a0)
 1a2:	746e                	ld	s0,248(sp)
 1a4:	5f00                	lw	s0,56(a4)
 1a6:	755f 6e69 3674      	.insn	6, 0x36746e69755f
 1ac:	5f34                	lw	a3,120(a4)
 1ae:	0074                	addi	a3,sp,12
 1b0:	6e636573          	csrrsi	a0,0x6e6,6
 1b4:	6d75                	lui	s10,0x1d
 1b6:	7200                	ld	s0,32(a2)
 1b8:	7365                	lui	t1,0xffff9
 1ba:	5f70                	lw	a2,124(a4)
 1bc:	6174                	ld	a3,192(a0)
 1be:	74730067          	jr	1863(t1) # ffffffffffff9747 <__heap_end+0xffffffff7ffd6747>
 1c2:	6972                	ld	s2,280(sp)
 1c4:	6564                	ld	s1,200(a0)
 1c6:	7200                	ld	s0,32(a2)
 1c8:	6765                	lui	a4,0x19
 1ca:	725f 6165 3364      	.insn	6, 0x33646165725f
 1d0:	0032                	c.slli	zero,0xc
 1d2:	6572                	ld	a0,280(sp)
 1d4:	65725f67          	.insn	4, 0x65725f67
 1d8:	6461                	lui	s0,0x18
 1da:	0038                	addi	a4,sp,8
 1dc:	635f 6f6c 6573      	.insn	6, 0x65736f6c635f
 1e2:	6600                	ld	s0,8(a2)
 1e4:	6c69                	lui	s8,0x1a
 1e6:	0065                	c.nop	25
 1e8:	20554e47          	fmsub.s	ft8,fa0,ft5,ft4,rmm
 1ec:	20313143          	fmadd.s	ft2,ft2,ft3,ft4,rup
 1f0:	3331                	addiw	t1,t1,-20
 1f2:	322e                	fld	ft4,232(sp)
 1f4:	302e                	fld	ft0,232(sp)
 1f6:	2d20                	fld	fs0,88(a0)
 1f8:	636d                	lui	t1,0x1b
 1fa:	6f6d                	lui	t5,0x1b
 1fc:	6564                	ld	s1,200(a0)
 1fe:	3d6c                	fld	fa1,248(a0)
 200:	656d                	lui	a0,0x1b
 202:	6164                	ld	s1,192(a0)
 204:	796e                	ld	s2,248(sp)
 206:	2d20                	fld	fs0,88(a0)
 208:	746d                	lui	s0,0xffffb
 20a:	6e75                	lui	t3,0x1d
 20c:	3d65                	addiw	s10,s10,-7 # 1cff9 <__stack_size+0x14ff9>
 20e:	6f72                	ld	t5,280(sp)
 210:	74656b63          	bltu	a0,t1,966 <__stack_align+0x956>
 214:	2d20                	fld	fs0,88(a0)
 216:	616d                	addi	sp,sp,240
 218:	6962                	ld	s2,24(sp)
 21a:	6c3d                	lui	s8,0xf
 21c:	3670                	fld	fa2,232(a2)
 21e:	6434                	ld	a3,72(s0)
 220:	2d20                	fld	fs0,88(a0)
 222:	696d                	lui	s2,0x1b
 224:	732d6173          	csrrsi	sp,mhpmevent18h,26
 228:	6570                	ld	a2,200(a0)
 22a:	30323d63          	.insn	4, 0x30323d63
 22e:	3931                	addiw	s2,s2,-20 # 1afec <__stack_size+0x12fec>
 230:	3231                	addiw	tp,tp,-20 # ffffffffffff7fec <__heap_end+0xffffffff7ffd4fec>
 232:	3331                	addiw	t1,t1,-20 # 1afec <__stack_size+0x12fec>
 234:	2d20                	fld	fs0,88(a0)
 236:	616d                	addi	sp,sp,240
 238:	6372                	ld	t1,280(sp)
 23a:	3d68                	fld	fa0,248(a0)
 23c:	7672                	ld	a2,312(sp)
 23e:	3436                	fld	fs0,360(sp)
 240:	6d69                	lui	s10,0x1a
 242:	6661                	lui	a2,0x18
 244:	6364                	ld	s1,192(a4)
 246:	7a5f 6369 7273      	.insn	6, 0x727363697a5f
 24c:	2d20                	fld	fs0,88(a0)
 24e:	4f2d2067          	.insn	4, 0x4f2d2067
 252:	2032                	fld	ft0,264(sp)
 254:	732d                	lui	t1,0xfffeb
 256:	6474                	ld	a3,200(s0)
 258:	633d                	lui	t1,0xf
 25a:	3131                	addiw	sp,sp,-20
 25c:	2d20                	fld	fs0,88(a0)
 25e:	6e66                	ld	t3,88(sp)
 260:	6f632d6f          	jal	s10,32956 <__heap_size+0x12956>
 264:	6d6d                	lui	s10,0x1b
 266:	2d206e6f          	jal	t3,6538 <__stack_size_min+0x538>
 26a:	6e66                	ld	t3,88(sp)
 26c:	75622d6f          	jal	s10,229c2 <__heap_size+0x29c2>
 270:	6c69                	lui	s8,0x1a
 272:	6974                	ld	a3,208(a0)
 274:	006e                	c.slli	zero,0x1b
 276:	5f5f 7265 6e72      	.insn	6, 0x6e7272655f5f
 27c:	6f6c006f          	j	c0972 <__heap_size+0xa0972>
 280:	676e                	ld	a4,216(sp)
 282:	6420                	ld	s0,72(s0)
 284:	6c62756f          	jal	a0,2794a <__heap_size+0x794a>
 288:	0065                	c.nop	25
 28a:	6f74                	ld	a3,216(a4)
 28c:	6f68                	ld	a0,216(a4)
 28e:	5f007473          	csrrci	s0,0x5f0,0
 292:	7865                	lui	a6,0xffff9
 294:	7469                	lui	s0,0xffffa
 296:	6600                	ld	s0,8(a2)
 298:	6f72                	ld	t5,280(sp)
 29a:	686d                	lui	a6,0x1b
 29c:	0074736f          	jal	t1,47aa2 <__heap_size+0x27aa2>
 2a0:	65646f63          	bltu	s0,s6,8fe <__stack_align+0x8ee>
 2a4:	5f00                	lw	s0,56(a4)
 2a6:	755f 6469 745f      	.insn	6, 0x745f6469755f
 2ac:	7300                	ld	s0,32(a4)
 2ae:	5f74                	lw	a3,124(a4)
 2b0:	6c6e                	ld	s8,216(sp)
 2b2:	6e69                	lui	t3,0x1a
 2b4:	7674006b          	.insn	4, 0x7674006b
 2b8:	6e5f 6573 0063      	.insn	6, 0x006365736e5f
 2be:	735f7473          	csrrci	s0,mhpmevent21h,30
 2c2:	7a69                	lui	s4,0xffffa
 2c4:	0065                	c.nop	25
 2c6:	6d5f7473          	csrrci	s0,0x6d5,30
 2ca:	6974                	ld	a3,208(a0)
 2cc:	006d                	c.nop	27
 2ce:	695f7473          	csrrci	s0,0x695,30
 2d2:	6f6e                	ld	t5,216(sp)
 2d4:	7300                	ld	s0,32(a4)
 2d6:	5f74                	lw	a3,124(a4)
 2d8:	6c62                	ld	s8,24(sp)
 2da:	7a69736b          	.insn	4, 0x7a69736b
 2de:	0065                	c.nop	25
 2e0:	735f7473          	csrrci	s0,mhpmevent21h,30
 2e4:	6170                	ld	a2,192(a0)
 2e6:	6572                	ld	a0,280(sp)
 2e8:	0034                	addi	a3,sp,8
 2ea:	5f5f 6564 5f76      	.insn	6, 0x5f7665645f5f
 2f0:	0074                	addi	a3,sp,12
 2f2:	625f7473          	csrrci	s0,0x625,30
 2f6:	6f6c                	ld	a1,216(a4)
 2f8:	00736b63          	bltu	t1,t2,30e <__stack_align+0x2fe>
 2fc:	6d5f7473          	csrrci	s0,0x6d5,30
 300:	0065646f          	jal	s0,56306 <__heap_size+0x36306>
 304:	615f7473          	csrrci	s0,htimedeltah,30
 308:	6974                	ld	a3,208(a0)
 30a:	006d                	c.nop	27
 30c:	6974                	ld	a3,208(a0)
 30e:	656d                	lui	a0,0x1b
 310:	745f 5f00 6e5f      	.insn	6, 0x6e5f5f00745f
 316:	696c                	ld	a1,208(a0)
 318:	6b6e                	ld	s6,216(sp)
 31a:	745f 7300 5f74      	.insn	6, 0x5f747300745f
 320:	6472                	ld	s0,280(sp)
 322:	7665                	lui	a2,0xffff9
 324:	5f00                	lw	s0,56(a4)
 326:	625f 6b6c 6973      	.insn	6, 0x69736b6c625f
 32c:	657a                	ld	a0,408(sp)
 32e:	745f 5f00 625f      	.insn	6, 0x625f5f00745f
 334:	6b6c                	ld	a1,208(a4)
 336:	5f746e63          	bltu	s0,s7,932 <__stack_align+0x922>
 33a:	0074                	addi	a3,sp,12
 33c:	635f7473          	csrrci	s0,0x635,30
 340:	6974                	ld	a3,208(a0)
 342:	006d                	c.nop	27
 344:	755f7473          	csrrci	s0,0x755,30
 348:	6469                	lui	s0,0x1a
 34a:	5f00                	lw	s0,56(a4)
 34c:	675f 6469 745f      	.insn	6, 0x745f6469675f
 352:	5f00                	lw	s0,56(a4)
 354:	6f5f 6666 745f      	.insn	6, 0x745f66666f5f
 35a:	7400                	ld	s0,40(s0)
 35c:	5f76                	lw	t5,124(sp)
 35e:	00636573          	csrrsi	a0,0x6,6
 362:	6974                	ld	a3,208(a0)
 364:	656d                	lui	a0,0x1b
 366:	63657073          	csrci	0x636,10
 36a:	5f00                	lw	s0,56(a4)
 36c:	7366                	ld	t1,120(sp)
 36e:	6174                	ld	a3,192(a0)
 370:	0074                	addi	a3,sp,12
 372:	5f5f 6f6d 6564      	.insn	6, 0x65646f6d5f5f
 378:	745f 5f00 695f      	.insn	6, 0x695f5f00745f
 37e:	6f6e                	ld	t5,216(sp)
 380:	745f 7300 5f74      	.insn	6, 0x5f747300745f
 386:	6564                	ld	s1,200(a0)
 388:	0076                	c.slli	zero,0x1d
 38a:	675f7473          	csrrci	s0,0x675,30
 38e:	6469                	lui	s0,0x1a
 390:	5f00                	lw	s0,56(a4)
 392:	7369                	lui	t1,0xffffa
 394:	7461                	lui	s0,0xffff8
 396:	7974                	ld	a3,240(a0)
 398:	5f00                	lw	s0,56(a4)
 39a:	736c                	ld	a1,224(a4)
 39c:	6565                	lui	a0,0x19
 39e:	725f006b          	.insn	4, 0x725f006b
 3a2:	6165                	addi	sp,sp,112
 3a4:	0064                	addi	s1,sp,12
 3a6:	735f 6973 657a      	.insn	6, 0x657a6973735f
 3ac:	745f 7000 7274      	.insn	6, 0x72747000745f
 3b2:	6964                	ld	s1,208(a0)
 3b4:	6666                	ld	a2,88(sp)
 3b6:	745f 5f00 685f      	.insn	6, 0x685f5f00745f
 3bc:	6165                	addi	sp,sp,112
 3be:	5f70                	lw	a2,124(a4)
 3c0:	6e65                	lui	t3,0x19
 3c2:	0064                	addi	s1,sp,12
 3c4:	62727563          	bgeu	tp,t2,9ee <__stack_align+0x9de>
 3c8:	6b72                	ld	s6,280(sp)
 3ca:	5f00                	lw	s0,56(a4)
 3cc:	6b726273          	csrrsi	tp,0x6b7,4
 3d0:	6900                	ld	s0,16(a0)
 3d2:	636e                	ld	t1,216(sp)
 3d4:	0072                	c.slli	zero,0x1c
 3d6:	62646c6f          	jal	s8,469fc <__heap_size+0x269fc>
 3da:	6b72                	ld	s6,280(sp)
 3dc:	6e00                	ld	s0,24(a2)
 3de:	7765                	lui	a4,0xffff9
 3e0:	7262                	ld	tp,56(sp)
 3e2:	7468006b          	.insn	4, 0x7468006b
 3e6:	6669                	lui	a2,0x1a
 3e8:	735f 7379 6163      	.insn	6, 0x61637379735f
 3ee:	6c6c                	ld	a1,216(s0)
 3f0:	5f00                	lw	s0,56(a4)
 3f2:	74697277          	.insn	4, 0x74697277
 3f6:	0065                	c.nop	25
 3f8:	2e2e                	fld	ft8,200(sp)
 3fa:	73696d2f          	.insn	4, 0x73696d2f
 3fe:	72632f63          	.insn	4, 0x72632f63
 402:	3074                	fld	fa3,224(s0)
 404:	532e                	lw	t1,232(sp)
 406:	2f00                	fld	fs0,24(a4)
 408:	6f68                	ld	a0,216(a4)
 40a:	656d                	lui	a0,0x1b
 40c:	6172662f          	.insn	4, 0x6172662f
 410:	6b6e                	ld	s6,216(sp)
 412:	7365682f          	.insn	4, 0x7365682f
 416:	2f6c                	fld	fa1,216(a4)
 418:	6574                	ld	a3,200(a0)
 41a:	725f7473          	csrrci	s0,mhpmevent5h,30
 41e:	7369                	lui	t1,0xffffa
 420:	632f7663          	bgeu	t5,s2,a4c <__stack_align+0xa3c>
 424:	6968                	ld	a0,208(a0)
 426:	7970                	ld	a2,240(a0)
 428:	7261                	lui	tp,0xffff8
 42a:	2f64                	fld	fs1,216(a4)
 42c:	70696863          	bltu	s2,t1,b3c <__stack_align+0xb2c>
 430:	6179                	addi	sp,sp,464
 432:	6472                	ld	s0,280(sp)
 434:	6f6f742f          	.insn	4, 0x6f6f742f
 438:	636c                	ld	a1,192(a4)
 43a:	6168                	ld	a0,192(a0)
 43c:	6e69                	lui	t3,0x1a
 43e:	696c2f73          	csrrs	t5,0x696,s8
 442:	6762                	ld	a4,24(sp)
 444:	6f6c                	ld	a1,216(a4)
 446:	622f7373          	csrrci	t1,0x622,30
 44a:	6975                	lui	s2,0x1d
 44c:	646c                	ld	a1,200(s0)
 44e:	4700                	lw	s0,8(a4)
 450:	554e                	lw	a0,240(sp)
 452:	4120                	lw	s0,64(a0)
 454:	2e322053          	.insn	4, 0x2e322053
 458:	3234                	fld	fa3,96(a2)
 45a:	2e00                	fld	fs0,24(a2)
 45c:	2f2e                	fld	ft10,200(sp)
 45e:	696d                	lui	s2,0x1b
 460:	632f6373          	csrrsi	t1,0x632,30
 464:	7472                	ld	s0,312(sp)
 466:	616d                	addi	sp,sp,240
 468:	6e69                	lui	t3,0x1a
 46a:	532e                	lw	t1,232(sp)
 46c:	6800                	ld	s0,16(s0)
 46e:	6e61                	lui	t3,0x18
 470:	6c64                	ld	s1,216(s0)
 472:	5f65                	li	t5,-7
 474:	7274                	ld	a3,224(a2)
 476:	7061                	c.lui	zero,0xffff8
 478:	6300                	ld	s0,0(a4)
 47a:	7561                	lui	a0,0xffff8
 47c:	5f006573          	csrrsi	a0,0x5f0,0
 480:	695f 746e 7470      	.insn	6, 0x7470746e695f
 486:	5f72                	lw	t5,60(sp)
 488:	0074                	addi	a3,sp,12
 48a:	6572                	ld	a0,280(sp)
 48c:	74007367          	.insn	4, 0x74007367
 490:	6176                	ld	sp,344(sp)
 492:	006c                	addi	a1,sp,12
 494:	5f5f 6e69 7469      	.insn	6, 0x74696e695f5f
 49a:	745f 736c 5f00      	.insn	6, 0x5f00736c745f
 4a0:	745f 6164 6174      	.insn	6, 0x61746164745f
 4a6:	735f 7a69 0065      	.insn	6, 0x00657a69735f
 4ac:	5f5f 6274 7373      	.insn	6, 0x737362745f5f
 4b2:	6f5f 6666 6573      	.insn	6, 0x657366666f5f
 4b8:	0074                	addi	a3,sp,12
 4ba:	5f5f 6874 6572      	.insn	6, 0x657268745f5f
 4c0:	6461                	lui	s0,0x18
 4c2:	735f 6c65 0066      	.insn	6, 0x00666c65735f
 4c8:	5f5f 6274 7373      	.insn	6, 0x737362745f5f
 4ce:	735f 7a69 0065      	.insn	6, 0x00657a69735f
 4d4:	656d                	lui	a0,0x1b
 4d6:	636d                	lui	t1,0x1b
 4d8:	7970                	ld	a2,240(a0)
 4da:	5f00                	lw	s0,56(a4)
 4dc:	745f 6164 6174      	.insn	6, 0x61746164745f
 4e2:	735f 6174 7472      	.insn	6, 0x74726174735f
 4e8:	6d00                	ld	s0,24(a0)
 4ea:	6d65                	lui	s10,0x19
 4ec:	00746573          	csrrsi	a0,0x7,8
 4f0:	5f5f 616d 6e69      	.insn	6, 0x6e69616d5f5f
 4f6:	7300                	ld	s0,32(a4)
 4f8:	6970                	ld	a2,208(a0)
 4fa:	6c6e                	ld	s8,216(sp)
 4fc:	5f6b636f          	jal	t1,b6af2 <__heap_size+0x96af2>
 500:	0074                	addi	a3,sp,12
 502:	5f5f 6e69 3374      	.insn	6, 0x33746e695f5f
 508:	5f32                	lw	t5,44(sp)
 50a:	0074                	addi	a3,sp,12
 50c:	7468                	ld	a0,232(s0)
 50e:	6669                	lui	a2,0x1a
 510:	6c5f 636f 006b      	.insn	6, 0x006b636f6c5f
 516:	7461                	lui	s0,0xffff8
 518:	63696d6f          	jal	s10,96b4e <__heap_size+0x76b4e>
 51c:	735f 6177 5f70      	.insn	6, 0x5f706177735f
 522:	6361                	lui	t1,0x18
 524:	7571                	lui	a0,0xffffc
 526:	7269                	lui	tp,0xffffa
 528:	0065                	c.nop	25
 52a:	7461                	lui	s0,0xffff8
 52c:	63696d6f          	jal	s10,96b62 <__heap_size+0x76b62>
 530:	745f 6100 6f74      	.insn	6, 0x6f746100745f
 536:	696d                	lui	s2,0x1b
 538:	6f6c5f63          	bge	s8,s6,c36 <__stack_align+0xc26>
 53c:	6461                	lui	s0,0x18
 53e:	7300                	ld	s0,32(a4)
 540:	6970                	ld	a2,208(a0)
 542:	5f6e                	lw	t5,248(sp)
 544:	6f6c                	ld	a1,216(a4)
 546:	73006b63          	bltu	zero,a6,c7c <__stack_align+0xc6c>
 54a:	6970                	ld	a2,208(a0)
 54c:	5f6e                	lw	t5,248(sp)
 54e:	6e75                	lui	t3,0x1d
 550:	6f6c                	ld	a1,216(a4)
 552:	61006b63          	bltu	zero,a6,b68 <__stack_align+0xb58>
 556:	6f74                	ld	a3,216(a4)
 558:	696d                	lui	s2,0x1b
 55a:	6c635f63          	bge	t1,t1,c38 <__stack_align+0xc28>
 55e:	6165                	addi	sp,sp,112
 560:	5f72                	lw	t5,60(sp)
 562:	6572                	ld	a0,280(sp)
 564:	656c                	ld	a1,200(a0)
 566:	7361                	lui	t1,0xffff8
 568:	0065                	c.nop	25

Disassembly of section .debug_line_str:

0000000000000000 <.debug_line_str>:
   0:	6d6f682f          	.insn	4, 0x6d6f682f
   4:	2f65                	addiw	t5,t5,25 # 1b019 <__stack_size+0x13019>
   6:	7266                	ld	tp,120(sp)
   8:	6e61                	lui	t3,0x18
   a:	65682f6b          	.insn	4, 0x65682f6b
   e:	742f6c73          	csrrsi	s8,0x742,30
  12:	7365                	lui	t1,0xffff9
  14:	5f74                	lw	a3,124(a4)
  16:	6972                	ld	s2,280(sp)
  18:	2f766373          	csrrsi	t1,0x2f7,12
  1c:	70696863          	bltu	s2,t1,72c <__stack_align+0x71c>
  20:	6179                	addi	sp,sp,464
  22:	6472                	ld	s0,280(sp)
  24:	6968632f          	.insn	4, 0x6968632f
  28:	7970                	ld	a2,240(a0)
  2a:	7261                	lui	tp,0xffff8
  2c:	2f64                	fld	fs1,216(a4)
  2e:	6574                	ld	a3,200(a0)
  30:	2f737473          	csrrci	s0,0x2f7,6
  34:	6962                	ld	s2,24(sp)
  36:	6c622d67          	.insn	4, 0x6c622d67
  3a:	7665646b          	.insn	4, 0x7665646b
  3e:	632e                	ld	t1,200(sp)
  40:	2f00                	fld	fs0,24(a4)
  42:	6f68                	ld	a0,216(a4)
  44:	656d                	lui	a0,0x1b
  46:	6172662f          	.insn	4, 0x6172662f
  4a:	6b6e                	ld	s6,216(sp)
  4c:	7365682f          	.insn	4, 0x7365682f
  50:	2f6c                	fld	fa1,216(a4)
  52:	6574                	ld	a3,200(a0)
  54:	725f7473          	csrrci	s0,mhpmevent5h,30
  58:	7369                	lui	t1,0xffffa
  5a:	632f7663          	bgeu	t5,s2,686 <__stack_align+0x676>
  5e:	6968                	ld	a0,208(a0)
  60:	7970                	ld	a2,240(a0)
  62:	7261                	lui	tp,0xffff8
  64:	2f64                	fld	fs1,216(a4)
  66:	70696863          	bltu	s2,t1,776 <__stack_align+0x766>
  6a:	6179                	addi	sp,sp,464
  6c:	6472                	ld	s0,280(sp)
  6e:	6975622f          	.insn	4, 0x6975622f
  72:	646c                	ld	a1,200(s0)
  74:	2f00                	fld	fs0,24(a4)
  76:	6f68                	ld	a0,216(a4)
  78:	656d                	lui	a0,0x1b
  7a:	6172662f          	.insn	4, 0x6172662f
  7e:	6b6e                	ld	s6,216(sp)
  80:	7365682f          	.insn	4, 0x7365682f
  84:	2f6c                	fld	fa1,216(a4)
  86:	6574                	ld	a3,200(a0)
  88:	725f7473          	csrrci	s0,mhpmevent5h,30
  8c:	7369                	lui	t1,0xffffa
  8e:	632f7663          	bgeu	t5,s2,6ba <__stack_align+0x6aa>
  92:	6968                	ld	a0,208(a0)
  94:	7970                	ld	a2,240(a0)
  96:	7261                	lui	tp,0xffff8
  98:	2f64                	fld	fs1,216(a4)
  9a:	70696863          	bltu	s2,t1,7aa <__stack_align+0x79a>
  9e:	6179                	addi	sp,sp,464
  a0:	6472                	ld	s0,280(sp)
  a2:	7365742f          	.insn	4, 0x7365742f
  a6:	7374                	ld	a3,224(a4)
  a8:	2f00                	fld	fs0,24(a4)
  aa:	6f68                	ld	a0,216(a4)
  ac:	656d                	lui	a0,0x1b
  ae:	6172662f          	.insn	4, 0x6172662f
  b2:	6b6e                	ld	s6,216(sp)
  b4:	7365682f          	.insn	4, 0x7365682f
  b8:	2f6c                	fld	fa1,216(a4)
  ba:	6574                	ld	a3,200(a0)
  bc:	725f7473          	csrrci	s0,mhpmevent5h,30
  c0:	7369                	lui	t1,0xffffa
  c2:	632f7663          	bgeu	t5,s2,6ee <__stack_align+0x6de>
  c6:	6968                	ld	a0,208(a0)
  c8:	7970                	ld	a2,240(a0)
  ca:	7261                	lui	tp,0xffff8
  cc:	2f64                	fld	fs1,216(a4)
  ce:	70696863          	bltu	s2,t1,7de <__stack_align+0x7ce>
  d2:	6179                	addi	sp,sp,464
  d4:	6472                	ld	s0,280(sp)
  d6:	6f632e2f          	.insn	4, 0x6f632e2f
  da:	646e                	ld	s0,216(sp)
  dc:	2d61                	addiw	s10,s10,24 # 19018 <__stack_size+0x11018>
  de:	6e65                	lui	t3,0x19
  e0:	2f76                	fld	ft10,344(sp)
  e2:	6972                	ld	s2,280(sp)
  e4:	2d766373          	csrrsi	t1,0x2d7,12
  e8:	6f74                	ld	a3,216(a4)
  ea:	2f736c6f          	jal	s8,36be0 <__heap_size+0x16be0>
  ee:	6972                	ld	s2,280(sp)
  f0:	36766373          	csrrsi	t1,0x367,12
  f4:	2d34                	fld	fa3,88(a0)
  f6:	6e75                	lui	t3,0x1d
  f8:	776f6e6b          	.insn	4, 0x776f6e6b
  fc:	2d6e                	fld	fs10,216(sp)
  fe:	6c65                	lui	s8,0x19
 100:	2f66                	fld	ft10,88(sp)
 102:	6e69                	lui	t3,0x1a
 104:	64756c63          	bltu	a0,t2,75c <__stack_align+0x74c>
 108:	2f65                	addiw	t5,t5,25
 10a:	616d                	addi	sp,sp,240
 10c:	6e696863          	bltu	s2,t1,7fc <__stack_align+0x7ec>
 110:	0065                	c.nop	25
 112:	6d6f682f          	.insn	4, 0x6d6f682f
 116:	2f65                	addiw	t5,t5,25
 118:	7266                	ld	tp,120(sp)
 11a:	6e61                	lui	t3,0x18
 11c:	65682f6b          	.insn	4, 0x65682f6b
 120:	742f6c73          	csrrsi	s8,0x742,30
 124:	7365                	lui	t1,0xffff9
 126:	5f74                	lw	a3,124(a4)
 128:	6972                	ld	s2,280(sp)
 12a:	2f766373          	csrrsi	t1,0x2f7,12
 12e:	70696863          	bltu	s2,t1,83e <__stack_align+0x82e>
 132:	6179                	addi	sp,sp,464
 134:	6472                	ld	s0,280(sp)
 136:	6968632f          	.insn	4, 0x6968632f
 13a:	7970                	ld	a2,240(a0)
 13c:	7261                	lui	tp,0xffff8
 13e:	2f64                	fld	fs1,216(a4)
 140:	632e                	ld	t1,200(sp)
 142:	61646e6f          	jal	t3,46758 <__heap_size+0x26758>
 146:	652d                	lui	a0,0xb
 148:	766e                	ld	a2,248(sp)
 14a:	7369722f          	.insn	4, 0x7369722f
 14e:	742d7663          	bgeu	s10,sp,89a <__stack_align+0x88a>
 152:	736c6f6f          	jal	t5,c6888 <__heap_size+0xa6888>
 156:	62696c2f          	.insn	4, 0x62696c2f
 15a:	6363672f          	.insn	4, 0x6363672f
 15e:	7369722f          	.insn	4, 0x7369722f
 162:	34367663          	bgeu	a2,gp,4ae <__stack_align+0x49e>
 166:	752d                	lui	a0,0xfffeb
 168:	6b6e                	ld	s6,216(sp)
 16a:	6f6e                	ld	t5,216(sp)
 16c:	652d6e77          	.insn	4, 0x652d6e77
 170:	666c                	ld	a1,200(a2)
 172:	2e33312f          	.insn	4, 0x2e33312f
 176:	2e32                	fld	ft8,264(sp)
 178:	2f30                	fld	fa2,88(a4)
 17a:	6e69                	lui	t3,0x1a
 17c:	64756c63          	bltu	a0,t2,7d4 <__stack_align+0x7c4>
 180:	0065                	c.nop	25
 182:	6d6f682f          	.insn	4, 0x6d6f682f
 186:	2f65                	addiw	t5,t5,25
 188:	7266                	ld	tp,120(sp)
 18a:	6e61                	lui	t3,0x18
 18c:	65682f6b          	.insn	4, 0x65682f6b
 190:	742f6c73          	csrrsi	s8,0x742,30
 194:	7365                	lui	t1,0xffff9
 196:	5f74                	lw	a3,124(a4)
 198:	6972                	ld	s2,280(sp)
 19a:	2f766373          	csrrsi	t1,0x2f7,12
 19e:	70696863          	bltu	s2,t1,8ae <__stack_align+0x89e>
 1a2:	6179                	addi	sp,sp,464
 1a4:	6472                	ld	s0,280(sp)
 1a6:	6968632f          	.insn	4, 0x6968632f
 1aa:	7970                	ld	a2,240(a0)
 1ac:	7261                	lui	tp,0xffff8
 1ae:	2f64                	fld	fs1,216(a4)
 1b0:	632e                	ld	t1,200(sp)
 1b2:	61646e6f          	jal	t3,467c8 <__heap_size+0x267c8>
 1b6:	652d                	lui	a0,0xb
 1b8:	766e                	ld	a2,248(sp)
 1ba:	7369722f          	.insn	4, 0x7369722f
 1be:	742d7663          	bgeu	s10,sp,90a <__stack_align+0x8fa>
 1c2:	736c6f6f          	jal	t5,c68f8 <__heap_size+0xa68f8>
 1c6:	7369722f          	.insn	4, 0x7369722f
 1ca:	34367663          	bgeu	a2,gp,516 <__stack_align+0x506>
 1ce:	752d                	lui	a0,0xfffeb
 1d0:	6b6e                	ld	s6,216(sp)
 1d2:	6f6e                	ld	t5,216(sp)
 1d4:	652d6e77          	.insn	4, 0x652d6e77
 1d8:	666c                	ld	a1,200(a2)
 1da:	636e692f          	.insn	4, 0x636e692f
 1de:	756c                	ld	a1,232(a0)
 1e0:	6564                	ld	s1,200(a0)
 1e2:	7379732f          	.insn	4, 0x7379732f
 1e6:	2f00                	fld	fs0,24(a4)
 1e8:	6f68                	ld	a0,216(a4)
 1ea:	656d                	lui	a0,0x1b
 1ec:	6172662f          	.insn	4, 0x6172662f
 1f0:	6b6e                	ld	s6,216(sp)
 1f2:	7365682f          	.insn	4, 0x7365682f
 1f6:	2f6c                	fld	fa1,216(a4)
 1f8:	6574                	ld	a3,200(a0)
 1fa:	725f7473          	csrrci	s0,mhpmevent5h,30
 1fe:	7369                	lui	t1,0xffffa
 200:	632f7663          	bgeu	t5,s2,82c <__stack_align+0x81c>
 204:	6968                	ld	a0,208(a0)
 206:	7970                	ld	a2,240(a0)
 208:	7261                	lui	tp,0xffff8
 20a:	2f64                	fld	fs1,216(a4)
 20c:	70696863          	bltu	s2,t1,91c <__stack_align+0x90c>
 210:	6179                	addi	sp,sp,464
 212:	6472                	ld	s0,280(sp)
 214:	6f632e2f          	.insn	4, 0x6f632e2f
 218:	646e                	ld	s0,216(sp)
 21a:	2d61                	addiw	s10,s10,24
 21c:	6e65                	lui	t3,0x19
 21e:	2f76                	fld	ft10,344(sp)
 220:	6972                	ld	s2,280(sp)
 222:	2d766373          	csrrsi	t1,0x2d7,12
 226:	6f74                	ld	a3,216(a4)
 228:	2f736c6f          	jal	s8,36d1e <__heap_size+0x16d1e>
 22c:	6972                	ld	s2,280(sp)
 22e:	36766373          	csrrsi	t1,0x367,12
 232:	2d34                	fld	fa3,88(a0)
 234:	6e75                	lui	t3,0x1d
 236:	776f6e6b          	.insn	4, 0x776f6e6b
 23a:	2d6e                	fld	fs10,216(sp)
 23c:	6c65                	lui	s8,0x19
 23e:	2f66                	fld	ft10,88(sp)
 240:	6e69                	lui	t3,0x1a
 242:	64756c63          	bltu	a0,t2,89a <__stack_align+0x88a>
 246:	0065                	c.nop	25
 248:	6d6d                	lui	s10,0x1b
 24a:	6f69                	lui	t5,0x1a
 24c:	682e                	ld	a6,200(sp)
 24e:	6200                	ld	s0,0(a2)
 250:	6b6c                	ld	a1,208(a4)
 252:	6564                	ld	s1,200(a0)
 254:	2e76                	fld	ft8,344(sp)
 256:	0068                	addi	a0,sp,12
 258:	645f 6665 7561      	.insn	6, 0x75616665645f
 25e:	746c                	ld	a1,232(s0)
 260:	745f 7079 7365      	.insn	6, 0x73657079745f
 266:	682e                	ld	a6,200(sp)
 268:	7300                	ld	s0,32(a4)
 26a:	6474                	ld	a3,200(s0)
 26c:	6564                	ld	s1,200(a0)
 26e:	2e66                	fld	ft8,88(sp)
 270:	0068                	addi	a0,sp,12
 272:	735f 6474 6e69      	.insn	6, 0x6e696474735f
 278:	2e74                	fld	fa3,216(a2)
 27a:	0068                	addi	a0,sp,12
 27c:	6c647473          	csrrci	s0,0x6c6,8
 280:	6269                	lui	tp,0x1a
 282:	682e                	ld	a6,200(sp)
 284:	7300                	ld	s0,32(a4)
 286:	6474                	ld	a3,200(s0)
 288:	6f69                	lui	t5,0x1a
 28a:	682e                	ld	a6,200(sp)
 28c:	2f00                	fld	fs0,24(a4)
 28e:	6f68                	ld	a0,216(a4)
 290:	656d                	lui	a0,0x1b
 292:	6172662f          	.insn	4, 0x6172662f
 296:	6b6e                	ld	s6,216(sp)
 298:	7365682f          	.insn	4, 0x7365682f
 29c:	2f6c                	fld	fa1,216(a4)
 29e:	6574                	ld	a3,200(a0)
 2a0:	725f7473          	csrrci	s0,mhpmevent5h,30
 2a4:	7369                	lui	t1,0xffffa
 2a6:	632f7663          	bgeu	t5,s2,8d2 <__stack_align+0x8c2>
 2aa:	6968                	ld	a0,208(a0)
 2ac:	7970                	ld	a2,240(a0)
 2ae:	7261                	lui	tp,0xffff8
 2b0:	2f64                	fld	fs1,216(a4)
 2b2:	70696863          	bltu	s2,t1,9c2 <__stack_align+0x9b2>
 2b6:	6179                	addi	sp,sp,464
 2b8:	6472                	ld	s0,280(sp)
 2ba:	6f6f742f          	.insn	4, 0x6f6f742f
 2be:	636c                	ld	a1,192(a4)
 2c0:	6168                	ld	a0,192(a0)
 2c2:	6e69                	lui	t3,0x1a
 2c4:	696c2f73          	csrrs	t5,0x696,s8
 2c8:	6762                	ld	a4,24(sp)
 2ca:	6f6c                	ld	a1,216(a4)
 2cc:	622f7373          	csrrci	t1,0x622,30
 2d0:	6975                	lui	s2,0x1d
 2d2:	646c                	ld	a1,200(s0)
 2d4:	2e00                	fld	fs0,24(a2)
 2d6:	2f2e                	fld	ft10,200(sp)
 2d8:	2f737973          	csrrci	s2,0x2f7,6
 2dc:	736f6c63          	bltu	t5,s6,a14 <__stack_align+0xa04>
 2e0:	2e65                	addiw	t3,t3,25 # 1a019 <__stack_size+0x12019>
 2e2:	2e2e0063          	beq	t3,sp,5c2 <__stack_align+0x5b2>
 2e6:	7379732f          	.insn	4, 0x7379732f
 2ea:	6500                	ld	s0,8(a0)
 2ec:	7272                	ld	tp,312(sp)
 2ee:	6f6e                	ld	t5,216(sp)
 2f0:	682e                	ld	a6,200(sp)
 2f2:	2e00                	fld	fs0,24(a2)
 2f4:	2f2e                	fld	ft10,200(sp)
 2f6:	2f737973          	csrrci	s2,0x2f7,6
 2fa:	7865                	lui	a6,0xffff9
 2fc:	7469                	lui	s0,0xffffa
 2fe:	632e                	ld	t1,200(sp)
 300:	2e00                	fld	fs0,24(a2)
 302:	2f2e                	fld	ft10,200(sp)
 304:	6e69                	lui	t3,0x1a
 306:	64756c63          	bltu	a0,t2,95e <__stack_align+0x94e>
 30a:	0065                	c.nop	25
 30c:	7468                	ld	a0,232(s0)
 30e:	6669                	lui	a2,0x1a
 310:	682e                	ld	a6,200(sp)
 312:	2e00                	fld	fs0,24(a2)
 314:	2f2e                	fld	ft10,200(sp)
 316:	2f737973          	csrrci	s2,0x2f7,6
 31a:	7366                	ld	t1,120(sp)
 31c:	6174                	ld	a3,192(a0)
 31e:	2e74                	fld	fa3,216(a2)
 320:	745f0063          	beq	t5,t0,a60 <__stack_align+0xa50>
 324:	6d69                	lui	s10,0x1a
 326:	7365                	lui	t1,0xffff9
 328:	6570                	ld	a2,200(a0)
 32a:	00682e63          	.insn	4, 0x00682e63
 32e:	74617473          	csrrci	s0,0x746,2
 332:	682e                	ld	a6,200(sp)
 334:	2e00                	fld	fs0,24(a2)
 336:	2f2e                	fld	ft10,200(sp)
 338:	2f737973          	csrrci	s2,0x2f7,6
 33c:	7369                	lui	t1,0xffffa
 33e:	7461                	lui	s0,0xffff8
 340:	7974                	ld	a3,240(a0)
 342:	632e                	ld	t1,200(sp)
 344:	2e00                	fld	fs0,24(a2)
 346:	2f2e                	fld	ft10,200(sp)
 348:	2f737973          	csrrci	s2,0x2f7,6
 34c:	736c                	ld	a1,224(a4)
 34e:	6565                	lui	a0,0x19
 350:	00632e6b          	.insn	4, 0x00632e6b
 354:	2e2e                	fld	ft8,200(sp)
 356:	7379732f          	.insn	4, 0x7379732f
 35a:	6165722f          	.insn	4, 0x6165722f
 35e:	2e64                	fld	fs1,216(a2)
 360:	2e2e0063          	beq	t3,sp,640 <__stack_align+0x630>
 364:	7379732f          	.insn	4, 0x7379732f
 368:	7262732f          	.insn	4, 0x7262732f
 36c:	00632e6b          	.insn	4, 0x00632e6b
 370:	2e2e                	fld	ft8,200(sp)
 372:	7379732f          	.insn	4, 0x7379732f
 376:	6972772f          	.insn	4, 0x6972772f
 37a:	6574                	ld	a3,200(a0)
 37c:	632e                	ld	t1,200(sp)
 37e:	2e00                	fld	fs0,24(a2)
 380:	2f2e                	fld	ft10,200(sp)
 382:	696d                	lui	s2,0x1b
 384:	63006373          	csrrsi	t1,0x630,0
 388:	7472                	ld	s0,312(sp)
 38a:	2e30                	fld	fa2,88(a2)
 38c:	72630053          	.insn	4, 0x72630053
 390:	6d74                	ld	a3,216(a0)
 392:	6961                	lui	s2,0x18
 394:	2e6e                	fld	ft8,216(sp)
 396:	2e2e0053          	.insn	4, 0x2e2e0053
 39a:	73696d2f          	.insn	4, 0x73696d2f
 39e:	72742f63          	.insn	4, 0x72742f63
 3a2:	7061                	c.lui	zero,0xffff8
 3a4:	00632e73          	csrrs	t3,0x6,t1
 3a8:	63737973          	csrrci	s2,0x637,6
 3ac:	6c61                	lui	s8,0x18
 3ae:	2e6c                	fld	fa1,216(a2)
 3b0:	0068                	addi	a0,sp,12
 3b2:	2e2e                	fld	ft8,200(sp)
 3b4:	73696d2f          	.insn	4, 0x73696d2f
 3b8:	6c742f63          	.insn	4, 0x6c742f63
 3bc:	00632e73          	csrrs	t3,0x6,t1
 3c0:	69727473          	csrrci	s0,0x697,4
 3c4:	676e                	ld	a4,216(sp)
 3c6:	682e                	ld	a6,200(sp)
 3c8:	2e00                	fld	fs0,24(a2)
 3ca:	2f2e                	fld	ft10,200(sp)
 3cc:	696d                	lui	s2,0x1b
 3ce:	6d2f6373          	csrrsi	t1,0x6d2,30
 3d2:	6961                	lui	s2,0x18
 3d4:	2e6e                	fld	ft8,216(sp)
 3d6:	2e2e0063          	beq	t3,sp,6b6 <__stack_align+0x6a6>
 3da:	73696d2f          	.insn	4, 0x73696d2f
 3de:	74682f63          	.insn	4, 0x74682f63
 3e2:	6669                	lui	a2,0x1a
 3e4:	632e                	ld	t1,200(sp)
 3e6:	6100                	ld	s0,0(a0)
 3e8:	6f74                	ld	a3,216(a4)
 3ea:	696d                	lui	s2,0x1b
 3ec:	00682e63          	.insn	4, 0x00682e63
 3f0:	6e697073          	csrci	0x6e6,18
 3f4:	6f6c                	ld	a1,216(a4)
 3f6:	682e6b63          	bltu	t3,sp,a8c <__stack_align+0xa7c>
	...

Disassembly of section .comment:

0000000000000000 <.comment>:
   0:	3a434347          	fmsub.d	ft6,ft6,ft4,ft7,rmm
   4:	2820                	fld	fs0,80(s0)
   6:	39386367          	.insn	4, 0x39386367
   a:	6431                	lui	s0,0xc
   c:	6438                	ld	a4,72(s0)
   e:	65333263          	.insn	4, 0x65333263
  12:	2029                	.insn	2, 0x2029
  14:	3331                	addiw	t1,t1,-20 # ffffffffffff9fec <__heap_end+0xffffffff7ffd6fec>
  16:	322e                	fld	ft4,232(sp)
  18:	302e                	fld	ft0,232(sp)
  1a:	4700                	lw	s0,8(a4)
  1c:	203a4343          	fmadd.s	ft6,fs4,ft3,ft4,rmm
  20:	4728                	lw	a0,72(a4)
  22:	554e                	lw	a0,240(sp)
  24:	2029                	.insn	2, 0x2029
  26:	3331                	addiw	t1,t1,-20
  28:	322e                	fld	ft4,232(sp)
  2a:	302e                	fld	ft0,232(sp)
	...

Disassembly of section .riscv.attributes:

0000000000000000 <.riscv.attributes>:
   0:	4a41                	li	s4,16
   2:	0000                	unimp
   4:	7200                	ld	s0,32(a2)
   6:	7369                	lui	t1,0xffffa
   8:	01007663          	bgeu	zero,a6,14 <__stack_align+0x4>
   c:	0040                	addi	s0,sp,4
   e:	0000                	unimp
  10:	1004                	addi	s1,sp,32
  12:	7205                	lui	tp,0xfffe1
  14:	3676                	fld	fa2,376(sp)
  16:	6934                	ld	a3,80(a0)
  18:	7032                	.insn	2, 0x7032
  1a:	5f31                	li	t5,-20
  1c:	326d                	addiw	tp,tp,-5 # fffffffffffe0ffb <__heap_end+0xffffffff7ffbdffb>
  1e:	3070                	fld	fa2,224(s0)
  20:	615f 7032 5f31      	.insn	6, 0x5f317032615f
  26:	3266                	fld	ft4,120(sp)
  28:	3270                	fld	fa2,224(a2)
  2a:	645f 7032 5f32      	.insn	6, 0x5f327032645f
  30:	30703263          	.insn	4, 0x30703263
  34:	7a5f 6369 7273      	.insn	6, 0x727363697a5f
  3a:	7032                	.insn	2, 0x7032
  3c:	5f30                	lw	a2,120(a4)
  3e:	6d7a                	ld	s10,408(sp)
  40:	756d                	lui	a0,0xffffb
  42:	316c                	fld	fa1,224(a0)
  44:	3070                	fld	fa2,224(s0)
  46:	0800                	addi	s0,sp,16
  48:	0a01                	addi	s4,s4,0 # ffffffffffffa000 <__heap_end+0xffffffff7ffd7000>
  4a:	Address 0x4a is out of bounds.


Disassembly of section .debug_frame:

0000000000000000 <.debug_frame>:
   0:	000c                	.insn	2, 0x000c
   2:	0000                	unimp
   4:	ffff                	.insn	2, 0xffff
   6:	ffff                	.insn	2, 0xffff
   8:	7c010003          	lb	zero,1984(sp)
   c:	0d01                	addi	s10,s10,0 # 1a000 <__stack_size+0x12000>
   e:	0002                	c.slli64	zero
  10:	001c                	.insn	2, 0x001c
  12:	0000                	unimp
  14:	0000                	unimp
  16:	0000                	unimp
  18:	02cc                	addi	a1,sp,324
  1a:	8000                	.insn	2, 0x8000
  1c:	0000                	unimp
  1e:	0000                	unimp
  20:	00a4                	addi	s1,sp,72
  22:	0000                	unimp
  24:	0000                	unimp
  26:	0000                	unimp
  28:	8c02                	jr	s8
  2a:	100e                	c.slli	zero,0x23
  2c:	814c                	.insn	2, 0x814c
  2e:	0002                	c.slli64	zero
  30:	002c                	addi	a1,sp,8
  32:	0000                	unimp
  34:	0000                	unimp
  36:	0000                	unimp
  38:	0370                	addi	a2,sp,396
  3a:	8000                	.insn	2, 0x8000
  3c:	0000                	unimp
  3e:	0000                	unimp
  40:	00e8                	addi	a0,sp,76
  42:	0000                	unimp
  44:	0000                	unimp
  46:	0000                	unimp
  48:	0e44                	addi	s1,sp,788
  4a:	5020                	lw	s0,96(s0)
  4c:	0281                	addi	t0,t0,0
  4e:	0488                	addi	a0,sp,576
  50:	0689                	addi	a3,a3,2
  52:	8402                	jr	s0
  54:	c10a                	sw	sp,128(sp)
  56:	c844                	sw	s1,20(s0)
  58:	c944                	sw	s1,20(a0)
  5a:	0e44                	addi	s1,sp,788
  5c:	4400                	lw	s0,8(s0)
  5e:	0034000b          	.insn	4, 0x0034000b
  62:	0000                	unimp
  64:	0000                	unimp
  66:	0000                	unimp
  68:	022c                	addi	a1,sp,264
  6a:	8000                	.insn	2, 0x8000
  6c:	0000                	unimp
  6e:	0000                	unimp
  70:	00a0                	addi	s0,sp,72
  72:	0000                	unimp
  74:	0000                	unimp
  76:	0000                	unimp
  78:	0e44                	addi	s1,sp,788
  7a:	4830                	lw	a2,80(s0)
  7c:	0892                	slli	a7,a7,0x4
  7e:	934c                	.insn	2, 0x934c
  80:	5c0a                	lw	s8,160(sp)
  82:	0488                	addi	a0,sp,576
  84:	0689                	addi	a3,a3,2
  86:	0281                	addi	t0,t0,0
  88:	5002                	.insn	2, 0x5002
  8a:	44c1                	li	s1,16
  8c:	44c8                	lw	a0,12(s1)
  8e:	44c9                	li	s1,18
  90:	44d2                	lw	s1,20(sp)
  92:	000e48d3          	fadd.s	fa7,ft8,ft0,rmm
  96:	0000                	unimp
  98:	000c                	.insn	2, 0x000c
  9a:	0000                	unimp
  9c:	ffff                	.insn	2, 0xffff
  9e:	ffff                	.insn	2, 0xffff
  a0:	7c010003          	lb	zero,1984(sp)
  a4:	0d01                	addi	s10,s10,0
  a6:	0002                	c.slli64	zero
  a8:	0024                	addi	s1,sp,8
  aa:	0000                	unimp
  ac:	0098                	addi	a4,sp,64
  ae:	0000                	unimp
  b0:	1acc                	addi	a1,sp,372
  b2:	8000                	.insn	2, 0x8000
  b4:	0000                	unimp
  b6:	0000                	unimp
  b8:	0014                	.insn	2, 0x0014
  ba:	0000                	unimp
  bc:	0000                	unimp
  be:	0000                	unimp
  c0:	0e42                	slli	t3,t3,0x10
  c2:	4210                	lw	a2,0(a2)
  c4:	0281                	addi	t0,t0,0
  c6:	c146                	sw	a7,128(sp)
  c8:	0e48                	addi	a0,sp,788
  ca:	0000                	unimp
  cc:	0000                	unimp
  ce:	0000                	unimp
  d0:	000c                	.insn	2, 0x000c
  d2:	0000                	unimp
  d4:	ffff                	.insn	2, 0xffff
  d6:	ffff                	.insn	2, 0xffff
  d8:	7c010003          	lb	zero,1984(sp)
  dc:	0d01                	addi	s10,s10,0
  de:	0002                	c.slli64	zero
  e0:	0014                	.insn	2, 0x0014
  e2:	0000                	unimp
  e4:	00d0                	addi	a2,sp,68
  e6:	0000                	unimp
  e8:	1ae0                	addi	s0,sp,380
  ea:	8000                	.insn	2, 0x8000
  ec:	0000                	unimp
  ee:	0000                	unimp
  f0:	0022                	c.slli	zero,0x8
  f2:	0000                	unimp
  f4:	0000                	unimp
  f6:	0000                	unimp
  f8:	000c                	.insn	2, 0x000c
  fa:	0000                	unimp
  fc:	ffff                	.insn	2, 0xffff
  fe:	ffff                	.insn	2, 0xffff
 100:	7c010003          	lb	zero,1984(sp)
 104:	0d01                	addi	s10,s10,0
 106:	0002                	c.slli64	zero
 108:	0024                	addi	s1,sp,8
 10a:	0000                	unimp
 10c:	00f8                	addi	a4,sp,76
 10e:	0000                	unimp
 110:	1b02                	slli	s6,s6,0x20
 112:	8000                	.insn	2, 0x8000
 114:	0000                	unimp
 116:	0000                	unimp
 118:	0014                	.insn	2, 0x0014
 11a:	0000                	unimp
 11c:	0000                	unimp
 11e:	0000                	unimp
 120:	0e42                	slli	t3,t3,0x10
 122:	4210                	lw	a2,0(a2)
 124:	0281                	addi	t0,t0,0
 126:	c146                	sw	a7,128(sp)
 128:	0e48                	addi	a0,sp,788
 12a:	0000                	unimp
 12c:	0000                	unimp
 12e:	0000                	unimp
 130:	000c                	.insn	2, 0x000c
 132:	0000                	unimp
 134:	ffff                	.insn	2, 0xffff
 136:	ffff                	.insn	2, 0xffff
 138:	7c010003          	lb	zero,1984(sp)
 13c:	0d01                	addi	s10,s10,0
 13e:	0002                	c.slli64	zero
 140:	0014                	.insn	2, 0x0014
 142:	0000                	unimp
 144:	0130                	addi	a2,sp,136
 146:	0000                	unimp
 148:	1b16                	slli	s6,s6,0x25
 14a:	8000                	.insn	2, 0x8000
 14c:	0000                	unimp
 14e:	0000                	unimp
 150:	0008                	.insn	2, 0x0008
 152:	0000                	unimp
 154:	0000                	unimp
 156:	0000                	unimp
 158:	000c                	.insn	2, 0x000c
 15a:	0000                	unimp
 15c:	ffff                	.insn	2, 0xffff
 15e:	ffff                	.insn	2, 0xffff
 160:	7c010003          	lb	zero,1984(sp)
 164:	0d01                	addi	s10,s10,0
 166:	0002                	c.slli64	zero
 168:	0024                	addi	s1,sp,8
 16a:	0000                	unimp
 16c:	0158                	addi	a4,sp,132
 16e:	0000                	unimp
 170:	1b1e                	slli	s6,s6,0x27
 172:	8000                	.insn	2, 0x8000
 174:	0000                	unimp
 176:	0000                	unimp
 178:	0014                	.insn	2, 0x0014
 17a:	0000                	unimp
 17c:	0000                	unimp
 17e:	0000                	unimp
 180:	0e42                	slli	t3,t3,0x10
 182:	4210                	lw	a2,0(a2)
 184:	0281                	addi	t0,t0,0
 186:	c146                	sw	a7,128(sp)
 188:	0e48                	addi	a0,sp,788
 18a:	0000                	unimp
 18c:	0000                	unimp
 18e:	0000                	unimp
 190:	000c                	.insn	2, 0x000c
 192:	0000                	unimp
 194:	ffff                	.insn	2, 0xffff
 196:	ffff                	.insn	2, 0xffff
 198:	7c010003          	lb	zero,1984(sp)
 19c:	0d01                	addi	s10,s10,0
 19e:	0002                	c.slli64	zero
 1a0:	0024                	addi	s1,sp,8
 1a2:	0000                	unimp
 1a4:	0190                	addi	a2,sp,192
 1a6:	0000                	unimp
 1a8:	1b32                	slli	s6,s6,0x2c
 1aa:	8000                	.insn	2, 0x8000
 1ac:	0000                	unimp
 1ae:	0000                	unimp
 1b0:	0016                	c.slli	zero,0x5
 1b2:	0000                	unimp
 1b4:	0000                	unimp
 1b6:	0000                	unimp
 1b8:	0e42                	slli	t3,t3,0x10
 1ba:	4210                	lw	a2,0(a2)
 1bc:	0281                	addi	t0,t0,0
 1be:	c146                	sw	a7,128(sp)
 1c0:	0e4a                	slli	t3,t3,0x12
 1c2:	0000                	unimp
 1c4:	0000                	unimp
 1c6:	0000                	unimp
 1c8:	000c                	.insn	2, 0x000c
 1ca:	0000                	unimp
 1cc:	ffff                	.insn	2, 0xffff
 1ce:	ffff                	.insn	2, 0xffff
 1d0:	7c010003          	lb	zero,1984(sp)
 1d4:	0d01                	addi	s10,s10,0
 1d6:	0002                	c.slli64	zero
 1d8:	0024                	addi	s1,sp,8
 1da:	0000                	unimp
 1dc:	01c8                	addi	a0,sp,196
 1de:	0000                	unimp
 1e0:	1b48                	addi	a0,sp,436
 1e2:	8000                	.insn	2, 0x8000
 1e4:	0000                	unimp
 1e6:	0000                	unimp
 1e8:	003c                	addi	a5,sp,8
 1ea:	0000                	unimp
 1ec:	0000                	unimp
 1ee:	0000                	unimp
 1f0:	0e68                	addi	a0,sp,796
 1f2:	4210                	lw	a2,0(a2)
 1f4:	0281                	addi	t0,t0,0
 1f6:	c146                	sw	a7,128(sp)
 1f8:	0e4a                	slli	t3,t3,0x12
 1fa:	0000                	unimp
 1fc:	0000                	unimp
 1fe:	0000                	unimp
 200:	000c                	.insn	2, 0x000c
 202:	0000                	unimp
 204:	ffff                	.insn	2, 0xffff
 206:	ffff                	.insn	2, 0xffff
 208:	7c010003          	lb	zero,1984(sp)
 20c:	0d01                	addi	s10,s10,0
 20e:	0002                	c.slli64	zero
 210:	0014                	.insn	2, 0x0014
 212:	0000                	unimp
 214:	0200                	addi	s0,sp,256
 216:	0000                	unimp
 218:	1b84                	addi	s1,sp,496
 21a:	8000                	.insn	2, 0x8000
 21c:	0000                	unimp
 21e:	0000                	unimp
 220:	0006                	c.slli	zero,0x1
 222:	0000                	unimp
 224:	0000                	unimp
 226:	0000                	unimp
 228:	000c                	.insn	2, 0x000c
 22a:	0000                	unimp
 22c:	ffff                	.insn	2, 0xffff
 22e:	ffff                	.insn	2, 0xffff
 230:	7c010003          	lb	zero,1984(sp)
 234:	0d01                	addi	s10,s10,0
 236:	0002                	c.slli64	zero
 238:	001c                	.insn	2, 0x001c
 23a:	0000                	unimp
 23c:	0228                	addi	a0,sp,264
 23e:	0000                	unimp
 240:	1b8a                	slli	s7,s7,0x22
 242:	8000                	.insn	2, 0x8000
 244:	0000                	unimp
 246:	0000                	unimp
 248:	0016                	c.slli	zero,0x5
 24a:	0000                	unimp
 24c:	0000                	unimp
 24e:	0000                	unimp
 250:	0e42                	slli	t3,t3,0x10
 252:	4610                	lw	a2,8(a2)
 254:	0281                	addi	t0,t0,0
 256:	0000                	unimp
 258:	000c                	.insn	2, 0x000c
 25a:	0000                	unimp
 25c:	ffff                	.insn	2, 0xffff
 25e:	ffff                	.insn	2, 0xffff
 260:	7c010003          	lb	zero,1984(sp)
 264:	0d01                	addi	s10,s10,0
 266:	0002                	c.slli64	zero
 268:	0024                	addi	s1,sp,8
 26a:	0000                	unimp
 26c:	0258                	addi	a4,sp,260
 26e:	0000                	unimp
 270:	1ba0                	addi	s0,sp,504
 272:	8000                	.insn	2, 0x8000
 274:	0000                	unimp
 276:	0000                	unimp
 278:	0030                	addi	a2,sp,8
 27a:	0000                	unimp
 27c:	0000                	unimp
 27e:	0000                	unimp
 280:	0e42                	slli	t3,t3,0x10
 282:	5210                	lw	a2,32(a2)
 284:	0488                	addi	a0,sp,576
 286:	0281                	addi	t0,t0,0
 288:	c84e                	sw	s3,16(sp)
 28a:	c142                	sw	a6,128(sp)
 28c:	0e48                	addi	a0,sp,788
 28e:	0000                	unimp
 290:	000c                	.insn	2, 0x000c
 292:	0000                	unimp
 294:	ffff                	.insn	2, 0xffff
 296:	ffff                	.insn	2, 0xffff
 298:	7c010003          	lb	zero,1984(sp)
 29c:	0d01                	addi	s10,s10,0
 29e:	0002                	c.slli64	zero
 2a0:	0014                	.insn	2, 0x0014
 2a2:	0000                	unimp
 2a4:	0290                	addi	a2,sp,320
 2a6:	0000                	unimp
 2a8:	1bd0                	addi	a2,sp,500
 2aa:	8000                	.insn	2, 0x8000
 2ac:	0000                	unimp
 2ae:	0000                	unimp
 2b0:	0006                	c.slli	zero,0x1
 2b2:	0000                	unimp
 2b4:	0000                	unimp
 2b6:	0000                	unimp
 2b8:	000c                	.insn	2, 0x000c
 2ba:	0000                	unimp
 2bc:	ffff                	.insn	2, 0xffff
 2be:	ffff                	.insn	2, 0xffff
 2c0:	7c010003          	lb	zero,1984(sp)
 2c4:	0d01                	addi	s10,s10,0
 2c6:	0002                	c.slli64	zero
 2c8:	001c                	.insn	2, 0x001c
 2ca:	0000                	unimp
 2cc:	02b8                	addi	a4,sp,328
 2ce:	0000                	unimp
 2d0:	1bd6                	slli	s7,s7,0x35
 2d2:	8000                	.insn	2, 0x8000
 2d4:	0000                	unimp
 2d6:	0000                	unimp
 2d8:	004c                	addi	a1,sp,4
 2da:	0000                	unimp
 2dc:	0000                	unimp
 2de:	0000                	unimp
 2e0:	0e42                	slli	t3,t3,0x10
 2e2:	0240                	addi	s0,sp,260
 2e4:	0e48                	addi	a0,sp,788
	...
