
/home/frank/hesl/test_riscv/chipyard/chipyard/build/gcd.riscv:     file format elf64-littleriscv


Disassembly of section .text:

0000000080000000 <_start>:
    80000000:	4081                	li	ra,0
    80000002:	4101                	li	sp,0
    80000004:	4181                	li	gp,0
    80000006:	4201                	li	tp,0
    80000008:	4281                	li	t0,0
    8000000a:	4301                	li	t1,0
    8000000c:	4381                	li	t2,0
    8000000e:	4401                	li	s0,0
    80000010:	4481                	li	s1,0
    80000012:	4501                	li	a0,0
    80000014:	4581                	li	a1,0
    80000016:	4601                	li	a2,0
    80000018:	4681                	li	a3,0
    8000001a:	4701                	li	a4,0
    8000001c:	4781                	li	a5,0
    8000001e:	4801                	li	a6,0
    80000020:	4881                	li	a7,0
    80000022:	4901                	li	s2,0
    80000024:	4981                	li	s3,0
    80000026:	4a01                	li	s4,0
    80000028:	4a81                	li	s5,0
    8000002a:	4b01                	li	s6,0
    8000002c:	4b81                	li	s7,0
    8000002e:	4c01                	li	s8,0
    80000030:	4c81                	li	s9,0
    80000032:	4d01                	li	s10,0
    80000034:	4d81                	li	s11,0
    80000036:	4e01                	li	t3,0
    80000038:	4e81                	li	t4,0
    8000003a:	4f01                	li	t5,0
    8000003c:	4f81                	li	t6,0
    8000003e:	62f9                	lui	t0,0x1e
    80000040:	6002829b          	addiw	t0,t0,1536 # 1e600 <__stack_size+0x16600>
    80000044:	3002a073          	csrs	mstatus,t0
    80000048:	00000297          	auipc	t0,0x0
    8000004c:	09028293          	addi	t0,t0,144 # 800000d8 <_start+0xd8>
    80000050:	30529073          	csrw	mtvec,t0
    80000054:	00301073          	fscsr	zero
    80000058:	f0000053          	fmv.w.x	ft0,zero
    8000005c:	f00000d3          	fmv.w.x	ft1,zero
    80000060:	f0000153          	fmv.w.x	ft2,zero
    80000064:	f00001d3          	fmv.w.x	ft3,zero
    80000068:	f0000253          	fmv.w.x	ft4,zero
    8000006c:	f00002d3          	fmv.w.x	ft5,zero
    80000070:	f0000353          	fmv.w.x	ft6,zero
    80000074:	f00003d3          	fmv.w.x	ft7,zero
    80000078:	f0000453          	fmv.w.x	fs0,zero
    8000007c:	f00004d3          	fmv.w.x	fs1,zero
    80000080:	f0000553          	fmv.w.x	fa0,zero
    80000084:	f00005d3          	fmv.w.x	fa1,zero
    80000088:	f0000653          	fmv.w.x	fa2,zero
    8000008c:	f00006d3          	fmv.w.x	fa3,zero
    80000090:	f0000753          	fmv.w.x	fa4,zero
    80000094:	f00007d3          	fmv.w.x	fa5,zero
    80000098:	f0000853          	fmv.w.x	fa6,zero
    8000009c:	f00008d3          	fmv.w.x	fa7,zero
    800000a0:	f0000953          	fmv.w.x	fs2,zero
    800000a4:	f00009d3          	fmv.w.x	fs3,zero
    800000a8:	f0000a53          	fmv.w.x	fs4,zero
    800000ac:	f0000ad3          	fmv.w.x	fs5,zero
    800000b0:	f0000b53          	fmv.w.x	fs6,zero
    800000b4:	f0000bd3          	fmv.w.x	fs7,zero
    800000b8:	f0000c53          	fmv.w.x	fs8,zero
    800000bc:	f0000cd3          	fmv.w.x	fs9,zero
    800000c0:	f0000d53          	fmv.w.x	fs10,zero
    800000c4:	f0000dd3          	fmv.w.x	fs11,zero
    800000c8:	f0000e53          	fmv.w.x	ft8,zero
    800000cc:	f0000ed3          	fmv.w.x	ft9,zero
    800000d0:	f0000f53          	fmv.w.x	ft10,zero
    800000d4:	f0000fd3          	fmv.w.x	ft11,zero
    800000d8:	00002197          	auipc	gp,0x2
    800000dc:	5e018193          	addi	gp,gp,1504 # 800026b8 <__global_pointer$>
    800000e0:	f1402473          	csrr	s0,mhartid
    800000e4:	00f00293          	li	t0,15
    800000e8:	00023217          	auipc	tp,0x23
    800000ec:	f1820213          	addi	tp,tp,-232 # 80023000 <__heap_end>
    800000f0:	005412b3          	sll	t0,s0,t0
    800000f4:	9216                	add	tp,tp,t0
    800000f6:	62a1                	lui	t0,0x8
    800000f8:	00028293          	mv	t0,t0
    800000fc:	00520133          	add	sp,tp,t0
    80000100:	00000297          	auipc	t0,0x0
    80000104:	04428293          	addi	t0,t0,68 # 80000144 <trap_entry>
    80000108:	30529073          	csrw	mtvec,t0
    8000010c:	0ef010ef          	jal	800019fa <__init_tls>
    80000110:	00000293          	li	t0,0
    80000114:	00540463          	beq	s0,t0,8000011c <_start+0x11c>
    80000118:	0f60006f          	j	8000020e <_start_secondary>
    8000011c:	82018293          	addi	t0,gp,-2016 # 80001ed8 <__stdio_exit_handler>
    80000120:	b8818313          	addi	t1,gp,-1144 # 80002240 <_end>
    80000124:	0062f763          	bgeu	t0,t1,80000132 <_start+0x132>
    80000128:	0002b023          	sd	zero,0(t0)
    8000012c:	02a1                	addi	t0,t0,8
    8000012e:	fe62ede3          	bltu	t0,t1,80000128 <_start+0x128>
    80000132:	00002517          	auipc	a0,0x2
    80000136:	a0450513          	addi	a0,a0,-1532 # 80001b36 <__libc_fini_array>
    8000013a:	165010ef          	jal	80001a9e <atexit>
    8000013e:	19b010ef          	jal	80001ad8 <__libc_init_array>
    80000142:	a075                	j	800001ee <_start_main>

0000000080000144 <trap_entry>:
    80000144:	34011073          	csrw	mscratch,sp
    80000148:	7111                	addi	sp,sp,-256
    8000014a:	e406                	sd	ra,8(sp)
    8000014c:	340020f3          	csrr	ra,mscratch
    80000150:	e806                	sd	ra,16(sp)
    80000152:	ec0e                	sd	gp,24(sp)
    80000154:	f012                	sd	tp,32(sp)
    80000156:	f416                	sd	t0,40(sp)
    80000158:	f81a                	sd	t1,48(sp)
    8000015a:	fc1e                	sd	t2,56(sp)
    8000015c:	e0a2                	sd	s0,64(sp)
    8000015e:	e4a6                	sd	s1,72(sp)
    80000160:	e8aa                	sd	a0,80(sp)
    80000162:	ecae                	sd	a1,88(sp)
    80000164:	f0b2                	sd	a2,96(sp)
    80000166:	f4b6                	sd	a3,104(sp)
    80000168:	f8ba                	sd	a4,112(sp)
    8000016a:	fcbe                	sd	a5,120(sp)
    8000016c:	e142                	sd	a6,128(sp)
    8000016e:	e546                	sd	a7,136(sp)
    80000170:	e94a                	sd	s2,144(sp)
    80000172:	ed4e                	sd	s3,152(sp)
    80000174:	f152                	sd	s4,160(sp)
    80000176:	f556                	sd	s5,168(sp)
    80000178:	f95a                	sd	s6,176(sp)
    8000017a:	fd5e                	sd	s7,184(sp)
    8000017c:	e1e2                	sd	s8,192(sp)
    8000017e:	e5e6                	sd	s9,200(sp)
    80000180:	e9ea                	sd	s10,208(sp)
    80000182:	edee                	sd	s11,216(sp)
    80000184:	f1f2                	sd	t3,224(sp)
    80000186:	f5f6                	sd	t4,232(sp)
    80000188:	f9fa                	sd	t5,240(sp)
    8000018a:	fdfe                	sd	t6,248(sp)
    8000018c:	34102573          	csrr	a0,mepc
    80000190:	342025f3          	csrr	a1,mcause
    80000194:	34302673          	csrr	a2,mtval
    80000198:	868a                	mv	a3,sp
    8000019a:	04b010ef          	jal	800019e4 <handle_trap>
    8000019e:	34151073          	csrw	mepc,a0
    800001a2:	6289                	lui	t0,0x2
    800001a4:	8002829b          	addiw	t0,t0,-2048 # 1800 <__stack_align+0x17f0>
    800001a8:	3002a073          	csrs	mstatus,t0
    800001ac:	60a2                	ld	ra,8(sp)
    800001ae:	61e2                	ld	gp,24(sp)
    800001b0:	7202                	ld	tp,32(sp)
    800001b2:	72a2                	ld	t0,40(sp)
    800001b4:	7342                	ld	t1,48(sp)
    800001b6:	73e2                	ld	t2,56(sp)
    800001b8:	6406                	ld	s0,64(sp)
    800001ba:	64a6                	ld	s1,72(sp)
    800001bc:	6546                	ld	a0,80(sp)
    800001be:	65e6                	ld	a1,88(sp)
    800001c0:	7606                	ld	a2,96(sp)
    800001c2:	76a6                	ld	a3,104(sp)
    800001c4:	7746                	ld	a4,112(sp)
    800001c6:	77e6                	ld	a5,120(sp)
    800001c8:	680a                	ld	a6,128(sp)
    800001ca:	68aa                	ld	a7,136(sp)
    800001cc:	694a                	ld	s2,144(sp)
    800001ce:	69ea                	ld	s3,152(sp)
    800001d0:	7a0a                	ld	s4,160(sp)
    800001d2:	7aaa                	ld	s5,168(sp)
    800001d4:	7b4a                	ld	s6,176(sp)
    800001d6:	7bea                	ld	s7,184(sp)
    800001d8:	6c0e                	ld	s8,192(sp)
    800001da:	6cae                	ld	s9,200(sp)
    800001dc:	6d4e                	ld	s10,208(sp)
    800001de:	6dee                	ld	s11,216(sp)
    800001e0:	7e0e                	ld	t3,224(sp)
    800001e2:	7eae                	ld	t4,232(sp)
    800001e4:	7f4e                	ld	t5,240(sp)
    800001e6:	7fee                	ld	t6,248(sp)
    800001e8:	6142                	ld	sp,16(sp)
    800001ea:	30200073          	mret

00000000800001ee <_start_main>:
    800001ee:	52fd                	li	t0,-1
    800001f0:	0110000f          	fence	w,w
    800001f4:	a651a423          	sw	t0,-1432(gp) # 80002120 <__boot_sync>
    800001f8:	4505                	li	a0,1
    800001fa:	00002597          	auipc	a1,0x2
    800001fe:	bbe58593          	addi	a1,a1,-1090 # 80001db8 <argv>
    80000202:	8101b603          	ld	a2,-2032(gp) # 80001ec8 <environ>
    80000206:	02a000ef          	jal	80000230 <main>
    8000020a:	09f0106f          	j	80001aa8 <exit>

000000008000020e <_start_secondary>:
    8000020e:	a681a283          	lw	t0,-1432(gp) # 80002120 <__boot_sync>
    80000212:	fe028ee3          	beqz	t0,8000020e <_start_secondary>
    80000216:	0220000f          	fence	r,r
    8000021a:	4505                	li	a0,1
    8000021c:	00002597          	auipc	a1,0x2
    80000220:	b9c58593          	addi	a1,a1,-1124 # 80001db8 <argv>
    80000224:	8101b603          	ld	a2,-2032(gp) # 80001ec8 <environ>
    80000228:	003010ef          	jal	80001a2a <__main>
    8000022c:	07d0106f          	j	80001aa8 <exit>

0000000080000230 <main>:
    80000230:	ff010113          	addi	sp,sp,-16
    80000234:	00113423          	sd	ra,8(sp)
    80000238:	00004737          	lui	a4,0x4
    8000023c:	00074783          	lbu	a5,0(a4) # 4000 <__stack_align+0x3ff0>
    80000240:	0027f793          	andi	a5,a5,2
    80000244:	fe078ce3          	beqz	a5,8000023c <main+0xc>
    80000248:	00004737          	lui	a4,0x4
    8000024c:	01400693          	li	a3,20
    80000250:	00d72223          	sw	a3,4(a4) # 4004 <__stack_align+0x3ff4>
    80000254:	000047b7          	lui	a5,0x4
    80000258:	00f00713          	li	a4,15
    8000025c:	00e7a423          	sw	a4,8(a5) # 4008 <__stack_align+0x3ff8>
    80000260:	00004737          	lui	a4,0x4
    80000264:	00074783          	lbu	a5,0(a4) # 4000 <__stack_align+0x3ff0>
    80000268:	0017f793          	andi	a5,a5,1
    8000026c:	fe078ce3          	beqz	a5,80000264 <main+0x34>
    80000270:	000047b7          	lui	a5,0x4
    80000274:	00c7a583          	lw	a1,12(a5) # 400c <__stack_align+0x3ffc>
    80000278:	01400613          	li	a2,20
    8000027c:	00f00793          	li	a5,15
    80000280:	0005859b          	sext.w	a1,a1
    80000284:	00c7f663          	bgeu	a5,a2,80000290 <main+0x60>
    80000288:	40f6063b          	subw	a2,a2,a5
    8000028c:	fec7eee3          	bltu	a5,a2,80000288 <main+0x58>
    80000290:	40c787bb          	subw	a5,a5,a2
    80000294:	fe0798e3          	bnez	a5,80000284 <main+0x54>
    80000298:	02b60063          	beq	a2,a1,800002b8 <main+0x88>
    8000029c:	00002517          	auipc	a0,0x2
    800002a0:	a1450513          	addi	a0,a0,-1516 # 80001cb0 <__tbss_end+0x6>
    800002a4:	06a000ef          	jal	8000030e <iprintf>
    800002a8:	00100513          	li	a0,1
    800002ac:	00813083          	ld	ra,8(sp)
    800002b0:	01010113          	addi	sp,sp,16
    800002b4:	00008067          	ret
    800002b8:	00060593          	mv	a1,a2
    800002bc:	00002517          	auipc	a0,0x2
    800002c0:	a3450513          	addi	a0,a0,-1484 # 80001cf0 <__tbss_end+0x46>
    800002c4:	04a000ef          	jal	8000030e <iprintf>
    800002c8:	00000513          	li	a0,0
    800002cc:	fe1ff06f          	j	800002ac <main+0x7c>

00000000800002d0 <gcd_ref>:
    800002d0:	00058c63          	beqz	a1,800002e8 <gcd_ref+0x18>
    800002d4:	00a5f663          	bgeu	a1,a0,800002e0 <gcd_ref+0x10>
    800002d8:	40b5053b          	subw	a0,a0,a1
    800002dc:	fea5eee3          	bltu	a1,a0,800002d8 <gcd_ref+0x8>
    800002e0:	40a585bb          	subw	a1,a1,a0
    800002e4:	fe0598e3          	bnez	a1,800002d4 <gcd_ref+0x4>
    800002e8:	00008067          	ret

00000000800002ec <_iprintf_r>:
    800002ec:	715d                	addi	sp,sp,-80
    800002ee:	f032                	sd	a2,32(sp)
    800002f0:	f436                	sd	a3,40(sp)
    800002f2:	f83a                	sd	a4,48(sp)
    800002f4:	fc3e                	sd	a5,56(sp)
    800002f6:	e0c2                	sd	a6,64(sp)
    800002f8:	e4c6                	sd	a7,72(sp)
    800002fa:	862e                	mv	a2,a1
    800002fc:	690c                	ld	a1,16(a0)
    800002fe:	1014                	addi	a3,sp,32
    80000300:	ec06                	sd	ra,24(sp)
    80000302:	e436                	sd	a3,8(sp)
    80000304:	0cc000ef          	jal	800003d0 <_vfiprintf_r>
    80000308:	60e2                	ld	ra,24(sp)
    8000030a:	6161                	addi	sp,sp,80
    8000030c:	8082                	ret

000000008000030e <iprintf>:
    8000030e:	711d                	addi	sp,sp,-96
    80000310:	f832                	sd	a2,48(sp)
    80000312:	fc36                	sd	a3,56(sp)
    80000314:	e4be                	sd	a5,72(sp)
    80000316:	f42e                	sd	a1,40(sp)
    80000318:	e0ba                	sd	a4,64(sp)
    8000031a:	e8c2                	sd	a6,80(sp)
    8000031c:	ecc6                	sd	a7,88(sp)
    8000031e:	00002797          	auipc	a5,0x2
    80000322:	b9a7b783          	ld	a5,-1126(a5) # 80001eb8 <_impure_ptr>
    80000326:	6b8c                	ld	a1,16(a5)
    80000328:	1034                	addi	a3,sp,40
    8000032a:	862a                	mv	a2,a0
    8000032c:	853e                	mv	a0,a5
    8000032e:	ec06                	sd	ra,24(sp)
    80000330:	e436                	sd	a3,8(sp)
    80000332:	09e000ef          	jal	800003d0 <_vfiprintf_r>
    80000336:	60e2                	ld	ra,24(sp)
    80000338:	6125                	addi	sp,sp,96
    8000033a:	8082                	ret

000000008000033c <__sfputc_r>:
    8000033c:	465c                	lw	a5,12(a2)
    8000033e:	fff7871b          	addiw	a4,a5,-1
    80000342:	c658                	sw	a4,12(a2)
    80000344:	00075a63          	bgez	a4,80000358 <__sfputc_r+0x1c>
    80000348:	561c                	lw	a5,40(a2)
    8000034a:	00f74563          	blt	a4,a5,80000354 <__sfputc_r+0x18>
    8000034e:	47a9                	li	a5,10
    80000350:	00f59463          	bne	a1,a5,80000358 <__sfputc_r+0x1c>
    80000354:	4c10006f          	j	80001014 <__swbuf_r>
    80000358:	621c                	ld	a5,0(a2)
    8000035a:	852e                	mv	a0,a1
    8000035c:	00178713          	addi	a4,a5,1
    80000360:	e218                	sd	a4,0(a2)
    80000362:	00b78023          	sb	a1,0(a5)
    80000366:	8082                	ret

0000000080000368 <__sfputs_r>:
    80000368:	7179                	addi	sp,sp,-48
    8000036a:	f022                	sd	s0,32(sp)
    8000036c:	ec26                	sd	s1,24(sp)
    8000036e:	e84a                	sd	s2,16(sp)
    80000370:	e44e                	sd	s3,8(sp)
    80000372:	e052                	sd	s4,0(sp)
    80000374:	f406                	sd	ra,40(sp)
    80000376:	892a                	mv	s2,a0
    80000378:	89ae                	mv	s3,a1
    8000037a:	8432                	mv	s0,a2
    8000037c:	00d604b3          	add	s1,a2,a3
    80000380:	5a7d                	li	s4,-1
    80000382:	00941463          	bne	s0,s1,8000038a <__sfputs_r+0x22>
    80000386:	4501                	li	a0,0
    80000388:	a811                	j	8000039c <__sfputs_r+0x34>
    8000038a:	00044583          	lbu	a1,0(s0)
    8000038e:	864e                	mv	a2,s3
    80000390:	854a                	mv	a0,s2
    80000392:	fabff0ef          	jal	8000033c <__sfputc_r>
    80000396:	0405                	addi	s0,s0,1
    80000398:	ff4515e3          	bne	a0,s4,80000382 <__sfputs_r+0x1a>
    8000039c:	70a2                	ld	ra,40(sp)
    8000039e:	7402                	ld	s0,32(sp)
    800003a0:	64e2                	ld	s1,24(sp)
    800003a2:	6942                	ld	s2,16(sp)
    800003a4:	69a2                	ld	s3,8(sp)
    800003a6:	6a02                	ld	s4,0(sp)
    800003a8:	6145                	addi	sp,sp,48
    800003aa:	8082                	ret

00000000800003ac <__sprint_r>:
    800003ac:	6a1c                	ld	a5,16(a2)
    800003ae:	1141                	addi	sp,sp,-16
    800003b0:	e022                	sd	s0,0(sp)
    800003b2:	e406                	sd	ra,8(sp)
    800003b4:	8432                	mv	s0,a2
    800003b6:	cb99                	beqz	a5,800003cc <__sprint_r+0x20>
    800003b8:	059000ef          	jal	80000c10 <__sfvwrite_r>
    800003bc:	00043823          	sd	zero,16(s0)
    800003c0:	60a2                	ld	ra,8(sp)
    800003c2:	00042423          	sw	zero,8(s0)
    800003c6:	6402                	ld	s0,0(sp)
    800003c8:	0141                	addi	sp,sp,16
    800003ca:	8082                	ret
    800003cc:	4501                	li	a0,0
    800003ce:	bfcd                	j	800003c0 <__sprint_r+0x14>

00000000800003d0 <_vfiprintf_r>:
    800003d0:	7155                	addi	sp,sp,-208
    800003d2:	e1a2                	sd	s0,192(sp)
    800003d4:	fd26                	sd	s1,184(sp)
    800003d6:	f94a                	sd	s2,176(sp)
    800003d8:	f54e                	sd	s3,168(sp)
    800003da:	f152                	sd	s4,160(sp)
    800003dc:	e586                	sd	ra,200(sp)
    800003de:	ed56                	sd	s5,152(sp)
    800003e0:	e95a                	sd	s6,144(sp)
    800003e2:	e55e                	sd	s7,136(sp)
    800003e4:	e162                	sd	s8,128(sp)
    800003e6:	fce6                	sd	s9,120(sp)
    800003e8:	f8ea                	sd	s10,112(sp)
    800003ea:	8a2a                	mv	s4,a0
    800003ec:	892e                	mv	s2,a1
    800003ee:	84b2                	mv	s1,a2
    800003f0:	8436                	mv	s0,a3
    800003f2:	4981                	li	s3,0
    800003f4:	c509                	beqz	a0,800003fe <_vfiprintf_r+0x2e>
    800003f6:	613c                	ld	a5,64(a0)
    800003f8:	e399                	bnez	a5,800003fe <_vfiprintf_r+0x2e>
    800003fa:	7d2000ef          	jal	80000bcc <__sinit>
    800003fe:	01095783          	lhu	a5,16(s2)
    80000402:	8ba1                	andi	a5,a5,8
    80000404:	cbe1                	beqz	a5,800004d4 <_vfiprintf_r+0x104>
    80000406:	01893783          	ld	a5,24(s2)
    8000040a:	c7e9                	beqz	a5,800004d4 <_vfiprintf_r+0x104>
    8000040c:	02000793          	li	a5,32
    80000410:	02f104a3          	sb	a5,41(sp)
    80000414:	5afd                	li	s5,-1
    80000416:	03000793          	li	a5,48
    8000041a:	d202                	sw	zero,36(sp)
    8000041c:	02f10523          	sb	a5,42(sp)
    80000420:	e422                	sd	s0,8(sp)
    80000422:	02500b93          	li	s7,37
    80000426:	020a9c13          	slli	s8,s5,0x20
    8000042a:	00002b17          	auipc	s6,0x2
    8000042e:	8eeb0b13          	addi	s6,s6,-1810 # 80001d18 <__tbss_end+0x6e>
    80000432:	4c85                	li	s9,1
    80000434:	8426                	mv	s0,s1
    80000436:	00044783          	lbu	a5,0(s0)
    8000043a:	c399                	beqz	a5,80000440 <_vfiprintf_r+0x70>
    8000043c:	0d779063          	bne	a5,s7,800004fc <_vfiprintf_r+0x12c>
    80000440:	40940d3b          	subw	s10,s0,s1
    80000444:	000d0e63          	beqz	s10,80000460 <_vfiprintf_r+0x90>
    80000448:	86ea                	mv	a3,s10
    8000044a:	8626                	mv	a2,s1
    8000044c:	85ca                	mv	a1,s2
    8000044e:	8552                	mv	a0,s4
    80000450:	f19ff0ef          	jal	80000368 <__sfputs_r>
    80000454:	1d550963          	beq	a0,s5,80000626 <_vfiprintf_r+0x256>
    80000458:	5792                	lw	a5,36(sp)
    8000045a:	01a787bb          	addw	a5,a5,s10
    8000045e:	d23e                	sw	a5,36(sp)
    80000460:	00044783          	lbu	a5,0(s0)
    80000464:	1c078163          	beqz	a5,80000626 <_vfiprintf_r+0x256>
    80000468:	00140493          	addi	s1,s0,1
    8000046c:	e862                	sd	s8,16(sp)
    8000046e:	ec02                	sd	zero,24(sp)
    80000470:	040109a3          	sb	zero,83(sp)
    80000474:	d482                	sw	zero,104(sp)
    80000476:	0004c583          	lbu	a1,0(s1)
    8000047a:	4615                	li	a2,5
    8000047c:	855a                	mv	a0,s6
    8000047e:	50f000ef          	jal	8000118c <memchr>
    80000482:	47c2                	lw	a5,16(sp)
    80000484:	00148413          	addi	s0,s1,1
    80000488:	ed25                	bnez	a0,80000500 <_vfiprintf_r+0x130>
    8000048a:	0107f713          	andi	a4,a5,16
    8000048e:	c709                	beqz	a4,80000498 <_vfiprintf_r+0xc8>
    80000490:	02000713          	li	a4,32
    80000494:	04e109a3          	sb	a4,83(sp)
    80000498:	0087f713          	andi	a4,a5,8
    8000049c:	c709                	beqz	a4,800004a6 <_vfiprintf_r+0xd6>
    8000049e:	02b00713          	li	a4,43
    800004a2:	04e109a3          	sb	a4,83(sp)
    800004a6:	0004c683          	lbu	a3,0(s1)
    800004aa:	02a00713          	li	a4,42
    800004ae:	06e68163          	beq	a3,a4,80000510 <_vfiprintf_r+0x140>
    800004b2:	47f2                	lw	a5,28(sp)
    800004b4:	8426                	mv	s0,s1
    800004b6:	4681                	li	a3,0
    800004b8:	4625                	li	a2,9
    800004ba:	4829                	li	a6,10
    800004bc:	00044703          	lbu	a4,0(s0)
    800004c0:	00140513          	addi	a0,s0,1
    800004c4:	fd07059b          	addiw	a1,a4,-48
    800004c8:	872e                	mv	a4,a1
    800004ca:	08b67a63          	bgeu	a2,a1,8000055e <_vfiprintf_r+0x18e>
    800004ce:	caa9                	beqz	a3,80000520 <_vfiprintf_r+0x150>
    800004d0:	ce3e                	sw	a5,28(sp)
    800004d2:	a0b9                	j	80000520 <_vfiprintf_r+0x150>
    800004d4:	85ca                	mv	a1,s2
    800004d6:	8552                	mv	a0,s4
    800004d8:	3e7000ef          	jal	800010be <__swsetup_r>
    800004dc:	d905                	beqz	a0,8000040c <_vfiprintf_r+0x3c>
    800004de:	557d                	li	a0,-1
    800004e0:	60ae                	ld	ra,200(sp)
    800004e2:	640e                	ld	s0,192(sp)
    800004e4:	74ea                	ld	s1,184(sp)
    800004e6:	794a                	ld	s2,176(sp)
    800004e8:	79aa                	ld	s3,168(sp)
    800004ea:	7a0a                	ld	s4,160(sp)
    800004ec:	6aea                	ld	s5,152(sp)
    800004ee:	6b4a                	ld	s6,144(sp)
    800004f0:	6baa                	ld	s7,136(sp)
    800004f2:	6c0a                	ld	s8,128(sp)
    800004f4:	7ce6                	ld	s9,120(sp)
    800004f6:	7d46                	ld	s10,112(sp)
    800004f8:	6169                	addi	sp,sp,208
    800004fa:	8082                	ret
    800004fc:	0405                	addi	s0,s0,1
    800004fe:	bf25                	j	80000436 <_vfiprintf_r+0x66>
    80000500:	41650533          	sub	a0,a0,s6
    80000504:	00ac953b          	sllw	a0,s9,a0
    80000508:	8fc9                	or	a5,a5,a0
    8000050a:	c83e                	sw	a5,16(sp)
    8000050c:	84a2                	mv	s1,s0
    8000050e:	b7a5                	j	80000476 <_vfiprintf_r+0xa6>
    80000510:	6722                	ld	a4,8(sp)
    80000512:	00870693          	addi	a3,a4,8
    80000516:	4318                	lw	a4,0(a4)
    80000518:	e436                	sd	a3,8(sp)
    8000051a:	02074b63          	bltz	a4,80000550 <_vfiprintf_r+0x180>
    8000051e:	ce3a                	sw	a4,28(sp)
    80000520:	00044703          	lbu	a4,0(s0)
    80000524:	02e00793          	li	a5,46
    80000528:	06f71163          	bne	a4,a5,8000058a <_vfiprintf_r+0x1ba>
    8000052c:	00144703          	lbu	a4,1(s0)
    80000530:	02a00793          	li	a5,42
    80000534:	02f71b63          	bne	a4,a5,8000056a <_vfiprintf_r+0x19a>
    80000538:	67a2                	ld	a5,8(sp)
    8000053a:	0409                	addi	s0,s0,2
    8000053c:	00878713          	addi	a4,a5,8
    80000540:	e43a                	sd	a4,8(sp)
    80000542:	4398                	lw	a4,0(a5)
    80000544:	87ba                	mv	a5,a4
    80000546:	00075363          	bgez	a4,8000054c <_vfiprintf_r+0x17c>
    8000054a:	57fd                	li	a5,-1
    8000054c:	ca3e                	sw	a5,20(sp)
    8000054e:	a835                	j	8000058a <_vfiprintf_r+0x1ba>
    80000550:	40e0073b          	negw	a4,a4
    80000554:	0027e793          	ori	a5,a5,2
    80000558:	ce3a                	sw	a4,28(sp)
    8000055a:	c83e                	sw	a5,16(sp)
    8000055c:	b7d1                	j	80000520 <_vfiprintf_r+0x150>
    8000055e:	02f807bb          	mulw	a5,a6,a5
    80000562:	842a                	mv	s0,a0
    80000564:	4685                	li	a3,1
    80000566:	9fb9                	addw	a5,a5,a4
    80000568:	bf91                	j	800004bc <_vfiprintf_r+0xec>
    8000056a:	0405                	addi	s0,s0,1
    8000056c:	ca02                	sw	zero,20(sp)
    8000056e:	4681                	li	a3,0
    80000570:	4781                	li	a5,0
    80000572:	4625                	li	a2,9
    80000574:	4829                	li	a6,10
    80000576:	00044703          	lbu	a4,0(s0)
    8000057a:	00140513          	addi	a0,s0,1
    8000057e:	fd07059b          	addiw	a1,a4,-48
    80000582:	872e                	mv	a4,a1
    80000584:	06b67c63          	bgeu	a2,a1,800005fc <_vfiprintf_r+0x22c>
    80000588:	f2f1                	bnez	a3,8000054c <_vfiprintf_r+0x17c>
    8000058a:	00044583          	lbu	a1,0(s0)
    8000058e:	460d                	li	a2,3
    80000590:	00001517          	auipc	a0,0x1
    80000594:	79050513          	addi	a0,a0,1936 # 80001d20 <__tbss_end+0x76>
    80000598:	3f5000ef          	jal	8000118c <memchr>
    8000059c:	cd11                	beqz	a0,800005b8 <_vfiprintf_r+0x1e8>
    8000059e:	00001797          	auipc	a5,0x1
    800005a2:	78278793          	addi	a5,a5,1922 # 80001d20 <__tbss_end+0x76>
    800005a6:	8d1d                	sub	a0,a0,a5
    800005a8:	47c2                	lw	a5,16(sp)
    800005aa:	04000713          	li	a4,64
    800005ae:	00a7173b          	sllw	a4,a4,a0
    800005b2:	8fd9                	or	a5,a5,a4
    800005b4:	0405                	addi	s0,s0,1
    800005b6:	c83e                	sw	a5,16(sp)
    800005b8:	00044583          	lbu	a1,0(s0)
    800005bc:	4619                	li	a2,6
    800005be:	00001517          	auipc	a0,0x1
    800005c2:	76a50513          	addi	a0,a0,1898 # 80001d28 <__tbss_end+0x7e>
    800005c6:	00140493          	addi	s1,s0,1
    800005ca:	02b10423          	sb	a1,40(sp)
    800005ce:	3bf000ef          	jal	8000118c <memchr>
    800005d2:	c135                	beqz	a0,80000636 <_vfiprintf_r+0x266>
    800005d4:	00000793          	li	a5,0
    800005d8:	eb85                	bnez	a5,80000608 <_vfiprintf_r+0x238>
    800005da:	4742                	lw	a4,16(sp)
    800005dc:	67a2                	ld	a5,8(sp)
    800005de:	10077713          	andi	a4,a4,256
    800005e2:	00878693          	addi	a3,a5,8
    800005e6:	c709                	beqz	a4,800005f0 <_vfiprintf_r+0x220>
    800005e8:	07bd                	addi	a5,a5,15
    800005ea:	9bc1                	andi	a5,a5,-16
    800005ec:	01078693          	addi	a3,a5,16
    800005f0:	e436                	sd	a3,8(sp)
    800005f2:	5792                	lw	a5,36(sp)
    800005f4:	013787bb          	addw	a5,a5,s3
    800005f8:	d23e                	sw	a5,36(sp)
    800005fa:	bd2d                	j	80000434 <_vfiprintf_r+0x64>
    800005fc:	02f807bb          	mulw	a5,a6,a5
    80000600:	842a                	mv	s0,a0
    80000602:	4685                	li	a3,1
    80000604:	9fb9                	addw	a5,a5,a4
    80000606:	bf85                	j	80000576 <_vfiprintf_r+0x1a6>
    80000608:	0038                	addi	a4,sp,8
    8000060a:	00000697          	auipc	a3,0x0
    8000060e:	d5e68693          	addi	a3,a3,-674 # 80000368 <__sfputs_r>
    80000612:	864a                	mv	a2,s2
    80000614:	080c                	addi	a1,sp,16
    80000616:	8552                	mv	a0,s4
    80000618:	00000097          	auipc	ra,0x0
    8000061c:	000000e7          	jalr	zero # 0 <__boot_hart>
    80000620:	89aa                	mv	s3,a0
    80000622:	fd5518e3          	bne	a0,s5,800005f2 <_vfiprintf_r+0x222>
    80000626:	01095783          	lhu	a5,16(s2)
    8000062a:	0407f793          	andi	a5,a5,64
    8000062e:	ea0798e3          	bnez	a5,800004de <_vfiprintf_r+0x10e>
    80000632:	5512                	lw	a0,36(sp)
    80000634:	b575                	j	800004e0 <_vfiprintf_r+0x110>
    80000636:	0038                	addi	a4,sp,8
    80000638:	00000697          	auipc	a3,0x0
    8000063c:	d3068693          	addi	a3,a3,-720 # 80000368 <__sfputs_r>
    80000640:	864a                	mv	a2,s2
    80000642:	080c                	addi	a1,sp,16
    80000644:	8552                	mv	a0,s4
    80000646:	134000ef          	jal	8000077a <_printf_i>
    8000064a:	bfd9                	j	80000620 <_vfiprintf_r+0x250>

000000008000064c <vfiprintf>:
    8000064c:	86b2                	mv	a3,a2
    8000064e:	862e                	mv	a2,a1
    80000650:	85aa                	mv	a1,a0
    80000652:	00002517          	auipc	a0,0x2
    80000656:	86653503          	ld	a0,-1946(a0) # 80001eb8 <_impure_ptr>
    8000065a:	bb9d                	j	800003d0 <_vfiprintf_r>

000000008000065c <_printf_common>:
    8000065c:	715d                	addi	sp,sp,-80
    8000065e:	f052                	sd	s4,32(sp)
    80000660:	ec56                	sd	s5,24(sp)
    80000662:	8a36                	mv	s4,a3
    80000664:	8aba                	mv	s5,a4
    80000666:	4994                	lw	a3,16(a1)
    80000668:	4598                	lw	a4,8(a1)
    8000066a:	e0a2                	sd	s0,64(sp)
    8000066c:	f84a                	sd	s2,48(sp)
    8000066e:	f44e                	sd	s3,40(sp)
    80000670:	e486                	sd	ra,72(sp)
    80000672:	fc26                	sd	s1,56(sp)
    80000674:	e85a                	sd	s6,16(sp)
    80000676:	e45e                	sd	s7,8(sp)
    80000678:	89aa                	mv	s3,a0
    8000067a:	842e                	mv	s0,a1
    8000067c:	8932                	mv	s2,a2
    8000067e:	87ba                	mv	a5,a4
    80000680:	00e6c363          	blt	a3,a4,80000686 <_printf_common+0x2a>
    80000684:	87b6                	mv	a5,a3
    80000686:	00f92023          	sw	a5,0(s2)
    8000068a:	04344703          	lbu	a4,67(s0)
    8000068e:	c701                	beqz	a4,80000696 <_printf_common+0x3a>
    80000690:	2785                	addiw	a5,a5,1
    80000692:	00f92023          	sw	a5,0(s2)
    80000696:	401c                	lw	a5,0(s0)
    80000698:	0207f793          	andi	a5,a5,32
    8000069c:	c791                	beqz	a5,800006a8 <_printf_common+0x4c>
    8000069e:	00092783          	lw	a5,0(s2)
    800006a2:	2789                	addiw	a5,a5,2
    800006a4:	00f92023          	sw	a5,0(s2)
    800006a8:	4004                	lw	s1,0(s0)
    800006aa:	8899                	andi	s1,s1,6
    800006ac:	e891                	bnez	s1,800006c0 <_printf_common+0x64>
    800006ae:	01940b13          	addi	s6,s0,25
    800006b2:	5bfd                	li	s7,-1
    800006b4:	445c                	lw	a5,12(s0)
    800006b6:	00092703          	lw	a4,0(s2)
    800006ba:	9f99                	subw	a5,a5,a4
    800006bc:	06f4c063          	blt	s1,a5,8000071c <_printf_common+0xc0>
    800006c0:	04344783          	lbu	a5,67(s0)
    800006c4:	00f03633          	snez	a2,a5
    800006c8:	00f036b3          	snez	a3,a5
    800006cc:	401c                	lw	a5,0(s0)
    800006ce:	0207f793          	andi	a5,a5,32
    800006d2:	ebb5                	bnez	a5,80000746 <_printf_common+0xea>
    800006d4:	04340613          	addi	a2,s0,67
    800006d8:	85d2                	mv	a1,s4
    800006da:	854e                	mv	a0,s3
    800006dc:	9a82                	jalr	s5
    800006de:	57fd                	li	a5,-1
    800006e0:	04f50563          	beq	a0,a5,8000072a <_printf_common+0xce>
    800006e4:	401c                	lw	a5,0(s0)
    800006e6:	4711                	li	a4,4
    800006e8:	4481                	li	s1,0
    800006ea:	8b99                	andi	a5,a5,6
    800006ec:	00e79b63          	bne	a5,a4,80000702 <_printf_common+0xa6>
    800006f0:	00092783          	lw	a5,0(s2)
    800006f4:	4444                	lw	s1,12(s0)
    800006f6:	9c9d                	subw	s1,s1,a5
    800006f8:	02049793          	slli	a5,s1,0x20
    800006fc:	0007d363          	bgez	a5,80000702 <_printf_common+0xa6>
    80000700:	4481                	li	s1,0
    80000702:	441c                	lw	a5,8(s0)
    80000704:	4818                	lw	a4,16(s0)
    80000706:	00f75463          	bge	a4,a5,8000070e <_printf_common+0xb2>
    8000070a:	9f99                	subw	a5,a5,a4
    8000070c:	9cbd                	addw	s1,s1,a5
    8000070e:	4901                	li	s2,0
    80000710:	0469                	addi	s0,s0,26
    80000712:	5b7d                	li	s6,-1
    80000714:	05249a63          	bne	s1,s2,80000768 <_printf_common+0x10c>
    80000718:	4501                	li	a0,0
    8000071a:	a809                	j	8000072c <_printf_common+0xd0>
    8000071c:	4685                	li	a3,1
    8000071e:	865a                	mv	a2,s6
    80000720:	85d2                	mv	a1,s4
    80000722:	854e                	mv	a0,s3
    80000724:	9a82                	jalr	s5
    80000726:	01751e63          	bne	a0,s7,80000742 <_printf_common+0xe6>
    8000072a:	557d                	li	a0,-1
    8000072c:	60a6                	ld	ra,72(sp)
    8000072e:	6406                	ld	s0,64(sp)
    80000730:	74e2                	ld	s1,56(sp)
    80000732:	7942                	ld	s2,48(sp)
    80000734:	79a2                	ld	s3,40(sp)
    80000736:	7a02                	ld	s4,32(sp)
    80000738:	6ae2                	ld	s5,24(sp)
    8000073a:	6b42                	ld	s6,16(sp)
    8000073c:	6ba2                	ld	s7,8(sp)
    8000073e:	6161                	addi	sp,sp,80
    80000740:	8082                	ret
    80000742:	2485                	addiw	s1,s1,1
    80000744:	bf85                	j	800006b4 <_printf_common+0x58>
    80000746:	00d407b3          	add	a5,s0,a3
    8000074a:	03000693          	li	a3,48
    8000074e:	04d781a3          	sb	a3,67(a5)
    80000752:	0016071b          	addiw	a4,a2,1
    80000756:	0026069b          	addiw	a3,a2,2
    8000075a:	04544603          	lbu	a2,69(s0)
    8000075e:	00e407b3          	add	a5,s0,a4
    80000762:	04c781a3          	sb	a2,67(a5)
    80000766:	b7bd                	j	800006d4 <_printf_common+0x78>
    80000768:	4685                	li	a3,1
    8000076a:	8622                	mv	a2,s0
    8000076c:	85d2                	mv	a1,s4
    8000076e:	854e                	mv	a0,s3
    80000770:	9a82                	jalr	s5
    80000772:	fb650ce3          	beq	a0,s6,8000072a <_printf_common+0xce>
    80000776:	2905                	addiw	s2,s2,1
    80000778:	bf71                	j	80000714 <_printf_common+0xb8>

000000008000077a <_printf_i>:
    8000077a:	715d                	addi	sp,sp,-80
    8000077c:	e0a2                	sd	s0,64(sp)
    8000077e:	f84a                	sd	s2,48(sp)
    80000780:	f44e                	sd	s3,40(sp)
    80000782:	f052                	sd	s4,32(sp)
    80000784:	e486                	sd	ra,72(sp)
    80000786:	fc26                	sd	s1,56(sp)
    80000788:	ec56                	sd	s5,24(sp)
    8000078a:	e85a                	sd	s6,16(sp)
    8000078c:	0185c803          	lbu	a6,24(a1)
    80000790:	07800793          	li	a5,120
    80000794:	892a                	mv	s2,a0
    80000796:	842e                	mv	s0,a1
    80000798:	89b2                	mv	s3,a2
    8000079a:	8a36                	mv	s4,a3
    8000079c:	0307e263          	bltu	a5,a6,800007c0 <_printf_i+0x46>
    800007a0:	06200793          	li	a5,98
    800007a4:	04358693          	addi	a3,a1,67
    800007a8:	0307e163          	bltu	a5,a6,800007ca <_printf_i+0x50>
    800007ac:	1c080663          	beqz	a6,80000978 <_printf_i+0x1fe>
    800007b0:	05800793          	li	a5,88
    800007b4:	00001617          	auipc	a2,0x1
    800007b8:	57c60613          	addi	a2,a2,1404 # 80001d30 <__tbss_end+0x86>
    800007bc:	14f80a63          	beq	a6,a5,80000910 <_printf_i+0x196>
    800007c0:	04240493          	addi	s1,s0,66
    800007c4:	05040123          	sb	a6,66(s0)
    800007c8:	a815                	j	800007fc <_printf_i+0x82>
    800007ca:	f9d8079b          	addiw	a5,a6,-99
    800007ce:	0ff7f793          	zext.b	a5,a5
    800007d2:	4655                	li	a2,21
    800007d4:	fef666e3          	bltu	a2,a5,800007c0 <_printf_i+0x46>
    800007d8:	00001617          	auipc	a2,0x1
    800007dc:	58460613          	addi	a2,a2,1412 # 80001d5c <__tbss_end+0xb2>
    800007e0:	078a                	slli	a5,a5,0x2
    800007e2:	97b2                	add	a5,a5,a2
    800007e4:	439c                	lw	a5,0(a5)
    800007e6:	97b2                	add	a5,a5,a2
    800007e8:	8782                	jr	a5
    800007ea:	631c                	ld	a5,0(a4)
    800007ec:	04258493          	addi	s1,a1,66
    800007f0:	00878693          	addi	a3,a5,8
    800007f4:	439c                	lw	a5,0(a5)
    800007f6:	e314                	sd	a3,0(a4)
    800007f8:	04f58123          	sb	a5,66(a1)
    800007fc:	4785                	li	a5,1
    800007fe:	aa4d                	j	800009b0 <_printf_i+0x236>
    80000800:	419c                	lw	a5,0(a1)
    80000802:	6308                	ld	a0,0(a4)
    80000804:	0807f613          	andi	a2,a5,128
    80000808:	00850593          	addi	a1,a0,8
    8000080c:	c20d                	beqz	a2,8000082e <_printf_i+0xb4>
    8000080e:	611c                	ld	a5,0(a0)
    80000810:	e30c                	sd	a1,0(a4)
    80000812:	0007d863          	bgez	a5,80000822 <_printf_i+0xa8>
    80000816:	02d00713          	li	a4,45
    8000081a:	40f007b3          	neg	a5,a5
    8000081e:	04e401a3          	sb	a4,67(s0)
    80000822:	00001617          	auipc	a2,0x1
    80000826:	50e60613          	addi	a2,a2,1294 # 80001d30 <__tbss_end+0x86>
    8000082a:	4829                	li	a6,10
    8000082c:	a83d                	j	8000086a <_printf_i+0xf0>
    8000082e:	0407f613          	andi	a2,a5,64
    80000832:	411c                	lw	a5,0(a0)
    80000834:	e30c                	sd	a1,0(a4)
    80000836:	de71                	beqz	a2,80000812 <_printf_i+0x98>
    80000838:	0107979b          	slliw	a5,a5,0x10
    8000083c:	4107d79b          	sraiw	a5,a5,0x10
    80000840:	bfc9                	j	80000812 <_printf_i+0x98>
    80000842:	4190                	lw	a2,0(a1)
    80000844:	631c                	ld	a5,0(a4)
    80000846:	08067513          	andi	a0,a2,128
    8000084a:	00878593          	addi	a1,a5,8
    8000084e:	cd41                	beqz	a0,800008e6 <_printf_i+0x16c>
    80000850:	639c                	ld	a5,0(a5)
    80000852:	e30c                	sd	a1,0(a4)
    80000854:	06f00713          	li	a4,111
    80000858:	00001617          	auipc	a2,0x1
    8000085c:	4d860613          	addi	a2,a2,1240 # 80001d30 <__tbss_end+0x86>
    80000860:	0ee81e63          	bne	a6,a4,8000095c <_printf_i+0x1e2>
    80000864:	4821                	li	a6,8
    80000866:	040401a3          	sb	zero,67(s0)
    8000086a:	4058                	lw	a4,4(s0)
    8000086c:	c418                	sw	a4,8(s0)
    8000086e:	00074563          	bltz	a4,80000878 <_printf_i+0xfe>
    80000872:	400c                	lw	a1,0(s0)
    80000874:	99ed                	andi	a1,a1,-5
    80000876:	c00c                	sw	a1,0(s0)
    80000878:	e399                	bnez	a5,8000087e <_printf_i+0x104>
    8000087a:	84b6                	mv	s1,a3
    8000087c:	cf19                	beqz	a4,8000089a <_printf_i+0x120>
    8000087e:	84b6                	mv	s1,a3
    80000880:	0307f733          	remu	a4,a5,a6
    80000884:	14fd                	addi	s1,s1,-1
    80000886:	9732                	add	a4,a4,a2
    80000888:	00074703          	lbu	a4,0(a4)
    8000088c:	00e48023          	sb	a4,0(s1)
    80000890:	873e                	mv	a4,a5
    80000892:	0307d7b3          	divu	a5,a5,a6
    80000896:	ff0775e3          	bgeu	a4,a6,80000880 <_printf_i+0x106>
    8000089a:	47a1                	li	a5,8
    8000089c:	00f81e63          	bne	a6,a5,800008b8 <_printf_i+0x13e>
    800008a0:	401c                	lw	a5,0(s0)
    800008a2:	8b85                	andi	a5,a5,1
    800008a4:	cb91                	beqz	a5,800008b8 <_printf_i+0x13e>
    800008a6:	4058                	lw	a4,4(s0)
    800008a8:	481c                	lw	a5,16(s0)
    800008aa:	00e7c763          	blt	a5,a4,800008b8 <_printf_i+0x13e>
    800008ae:	03000793          	li	a5,48
    800008b2:	fef48fa3          	sb	a5,-1(s1)
    800008b6:	14fd                	addi	s1,s1,-1
    800008b8:	8e85                	sub	a3,a3,s1
    800008ba:	c814                	sw	a3,16(s0)
    800008bc:	8752                	mv	a4,s4
    800008be:	86ce                	mv	a3,s3
    800008c0:	0070                	addi	a2,sp,12
    800008c2:	85a2                	mv	a1,s0
    800008c4:	854a                	mv	a0,s2
    800008c6:	d97ff0ef          	jal	8000065c <_printf_common>
    800008ca:	5afd                	li	s5,-1
    800008cc:	0f551663          	bne	a0,s5,800009b8 <_printf_i+0x23e>
    800008d0:	557d                	li	a0,-1
    800008d2:	60a6                	ld	ra,72(sp)
    800008d4:	6406                	ld	s0,64(sp)
    800008d6:	74e2                	ld	s1,56(sp)
    800008d8:	7942                	ld	s2,48(sp)
    800008da:	79a2                	ld	s3,40(sp)
    800008dc:	7a02                	ld	s4,32(sp)
    800008de:	6ae2                	ld	s5,24(sp)
    800008e0:	6b42                	ld	s6,16(sp)
    800008e2:	6161                	addi	sp,sp,80
    800008e4:	8082                	ret
    800008e6:	439c                	lw	a5,0(a5)
    800008e8:	04067613          	andi	a2,a2,64
    800008ec:	e30c                	sd	a1,0(a4)
    800008ee:	c601                	beqz	a2,800008f6 <_printf_i+0x17c>
    800008f0:	17c2                	slli	a5,a5,0x30
    800008f2:	93c1                	srli	a5,a5,0x30
    800008f4:	b785                	j	80000854 <_printf_i+0xda>
    800008f6:	1782                	slli	a5,a5,0x20
    800008f8:	9381                	srli	a5,a5,0x20
    800008fa:	bfa9                	j	80000854 <_printf_i+0xda>
    800008fc:	419c                	lw	a5,0(a1)
    800008fe:	0a07e793          	ori	a5,a5,160
    80000902:	c19c                	sw	a5,0(a1)
    80000904:	07800813          	li	a6,120
    80000908:	00001617          	auipc	a2,0x1
    8000090c:	44060613          	addi	a2,a2,1088 # 80001d48 <__tbss_end+0x9e>
    80000910:	050402a3          	sb	a6,69(s0)
    80000914:	400c                	lw	a1,0(s0)
    80000916:	631c                	ld	a5,0(a4)
    80000918:	0805f813          	andi	a6,a1,128
    8000091c:	00878513          	addi	a0,a5,8
    80000920:	00080d63          	beqz	a6,8000093a <_printf_i+0x1c0>
    80000924:	639c                	ld	a5,0(a5)
    80000926:	e308                	sd	a0,0(a4)
    80000928:	0015f713          	andi	a4,a1,1
    8000092c:	c701                	beqz	a4,80000934 <_printf_i+0x1ba>
    8000092e:	0205e593          	ori	a1,a1,32
    80000932:	c00c                	sw	a1,0(s0)
    80000934:	cf99                	beqz	a5,80000952 <_printf_i+0x1d8>
    80000936:	4841                	li	a6,16
    80000938:	b73d                	j	80000866 <_printf_i+0xec>
    8000093a:	439c                	lw	a5,0(a5)
    8000093c:	0405f813          	andi	a6,a1,64
    80000940:	e308                	sd	a0,0(a4)
    80000942:	00080563          	beqz	a6,8000094c <_printf_i+0x1d2>
    80000946:	17c2                	slli	a5,a5,0x30
    80000948:	93c1                	srli	a5,a5,0x30
    8000094a:	bff9                	j	80000928 <_printf_i+0x1ae>
    8000094c:	1782                	slli	a5,a5,0x20
    8000094e:	9381                	srli	a5,a5,0x20
    80000950:	bfe1                	j	80000928 <_printf_i+0x1ae>
    80000952:	4018                	lw	a4,0(s0)
    80000954:	fdf77713          	andi	a4,a4,-33
    80000958:	c018                	sw	a4,0(s0)
    8000095a:	bff1                	j	80000936 <_printf_i+0x1bc>
    8000095c:	4829                	li	a6,10
    8000095e:	b721                	j	80000866 <_printf_i+0xec>
    80000960:	4190                	lw	a2,0(a1)
    80000962:	631c                	ld	a5,0(a4)
    80000964:	49cc                	lw	a1,20(a1)
    80000966:	08067813          	andi	a6,a2,128
    8000096a:	00878513          	addi	a0,a5,8
    8000096e:	00080963          	beqz	a6,80000980 <_printf_i+0x206>
    80000972:	e308                	sd	a0,0(a4)
    80000974:	639c                	ld	a5,0(a5)
    80000976:	e38c                	sd	a1,0(a5)
    80000978:	00042823          	sw	zero,16(s0)
    8000097c:	84b6                	mv	s1,a3
    8000097e:	bf3d                	j	800008bc <_printf_i+0x142>
    80000980:	e308                	sd	a0,0(a4)
    80000982:	04067613          	andi	a2,a2,64
    80000986:	639c                	ld	a5,0(a5)
    80000988:	c601                	beqz	a2,80000990 <_printf_i+0x216>
    8000098a:	00b79023          	sh	a1,0(a5)
    8000098e:	b7ed                	j	80000978 <_printf_i+0x1fe>
    80000990:	c38c                	sw	a1,0(a5)
    80000992:	b7dd                	j	80000978 <_printf_i+0x1fe>
    80000994:	631c                	ld	a5,0(a4)
    80000996:	41d0                	lw	a2,4(a1)
    80000998:	4581                	li	a1,0
    8000099a:	00878693          	addi	a3,a5,8
    8000099e:	e314                	sd	a3,0(a4)
    800009a0:	6384                	ld	s1,0(a5)
    800009a2:	8526                	mv	a0,s1
    800009a4:	7e8000ef          	jal	8000118c <memchr>
    800009a8:	c119                	beqz	a0,800009ae <_printf_i+0x234>
    800009aa:	8d05                	sub	a0,a0,s1
    800009ac:	c048                	sw	a0,4(s0)
    800009ae:	405c                	lw	a5,4(s0)
    800009b0:	c81c                	sw	a5,16(s0)
    800009b2:	040401a3          	sb	zero,67(s0)
    800009b6:	b719                	j	800008bc <_printf_i+0x142>
    800009b8:	4814                	lw	a3,16(s0)
    800009ba:	8626                	mv	a2,s1
    800009bc:	85ce                	mv	a1,s3
    800009be:	854a                	mv	a0,s2
    800009c0:	9a02                	jalr	s4
    800009c2:	f15507e3          	beq	a0,s5,800008d0 <_printf_i+0x156>
    800009c6:	401c                	lw	a5,0(s0)
    800009c8:	8b89                	andi	a5,a5,2
    800009ca:	eb85                	bnez	a5,800009fa <_printf_i+0x280>
    800009cc:	4458                	lw	a4,12(s0)
    800009ce:	47b2                	lw	a5,12(sp)
    800009d0:	0007051b          	sext.w	a0,a4
    800009d4:	eef75fe3          	bge	a4,a5,800008d2 <_printf_i+0x158>
    800009d8:	0007851b          	sext.w	a0,a5
    800009dc:	bddd                	j	800008d2 <_printf_i+0x158>
    800009de:	4685                	li	a3,1
    800009e0:	8656                	mv	a2,s5
    800009e2:	85ce                	mv	a1,s3
    800009e4:	854a                	mv	a0,s2
    800009e6:	9a02                	jalr	s4
    800009e8:	ef6504e3          	beq	a0,s6,800008d0 <_printf_i+0x156>
    800009ec:	2485                	addiw	s1,s1,1
    800009ee:	445c                	lw	a5,12(s0)
    800009f0:	4732                	lw	a4,12(sp)
    800009f2:	9f99                	subw	a5,a5,a4
    800009f4:	fef4c5e3          	blt	s1,a5,800009de <_printf_i+0x264>
    800009f8:	bfd1                	j	800009cc <_printf_i+0x252>
    800009fa:	4481                	li	s1,0
    800009fc:	01940a93          	addi	s5,s0,25
    80000a00:	5b7d                	li	s6,-1
    80000a02:	b7f5                	j	800009ee <_printf_i+0x274>

0000000080000a04 <__fp_lock>:
    80000a04:	4501                	li	a0,0
    80000a06:	8082                	ret

0000000080000a08 <std>:
    80000a08:	1141                	addi	sp,sp,-16
    80000a0a:	e022                	sd	s0,0(sp)
    80000a0c:	e406                	sd	ra,8(sp)
    80000a0e:	842a                	mv	s0,a0
    80000a10:	00b51823          	sh	a1,16(a0)
    80000a14:	00c51923          	sh	a2,18(a0)
    80000a18:	00053023          	sd	zero,0(a0)
    80000a1c:	00053423          	sd	zero,8(a0)
    80000a20:	0a052623          	sw	zero,172(a0)
    80000a24:	00053c23          	sd	zero,24(a0)
    80000a28:	02052023          	sw	zero,32(a0)
    80000a2c:	02052423          	sw	zero,40(a0)
    80000a30:	4621                	li	a2,8
    80000a32:	4581                	li	a1,0
    80000a34:	0a450513          	addi	a0,a0,164
    80000a38:	111000ef          	jal	80001348 <memset>
    80000a3c:	00000797          	auipc	a5,0x0
    80000a40:	51478793          	addi	a5,a5,1300 # 80000f50 <__sread>
    80000a44:	e03c                	sd	a5,64(s0)
    80000a46:	00000797          	auipc	a5,0x0
    80000a4a:	54078793          	addi	a5,a5,1344 # 80000f86 <__swrite>
    80000a4e:	e43c                	sd	a5,72(s0)
    80000a50:	00000797          	auipc	a5,0x0
    80000a54:	58678793          	addi	a5,a5,1414 # 80000fd6 <__sseek>
    80000a58:	e83c                	sd	a5,80(s0)
    80000a5a:	00000797          	auipc	a5,0x0
    80000a5e:	5b478793          	addi	a5,a5,1460 # 8000100e <__sclose>
    80000a62:	60a2                	ld	ra,8(sp)
    80000a64:	fc00                	sd	s0,56(s0)
    80000a66:	ec3c                	sd	a5,88(s0)
    80000a68:	6402                	ld	s0,0(sp)
    80000a6a:	0141                	addi	sp,sp,16
    80000a6c:	8082                	ret

0000000080000a6e <stdio_exit_handler>:
    80000a6e:	00001617          	auipc	a2,0x1
    80000a72:	43260613          	addi	a2,a2,1074 # 80001ea0 <__sglue>
    80000a76:	00001597          	auipc	a1,0x1
    80000a7a:	ce458593          	addi	a1,a1,-796 # 8000175a <_fflush_r>
    80000a7e:	00001517          	auipc	a0,0x1
    80000a82:	39250513          	addi	a0,a0,914 # 80001e10 <_impure_data>
    80000a86:	a185                	j	80000ee6 <_fwalk_sglue>

0000000080000a88 <cleanup_stdio>:
    80000a88:	650c                	ld	a1,8(a0)
    80000a8a:	1141                	addi	sp,sp,-16
    80000a8c:	e022                	sd	s0,0(sp)
    80000a8e:	e406                	sd	ra,8(sp)
    80000a90:	00001797          	auipc	a5,0x1
    80000a94:	48078793          	addi	a5,a5,1152 # 80001f10 <__sf>
    80000a98:	842a                	mv	s0,a0
    80000a9a:	00f58463          	beq	a1,a5,80000aa2 <cleanup_stdio+0x1a>
    80000a9e:	4bd000ef          	jal	8000175a <_fflush_r>
    80000aa2:	680c                	ld	a1,16(s0)
    80000aa4:	00001797          	auipc	a5,0x1
    80000aa8:	51c78793          	addi	a5,a5,1308 # 80001fc0 <__sf+0xb0>
    80000aac:	00f58563          	beq	a1,a5,80000ab6 <cleanup_stdio+0x2e>
    80000ab0:	8522                	mv	a0,s0
    80000ab2:	4a9000ef          	jal	8000175a <_fflush_r>
    80000ab6:	6c0c                	ld	a1,24(s0)
    80000ab8:	9b818793          	addi	a5,gp,-1608 # 80002070 <__sf+0x160>
    80000abc:	00f58863          	beq	a1,a5,80000acc <cleanup_stdio+0x44>
    80000ac0:	8522                	mv	a0,s0
    80000ac2:	6402                	ld	s0,0(sp)
    80000ac4:	60a2                	ld	ra,8(sp)
    80000ac6:	0141                	addi	sp,sp,16
    80000ac8:	4930006f          	j	8000175a <_fflush_r>
    80000acc:	60a2                	ld	ra,8(sp)
    80000ace:	6402                	ld	s0,0(sp)
    80000ad0:	0141                	addi	sp,sp,16
    80000ad2:	8082                	ret

0000000080000ad4 <global_stdio_init.part.0>:
    80000ad4:	1141                	addi	sp,sp,-16
    80000ad6:	00000797          	auipc	a5,0x0
    80000ada:	f9878793          	addi	a5,a5,-104 # 80000a6e <stdio_exit_handler>
    80000ade:	4601                	li	a2,0
    80000ae0:	4591                	li	a1,4
    80000ae2:	00001517          	auipc	a0,0x1
    80000ae6:	42e50513          	addi	a0,a0,1070 # 80001f10 <__sf>
    80000aea:	e406                	sd	ra,8(sp)
    80000aec:	82f1b023          	sd	a5,-2016(gp) # 80001ed8 <__stdio_exit_handler>
    80000af0:	f19ff0ef          	jal	80000a08 <std>
    80000af4:	4605                	li	a2,1
    80000af6:	45a5                	li	a1,9
    80000af8:	00001517          	auipc	a0,0x1
    80000afc:	4c850513          	addi	a0,a0,1224 # 80001fc0 <__sf+0xb0>
    80000b00:	f09ff0ef          	jal	80000a08 <std>
    80000b04:	60a2                	ld	ra,8(sp)
    80000b06:	4609                	li	a2,2
    80000b08:	45c9                	li	a1,18
    80000b0a:	9b818513          	addi	a0,gp,-1608 # 80002070 <__sf+0x160>
    80000b0e:	0141                	addi	sp,sp,16
    80000b10:	bde5                	j	80000a08 <std>

0000000080000b12 <__fp_unlock>:
    80000b12:	4501                	li	a0,0
    80000b14:	8082                	ret

0000000080000b16 <__sfp>:
    80000b16:	1101                	addi	sp,sp,-32
    80000b18:	e04a                	sd	s2,0(sp)
    80000b1a:	ec06                	sd	ra,24(sp)
    80000b1c:	e822                	sd	s0,16(sp)
    80000b1e:	e426                	sd	s1,8(sp)
    80000b20:	8201b783          	ld	a5,-2016(gp) # 80001ed8 <__stdio_exit_handler>
    80000b24:	892a                	mv	s2,a0
    80000b26:	e399                	bnez	a5,80000b2c <__sfp+0x16>
    80000b28:	fadff0ef          	jal	80000ad4 <global_stdio_init.part.0>
    80000b2c:	00001497          	auipc	s1,0x1
    80000b30:	37448493          	addi	s1,s1,884 # 80001ea0 <__sglue>
    80000b34:	6880                	ld	s0,16(s1)
    80000b36:	449c                	lw	a5,8(s1)
    80000b38:	37fd                	addiw	a5,a5,-1
    80000b3a:	0207d163          	bgez	a5,80000b5c <__sfp+0x46>
    80000b3e:	609c                	ld	a5,0(s1)
    80000b40:	e7c1                	bnez	a5,80000bc8 <__sfp+0xb2>
    80000b42:	2d800593          	li	a1,728
    80000b46:	854a                	mv	a0,s2
    80000b48:	121000ef          	jal	80001468 <_malloc_r>
    80000b4c:	842a                	mv	s0,a0
    80000b4e:	e12d                	bnez	a0,80000bb0 <__sfp+0x9a>
    80000b50:	0004b023          	sd	zero,0(s1)
    80000b54:	47b1                	li	a5,12
    80000b56:	00f92023          	sw	a5,0(s2)
    80000b5a:	a089                	j	80000b9c <__sfp+0x86>
    80000b5c:	01041703          	lh	a4,16(s0)
    80000b60:	e729                	bnez	a4,80000baa <__sfp+0x94>
    80000b62:	77c1                	lui	a5,0xffff0
    80000b64:	0785                	addi	a5,a5,1 # ffffffffffff0001 <__heap_end+0xffffffff7ffcd001>
    80000b66:	0a042623          	sw	zero,172(s0)
    80000b6a:	00043023          	sd	zero,0(s0)
    80000b6e:	00043423          	sd	zero,8(s0)
    80000b72:	c81c                	sw	a5,16(s0)
    80000b74:	00043c23          	sd	zero,24(s0)
    80000b78:	02042023          	sw	zero,32(s0)
    80000b7c:	02042423          	sw	zero,40(s0)
    80000b80:	4621                	li	a2,8
    80000b82:	4581                	li	a1,0
    80000b84:	0a440513          	addi	a0,s0,164
    80000b88:	7c0000ef          	jal	80001348 <memset>
    80000b8c:	06043023          	sd	zero,96(s0)
    80000b90:	06042423          	sw	zero,104(s0)
    80000b94:	08043023          	sd	zero,128(s0)
    80000b98:	08042423          	sw	zero,136(s0)
    80000b9c:	60e2                	ld	ra,24(sp)
    80000b9e:	8522                	mv	a0,s0
    80000ba0:	6442                	ld	s0,16(sp)
    80000ba2:	64a2                	ld	s1,8(sp)
    80000ba4:	6902                	ld	s2,0(sp)
    80000ba6:	6105                	addi	sp,sp,32
    80000ba8:	8082                	ret
    80000baa:	0b040413          	addi	s0,s0,176
    80000bae:	b769                	j	80000b38 <__sfp+0x22>
    80000bb0:	4791                	li	a5,4
    80000bb2:	00053023          	sd	zero,0(a0)
    80000bb6:	c51c                	sw	a5,8(a0)
    80000bb8:	0561                	addi	a0,a0,24
    80000bba:	e808                	sd	a0,16(s0)
    80000bbc:	2c000613          	li	a2,704
    80000bc0:	4581                	li	a1,0
    80000bc2:	786000ef          	jal	80001348 <memset>
    80000bc6:	e080                	sd	s0,0(s1)
    80000bc8:	6084                	ld	s1,0(s1)
    80000bca:	b7ad                	j	80000b34 <__sfp+0x1e>

0000000080000bcc <__sinit>:
    80000bcc:	613c                	ld	a5,64(a0)
    80000bce:	eb91                	bnez	a5,80000be2 <__sinit+0x16>
    80000bd0:	00000797          	auipc	a5,0x0
    80000bd4:	eb878793          	addi	a5,a5,-328 # 80000a88 <cleanup_stdio>
    80000bd8:	e13c                	sd	a5,64(a0)
    80000bda:	8201b783          	ld	a5,-2016(gp) # 80001ed8 <__stdio_exit_handler>
    80000bde:	e391                	bnez	a5,80000be2 <__sinit+0x16>
    80000be0:	bdd5                	j	80000ad4 <global_stdio_init.part.0>
    80000be2:	8082                	ret

0000000080000be4 <__sfp_lock_acquire>:
    80000be4:	8082                	ret

0000000080000be6 <__sfp_lock_release>:
    80000be6:	8082                	ret

0000000080000be8 <__fp_lock_all>:
    80000be8:	00001617          	auipc	a2,0x1
    80000bec:	2b860613          	addi	a2,a2,696 # 80001ea0 <__sglue>
    80000bf0:	00000597          	auipc	a1,0x0
    80000bf4:	e1458593          	addi	a1,a1,-492 # 80000a04 <__fp_lock>
    80000bf8:	4501                	li	a0,0
    80000bfa:	a4f5                	j	80000ee6 <_fwalk_sglue>

0000000080000bfc <__fp_unlock_all>:
    80000bfc:	00001617          	auipc	a2,0x1
    80000c00:	2a460613          	addi	a2,a2,676 # 80001ea0 <__sglue>
    80000c04:	00000597          	auipc	a1,0x0
    80000c08:	f0e58593          	addi	a1,a1,-242 # 80000b12 <__fp_unlock>
    80000c0c:	4501                	li	a0,0
    80000c0e:	ace1                	j	80000ee6 <_fwalk_sglue>

0000000080000c10 <__sfvwrite_r>:
    80000c10:	6a1c                	ld	a5,16(a2)
    80000c12:	e399                	bnez	a5,80000c18 <__sfvwrite_r+0x8>
    80000c14:	4501                	li	a0,0
    80000c16:	8082                	ret
    80000c18:	0105d783          	lhu	a5,16(a1)
    80000c1c:	7159                	addi	sp,sp,-112
    80000c1e:	f0a2                	sd	s0,96(sp)
    80000c20:	e8ca                	sd	s2,80(sp)
    80000c22:	e0d2                	sd	s4,64(sp)
    80000c24:	f486                	sd	ra,104(sp)
    80000c26:	eca6                	sd	s1,88(sp)
    80000c28:	e4ce                	sd	s3,72(sp)
    80000c2a:	fc56                	sd	s5,56(sp)
    80000c2c:	f85a                	sd	s6,48(sp)
    80000c2e:	f45e                	sd	s7,40(sp)
    80000c30:	f062                	sd	s8,32(sp)
    80000c32:	ec66                	sd	s9,24(sp)
    80000c34:	e86a                	sd	s10,16(sp)
    80000c36:	e46e                	sd	s11,8(sp)
    80000c38:	8ba1                	andi	a5,a5,8
    80000c3a:	892a                	mv	s2,a0
    80000c3c:	842e                	mv	s0,a1
    80000c3e:	8a32                	mv	s4,a2
    80000c40:	cfc1                	beqz	a5,80000cd8 <__sfvwrite_r+0xc8>
    80000c42:	6d9c                	ld	a5,24(a1)
    80000c44:	cbd1                	beqz	a5,80000cd8 <__sfvwrite_r+0xc8>
    80000c46:	01041783          	lh	a5,16(s0)
    80000c4a:	000a3983          	ld	s3,0(s4)
    80000c4e:	0027f713          	andi	a4,a5,2
    80000c52:	e765                	bnez	a4,80000d3a <__sfvwrite_r+0x12a>
    80000c54:	8b85                	andi	a5,a5,1
    80000c56:	4a81                	li	s5,0
    80000c58:	16078063          	beqz	a5,80000db8 <__sfvwrite_r+0x1a8>
    80000c5c:	4501                	li	a0,0
    80000c5e:	4b81                	li	s7,0
    80000c60:	4b01                	li	s6,0
    80000c62:	240b0063          	beqz	s6,80000ea2 <__sfvwrite_r+0x292>
    80000c66:	e919                	bnez	a0,80000c7c <__sfvwrite_r+0x6c>
    80000c68:	865a                	mv	a2,s6
    80000c6a:	45a9                	li	a1,10
    80000c6c:	855e                	mv	a0,s7
    80000c6e:	51e000ef          	jal	8000118c <memchr>
    80000c72:	22050f63          	beqz	a0,80000eb0 <__sfvwrite_r+0x2a0>
    80000c76:	0505                	addi	a0,a0,1
    80000c78:	41750abb          	subw	s5,a0,s7
    80000c7c:	8c56                	mv	s8,s5
    80000c7e:	015b7363          	bgeu	s6,s5,80000c84 <__sfvwrite_r+0x74>
    80000c82:	8c5a                	mv	s8,s6
    80000c84:	6008                	ld	a0,0(s0)
    80000c86:	6c1c                	ld	a5,24(s0)
    80000c88:	4444                	lw	s1,12(s0)
    80000c8a:	5014                	lw	a3,32(s0)
    80000c8c:	22a7f563          	bgeu	a5,a0,80000eb6 <__sfvwrite_r+0x2a6>
    80000c90:	9cb5                	addw	s1,s1,a3
    80000c92:	2384d263          	bge	s1,s8,80000eb6 <__sfvwrite_r+0x2a6>
    80000c96:	85de                	mv	a1,s7
    80000c98:	8626                	mv	a2,s1
    80000c9a:	688000ef          	jal	80001322 <memmove>
    80000c9e:	601c                	ld	a5,0(s0)
    80000ca0:	85a2                	mv	a1,s0
    80000ca2:	854a                	mv	a0,s2
    80000ca4:	97a6                	add	a5,a5,s1
    80000ca6:	e01c                	sd	a5,0(s0)
    80000ca8:	2b3000ef          	jal	8000175a <_fflush_r>
    80000cac:	0e051f63          	bnez	a0,80000daa <__sfvwrite_r+0x19a>
    80000cb0:	409a8abb          	subw	s5,s5,s1
    80000cb4:	4505                	li	a0,1
    80000cb6:	000a9763          	bnez	s5,80000cc4 <__sfvwrite_r+0xb4>
    80000cba:	85a2                	mv	a1,s0
    80000cbc:	854a                	mv	a0,s2
    80000cbe:	29d000ef          	jal	8000175a <_fflush_r>
    80000cc2:	e565                	bnez	a0,80000daa <__sfvwrite_r+0x19a>
    80000cc4:	010a3783          	ld	a5,16(s4)
    80000cc8:	9ba6                	add	s7,s7,s1
    80000cca:	409b0b33          	sub	s6,s6,s1
    80000cce:	8f85                	sub	a5,a5,s1
    80000cd0:	00fa3823          	sd	a5,16(s4)
    80000cd4:	f7d9                	bnez	a5,80000c62 <__sfvwrite_r+0x52>
    80000cd6:	a091                	j	80000d1a <__sfvwrite_r+0x10a>
    80000cd8:	85a2                	mv	a1,s0
    80000cda:	854a                	mv	a0,s2
    80000cdc:	3e2000ef          	jal	800010be <__swsetup_r>
    80000ce0:	d13d                	beqz	a0,80000c46 <__sfvwrite_r+0x36>
    80000ce2:	557d                	li	a0,-1
    80000ce4:	a825                	j	80000d1c <__sfvwrite_r+0x10c>
    80000ce6:	0009ba83          	ld	s5,0(s3)
    80000cea:	0089b483          	ld	s1,8(s3)
    80000cee:	09c1                	addi	s3,s3,16
    80000cf0:	643c                	ld	a5,72(s0)
    80000cf2:	7c0c                	ld	a1,56(s0)
    80000cf4:	d8ed                	beqz	s1,80000ce6 <__sfvwrite_r+0xd6>
    80000cf6:	86a6                	mv	a3,s1
    80000cf8:	009b7363          	bgeu	s6,s1,80000cfe <__sfvwrite_r+0xee>
    80000cfc:	86da                	mv	a3,s6
    80000cfe:	2681                	sext.w	a3,a3
    80000d00:	8656                	mv	a2,s5
    80000d02:	854a                	mv	a0,s2
    80000d04:	9782                	jalr	a5
    80000d06:	0aa05263          	blez	a0,80000daa <__sfvwrite_r+0x19a>
    80000d0a:	010a3783          	ld	a5,16(s4)
    80000d0e:	9aaa                	add	s5,s5,a0
    80000d10:	8c89                	sub	s1,s1,a0
    80000d12:	8f89                	sub	a5,a5,a0
    80000d14:	00fa3823          	sd	a5,16(s4)
    80000d18:	ffe1                	bnez	a5,80000cf0 <__sfvwrite_r+0xe0>
    80000d1a:	4501                	li	a0,0
    80000d1c:	70a6                	ld	ra,104(sp)
    80000d1e:	7406                	ld	s0,96(sp)
    80000d20:	64e6                	ld	s1,88(sp)
    80000d22:	6946                	ld	s2,80(sp)
    80000d24:	69a6                	ld	s3,72(sp)
    80000d26:	6a06                	ld	s4,64(sp)
    80000d28:	7ae2                	ld	s5,56(sp)
    80000d2a:	7b42                	ld	s6,48(sp)
    80000d2c:	7ba2                	ld	s7,40(sp)
    80000d2e:	7c02                	ld	s8,32(sp)
    80000d30:	6ce2                	ld	s9,24(sp)
    80000d32:	6d42                	ld	s10,16(sp)
    80000d34:	6da2                	ld	s11,8(sp)
    80000d36:	6165                	addi	sp,sp,112
    80000d38:	8082                	ret
    80000d3a:	80000b37          	lui	s6,0x80000
    80000d3e:	4a81                	li	s5,0
    80000d40:	4481                	li	s1,0
    80000d42:	c00b4b13          	xori	s6,s6,-1024
    80000d46:	b76d                	j	80000cf0 <__sfvwrite_r+0xe0>
    80000d48:	0009ba83          	ld	s5,0(s3)
    80000d4c:	0089bc83          	ld	s9,8(s3)
    80000d50:	09c1                	addi	s3,s3,16
    80000d52:	4444                	lw	s1,12(s0)
    80000d54:	01041783          	lh	a5,16(s0)
    80000d58:	6008                	ld	a0,0(s0)
    80000d5a:	8d26                	mv	s10,s1
    80000d5c:	fe0c86e3          	beqz	s9,80000d48 <__sfvwrite_r+0x138>
    80000d60:	2007f713          	andi	a4,a5,512
    80000d64:	c37d                	beqz	a4,80000e4a <__sfvwrite_r+0x23a>
    80000d66:	089ce763          	bltu	s9,s1,80000df4 <__sfvwrite_r+0x1e4>
    80000d6a:	4807f713          	andi	a4,a5,1152
    80000d6e:	c359                	beqz	a4,80000df4 <__sfvwrite_r+0x1e4>
    80000d70:	5004                	lw	s1,32(s0)
    80000d72:	6c0c                	ld	a1,24(s0)
    80000d74:	029b84bb          	mulw	s1,s7,s1
    80000d78:	8d0d                	sub	a0,a0,a1
    80000d7a:	00050d9b          	sext.w	s11,a0
    80000d7e:	001d8713          	addi	a4,s11,1
    80000d82:	9766                	add	a4,a4,s9
    80000d84:	0384c4bb          	divw	s1,s1,s8
    80000d88:	00e4f563          	bgeu	s1,a4,80000d92 <__sfvwrite_r+0x182>
    80000d8c:	2505                	addiw	a0,a0,1
    80000d8e:	019504bb          	addw	s1,a0,s9
    80000d92:	4007f793          	andi	a5,a5,1024
    80000d96:	cbc9                	beqz	a5,80000e28 <__sfvwrite_r+0x218>
    80000d98:	85a6                	mv	a1,s1
    80000d9a:	854a                	mv	a0,s2
    80000d9c:	6cc000ef          	jal	80001468 <_malloc_r>
    80000da0:	8d2a                	mv	s10,a0
    80000da2:	e11d                	bnez	a0,80000dc8 <__sfvwrite_r+0x1b8>
    80000da4:	47b1                	li	a5,12
    80000da6:	00f92023          	sw	a5,0(s2)
    80000daa:	01045783          	lhu	a5,16(s0)
    80000dae:	0407e793          	ori	a5,a5,64
    80000db2:	00f41823          	sh	a5,16(s0)
    80000db6:	b735                	j	80000ce2 <__sfvwrite_r+0xd2>
    80000db8:	80000b37          	lui	s6,0x80000
    80000dbc:	4c81                	li	s9,0
    80000dbe:	fffb4b13          	not	s6,s6
    80000dc2:	4b8d                	li	s7,3
    80000dc4:	4c09                	li	s8,2
    80000dc6:	b771                	j	80000d52 <__sfvwrite_r+0x142>
    80000dc8:	6c0c                	ld	a1,24(s0)
    80000dca:	866e                	mv	a2,s11
    80000dcc:	58c000ef          	jal	80001358 <memcpy>
    80000dd0:	01045783          	lhu	a5,16(s0)
    80000dd4:	b7f7f793          	andi	a5,a5,-1153
    80000dd8:	0807e793          	ori	a5,a5,128
    80000ddc:	00f41823          	sh	a5,16(s0)
    80000de0:	01a43c23          	sd	s10,24(s0)
    80000de4:	d004                	sw	s1,32(s0)
    80000de6:	9d6e                	add	s10,s10,s11
    80000de8:	41b484bb          	subw	s1,s1,s11
    80000dec:	01a43023          	sd	s10,0(s0)
    80000df0:	c444                	sw	s1,12(s0)
    80000df2:	8d66                	mv	s10,s9
    80000df4:	84e6                	mv	s1,s9
    80000df6:	01acf363          	bgeu	s9,s10,80000dfc <__sfvwrite_r+0x1ec>
    80000dfa:	8d66                	mv	s10,s9
    80000dfc:	6008                	ld	a0,0(s0)
    80000dfe:	866a                	mv	a2,s10
    80000e00:	85d6                	mv	a1,s5
    80000e02:	520000ef          	jal	80001322 <memmove>
    80000e06:	445c                	lw	a5,12(s0)
    80000e08:	41a787bb          	subw	a5,a5,s10
    80000e0c:	c45c                	sw	a5,12(s0)
    80000e0e:	601c                	ld	a5,0(s0)
    80000e10:	97ea                	add	a5,a5,s10
    80000e12:	e01c                	sd	a5,0(s0)
    80000e14:	010a3783          	ld	a5,16(s4)
    80000e18:	9aa6                	add	s5,s5,s1
    80000e1a:	409c8cb3          	sub	s9,s9,s1
    80000e1e:	8f85                	sub	a5,a5,s1
    80000e20:	00fa3823          	sd	a5,16(s4)
    80000e24:	f79d                	bnez	a5,80000d52 <__sfvwrite_r+0x142>
    80000e26:	bdd5                	j	80000d1a <__sfvwrite_r+0x10a>
    80000e28:	8626                	mv	a2,s1
    80000e2a:	854a                	mv	a0,s2
    80000e2c:	770000ef          	jal	8000159c <_realloc_r>
    80000e30:	8d2a                	mv	s10,a0
    80000e32:	f55d                	bnez	a0,80000de0 <__sfvwrite_r+0x1d0>
    80000e34:	6c0c                	ld	a1,24(s0)
    80000e36:	854a                	mv	a0,s2
    80000e38:	536000ef          	jal	8000136e <_free_r>
    80000e3c:	01045783          	lhu	a5,16(s0)
    80000e40:	f7f7f793          	andi	a5,a5,-129
    80000e44:	00f41823          	sh	a5,16(s0)
    80000e48:	bfb1                	j	80000da4 <__sfvwrite_r+0x194>
    80000e4a:	6c1c                	ld	a5,24(s0)
    80000e4c:	00a7e563          	bltu	a5,a0,80000e56 <__sfvwrite_r+0x246>
    80000e50:	5014                	lw	a3,32(s0)
    80000e52:	02dcf763          	bgeu	s9,a3,80000e80 <__sfvwrite_r+0x270>
    80000e56:	009cf363          	bgeu	s9,s1,80000e5c <__sfvwrite_r+0x24c>
    80000e5a:	84e6                	mv	s1,s9
    80000e5c:	8626                	mv	a2,s1
    80000e5e:	85d6                	mv	a1,s5
    80000e60:	4c2000ef          	jal	80001322 <memmove>
    80000e64:	445c                	lw	a5,12(s0)
    80000e66:	4097873b          	subw	a4,a5,s1
    80000e6a:	601c                	ld	a5,0(s0)
    80000e6c:	c458                	sw	a4,12(s0)
    80000e6e:	97a6                	add	a5,a5,s1
    80000e70:	e01c                	sd	a5,0(s0)
    80000e72:	f34d                	bnez	a4,80000e14 <__sfvwrite_r+0x204>
    80000e74:	85a2                	mv	a1,s0
    80000e76:	854a                	mv	a0,s2
    80000e78:	0e3000ef          	jal	8000175a <_fflush_r>
    80000e7c:	dd41                	beqz	a0,80000e14 <__sfvwrite_r+0x204>
    80000e7e:	b735                	j	80000daa <__sfvwrite_r+0x19a>
    80000e80:	87e6                	mv	a5,s9
    80000e82:	019b7363          	bgeu	s6,s9,80000e88 <__sfvwrite_r+0x278>
    80000e86:	87da                	mv	a5,s6
    80000e88:	02d7c7bb          	divw	a5,a5,a3
    80000e8c:	6438                	ld	a4,72(s0)
    80000e8e:	7c0c                	ld	a1,56(s0)
    80000e90:	8656                	mv	a2,s5
    80000e92:	854a                	mv	a0,s2
    80000e94:	02d786bb          	mulw	a3,a5,a3
    80000e98:	9702                	jalr	a4
    80000e9a:	84aa                	mv	s1,a0
    80000e9c:	f6a04ce3          	bgtz	a0,80000e14 <__sfvwrite_r+0x204>
    80000ea0:	b729                	j	80000daa <__sfvwrite_r+0x19a>
    80000ea2:	0009bb83          	ld	s7,0(s3)
    80000ea6:	0089bb03          	ld	s6,8(s3)
    80000eaa:	4501                	li	a0,0
    80000eac:	09c1                	addi	s3,s3,16
    80000eae:	bb55                	j	80000c62 <__sfvwrite_r+0x52>
    80000eb0:	001b0a9b          	addiw	s5,s6,1 # ffffffff80000001 <__heap_end+0xfffffffefffdd001>
    80000eb4:	b3e1                	j	80000c7c <__sfvwrite_r+0x6c>
    80000eb6:	00dc4b63          	blt	s8,a3,80000ecc <__sfvwrite_r+0x2bc>
    80000eba:	643c                	ld	a5,72(s0)
    80000ebc:	7c0c                	ld	a1,56(s0)
    80000ebe:	865e                	mv	a2,s7
    80000ec0:	854a                	mv	a0,s2
    80000ec2:	9782                	jalr	a5
    80000ec4:	84aa                	mv	s1,a0
    80000ec6:	dea045e3          	bgtz	a0,80000cb0 <__sfvwrite_r+0xa0>
    80000eca:	b5c5                	j	80000daa <__sfvwrite_r+0x19a>
    80000ecc:	8662                	mv	a2,s8
    80000ece:	85de                	mv	a1,s7
    80000ed0:	452000ef          	jal	80001322 <memmove>
    80000ed4:	445c                	lw	a5,12(s0)
    80000ed6:	84e2                	mv	s1,s8
    80000ed8:	418787bb          	subw	a5,a5,s8
    80000edc:	c45c                	sw	a5,12(s0)
    80000ede:	601c                	ld	a5,0(s0)
    80000ee0:	97e2                	add	a5,a5,s8
    80000ee2:	e01c                	sd	a5,0(s0)
    80000ee4:	b3f1                	j	80000cb0 <__sfvwrite_r+0xa0>

0000000080000ee6 <_fwalk_sglue>:
    80000ee6:	715d                	addi	sp,sp,-80
    80000ee8:	e0a2                	sd	s0,64(sp)
    80000eea:	fc26                	sd	s1,56(sp)
    80000eec:	f44e                	sd	s3,40(sp)
    80000eee:	f052                	sd	s4,32(sp)
    80000ef0:	e85a                	sd	s6,16(sp)
    80000ef2:	e45e                	sd	s7,8(sp)
    80000ef4:	e486                	sd	ra,72(sp)
    80000ef6:	f84a                	sd	s2,48(sp)
    80000ef8:	ec56                	sd	s5,24(sp)
    80000efa:	89aa                	mv	s3,a0
    80000efc:	8a2e                	mv	s4,a1
    80000efe:	8432                	mv	s0,a2
    80000f00:	4481                	li	s1,0
    80000f02:	4b05                	li	s6,1
    80000f04:	5bfd                	li	s7,-1
    80000f06:	01043903          	ld	s2,16(s0)
    80000f0a:	00842a83          	lw	s5,8(s0)
    80000f0e:	3afd                	addiw	s5,s5,-1
    80000f10:	020ad063          	bgez	s5,80000f30 <_fwalk_sglue+0x4a>
    80000f14:	6000                	ld	s0,0(s0)
    80000f16:	f865                	bnez	s0,80000f06 <_fwalk_sglue+0x20>
    80000f18:	60a6                	ld	ra,72(sp)
    80000f1a:	6406                	ld	s0,64(sp)
    80000f1c:	7942                	ld	s2,48(sp)
    80000f1e:	79a2                	ld	s3,40(sp)
    80000f20:	7a02                	ld	s4,32(sp)
    80000f22:	6ae2                	ld	s5,24(sp)
    80000f24:	6b42                	ld	s6,16(sp)
    80000f26:	6ba2                	ld	s7,8(sp)
    80000f28:	8526                	mv	a0,s1
    80000f2a:	74e2                	ld	s1,56(sp)
    80000f2c:	6161                	addi	sp,sp,80
    80000f2e:	8082                	ret
    80000f30:	01095783          	lhu	a5,16(s2)
    80000f34:	00fb7b63          	bgeu	s6,a5,80000f4a <_fwalk_sglue+0x64>
    80000f38:	01291783          	lh	a5,18(s2)
    80000f3c:	01778763          	beq	a5,s7,80000f4a <_fwalk_sglue+0x64>
    80000f40:	85ca                	mv	a1,s2
    80000f42:	854e                	mv	a0,s3
    80000f44:	9a02                	jalr	s4
    80000f46:	8cc9                	or	s1,s1,a0
    80000f48:	2481                	sext.w	s1,s1
    80000f4a:	0b090913          	addi	s2,s2,176
    80000f4e:	b7c1                	j	80000f0e <_fwalk_sglue+0x28>

0000000080000f50 <__sread>:
    80000f50:	1141                	addi	sp,sp,-16
    80000f52:	e022                	sd	s0,0(sp)
    80000f54:	842e                	mv	s0,a1
    80000f56:	01259583          	lh	a1,18(a1)
    80000f5a:	e406                	sd	ra,8(sp)
    80000f5c:	36e000ef          	jal	800012ca <_read_r>
    80000f60:	00054963          	bltz	a0,80000f72 <__sread+0x22>
    80000f64:	6c5c                	ld	a5,152(s0)
    80000f66:	97aa                	add	a5,a5,a0
    80000f68:	ec5c                	sd	a5,152(s0)
    80000f6a:	60a2                	ld	ra,8(sp)
    80000f6c:	6402                	ld	s0,0(sp)
    80000f6e:	0141                	addi	sp,sp,16
    80000f70:	8082                	ret
    80000f72:	01045783          	lhu	a5,16(s0)
    80000f76:	777d                	lui	a4,0xfffff
    80000f78:	177d                	addi	a4,a4,-1 # ffffffffffffefff <__heap_end+0xffffffff7ffdbfff>
    80000f7a:	8ff9                	and	a5,a5,a4
    80000f7c:	00f41823          	sh	a5,16(s0)
    80000f80:	b7ed                	j	80000f6a <__sread+0x1a>

0000000080000f82 <__seofread>:
    80000f82:	4501                	li	a0,0
    80000f84:	8082                	ret

0000000080000f86 <__swrite>:
    80000f86:	0105d783          	lhu	a5,16(a1)
    80000f8a:	7179                	addi	sp,sp,-48
    80000f8c:	f022                	sd	s0,32(sp)
    80000f8e:	ec26                	sd	s1,24(sp)
    80000f90:	e84a                	sd	s2,16(sp)
    80000f92:	e44e                	sd	s3,8(sp)
    80000f94:	f406                	sd	ra,40(sp)
    80000f96:	1007f793          	andi	a5,a5,256
    80000f9a:	84aa                	mv	s1,a0
    80000f9c:	842e                	mv	s0,a1
    80000f9e:	8932                	mv	s2,a2
    80000fa0:	89b6                	mv	s3,a3
    80000fa2:	c799                	beqz	a5,80000fb0 <__swrite+0x2a>
    80000fa4:	01259583          	lh	a1,18(a1)
    80000fa8:	4689                	li	a3,2
    80000faa:	4601                	li	a2,0
    80000fac:	2f2000ef          	jal	8000129e <_lseek_r>
    80000fb0:	01045783          	lhu	a5,16(s0)
    80000fb4:	777d                	lui	a4,0xfffff
    80000fb6:	177d                	addi	a4,a4,-1 # ffffffffffffefff <__heap_end+0xffffffff7ffdbfff>
    80000fb8:	8ff9                	and	a5,a5,a4
    80000fba:	01241583          	lh	a1,18(s0)
    80000fbe:	00f41823          	sh	a5,16(s0)
    80000fc2:	7402                	ld	s0,32(sp)
    80000fc4:	70a2                	ld	ra,40(sp)
    80000fc6:	86ce                	mv	a3,s3
    80000fc8:	864a                	mv	a2,s2
    80000fca:	69a2                	ld	s3,8(sp)
    80000fcc:	6942                	ld	s2,16(sp)
    80000fce:	8526                	mv	a0,s1
    80000fd0:	64e2                	ld	s1,24(sp)
    80000fd2:	6145                	addi	sp,sp,48
    80000fd4:	a60d                	j	800012f6 <_write_r>

0000000080000fd6 <__sseek>:
    80000fd6:	1141                	addi	sp,sp,-16
    80000fd8:	e022                	sd	s0,0(sp)
    80000fda:	842e                	mv	s0,a1
    80000fdc:	01259583          	lh	a1,18(a1)
    80000fe0:	e406                	sd	ra,8(sp)
    80000fe2:	2bc000ef          	jal	8000129e <_lseek_r>
    80000fe6:	577d                	li	a4,-1
    80000fe8:	01045783          	lhu	a5,16(s0)
    80000fec:	00e51b63          	bne	a0,a4,80001002 <__sseek+0x2c>
    80000ff0:	777d                	lui	a4,0xfffff
    80000ff2:	177d                	addi	a4,a4,-1 # ffffffffffffefff <__heap_end+0xffffffff7ffdbfff>
    80000ff4:	8ff9                	and	a5,a5,a4
    80000ff6:	00f41823          	sh	a5,16(s0)
    80000ffa:	60a2                	ld	ra,8(sp)
    80000ffc:	6402                	ld	s0,0(sp)
    80000ffe:	0141                	addi	sp,sp,16
    80001000:	8082                	ret
    80001002:	6705                	lui	a4,0x1
    80001004:	8fd9                	or	a5,a5,a4
    80001006:	00f41823          	sh	a5,16(s0)
    8000100a:	ec48                	sd	a0,152(s0)
    8000100c:	b7fd                	j	80000ffa <__sseek+0x24>

000000008000100e <__sclose>:
    8000100e:	01259583          	lh	a1,18(a1)
    80001012:	aa51                	j	800011a6 <_close_r>

0000000080001014 <__swbuf_r>:
    80001014:	7179                	addi	sp,sp,-48
    80001016:	f022                	sd	s0,32(sp)
    80001018:	ec26                	sd	s1,24(sp)
    8000101a:	e84a                	sd	s2,16(sp)
    8000101c:	f406                	sd	ra,40(sp)
    8000101e:	e44e                	sd	s3,8(sp)
    80001020:	892a                	mv	s2,a0
    80001022:	84ae                	mv	s1,a1
    80001024:	8432                	mv	s0,a2
    80001026:	c509                	beqz	a0,80001030 <__swbuf_r+0x1c>
    80001028:	613c                	ld	a5,64(a0)
    8000102a:	e399                	bnez	a5,80001030 <__swbuf_r+0x1c>
    8000102c:	ba1ff0ef          	jal	80000bcc <__sinit>
    80001030:	541c                	lw	a5,40(s0)
    80001032:	c45c                	sw	a5,12(s0)
    80001034:	01045783          	lhu	a5,16(s0)
    80001038:	8ba1                	andi	a5,a5,8
    8000103a:	c399                	beqz	a5,80001040 <__swbuf_r+0x2c>
    8000103c:	6c1c                	ld	a5,24(s0)
    8000103e:	ef99                	bnez	a5,8000105c <__swbuf_r+0x48>
    80001040:	85a2                	mv	a1,s0
    80001042:	854a                	mv	a0,s2
    80001044:	07a000ef          	jal	800010be <__swsetup_r>
    80001048:	c911                	beqz	a0,8000105c <__swbuf_r+0x48>
    8000104a:	54fd                	li	s1,-1
    8000104c:	70a2                	ld	ra,40(sp)
    8000104e:	7402                	ld	s0,32(sp)
    80001050:	6942                	ld	s2,16(sp)
    80001052:	69a2                	ld	s3,8(sp)
    80001054:	8526                	mv	a0,s1
    80001056:	64e2                	ld	s1,24(sp)
    80001058:	6145                	addi	sp,sp,48
    8000105a:	8082                	ret
    8000105c:	601c                	ld	a5,0(s0)
    8000105e:	6c18                	ld	a4,24(s0)
    80001060:	0ff4f993          	zext.b	s3,s1
    80001064:	84ce                	mv	s1,s3
    80001066:	40e7853b          	subw	a0,a5,a4
    8000106a:	501c                	lw	a5,32(s0)
    8000106c:	00f54763          	blt	a0,a5,8000107a <__swbuf_r+0x66>
    80001070:	85a2                	mv	a1,s0
    80001072:	854a                	mv	a0,s2
    80001074:	6e6000ef          	jal	8000175a <_fflush_r>
    80001078:	f969                	bnez	a0,8000104a <__swbuf_r+0x36>
    8000107a:	445c                	lw	a5,12(s0)
    8000107c:	37fd                	addiw	a5,a5,-1
    8000107e:	c45c                	sw	a5,12(s0)
    80001080:	601c                	ld	a5,0(s0)
    80001082:	00178713          	addi	a4,a5,1
    80001086:	e018                	sd	a4,0(s0)
    80001088:	01378023          	sb	s3,0(a5)
    8000108c:	5018                	lw	a4,32(s0)
    8000108e:	0015079b          	addiw	a5,a0,1
    80001092:	00f70963          	beq	a4,a5,800010a4 <__swbuf_r+0x90>
    80001096:	01045783          	lhu	a5,16(s0)
    8000109a:	8b85                	andi	a5,a5,1
    8000109c:	dbc5                	beqz	a5,8000104c <__swbuf_r+0x38>
    8000109e:	47a9                	li	a5,10
    800010a0:	faf496e3          	bne	s1,a5,8000104c <__swbuf_r+0x38>
    800010a4:	85a2                	mv	a1,s0
    800010a6:	854a                	mv	a0,s2
    800010a8:	6b2000ef          	jal	8000175a <_fflush_r>
    800010ac:	d145                	beqz	a0,8000104c <__swbuf_r+0x38>
    800010ae:	bf71                	j	8000104a <__swbuf_r+0x36>

00000000800010b0 <__swbuf>:
    800010b0:	862e                	mv	a2,a1
    800010b2:	85aa                	mv	a1,a0
    800010b4:	00001517          	auipc	a0,0x1
    800010b8:	e0453503          	ld	a0,-508(a0) # 80001eb8 <_impure_ptr>
    800010bc:	bfa1                	j	80001014 <__swbuf_r>

00000000800010be <__swsetup_r>:
    800010be:	1101                	addi	sp,sp,-32
    800010c0:	e822                	sd	s0,16(sp)
    800010c2:	e426                	sd	s1,8(sp)
    800010c4:	ec06                	sd	ra,24(sp)
    800010c6:	84aa                	mv	s1,a0
    800010c8:	00001517          	auipc	a0,0x1
    800010cc:	df053503          	ld	a0,-528(a0) # 80001eb8 <_impure_ptr>
    800010d0:	842e                	mv	s0,a1
    800010d2:	c509                	beqz	a0,800010dc <__swsetup_r+0x1e>
    800010d4:	613c                	ld	a5,64(a0)
    800010d6:	e399                	bnez	a5,800010dc <__swsetup_r+0x1e>
    800010d8:	af5ff0ef          	jal	80000bcc <__sinit>
    800010dc:	01041783          	lh	a5,16(s0)
    800010e0:	0087f713          	andi	a4,a5,8
    800010e4:	eb29                	bnez	a4,80001136 <__swsetup_r+0x78>
    800010e6:	0107f713          	andi	a4,a5,16
    800010ea:	eb09                	bnez	a4,800010fc <__swsetup_r+0x3e>
    800010ec:	4725                	li	a4,9
    800010ee:	c098                	sw	a4,0(s1)
    800010f0:	0407e793          	ori	a5,a5,64
    800010f4:	00f41823          	sh	a5,16(s0)
    800010f8:	557d                	li	a0,-1
    800010fa:	a8ad                	j	80001174 <__swsetup_r+0xb6>
    800010fc:	8b91                	andi	a5,a5,4
    800010fe:	c795                	beqz	a5,8000112a <__swsetup_r+0x6c>
    80001100:	702c                	ld	a1,96(s0)
    80001102:	c991                	beqz	a1,80001116 <__swsetup_r+0x58>
    80001104:	07c40793          	addi	a5,s0,124
    80001108:	00f58563          	beq	a1,a5,80001112 <__swsetup_r+0x54>
    8000110c:	8526                	mv	a0,s1
    8000110e:	260000ef          	jal	8000136e <_free_r>
    80001112:	06043023          	sd	zero,96(s0)
    80001116:	01045783          	lhu	a5,16(s0)
    8000111a:	00042423          	sw	zero,8(s0)
    8000111e:	fdb7f793          	andi	a5,a5,-37
    80001122:	00f41823          	sh	a5,16(s0)
    80001126:	6c1c                	ld	a5,24(s0)
    80001128:	e01c                	sd	a5,0(s0)
    8000112a:	01045783          	lhu	a5,16(s0)
    8000112e:	0087e793          	ori	a5,a5,8
    80001132:	00f41823          	sh	a5,16(s0)
    80001136:	6c1c                	ld	a5,24(s0)
    80001138:	ef89                	bnez	a5,80001152 <__swsetup_r+0x94>
    8000113a:	01045783          	lhu	a5,16(s0)
    8000113e:	20000713          	li	a4,512
    80001142:	2807f793          	andi	a5,a5,640
    80001146:	00e78663          	beq	a5,a4,80001152 <__swsetup_r+0x94>
    8000114a:	85a2                	mv	a1,s0
    8000114c:	8526                	mv	a0,s1
    8000114e:	6ca000ef          	jal	80001818 <__smakebuf_r>
    80001152:	01041783          	lh	a5,16(s0)
    80001156:	0017f713          	andi	a4,a5,1
    8000115a:	c315                	beqz	a4,8000117e <__swsetup_r+0xc0>
    8000115c:	5018                	lw	a4,32(s0)
    8000115e:	00042623          	sw	zero,12(s0)
    80001162:	40e0073b          	negw	a4,a4
    80001166:	d418                	sw	a4,40(s0)
    80001168:	6c18                	ld	a4,24(s0)
    8000116a:	4501                	li	a0,0
    8000116c:	e701                	bnez	a4,80001174 <__swsetup_r+0xb6>
    8000116e:	0807f713          	andi	a4,a5,128
    80001172:	ff3d                	bnez	a4,800010f0 <__swsetup_r+0x32>
    80001174:	60e2                	ld	ra,24(sp)
    80001176:	6442                	ld	s0,16(sp)
    80001178:	64a2                	ld	s1,8(sp)
    8000117a:	6105                	addi	sp,sp,32
    8000117c:	8082                	ret
    8000117e:	0027f713          	andi	a4,a5,2
    80001182:	4681                	li	a3,0
    80001184:	e311                	bnez	a4,80001188 <__swsetup_r+0xca>
    80001186:	5014                	lw	a3,32(s0)
    80001188:	c454                	sw	a3,12(s0)
    8000118a:	bff9                	j	80001168 <__swsetup_r+0xaa>

000000008000118c <memchr>:
    8000118c:	0ff5f593          	zext.b	a1,a1
    80001190:	962a                	add	a2,a2,a0
    80001192:	00c51463          	bne	a0,a2,8000119a <memchr+0xe>
    80001196:	4501                	li	a0,0
    80001198:	8082                	ret
    8000119a:	00054783          	lbu	a5,0(a0)
    8000119e:	feb78de3          	beq	a5,a1,80001198 <memchr+0xc>
    800011a2:	0505                	addi	a0,a0,1
    800011a4:	b7fd                	j	80001192 <memchr+0x6>

00000000800011a6 <_close_r>:
    800011a6:	1141                	addi	sp,sp,-16
    800011a8:	e022                	sd	s0,0(sp)
    800011aa:	842a                	mv	s0,a0
    800011ac:	852e                	mv	a0,a1
    800011ae:	8201a423          	sw	zero,-2008(gp) # 80001ee0 <errno>
    800011b2:	e406                	sd	ra,8(sp)
    800011b4:	794000ef          	jal	80001948 <_close>
    800011b8:	57fd                	li	a5,-1
    800011ba:	00f51663          	bne	a0,a5,800011c6 <_close_r+0x20>
    800011be:	8281a783          	lw	a5,-2008(gp) # 80001ee0 <errno>
    800011c2:	c391                	beqz	a5,800011c6 <_close_r+0x20>
    800011c4:	c01c                	sw	a5,0(s0)
    800011c6:	60a2                	ld	ra,8(sp)
    800011c8:	6402                	ld	s0,0(sp)
    800011ca:	0141                	addi	sp,sp,16
    800011cc:	8082                	ret

00000000800011ce <_reclaim_reent>:
    800011ce:	00001797          	auipc	a5,0x1
    800011d2:	cea7b783          	ld	a5,-790(a5) # 80001eb8 <_impure_ptr>
    800011d6:	0ca78363          	beq	a5,a0,8000129c <_reclaim_reent+0xce>
    800011da:	7d1c                	ld	a5,56(a0)
    800011dc:	7179                	addi	sp,sp,-48
    800011de:	f022                	sd	s0,32(sp)
    800011e0:	f406                	sd	ra,40(sp)
    800011e2:	ec26                	sd	s1,24(sp)
    800011e4:	e84a                	sd	s2,16(sp)
    800011e6:	e44e                	sd	s3,8(sp)
    800011e8:	842a                	mv	s0,a0
    800011ea:	cb8d                	beqz	a5,8000121c <_reclaim_reent+0x4e>
    800011ec:	6f9c                	ld	a5,24(a5)
    800011ee:	c38d                	beqz	a5,80001210 <_reclaim_reent+0x42>
    800011f0:	4481                	li	s1,0
    800011f2:	20000913          	li	s2,512
    800011f6:	7c1c                	ld	a5,56(s0)
    800011f8:	6f9c                	ld	a5,24(a5)
    800011fa:	97a6                	add	a5,a5,s1
    800011fc:	638c                	ld	a1,0(a5)
    800011fe:	e1c9                	bnez	a1,80001280 <_reclaim_reent+0xb2>
    80001200:	04a1                	addi	s1,s1,8
    80001202:	ff249ae3          	bne	s1,s2,800011f6 <_reclaim_reent+0x28>
    80001206:	7c1c                	ld	a5,56(s0)
    80001208:	8522                	mv	a0,s0
    8000120a:	6f8c                	ld	a1,24(a5)
    8000120c:	162000ef          	jal	8000136e <_free_r>
    80001210:	7c1c                	ld	a5,56(s0)
    80001212:	638c                	ld	a1,0(a5)
    80001214:	c581                	beqz	a1,8000121c <_reclaim_reent+0x4e>
    80001216:	8522                	mv	a0,s0
    80001218:	156000ef          	jal	8000136e <_free_r>
    8000121c:	740c                	ld	a1,40(s0)
    8000121e:	c581                	beqz	a1,80001226 <_reclaim_reent+0x58>
    80001220:	8522                	mv	a0,s0
    80001222:	14c000ef          	jal	8000136e <_free_r>
    80001226:	7c0c                	ld	a1,56(s0)
    80001228:	c581                	beqz	a1,80001230 <_reclaim_reent+0x62>
    8000122a:	8522                	mv	a0,s0
    8000122c:	142000ef          	jal	8000136e <_free_r>
    80001230:	6c2c                	ld	a1,88(s0)
    80001232:	c581                	beqz	a1,8000123a <_reclaim_reent+0x6c>
    80001234:	8522                	mv	a0,s0
    80001236:	138000ef          	jal	8000136e <_free_r>
    8000123a:	702c                	ld	a1,96(s0)
    8000123c:	c581                	beqz	a1,80001244 <_reclaim_reent+0x76>
    8000123e:	8522                	mv	a0,s0
    80001240:	12e000ef          	jal	8000136e <_free_r>
    80001244:	742c                	ld	a1,104(s0)
    80001246:	c581                	beqz	a1,8000124e <_reclaim_reent+0x80>
    80001248:	8522                	mv	a0,s0
    8000124a:	124000ef          	jal	8000136e <_free_r>
    8000124e:	644c                	ld	a1,136(s0)
    80001250:	c581                	beqz	a1,80001258 <_reclaim_reent+0x8a>
    80001252:	8522                	mv	a0,s0
    80001254:	11a000ef          	jal	8000136e <_free_r>
    80001258:	604c                	ld	a1,128(s0)
    8000125a:	c581                	beqz	a1,80001262 <_reclaim_reent+0x94>
    8000125c:	8522                	mv	a0,s0
    8000125e:	110000ef          	jal	8000136e <_free_r>
    80001262:	682c                	ld	a1,80(s0)
    80001264:	c581                	beqz	a1,8000126c <_reclaim_reent+0x9e>
    80001266:	8522                	mv	a0,s0
    80001268:	106000ef          	jal	8000136e <_free_r>
    8000126c:	603c                	ld	a5,64(s0)
    8000126e:	c385                	beqz	a5,8000128e <_reclaim_reent+0xc0>
    80001270:	8522                	mv	a0,s0
    80001272:	7402                	ld	s0,32(sp)
    80001274:	70a2                	ld	ra,40(sp)
    80001276:	64e2                	ld	s1,24(sp)
    80001278:	6942                	ld	s2,16(sp)
    8000127a:	69a2                	ld	s3,8(sp)
    8000127c:	6145                	addi	sp,sp,48
    8000127e:	8782                	jr	a5
    80001280:	0005b983          	ld	s3,0(a1)
    80001284:	8522                	mv	a0,s0
    80001286:	0e8000ef          	jal	8000136e <_free_r>
    8000128a:	85ce                	mv	a1,s3
    8000128c:	bf8d                	j	800011fe <_reclaim_reent+0x30>
    8000128e:	70a2                	ld	ra,40(sp)
    80001290:	7402                	ld	s0,32(sp)
    80001292:	64e2                	ld	s1,24(sp)
    80001294:	6942                	ld	s2,16(sp)
    80001296:	69a2                	ld	s3,8(sp)
    80001298:	6145                	addi	sp,sp,48
    8000129a:	8082                	ret
    8000129c:	8082                	ret

000000008000129e <_lseek_r>:
    8000129e:	1141                	addi	sp,sp,-16
    800012a0:	e022                	sd	s0,0(sp)
    800012a2:	842a                	mv	s0,a0
    800012a4:	852e                	mv	a0,a1
    800012a6:	85b2                	mv	a1,a2
    800012a8:	8636                	mv	a2,a3
    800012aa:	8201a423          	sw	zero,-2008(gp) # 80001ee0 <errno>
    800012ae:	e406                	sd	ra,8(sp)
    800012b0:	6c8000ef          	jal	80001978 <_lseek>
    800012b4:	57fd                	li	a5,-1
    800012b6:	00f51663          	bne	a0,a5,800012c2 <_lseek_r+0x24>
    800012ba:	8281a783          	lw	a5,-2008(gp) # 80001ee0 <errno>
    800012be:	c391                	beqz	a5,800012c2 <_lseek_r+0x24>
    800012c0:	c01c                	sw	a5,0(s0)
    800012c2:	60a2                	ld	ra,8(sp)
    800012c4:	6402                	ld	s0,0(sp)
    800012c6:	0141                	addi	sp,sp,16
    800012c8:	8082                	ret

00000000800012ca <_read_r>:
    800012ca:	1141                	addi	sp,sp,-16
    800012cc:	e022                	sd	s0,0(sp)
    800012ce:	842a                	mv	s0,a0
    800012d0:	852e                	mv	a0,a1
    800012d2:	85b2                	mv	a1,a2
    800012d4:	8636                	mv	a2,a3
    800012d6:	8201a423          	sw	zero,-2008(gp) # 80001ee0 <errno>
    800012da:	e406                	sd	ra,8(sp)
    800012dc:	6b0000ef          	jal	8000198c <_read>
    800012e0:	57fd                	li	a5,-1
    800012e2:	00f51663          	bne	a0,a5,800012ee <_read_r+0x24>
    800012e6:	8281a783          	lw	a5,-2008(gp) # 80001ee0 <errno>
    800012ea:	c391                	beqz	a5,800012ee <_read_r+0x24>
    800012ec:	c01c                	sw	a5,0(s0)
    800012ee:	60a2                	ld	ra,8(sp)
    800012f0:	6402                	ld	s0,0(sp)
    800012f2:	0141                	addi	sp,sp,16
    800012f4:	8082                	ret

00000000800012f6 <_write_r>:
    800012f6:	1141                	addi	sp,sp,-16
    800012f8:	e022                	sd	s0,0(sp)
    800012fa:	842a                	mv	s0,a0
    800012fc:	852e                	mv	a0,a1
    800012fe:	85b2                	mv	a1,a2
    80001300:	8636                	mv	a2,a3
    80001302:	8201a423          	sw	zero,-2008(gp) # 80001ee0 <errno>
    80001306:	e406                	sd	ra,8(sp)
    80001308:	6d6000ef          	jal	800019de <_write>
    8000130c:	57fd                	li	a5,-1
    8000130e:	00f51663          	bne	a0,a5,8000131a <_write_r+0x24>
    80001312:	8281a783          	lw	a5,-2008(gp) # 80001ee0 <errno>
    80001316:	c391                	beqz	a5,8000131a <_write_r+0x24>
    80001318:	c01c                	sw	a5,0(s0)
    8000131a:	60a2                	ld	ra,8(sp)
    8000131c:	6402                	ld	s0,0(sp)
    8000131e:	0141                	addi	sp,sp,16
    80001320:	8082                	ret

0000000080001322 <memmove>:
    80001322:	c215                	beqz	a2,80001346 <memmove+0x24>
    80001324:	832a                	mv	t1,a0
    80001326:	4685                	li	a3,1
    80001328:	00b56763          	bltu	a0,a1,80001336 <memmove+0x14>
    8000132c:	56fd                	li	a3,-1
    8000132e:	fff60713          	addi	a4,a2,-1
    80001332:	933a                	add	t1,t1,a4
    80001334:	95ba                	add	a1,a1,a4
    80001336:	00058383          	lb	t2,0(a1)
    8000133a:	00730023          	sb	t2,0(t1)
    8000133e:	167d                	addi	a2,a2,-1
    80001340:	9336                	add	t1,t1,a3
    80001342:	95b6                	add	a1,a1,a3
    80001344:	fa6d                	bnez	a2,80001336 <memmove+0x14>
    80001346:	8082                	ret

0000000080001348 <memset>:
    80001348:	832a                	mv	t1,a0
    8000134a:	c611                	beqz	a2,80001356 <memset+0xe>
    8000134c:	00b30023          	sb	a1,0(t1)
    80001350:	167d                	addi	a2,a2,-1
    80001352:	0305                	addi	t1,t1,1
    80001354:	fe65                	bnez	a2,8000134c <memset+0x4>
    80001356:	8082                	ret

0000000080001358 <memcpy>:
    80001358:	832a                	mv	t1,a0
    8000135a:	ca09                	beqz	a2,8000136c <memcpy+0x14>
    8000135c:	00058383          	lb	t2,0(a1)
    80001360:	00730023          	sb	t2,0(t1)
    80001364:	167d                	addi	a2,a2,-1
    80001366:	0305                	addi	t1,t1,1
    80001368:	0585                	addi	a1,a1,1
    8000136a:	fa6d                	bnez	a2,8000135c <memcpy+0x4>
    8000136c:	8082                	ret

000000008000136e <_free_r>:
    8000136e:	cdd9                	beqz	a1,8000140c <_free_r+0x9e>
    80001370:	ff85b783          	ld	a5,-8(a1)
    80001374:	1101                	addi	sp,sp,-32
    80001376:	e822                	sd	s0,16(sp)
    80001378:	ec06                	sd	ra,24(sp)
    8000137a:	ff858413          	addi	s0,a1,-8
    8000137e:	0007d363          	bgez	a5,80001384 <_free_r+0x16>
    80001382:	943e                	add	s0,s0,a5
    80001384:	e42a                	sd	a0,8(sp)
    80001386:	212000ef          	jal	80001598 <__malloc_lock>
    8000138a:	83818713          	addi	a4,gp,-1992 # 80001ef0 <__malloc_free_list>
    8000138e:	631c                	ld	a5,0(a4)
    80001390:	6522                	ld	a0,8(sp)
    80001392:	eb81                	bnez	a5,800013a2 <_free_r+0x34>
    80001394:	00043423          	sd	zero,8(s0)
    80001398:	e300                	sd	s0,0(a4)
    8000139a:	6442                	ld	s0,16(sp)
    8000139c:	60e2                	ld	ra,24(sp)
    8000139e:	6105                	addi	sp,sp,32
    800013a0:	aaed                	j	8000159a <__malloc_unlock>
    800013a2:	00f47d63          	bgeu	s0,a5,800013bc <_free_r+0x4e>
    800013a6:	6010                	ld	a2,0(s0)
    800013a8:	00c406b3          	add	a3,s0,a2
    800013ac:	00d79663          	bne	a5,a3,800013b8 <_free_r+0x4a>
    800013b0:	6394                	ld	a3,0(a5)
    800013b2:	679c                	ld	a5,8(a5)
    800013b4:	96b2                	add	a3,a3,a2
    800013b6:	e014                	sd	a3,0(s0)
    800013b8:	e41c                	sd	a5,8(s0)
    800013ba:	bff9                	j	80001398 <_free_r+0x2a>
    800013bc:	873e                	mv	a4,a5
    800013be:	679c                	ld	a5,8(a5)
    800013c0:	c399                	beqz	a5,800013c6 <_free_r+0x58>
    800013c2:	fef47de3          	bgeu	s0,a5,800013bc <_free_r+0x4e>
    800013c6:	6314                	ld	a3,0(a4)
    800013c8:	00d70633          	add	a2,a4,a3
    800013cc:	00861f63          	bne	a2,s0,800013ea <_free_r+0x7c>
    800013d0:	6010                	ld	a2,0(s0)
    800013d2:	96b2                	add	a3,a3,a2
    800013d4:	e314                	sd	a3,0(a4)
    800013d6:	00d70633          	add	a2,a4,a3
    800013da:	fcc790e3          	bne	a5,a2,8000139a <_free_r+0x2c>
    800013de:	6390                	ld	a2,0(a5)
    800013e0:	679c                	ld	a5,8(a5)
    800013e2:	96b2                	add	a3,a3,a2
    800013e4:	e314                	sd	a3,0(a4)
    800013e6:	e71c                	sd	a5,8(a4)
    800013e8:	bf4d                	j	8000139a <_free_r+0x2c>
    800013ea:	00c47563          	bgeu	s0,a2,800013f4 <_free_r+0x86>
    800013ee:	47b1                	li	a5,12
    800013f0:	c11c                	sw	a5,0(a0)
    800013f2:	b765                	j	8000139a <_free_r+0x2c>
    800013f4:	6010                	ld	a2,0(s0)
    800013f6:	00c406b3          	add	a3,s0,a2
    800013fa:	00d79663          	bne	a5,a3,80001406 <_free_r+0x98>
    800013fe:	6394                	ld	a3,0(a5)
    80001400:	679c                	ld	a5,8(a5)
    80001402:	96b2                	add	a3,a3,a2
    80001404:	e014                	sd	a3,0(s0)
    80001406:	e41c                	sd	a5,8(s0)
    80001408:	e700                	sd	s0,8(a4)
    8000140a:	bf41                	j	8000139a <_free_r+0x2c>
    8000140c:	8082                	ret

000000008000140e <sbrk_aligned>:
    8000140e:	1101                	addi	sp,sp,-32
    80001410:	e04a                	sd	s2,0(sp)
    80001412:	83018913          	addi	s2,gp,-2000 # 80001ee8 <__malloc_sbrk_start>
    80001416:	00093783          	ld	a5,0(s2)
    8000141a:	e822                	sd	s0,16(sp)
    8000141c:	e426                	sd	s1,8(sp)
    8000141e:	ec06                	sd	ra,24(sp)
    80001420:	84aa                	mv	s1,a0
    80001422:	842e                	mv	s0,a1
    80001424:	e791                	bnez	a5,80001430 <sbrk_aligned+0x22>
    80001426:	4581                	li	a1,0
    80001428:	4e0000ef          	jal	80001908 <_sbrk_r>
    8000142c:	00a93023          	sd	a0,0(s2)
    80001430:	85a2                	mv	a1,s0
    80001432:	8526                	mv	a0,s1
    80001434:	4d4000ef          	jal	80001908 <_sbrk_r>
    80001438:	597d                	li	s2,-1
    8000143a:	01251a63          	bne	a0,s2,8000144e <sbrk_aligned+0x40>
    8000143e:	547d                	li	s0,-1
    80001440:	60e2                	ld	ra,24(sp)
    80001442:	8522                	mv	a0,s0
    80001444:	6442                	ld	s0,16(sp)
    80001446:	64a2                	ld	s1,8(sp)
    80001448:	6902                	ld	s2,0(sp)
    8000144a:	6105                	addi	sp,sp,32
    8000144c:	8082                	ret
    8000144e:	00750413          	addi	s0,a0,7
    80001452:	9861                	andi	s0,s0,-8
    80001454:	fe8506e3          	beq	a0,s0,80001440 <sbrk_aligned+0x32>
    80001458:	40a405b3          	sub	a1,s0,a0
    8000145c:	8526                	mv	a0,s1
    8000145e:	4aa000ef          	jal	80001908 <_sbrk_r>
    80001462:	fd251fe3          	bne	a0,s2,80001440 <sbrk_aligned+0x32>
    80001466:	bfe1                	j	8000143e <sbrk_aligned+0x30>

0000000080001468 <_malloc_r>:
    80001468:	00758793          	addi	a5,a1,7
    8000146c:	7179                	addi	sp,sp,-48
    8000146e:	9be1                	andi	a5,a5,-8
    80001470:	ec26                	sd	s1,24(sp)
    80001472:	e84a                	sd	s2,16(sp)
    80001474:	f406                	sd	ra,40(sp)
    80001476:	f022                	sd	s0,32(sp)
    80001478:	e44e                	sd	s3,8(sp)
    8000147a:	e052                	sd	s4,0(sp)
    8000147c:	07a1                	addi	a5,a5,8
    8000147e:	4741                	li	a4,16
    80001480:	892a                	mv	s2,a0
    80001482:	44c1                	li	s1,16
    80001484:	00e7e363          	bltu	a5,a4,8000148a <_malloc_r+0x22>
    80001488:	84be                	mv	s1,a5
    8000148a:	80000737          	lui	a4,0x80000
    8000148e:	fff74713          	not	a4,a4
    80001492:	00f76463          	bltu	a4,a5,8000149a <_malloc_r+0x32>
    80001496:	00b4fe63          	bgeu	s1,a1,800014b2 <_malloc_r+0x4a>
    8000149a:	47b1                	li	a5,12
    8000149c:	00f92023          	sw	a5,0(s2)
    800014a0:	4501                	li	a0,0
    800014a2:	70a2                	ld	ra,40(sp)
    800014a4:	7402                	ld	s0,32(sp)
    800014a6:	64e2                	ld	s1,24(sp)
    800014a8:	6942                	ld	s2,16(sp)
    800014aa:	69a2                	ld	s3,8(sp)
    800014ac:	6a02                	ld	s4,0(sp)
    800014ae:	6145                	addi	sp,sp,48
    800014b0:	8082                	ret
    800014b2:	854a                	mv	a0,s2
    800014b4:	0e4000ef          	jal	80001598 <__malloc_lock>
    800014b8:	83818993          	addi	s3,gp,-1992 # 80001ef0 <__malloc_free_list>
    800014bc:	0009b783          	ld	a5,0(s3)
    800014c0:	843e                	mv	s0,a5
    800014c2:	ec21                	bnez	s0,8000151a <_malloc_r+0xb2>
    800014c4:	85a6                	mv	a1,s1
    800014c6:	854a                	mv	a0,s2
    800014c8:	f47ff0ef          	jal	8000140e <sbrk_aligned>
    800014cc:	57fd                	li	a5,-1
    800014ce:	842a                	mv	s0,a0
    800014d0:	0af51f63          	bne	a0,a5,8000158e <_malloc_r+0x126>
    800014d4:	0009b403          	ld	s0,0(s3)
    800014d8:	87a2                	mv	a5,s0
    800014da:	efd1                	bnez	a5,80001576 <_malloc_r+0x10e>
    800014dc:	c055                	beqz	s0,80001580 <_malloc_r+0x118>
    800014de:	00043a03          	ld	s4,0(s0)
    800014e2:	4581                	li	a1,0
    800014e4:	854a                	mv	a0,s2
    800014e6:	9a22                	add	s4,s4,s0
    800014e8:	420000ef          	jal	80001908 <_sbrk_r>
    800014ec:	08aa1a63          	bne	s4,a0,80001580 <_malloc_r+0x118>
    800014f0:	601c                	ld	a5,0(s0)
    800014f2:	854a                	mv	a0,s2
    800014f4:	8c9d                	sub	s1,s1,a5
    800014f6:	85a6                	mv	a1,s1
    800014f8:	f17ff0ef          	jal	8000140e <sbrk_aligned>
    800014fc:	57fd                	li	a5,-1
    800014fe:	08f50163          	beq	a0,a5,80001580 <_malloc_r+0x118>
    80001502:	601c                	ld	a5,0(s0)
    80001504:	97a6                	add	a5,a5,s1
    80001506:	e01c                	sd	a5,0(s0)
    80001508:	0009b783          	ld	a5,0(s3)
    8000150c:	c3d9                	beqz	a5,80001592 <_malloc_r+0x12a>
    8000150e:	6798                	ld	a4,8(a5)
    80001510:	06871663          	bne	a4,s0,8000157c <_malloc_r+0x114>
    80001514:	0007b423          	sd	zero,8(a5)
    80001518:	a015                	j	8000153c <_malloc_r+0xd4>
    8000151a:	6014                	ld	a3,0(s0)
    8000151c:	9e85                	subw	a3,a3,s1
    8000151e:	0406c963          	bltz	a3,80001570 <_malloc_r+0x108>
    80001522:	473d                	li	a4,15
    80001524:	02d75e63          	bge	a4,a3,80001560 <_malloc_r+0xf8>
    80001528:	e004                	sd	s1,0(s0)
    8000152a:	00940733          	add	a4,s0,s1
    8000152e:	02879763          	bne	a5,s0,8000155c <_malloc_r+0xf4>
    80001532:	00e9b023          	sd	a4,0(s3)
    80001536:	641c                	ld	a5,8(s0)
    80001538:	e314                	sd	a3,0(a4)
    8000153a:	e71c                	sd	a5,8(a4)
    8000153c:	854a                	mv	a0,s2
    8000153e:	05c000ef          	jal	8000159a <__malloc_unlock>
    80001542:	00f40513          	addi	a0,s0,15
    80001546:	00840793          	addi	a5,s0,8
    8000154a:	9961                	andi	a0,a0,-8
    8000154c:	40f507bb          	subw	a5,a0,a5
    80001550:	dba9                	beqz	a5,800014a2 <_malloc_r+0x3a>
    80001552:	943e                	add	s0,s0,a5
    80001554:	40f007bb          	negw	a5,a5
    80001558:	e01c                	sd	a5,0(s0)
    8000155a:	b7a1                	j	800014a2 <_malloc_r+0x3a>
    8000155c:	e798                	sd	a4,8(a5)
    8000155e:	bfe1                	j	80001536 <_malloc_r+0xce>
    80001560:	6418                	ld	a4,8(s0)
    80001562:	00879563          	bne	a5,s0,8000156c <_malloc_r+0x104>
    80001566:	00e9b023          	sd	a4,0(s3)
    8000156a:	bfc9                	j	8000153c <_malloc_r+0xd4>
    8000156c:	e798                	sd	a4,8(a5)
    8000156e:	b7f9                	j	8000153c <_malloc_r+0xd4>
    80001570:	87a2                	mv	a5,s0
    80001572:	6400                	ld	s0,8(s0)
    80001574:	b7b9                	j	800014c2 <_malloc_r+0x5a>
    80001576:	843e                	mv	s0,a5
    80001578:	679c                	ld	a5,8(a5)
    8000157a:	b785                	j	800014da <_malloc_r+0x72>
    8000157c:	87ba                	mv	a5,a4
    8000157e:	b779                	j	8000150c <_malloc_r+0xa4>
    80001580:	47b1                	li	a5,12
    80001582:	00f92023          	sw	a5,0(s2)
    80001586:	854a                	mv	a0,s2
    80001588:	012000ef          	jal	8000159a <__malloc_unlock>
    8000158c:	bf11                	j	800014a0 <_malloc_r+0x38>
    8000158e:	e104                	sd	s1,0(a0)
    80001590:	b775                	j	8000153c <_malloc_r+0xd4>
    80001592:	00003423          	sd	zero,8(zero) # 8 <__boot_hart+0x8>
    80001596:	9002                	ebreak

0000000080001598 <__malloc_lock>:
    80001598:	8082                	ret

000000008000159a <__malloc_unlock>:
    8000159a:	8082                	ret

000000008000159c <_realloc_r>:
    8000159c:	7179                	addi	sp,sp,-48
    8000159e:	f022                	sd	s0,32(sp)
    800015a0:	f406                	sd	ra,40(sp)
    800015a2:	ec26                	sd	s1,24(sp)
    800015a4:	e84a                	sd	s2,16(sp)
    800015a6:	e44e                	sd	s3,8(sp)
    800015a8:	e052                	sd	s4,0(sp)
    800015aa:	8432                	mv	s0,a2
    800015ac:	e991                	bnez	a1,800015c0 <_realloc_r+0x24>
    800015ae:	7402                	ld	s0,32(sp)
    800015b0:	70a2                	ld	ra,40(sp)
    800015b2:	64e2                	ld	s1,24(sp)
    800015b4:	6942                	ld	s2,16(sp)
    800015b6:	69a2                	ld	s3,8(sp)
    800015b8:	6a02                	ld	s4,0(sp)
    800015ba:	85b2                	mv	a1,a2
    800015bc:	6145                	addi	sp,sp,48
    800015be:	b56d                	j	80001468 <_malloc_r>
    800015c0:	ee09                	bnez	a2,800015da <_realloc_r+0x3e>
    800015c2:	dadff0ef          	jal	8000136e <_free_r>
    800015c6:	4481                	li	s1,0
    800015c8:	70a2                	ld	ra,40(sp)
    800015ca:	7402                	ld	s0,32(sp)
    800015cc:	6942                	ld	s2,16(sp)
    800015ce:	69a2                	ld	s3,8(sp)
    800015d0:	6a02                	ld	s4,0(sp)
    800015d2:	8526                	mv	a0,s1
    800015d4:	64e2                	ld	s1,24(sp)
    800015d6:	6145                	addi	sp,sp,48
    800015d8:	8082                	ret
    800015da:	8a2a                	mv	s4,a0
    800015dc:	84ae                	mv	s1,a1
    800015de:	352000ef          	jal	80001930 <_malloc_usable_size_r>
    800015e2:	892a                	mv	s2,a0
    800015e4:	00856663          	bltu	a0,s0,800015f0 <_realloc_r+0x54>
    800015e8:	00155793          	srli	a5,a0,0x1
    800015ec:	fc87eee3          	bltu	a5,s0,800015c8 <_realloc_r+0x2c>
    800015f0:	85a2                	mv	a1,s0
    800015f2:	8552                	mv	a0,s4
    800015f4:	e75ff0ef          	jal	80001468 <_malloc_r>
    800015f8:	89aa                	mv	s3,a0
    800015fa:	e119                	bnez	a0,80001600 <_realloc_r+0x64>
    800015fc:	84ce                	mv	s1,s3
    800015fe:	b7e9                	j	800015c8 <_realloc_r+0x2c>
    80001600:	8622                	mv	a2,s0
    80001602:	00897363          	bgeu	s2,s0,80001608 <_realloc_r+0x6c>
    80001606:	864a                	mv	a2,s2
    80001608:	85a6                	mv	a1,s1
    8000160a:	854e                	mv	a0,s3
    8000160c:	d4dff0ef          	jal	80001358 <memcpy>
    80001610:	85a6                	mv	a1,s1
    80001612:	8552                	mv	a0,s4
    80001614:	d5bff0ef          	jal	8000136e <_free_r>
    80001618:	b7d5                	j	800015fc <_realloc_r+0x60>

000000008000161a <__sflush_r>:
    8000161a:	01059783          	lh	a5,16(a1)
    8000161e:	7179                	addi	sp,sp,-48
    80001620:	f022                	sd	s0,32(sp)
    80001622:	ec26                	sd	s1,24(sp)
    80001624:	f406                	sd	ra,40(sp)
    80001626:	e84a                	sd	s2,16(sp)
    80001628:	e44e                	sd	s3,8(sp)
    8000162a:	0087f713          	andi	a4,a5,8
    8000162e:	84aa                	mv	s1,a0
    80001630:	842e                	mv	s0,a1
    80001632:	eb69                	bnez	a4,80001704 <__sflush_r+0xea>
    80001634:	4598                	lw	a4,8(a1)
    80001636:	00e04563          	bgtz	a4,80001640 <__sflush_r+0x26>
    8000163a:	5db8                	lw	a4,120(a1)
    8000163c:	0ae05b63          	blez	a4,800016f2 <__sflush_r+0xd8>
    80001640:	6838                	ld	a4,80(s0)
    80001642:	cb45                	beqz	a4,800016f2 <__sflush_r+0xd8>
    80001644:	0004a903          	lw	s2,0(s1)
    80001648:	03379693          	slli	a3,a5,0x33
    8000164c:	0004a023          	sw	zero,0(s1)
    80001650:	7c0c                	ld	a1,56(s0)
    80001652:	0606de63          	bgez	a3,800016ce <__sflush_r+0xb4>
    80001656:	6c50                	ld	a2,152(s0)
    80001658:	01045783          	lhu	a5,16(s0)
    8000165c:	8b91                	andi	a5,a5,4
    8000165e:	c799                	beqz	a5,8000166c <__sflush_r+0x52>
    80001660:	441c                	lw	a5,8(s0)
    80001662:	8e1d                	sub	a2,a2,a5
    80001664:	703c                	ld	a5,96(s0)
    80001666:	c399                	beqz	a5,8000166c <__sflush_r+0x52>
    80001668:	5c3c                	lw	a5,120(s0)
    8000166a:	8e1d                	sub	a2,a2,a5
    8000166c:	683c                	ld	a5,80(s0)
    8000166e:	7c0c                	ld	a1,56(s0)
    80001670:	4681                	li	a3,0
    80001672:	8526                	mv	a0,s1
    80001674:	9782                	jalr	a5
    80001676:	577d                	li	a4,-1
    80001678:	01045783          	lhu	a5,16(s0)
    8000167c:	00e51d63          	bne	a0,a4,80001696 <__sflush_r+0x7c>
    80001680:	4094                	lw	a3,0(s1)
    80001682:	4775                	li	a4,29
    80001684:	06d76963          	bltu	a4,a3,800016f6 <__sflush_r+0xdc>
    80001688:	20400737          	lui	a4,0x20400
    8000168c:	0705                	addi	a4,a4,1 # 20400001 <__heap_size+0x203e0001>
    8000168e:	00d75733          	srl	a4,a4,a3
    80001692:	8b05                	andi	a4,a4,1
    80001694:	c32d                	beqz	a4,800016f6 <__sflush_r+0xdc>
    80001696:	6c18                	ld	a4,24(s0)
    80001698:	00042423          	sw	zero,8(s0)
    8000169c:	e018                	sd	a4,0(s0)
    8000169e:	03379713          	slli	a4,a5,0x33
    800016a2:	00075863          	bgez	a4,800016b2 <__sflush_r+0x98>
    800016a6:	57fd                	li	a5,-1
    800016a8:	00f51463          	bne	a0,a5,800016b0 <__sflush_r+0x96>
    800016ac:	409c                	lw	a5,0(s1)
    800016ae:	e391                	bnez	a5,800016b2 <__sflush_r+0x98>
    800016b0:	ec48                	sd	a0,152(s0)
    800016b2:	702c                	ld	a1,96(s0)
    800016b4:	0124a023          	sw	s2,0(s1)
    800016b8:	cd8d                	beqz	a1,800016f2 <__sflush_r+0xd8>
    800016ba:	07c40793          	addi	a5,s0,124
    800016be:	00f58563          	beq	a1,a5,800016c8 <__sflush_r+0xae>
    800016c2:	8526                	mv	a0,s1
    800016c4:	cabff0ef          	jal	8000136e <_free_r>
    800016c8:	06043023          	sd	zero,96(s0)
    800016cc:	a01d                	j	800016f2 <__sflush_r+0xd8>
    800016ce:	4601                	li	a2,0
    800016d0:	4685                	li	a3,1
    800016d2:	8526                	mv	a0,s1
    800016d4:	9702                	jalr	a4
    800016d6:	57fd                	li	a5,-1
    800016d8:	862a                	mv	a2,a0
    800016da:	f6f51fe3          	bne	a0,a5,80001658 <__sflush_r+0x3e>
    800016de:	409c                	lw	a5,0(s1)
    800016e0:	dfa5                	beqz	a5,80001658 <__sflush_r+0x3e>
    800016e2:	4775                	li	a4,29
    800016e4:	00e78563          	beq	a5,a4,800016ee <__sflush_r+0xd4>
    800016e8:	4759                	li	a4,22
    800016ea:	04e79663          	bne	a5,a4,80001736 <__sflush_r+0x11c>
    800016ee:	0124a023          	sw	s2,0(s1)
    800016f2:	4501                	li	a0,0
    800016f4:	a881                	j	80001744 <__sflush_r+0x12a>
    800016f6:	0407e793          	ori	a5,a5,64
    800016fa:	0107979b          	slliw	a5,a5,0x10
    800016fe:	4107d79b          	sraiw	a5,a5,0x10
    80001702:	a835                	j	8000173e <__sflush_r+0x124>
    80001704:	0185b983          	ld	s3,24(a1)
    80001708:	fe0985e3          	beqz	s3,800016f2 <__sflush_r+0xd8>
    8000170c:	0005b903          	ld	s2,0(a1)
    80001710:	8b8d                	andi	a5,a5,3
    80001712:	0135b023          	sd	s3,0(a1)
    80001716:	4139093b          	subw	s2,s2,s3
    8000171a:	4701                	li	a4,0
    8000171c:	e391                	bnez	a5,80001720 <__sflush_r+0x106>
    8000171e:	5198                	lw	a4,32(a1)
    80001720:	c458                	sw	a4,12(s0)
    80001722:	fd2058e3          	blez	s2,800016f2 <__sflush_r+0xd8>
    80001726:	643c                	ld	a5,72(s0)
    80001728:	7c0c                	ld	a1,56(s0)
    8000172a:	86ca                	mv	a3,s2
    8000172c:	864e                	mv	a2,s3
    8000172e:	8526                	mv	a0,s1
    80001730:	9782                	jalr	a5
    80001732:	02a04063          	bgtz	a0,80001752 <__sflush_r+0x138>
    80001736:	01041783          	lh	a5,16(s0)
    8000173a:	0407e793          	ori	a5,a5,64
    8000173e:	00f41823          	sh	a5,16(s0)
    80001742:	557d                	li	a0,-1
    80001744:	70a2                	ld	ra,40(sp)
    80001746:	7402                	ld	s0,32(sp)
    80001748:	64e2                	ld	s1,24(sp)
    8000174a:	6942                	ld	s2,16(sp)
    8000174c:	69a2                	ld	s3,8(sp)
    8000174e:	6145                	addi	sp,sp,48
    80001750:	8082                	ret
    80001752:	99aa                	add	s3,s3,a0
    80001754:	40a9093b          	subw	s2,s2,a0
    80001758:	b7e9                	j	80001722 <__sflush_r+0x108>

000000008000175a <_fflush_r>:
    8000175a:	6d9c                	ld	a5,24(a1)
    8000175c:	cb8d                	beqz	a5,8000178e <_fflush_r+0x34>
    8000175e:	1101                	addi	sp,sp,-32
    80001760:	e822                	sd	s0,16(sp)
    80001762:	ec06                	sd	ra,24(sp)
    80001764:	842a                	mv	s0,a0
    80001766:	c519                	beqz	a0,80001774 <_fflush_r+0x1a>
    80001768:	613c                	ld	a5,64(a0)
    8000176a:	e789                	bnez	a5,80001774 <_fflush_r+0x1a>
    8000176c:	e42e                	sd	a1,8(sp)
    8000176e:	c5eff0ef          	jal	80000bcc <__sinit>
    80001772:	65a2                	ld	a1,8(sp)
    80001774:	01059783          	lh	a5,16(a1)
    80001778:	c791                	beqz	a5,80001784 <_fflush_r+0x2a>
    8000177a:	8522                	mv	a0,s0
    8000177c:	6442                	ld	s0,16(sp)
    8000177e:	60e2                	ld	ra,24(sp)
    80001780:	6105                	addi	sp,sp,32
    80001782:	bd61                	j	8000161a <__sflush_r>
    80001784:	60e2                	ld	ra,24(sp)
    80001786:	6442                	ld	s0,16(sp)
    80001788:	4501                	li	a0,0
    8000178a:	6105                	addi	sp,sp,32
    8000178c:	8082                	ret
    8000178e:	4501                	li	a0,0
    80001790:	8082                	ret

0000000080001792 <fflush>:
    80001792:	85aa                	mv	a1,a0
    80001794:	ed19                	bnez	a0,800017b2 <fflush+0x20>
    80001796:	00000617          	auipc	a2,0x0
    8000179a:	70a60613          	addi	a2,a2,1802 # 80001ea0 <__sglue>
    8000179e:	00000597          	auipc	a1,0x0
    800017a2:	fbc58593          	addi	a1,a1,-68 # 8000175a <_fflush_r>
    800017a6:	00000517          	auipc	a0,0x0
    800017aa:	66a50513          	addi	a0,a0,1642 # 80001e10 <_impure_data>
    800017ae:	f38ff06f          	j	80000ee6 <_fwalk_sglue>
    800017b2:	00000517          	auipc	a0,0x0
    800017b6:	70653503          	ld	a0,1798(a0) # 80001eb8 <_impure_ptr>
    800017ba:	b745                	j	8000175a <_fflush_r>

00000000800017bc <__swhatbuf_r>:
    800017bc:	7175                	addi	sp,sp,-144
    800017be:	e122                	sd	s0,128(sp)
    800017c0:	842e                	mv	s0,a1
    800017c2:	01259583          	lh	a1,18(a1)
    800017c6:	fca6                	sd	s1,120(sp)
    800017c8:	f8ca                	sd	s2,112(sp)
    800017ca:	e506                	sd	ra,136(sp)
    800017cc:	84b2                	mv	s1,a2
    800017ce:	8936                	mv	s2,a3
    800017d0:	0205d363          	bgez	a1,800017f6 <__swhatbuf_r+0x3a>
    800017d4:	01045783          	lhu	a5,16(s0)
    800017d8:	0807f793          	andi	a5,a5,128
    800017dc:	eb95                	bnez	a5,80001810 <__swhatbuf_r+0x54>
    800017de:	40000713          	li	a4,1024
    800017e2:	60aa                	ld	ra,136(sp)
    800017e4:	640a                	ld	s0,128(sp)
    800017e6:	00f92023          	sw	a5,0(s2)
    800017ea:	e098                	sd	a4,0(s1)
    800017ec:	7946                	ld	s2,112(sp)
    800017ee:	74e6                	ld	s1,120(sp)
    800017f0:	4501                	li	a0,0
    800017f2:	6149                	addi	sp,sp,144
    800017f4:	8082                	ret
    800017f6:	0030                	addi	a2,sp,8
    800017f8:	0be000ef          	jal	800018b6 <_fstat_r>
    800017fc:	fc054ce3          	bltz	a0,800017d4 <__swhatbuf_r+0x18>
    80001800:	47b2                	lw	a5,12(sp)
    80001802:	673d                	lui	a4,0xf
    80001804:	8ff9                	and	a5,a5,a4
    80001806:	6709                	lui	a4,0x2
    80001808:	8f99                	sub	a5,a5,a4
    8000180a:	0017b793          	seqz	a5,a5
    8000180e:	bfc1                	j	800017de <__swhatbuf_r+0x22>
    80001810:	4781                	li	a5,0
    80001812:	04000713          	li	a4,64
    80001816:	b7f1                	j	800017e2 <__swhatbuf_r+0x26>

0000000080001818 <__smakebuf_r>:
    80001818:	0105d783          	lhu	a5,16(a1)
    8000181c:	7139                	addi	sp,sp,-64
    8000181e:	f822                	sd	s0,48(sp)
    80001820:	fc06                	sd	ra,56(sp)
    80001822:	f426                	sd	s1,40(sp)
    80001824:	f04a                	sd	s2,32(sp)
    80001826:	ec4e                	sd	s3,24(sp)
    80001828:	8b89                	andi	a5,a5,2
    8000182a:	842e                	mv	s0,a1
    8000182c:	cf91                	beqz	a5,80001848 <__smakebuf_r+0x30>
    8000182e:	07f40793          	addi	a5,s0,127
    80001832:	e01c                	sd	a5,0(s0)
    80001834:	ec1c                	sd	a5,24(s0)
    80001836:	4785                	li	a5,1
    80001838:	d01c                	sw	a5,32(s0)
    8000183a:	70e2                	ld	ra,56(sp)
    8000183c:	7442                	ld	s0,48(sp)
    8000183e:	74a2                	ld	s1,40(sp)
    80001840:	7902                	ld	s2,32(sp)
    80001842:	69e2                	ld	s3,24(sp)
    80001844:	6121                	addi	sp,sp,64
    80001846:	8082                	ret
    80001848:	0054                	addi	a3,sp,4
    8000184a:	0030                	addi	a2,sp,8
    8000184c:	84aa                	mv	s1,a0
    8000184e:	f6fff0ef          	jal	800017bc <__swhatbuf_r>
    80001852:	69a2                	ld	s3,8(sp)
    80001854:	892a                	mv	s2,a0
    80001856:	8526                	mv	a0,s1
    80001858:	85ce                	mv	a1,s3
    8000185a:	c0fff0ef          	jal	80001468 <_malloc_r>
    8000185e:	ed01                	bnez	a0,80001876 <__smakebuf_r+0x5e>
    80001860:	01041783          	lh	a5,16(s0)
    80001864:	2007f713          	andi	a4,a5,512
    80001868:	fb69                	bnez	a4,8000183a <__smakebuf_r+0x22>
    8000186a:	9bf1                	andi	a5,a5,-4
    8000186c:	0027e793          	ori	a5,a5,2
    80001870:	00f41823          	sh	a5,16(s0)
    80001874:	bf6d                	j	8000182e <__smakebuf_r+0x16>
    80001876:	01045783          	lhu	a5,16(s0)
    8000187a:	e008                	sd	a0,0(s0)
    8000187c:	ec08                	sd	a0,24(s0)
    8000187e:	0807e793          	ori	a5,a5,128
    80001882:	00f41823          	sh	a5,16(s0)
    80001886:	4792                	lw	a5,4(sp)
    80001888:	03342023          	sw	s3,32(s0)
    8000188c:	cf91                	beqz	a5,800018a8 <__smakebuf_r+0x90>
    8000188e:	01241583          	lh	a1,18(s0)
    80001892:	8526                	mv	a0,s1
    80001894:	04c000ef          	jal	800018e0 <_isatty_r>
    80001898:	c901                	beqz	a0,800018a8 <__smakebuf_r+0x90>
    8000189a:	01045783          	lhu	a5,16(s0)
    8000189e:	9bf1                	andi	a5,a5,-4
    800018a0:	0017e793          	ori	a5,a5,1
    800018a4:	00f41823          	sh	a5,16(s0)
    800018a8:	01045783          	lhu	a5,16(s0)
    800018ac:	0127e533          	or	a0,a5,s2
    800018b0:	00a41823          	sh	a0,16(s0)
    800018b4:	b759                	j	8000183a <__smakebuf_r+0x22>

00000000800018b6 <_fstat_r>:
    800018b6:	1141                	addi	sp,sp,-16
    800018b8:	e022                	sd	s0,0(sp)
    800018ba:	842a                	mv	s0,a0
    800018bc:	852e                	mv	a0,a1
    800018be:	85b2                	mv	a1,a2
    800018c0:	8201a423          	sw	zero,-2008(gp) # 80001ee0 <errno>
    800018c4:	e406                	sd	ra,8(sp)
    800018c6:	096000ef          	jal	8000195c <_fstat>
    800018ca:	57fd                	li	a5,-1
    800018cc:	00f51663          	bne	a0,a5,800018d8 <_fstat_r+0x22>
    800018d0:	8281a783          	lw	a5,-2008(gp) # 80001ee0 <errno>
    800018d4:	c391                	beqz	a5,800018d8 <_fstat_r+0x22>
    800018d6:	c01c                	sw	a5,0(s0)
    800018d8:	60a2                	ld	ra,8(sp)
    800018da:	6402                	ld	s0,0(sp)
    800018dc:	0141                	addi	sp,sp,16
    800018de:	8082                	ret

00000000800018e0 <_isatty_r>:
    800018e0:	1141                	addi	sp,sp,-16
    800018e2:	e022                	sd	s0,0(sp)
    800018e4:	842a                	mv	s0,a0
    800018e6:	852e                	mv	a0,a1
    800018e8:	8201a423          	sw	zero,-2008(gp) # 80001ee0 <errno>
    800018ec:	e406                	sd	ra,8(sp)
    800018ee:	082000ef          	jal	80001970 <_isatty>
    800018f2:	57fd                	li	a5,-1
    800018f4:	00f51663          	bne	a0,a5,80001900 <_isatty_r+0x20>
    800018f8:	8281a783          	lw	a5,-2008(gp) # 80001ee0 <errno>
    800018fc:	c391                	beqz	a5,80001900 <_isatty_r+0x20>
    800018fe:	c01c                	sw	a5,0(s0)
    80001900:	60a2                	ld	ra,8(sp)
    80001902:	6402                	ld	s0,0(sp)
    80001904:	0141                	addi	sp,sp,16
    80001906:	8082                	ret

0000000080001908 <_sbrk_r>:
    80001908:	1141                	addi	sp,sp,-16
    8000190a:	e022                	sd	s0,0(sp)
    8000190c:	842a                	mv	s0,a0
    8000190e:	852e                	mv	a0,a1
    80001910:	8201a423          	sw	zero,-2008(gp) # 80001ee0 <errno>
    80001914:	e406                	sd	ra,8(sp)
    80001916:	08c000ef          	jal	800019a2 <_sbrk>
    8000191a:	57fd                	li	a5,-1
    8000191c:	00f51663          	bne	a0,a5,80001928 <_sbrk_r+0x20>
    80001920:	8281a783          	lw	a5,-2008(gp) # 80001ee0 <errno>
    80001924:	c391                	beqz	a5,80001928 <_sbrk_r+0x20>
    80001926:	c01c                	sw	a5,0(s0)
    80001928:	60a2                	ld	ra,8(sp)
    8000192a:	6402                	ld	s0,0(sp)
    8000192c:	0141                	addi	sp,sp,16
    8000192e:	8082                	ret

0000000080001930 <_malloc_usable_size_r>:
    80001930:	ff85b503          	ld	a0,-8(a1)
    80001934:	0005079b          	sext.w	a5,a0
    80001938:	1561                	addi	a0,a0,-8
    8000193a:	0007d663          	bgez	a5,80001946 <_malloc_usable_size_r+0x16>
    8000193e:	95aa                	add	a1,a1,a0
    80001940:	6188                	ld	a0,0(a1)
    80001942:	17e1                	addi	a5,a5,-8
    80001944:	953e                	add	a0,a0,a5
    80001946:	8082                	ret

0000000080001948 <_close>:
    80001948:	1141                	addi	sp,sp,-16
    8000194a:	e406                	sd	ra,8(sp)
    8000194c:	182000ef          	jal	80001ace <__errno>
    80001950:	60a2                	ld	ra,8(sp)
    80001952:	47a5                	li	a5,9
    80001954:	c11c                	sw	a5,0(a0)
    80001956:	557d                	li	a0,-1
    80001958:	0141                	addi	sp,sp,16
    8000195a:	8082                	ret

000000008000195c <_fstat>:
    8000195c:	1141                	addi	sp,sp,-16
    8000195e:	e406                	sd	ra,8(sp)
    80001960:	16e000ef          	jal	80001ace <__errno>
    80001964:	60a2                	ld	ra,8(sp)
    80001966:	47a5                	li	a5,9
    80001968:	c11c                	sw	a5,0(a0)
    8000196a:	557d                	li	a0,-1
    8000196c:	0141                	addi	sp,sp,16
    8000196e:	8082                	ret

0000000080001970 <_isatty>:
    80001970:	357d                	addiw	a0,a0,-1
    80001972:	00253513          	sltiu	a0,a0,2
    80001976:	8082                	ret

0000000080001978 <_lseek>:
    80001978:	1141                	addi	sp,sp,-16
    8000197a:	e406                	sd	ra,8(sp)
    8000197c:	152000ef          	jal	80001ace <__errno>
    80001980:	60a2                	ld	ra,8(sp)
    80001982:	47a5                	li	a5,9
    80001984:	c11c                	sw	a5,0(a0)
    80001986:	557d                	li	a0,-1
    80001988:	0141                	addi	sp,sp,16
    8000198a:	8082                	ret

000000008000198c <_read>:
    8000198c:	1141                	addi	sp,sp,-16
    8000198e:	e406                	sd	ra,8(sp)
    80001990:	13e000ef          	jal	80001ace <__errno>
    80001994:	60a2                	ld	ra,8(sp)
    80001996:	05800793          	li	a5,88
    8000199a:	c11c                	sw	a5,0(a0)
    8000199c:	557d                	li	a0,-1
    8000199e:	0141                	addi	sp,sp,16
    800019a0:	8082                	ret

00000000800019a2 <_sbrk>:
    800019a2:	00000717          	auipc	a4,0x0
    800019a6:	51e70713          	addi	a4,a4,1310 # 80001ec0 <curbrk>
    800019aa:	631c                	ld	a5,0(a4)
    800019ac:	b8818693          	addi	a3,gp,-1144 # 80002240 <_end>
    800019b0:	953e                	add	a0,a0,a5
    800019b2:	00d56b63          	bltu	a0,a3,800019c8 <_sbrk+0x26>
    800019b6:	00021697          	auipc	a3,0x21
    800019ba:	64a68693          	addi	a3,a3,1610 # 80023000 <__heap_end>
    800019be:	00d57563          	bgeu	a0,a3,800019c8 <_sbrk+0x26>
    800019c2:	e308                	sd	a0,0(a4)
    800019c4:	853e                	mv	a0,a5
    800019c6:	8082                	ret
    800019c8:	1141                	addi	sp,sp,-16
    800019ca:	e406                	sd	ra,8(sp)
    800019cc:	102000ef          	jal	80001ace <__errno>
    800019d0:	60a2                	ld	ra,8(sp)
    800019d2:	47b1                	li	a5,12
    800019d4:	c11c                	sw	a5,0(a0)
    800019d6:	57fd                	li	a5,-1
    800019d8:	853e                	mv	a0,a5
    800019da:	0141                	addi	sp,sp,16
    800019dc:	8082                	ret

00000000800019de <_write>:
    800019de:	04000693          	li	a3,64
    800019e2:	a0b9                	j	80001a30 <htif_syscall>

00000000800019e4 <handle_trap>:
    800019e4:	1141                	addi	sp,sp,-16
    800019e6:	02159513          	slli	a0,a1,0x21
    800019ea:	e406                	sd	ra,8(sp)
    800019ec:	9105                	srli	a0,a0,0x21
    800019ee:	0005d463          	bgez	a1,800019f6 <handle_trap+0x12>
    800019f2:	40a0053b          	negw	a0,a0
    800019f6:	086000ef          	jal	80001a7c <_exit>

00000000800019fa <__init_tls>:
    800019fa:	1141                	addi	sp,sp,-16
    800019fc:	00000613          	li	a2,0
    80001a00:	00000597          	auipc	a1,0x0
    80001a04:	2aa58593          	addi	a1,a1,682 # 80001caa <__tbss_end>
    80001a08:	8512                	mv	a0,tp
    80001a0a:	e022                	sd	s0,0(sp)
    80001a0c:	e406                	sd	ra,8(sp)
    80001a0e:	8412                	mv	s0,tp
    80001a10:	949ff0ef          	jal	80001358 <memcpy>
    80001a14:	00000513          	li	a0,0
    80001a18:	9522                	add	a0,a0,s0
    80001a1a:	6402                	ld	s0,0(sp)
    80001a1c:	60a2                	ld	ra,8(sp)
    80001a1e:	00000613          	li	a2,0
    80001a22:	4581                	li	a1,0
    80001a24:	0141                	addi	sp,sp,16
    80001a26:	923ff06f          	j	80001348 <memset>

0000000080001a2a <__main>:
    80001a2a:	10500073          	wfi
    80001a2e:	bff5                	j	80001a2a <__main>

0000000080001a30 <htif_syscall>:
    80001a30:	7139                	addi	sp,sp,-64
    80001a32:	e036                	sd	a3,0(sp)
    80001a34:	e42a                	sd	a0,8(sp)
    80001a36:	fff007b7          	lui	a5,0xfff00
    80001a3a:	e82e                	sd	a1,16(sp)
    80001a3c:	83c1                	srli	a5,a5,0x10
    80001a3e:	ec32                	sd	a2,24(sp)
    80001a40:	860a                	mv	a2,sp
    80001a42:	8e7d                	and	a2,a2,a5
    80001a44:	84018713          	addi	a4,gp,-1984 # 80001ef8 <htif_lock>
    80001a48:	56fd                	li	a3,-1
    80001a4a:	431c                	lw	a5,0(a4)
    80001a4c:	fffd                	bnez	a5,80001a4a <htif_syscall+0x1a>
    80001a4e:	0cd727af          	amoswap.w.aq	a5,a3,(a4)
    80001a52:	ffe5                	bnez	a5,80001a4a <htif_syscall+0x1a>
    80001a54:	0110000f          	fence	w,w
    80001a58:	00000697          	auipc	a3,0x0
    80001a5c:	3a868693          	addi	a3,a3,936 # 80001e00 <tohost>
    80001a60:	e290                	sd	a2,0(a3)
    80001a62:	669c                	ld	a5,8(a3)
    80001a64:	dffd                	beqz	a5,80001a62 <htif_syscall+0x32>
    80001a66:	00000797          	auipc	a5,0x0
    80001a6a:	3a07b123          	sd	zero,930(a5) # 80001e08 <fromhost>
    80001a6e:	0a07202f          	amoswap.w.rl	zero,zero,(a4)
    80001a72:	0220000f          	fence	r,r
    80001a76:	6502                	ld	a0,0(sp)
    80001a78:	6121                	addi	sp,sp,64
    80001a7a:	8082                	ret

0000000080001a7c <_exit>:
    80001a7c:	0015179b          	slliw	a5,a0,0x1
    80001a80:	0017e793          	ori	a5,a5,1
    80001a84:	2781                	sext.w	a5,a5
    80001a86:	07c2                	slli	a5,a5,0x10
    80001a88:	83c1                	srli	a5,a5,0x10
    80001a8a:	00000717          	auipc	a4,0x0
    80001a8e:	37670713          	addi	a4,a4,886 # 80001e00 <tohost>
    80001a92:	00000697          	auipc	a3,0x0
    80001a96:	3606bb23          	sd	zero,886(a3) # 80001e08 <fromhost>
    80001a9a:	e31c                	sd	a5,0(a4)
    80001a9c:	bfdd                	j	80001a92 <_exit+0x16>

0000000080001a9e <atexit>:
    80001a9e:	85aa                	mv	a1,a0
    80001aa0:	4681                	li	a3,0
    80001aa2:	4601                	li	a2,0
    80001aa4:	4501                	li	a0,0
    80001aa6:	a0d9                	j	80001b6c <__register_exitproc>

0000000080001aa8 <exit>:
    80001aa8:	1141                	addi	sp,sp,-16
    80001aaa:	e022                	sd	s0,0(sp)
    80001aac:	e406                	sd	ra,8(sp)
    80001aae:	00000797          	auipc	a5,0x0
    80001ab2:	13478793          	addi	a5,a5,308 # 80001be2 <__call_exitprocs>
    80001ab6:	842a                	mv	s0,a0
    80001ab8:	c781                	beqz	a5,80001ac0 <exit+0x18>
    80001aba:	4581                	li	a1,0
    80001abc:	126000ef          	jal	80001be2 <__call_exitprocs>
    80001ac0:	8201b783          	ld	a5,-2016(gp) # 80001ed8 <__stdio_exit_handler>
    80001ac4:	c391                	beqz	a5,80001ac8 <exit+0x20>
    80001ac6:	9782                	jalr	a5
    80001ac8:	8522                	mv	a0,s0
    80001aca:	fb3ff0ef          	jal	80001a7c <_exit>

0000000080001ace <__errno>:
    80001ace:	00000517          	auipc	a0,0x0
    80001ad2:	3ea53503          	ld	a0,1002(a0) # 80001eb8 <_impure_ptr>
    80001ad6:	8082                	ret

0000000080001ad8 <__libc_init_array>:
    80001ad8:	1101                	addi	sp,sp,-32
    80001ada:	e822                	sd	s0,16(sp)
    80001adc:	e426                	sd	s1,8(sp)
    80001ade:	00000417          	auipc	s0,0x0
    80001ae2:	32240413          	addi	s0,s0,802 # 80001e00 <tohost>
    80001ae6:	00000497          	auipc	s1,0x0
    80001aea:	31a48493          	addi	s1,s1,794 # 80001e00 <tohost>
    80001aee:	8c81                	sub	s1,s1,s0
    80001af0:	e04a                	sd	s2,0(sp)
    80001af2:	ec06                	sd	ra,24(sp)
    80001af4:	848d                	srai	s1,s1,0x3
    80001af6:	4901                	li	s2,0
    80001af8:	02991563          	bne	s2,s1,80001b22 <__libc_init_array+0x4a>
    80001afc:	00000417          	auipc	s0,0x0
    80001b00:	30440413          	addi	s0,s0,772 # 80001e00 <tohost>
    80001b04:	00000497          	auipc	s1,0x0
    80001b08:	2fc48493          	addi	s1,s1,764 # 80001e00 <tohost>
    80001b0c:	8c81                	sub	s1,s1,s0
    80001b0e:	848d                	srai	s1,s1,0x3
    80001b10:	4901                	li	s2,0
    80001b12:	00991d63          	bne	s2,s1,80001b2c <__libc_init_array+0x54>
    80001b16:	60e2                	ld	ra,24(sp)
    80001b18:	6442                	ld	s0,16(sp)
    80001b1a:	64a2                	ld	s1,8(sp)
    80001b1c:	6902                	ld	s2,0(sp)
    80001b1e:	6105                	addi	sp,sp,32
    80001b20:	8082                	ret
    80001b22:	601c                	ld	a5,0(s0)
    80001b24:	0905                	addi	s2,s2,1
    80001b26:	0421                	addi	s0,s0,8
    80001b28:	9782                	jalr	a5
    80001b2a:	b7f9                	j	80001af8 <__libc_init_array+0x20>
    80001b2c:	601c                	ld	a5,0(s0)
    80001b2e:	0905                	addi	s2,s2,1
    80001b30:	0421                	addi	s0,s0,8
    80001b32:	9782                	jalr	a5
    80001b34:	bff9                	j	80001b12 <__libc_init_array+0x3a>

0000000080001b36 <__libc_fini_array>:
    80001b36:	1101                	addi	sp,sp,-32
    80001b38:	e822                	sd	s0,16(sp)
    80001b3a:	e426                	sd	s1,8(sp)
    80001b3c:	00000417          	auipc	s0,0x0
    80001b40:	2c440413          	addi	s0,s0,708 # 80001e00 <tohost>
    80001b44:	00000497          	auipc	s1,0x0
    80001b48:	2bc48493          	addi	s1,s1,700 # 80001e00 <tohost>
    80001b4c:	8c05                	sub	s0,s0,s1
    80001b4e:	ec06                	sd	ra,24(sp)
    80001b50:	840d                	srai	s0,s0,0x3
    80001b52:	e411                	bnez	s0,80001b5e <__libc_fini_array+0x28>
    80001b54:	60e2                	ld	ra,24(sp)
    80001b56:	6442                	ld	s0,16(sp)
    80001b58:	64a2                	ld	s1,8(sp)
    80001b5a:	6105                	addi	sp,sp,32
    80001b5c:	8082                	ret
    80001b5e:	147d                	addi	s0,s0,-1
    80001b60:	00341793          	slli	a5,s0,0x3
    80001b64:	97a6                	add	a5,a5,s1
    80001b66:	639c                	ld	a5,0(a5)
    80001b68:	9782                	jalr	a5
    80001b6a:	b7e5                	j	80001b52 <__libc_fini_array+0x1c>

0000000080001b6c <__register_exitproc>:
    80001b6c:	88aa                	mv	a7,a0
    80001b6e:	85018513          	addi	a0,gp,-1968 # 80001f08 <__atexit>
    80001b72:	6118                	ld	a4,0(a0)
    80001b74:	ef01                	bnez	a4,80001b8c <__register_exitproc+0x20>
    80001b76:	a7018793          	addi	a5,gp,-1424 # 80002128 <__atexit0>
    80001b7a:	e11c                	sd	a5,0(a0)
    80001b7c:	00000713          	li	a4,0
    80001b80:	c701                	beqz	a4,80001b88 <__register_exitproc+0x1c>
    80001b82:	6318                	ld	a4,0(a4)
    80001b84:	10e7b823          	sd	a4,272(a5)
    80001b88:	a7018713          	addi	a4,gp,-1424 # 80002128 <__atexit0>
    80001b8c:	471c                	lw	a5,8(a4)
    80001b8e:	487d                	li	a6,31
    80001b90:	557d                	li	a0,-1
    80001b92:	04f84763          	blt	a6,a5,80001be0 <__register_exitproc+0x74>
    80001b96:	02088d63          	beqz	a7,80001bd0 <__register_exitproc+0x64>
    80001b9a:	11073803          	ld	a6,272(a4)
    80001b9e:	04080163          	beqz	a6,80001be0 <__register_exitproc+0x74>
    80001ba2:	00379513          	slli	a0,a5,0x3
    80001ba6:	9542                	add	a0,a0,a6
    80001ba8:	e110                	sd	a2,0(a0)
    80001baa:	20082303          	lw	t1,512(a6)
    80001bae:	4605                	li	a2,1
    80001bb0:	00f6163b          	sllw	a2,a2,a5
    80001bb4:	00c36333          	or	t1,t1,a2
    80001bb8:	20682023          	sw	t1,512(a6)
    80001bbc:	10d53023          	sd	a3,256(a0)
    80001bc0:	4689                	li	a3,2
    80001bc2:	00d89763          	bne	a7,a3,80001bd0 <__register_exitproc+0x64>
    80001bc6:	20482683          	lw	a3,516(a6)
    80001bca:	8ed1                	or	a3,a3,a2
    80001bcc:	20d82223          	sw	a3,516(a6)
    80001bd0:	0017869b          	addiw	a3,a5,1
    80001bd4:	0789                	addi	a5,a5,2
    80001bd6:	078e                	slli	a5,a5,0x3
    80001bd8:	c714                	sw	a3,8(a4)
    80001bda:	973e                	add	a4,a4,a5
    80001bdc:	e30c                	sd	a1,0(a4)
    80001bde:	4501                	li	a0,0
    80001be0:	8082                	ret

0000000080001be2 <__call_exitprocs>:
    80001be2:	711d                	addi	sp,sp,-96
    80001be4:	f852                	sd	s4,48(sp)
    80001be6:	f456                	sd	s5,40(sp)
    80001be8:	f05a                	sd	s6,32(sp)
    80001bea:	ec5e                	sd	s7,24(sp)
    80001bec:	ec86                	sd	ra,88(sp)
    80001bee:	e8a2                	sd	s0,80(sp)
    80001bf0:	e4a6                	sd	s1,72(sp)
    80001bf2:	e0ca                	sd	s2,64(sp)
    80001bf4:	fc4e                	sd	s3,56(sp)
    80001bf6:	e862                	sd	s8,16(sp)
    80001bf8:	e466                	sd	s9,8(sp)
    80001bfa:	8aaa                	mv	s5,a0
    80001bfc:	8a2e                	mv	s4,a1
    80001bfe:	85018b13          	addi	s6,gp,-1968 # 80001f08 <__atexit>
    80001c02:	4b85                	li	s7,1
    80001c04:	000b3483          	ld	s1,0(s6)
    80001c08:	cc81                	beqz	s1,80001c20 <__call_exitprocs+0x3e>
    80001c0a:	4480                	lw	s0,8(s1)
    80001c0c:	1104b983          	ld	s3,272(s1)
    80001c10:	fff4091b          	addiw	s2,s0,-1
    80001c14:	040e                	slli	s0,s0,0x3
    80001c16:	00898cb3          	add	s9,s3,s0
    80001c1a:	9426                	add	s0,s0,s1
    80001c1c:	00095f63          	bgez	s2,80001c3a <__call_exitprocs+0x58>
    80001c20:	60e6                	ld	ra,88(sp)
    80001c22:	6446                	ld	s0,80(sp)
    80001c24:	64a6                	ld	s1,72(sp)
    80001c26:	6906                	ld	s2,64(sp)
    80001c28:	79e2                	ld	s3,56(sp)
    80001c2a:	7a42                	ld	s4,48(sp)
    80001c2c:	7aa2                	ld	s5,40(sp)
    80001c2e:	7b02                	ld	s6,32(sp)
    80001c30:	6be2                	ld	s7,24(sp)
    80001c32:	6c42                	ld	s8,16(sp)
    80001c34:	6ca2                	ld	s9,8(sp)
    80001c36:	6125                	addi	sp,sp,96
    80001c38:	8082                	ret
    80001c3a:	000a0c63          	beqz	s4,80001c52 <__call_exitprocs+0x70>
    80001c3e:	00099663          	bnez	s3,80001c4a <__call_exitprocs+0x68>
    80001c42:	397d                	addiw	s2,s2,-1
    80001c44:	1ce1                	addi	s9,s9,-8
    80001c46:	1461                	addi	s0,s0,-8
    80001c48:	bfd1                	j	80001c1c <__call_exitprocs+0x3a>
    80001c4a:	0f8cb783          	ld	a5,248(s9)
    80001c4e:	ff479ae3          	bne	a5,s4,80001c42 <__call_exitprocs+0x60>
    80001c52:	449c                	lw	a5,8(s1)
    80001c54:	6418                	ld	a4,8(s0)
    80001c56:	37fd                	addiw	a5,a5,-1
    80001c58:	03279963          	bne	a5,s2,80001c8a <__call_exitprocs+0xa8>
    80001c5c:	0124a423          	sw	s2,8(s1)
    80001c60:	d36d                	beqz	a4,80001c42 <__call_exitprocs+0x60>
    80001c62:	0084ac03          	lw	s8,8(s1)
    80001c66:	00098963          	beqz	s3,80001c78 <__call_exitprocs+0x96>
    80001c6a:	2009a783          	lw	a5,512(s3)
    80001c6e:	012b96bb          	sllw	a3,s7,s2
    80001c72:	8ff5                	and	a5,a5,a3
    80001c74:	2781                	sext.w	a5,a5
    80001c76:	ef89                	bnez	a5,80001c90 <__call_exitprocs+0xae>
    80001c78:	9702                	jalr	a4
    80001c7a:	4498                	lw	a4,8(s1)
    80001c7c:	000b3783          	ld	a5,0(s6)
    80001c80:	f98712e3          	bne	a4,s8,80001c04 <__call_exitprocs+0x22>
    80001c84:	faf48fe3          	beq	s1,a5,80001c42 <__call_exitprocs+0x60>
    80001c88:	bfb5                	j	80001c04 <__call_exitprocs+0x22>
    80001c8a:	00043423          	sd	zero,8(s0)
    80001c8e:	bfc9                	j	80001c60 <__call_exitprocs+0x7e>
    80001c90:	2049a783          	lw	a5,516(s3)
    80001c94:	ff8cb583          	ld	a1,-8(s9)
    80001c98:	8ff5                	and	a5,a5,a3
    80001c9a:	2781                	sext.w	a5,a5
    80001c9c:	e781                	bnez	a5,80001ca4 <__call_exitprocs+0xc2>
    80001c9e:	8556                	mv	a0,s5
    80001ca0:	9702                	jalr	a4
    80001ca2:	bfe1                	j	80001c7a <__call_exitprocs+0x98>
    80001ca4:	852e                	mv	a0,a1
    80001ca6:	9702                	jalr	a4
    80001ca8:	bfc9                	j	80001c7a <__call_exitprocs+0x98>

Disassembly of section .htif:

0000000080001e00 <tohost>:
	...

0000000080001e08 <fromhost>:
	...
