
/home/frank/hesl/test_riscv/chipyard/chipyard/build/gcd.riscv:     file format elf64-littleriscv


Disassembly of section .text:

0000000080000000 <_start>:
    80000000:	4081                	li	ra,0
    80000002:	4101                	li	sp,0
    80000004:	4181                	li	gp,0
    80000006:	4201                	li	tp,0
    80000008:	4281                	li	t0,0
    8000000a:	4301                	li	t1,0
    8000000c:	4381                	li	t2,0
    8000000e:	4401                	li	s0,0
    80000010:	4481                	li	s1,0
    80000012:	4501                	li	a0,0
    80000014:	4581                	li	a1,0
    80000016:	4601                	li	a2,0
    80000018:	4681                	li	a3,0
    8000001a:	4701                	li	a4,0
    8000001c:	4781                	li	a5,0
    8000001e:	4801                	li	a6,0
    80000020:	4881                	li	a7,0
    80000022:	4901                	li	s2,0
    80000024:	4981                	li	s3,0
    80000026:	4a01                	li	s4,0
    80000028:	4a81                	li	s5,0
    8000002a:	4b01                	li	s6,0
    8000002c:	4b81                	li	s7,0
    8000002e:	4c01                	li	s8,0
    80000030:	4c81                	li	s9,0
    80000032:	4d01                	li	s10,0
    80000034:	4d81                	li	s11,0
    80000036:	4e01                	li	t3,0
    80000038:	4e81                	li	t4,0
    8000003a:	4f01                	li	t5,0
    8000003c:	4f81                	li	t6,0
    8000003e:	62f9                	lui	t0,0x1e
    80000040:	6002829b          	addiw	t0,t0,1536 # 1e600 <__stack_size+0x16600>
    80000044:	3002a073          	csrs	mstatus,t0
    80000048:	00000297          	auipc	t0,0x0
    8000004c:	09028293          	addi	t0,t0,144 # 800000d8 <_start+0xd8>
    80000050:	30529073          	csrw	mtvec,t0
    80000054:	00301073          	fscsr	zero
    80000058:	f0000053          	fmv.w.x	ft0,zero
    8000005c:	f00000d3          	fmv.w.x	ft1,zero
    80000060:	f0000153          	fmv.w.x	ft2,zero
    80000064:	f00001d3          	fmv.w.x	ft3,zero
    80000068:	f0000253          	fmv.w.x	ft4,zero
    8000006c:	f00002d3          	fmv.w.x	ft5,zero
    80000070:	f0000353          	fmv.w.x	ft6,zero
    80000074:	f00003d3          	fmv.w.x	ft7,zero
    80000078:	f0000453          	fmv.w.x	fs0,zero
    8000007c:	f00004d3          	fmv.w.x	fs1,zero
    80000080:	f0000553          	fmv.w.x	fa0,zero
    80000084:	f00005d3          	fmv.w.x	fa1,zero
    80000088:	f0000653          	fmv.w.x	fa2,zero
    8000008c:	f00006d3          	fmv.w.x	fa3,zero
    80000090:	f0000753          	fmv.w.x	fa4,zero
    80000094:	f00007d3          	fmv.w.x	fa5,zero
    80000098:	f0000853          	fmv.w.x	fa6,zero
    8000009c:	f00008d3          	fmv.w.x	fa7,zero
    800000a0:	f0000953          	fmv.w.x	fs2,zero
    800000a4:	f00009d3          	fmv.w.x	fs3,zero
    800000a8:	f0000a53          	fmv.w.x	fs4,zero
    800000ac:	f0000ad3          	fmv.w.x	fs5,zero
    800000b0:	f0000b53          	fmv.w.x	fs6,zero
    800000b4:	f0000bd3          	fmv.w.x	fs7,zero
    800000b8:	f0000c53          	fmv.w.x	fs8,zero
    800000bc:	f0000cd3          	fmv.w.x	fs9,zero
    800000c0:	f0000d53          	fmv.w.x	fs10,zero
    800000c4:	f0000dd3          	fmv.w.x	fs11,zero
    800000c8:	f0000e53          	fmv.w.x	ft8,zero
    800000cc:	f0000ed3          	fmv.w.x	ft9,zero
    800000d0:	f0000f53          	fmv.w.x	ft10,zero
    800000d4:	f0000fd3          	fmv.w.x	ft11,zero
    800000d8:	00002197          	auipc	gp,0x2
    800000dc:	5e018193          	addi	gp,gp,1504 # 800026b8 <__global_pointer$>
    800000e0:	f1402473          	csrr	s0,mhartid
    800000e4:	00f00293          	li	t0,15
    800000e8:	00023217          	auipc	tp,0x23
    800000ec:	f1820213          	addi	tp,tp,-232 # 80023000 <__heap_end>
    800000f0:	005412b3          	sll	t0,s0,t0
    800000f4:	9216                	add	tp,tp,t0
    800000f6:	62a1                	lui	t0,0x8
    800000f8:	00028293          	mv	t0,t0
    800000fc:	00520133          	add	sp,tp,t0
    80000100:	00000297          	auipc	t0,0x0
    80000104:	04428293          	addi	t0,t0,68 # 80000144 <trap_entry>
    80000108:	30529073          	csrw	mtvec,t0
    8000010c:	0ef010ef          	jal	800019fa <__init_tls>
    80000110:	00000293          	li	t0,0
    80000114:	00540463          	beq	s0,t0,8000011c <_start+0x11c>
    80000118:	0f60006f          	j	8000020e <_start_secondary>
    8000011c:	82018293          	addi	t0,gp,-2016 # 80001ed8 <__stdio_exit_handler>
    80000120:	b8818313          	addi	t1,gp,-1144 # 80002240 <_end>
    80000124:	0062f763          	bgeu	t0,t1,80000132 <_start+0x132>
    80000128:	0002b023          	sd	zero,0(t0)
    8000012c:	02a1                	addi	t0,t0,8
    8000012e:	fe62ede3          	bltu	t0,t1,80000128 <_start+0x128>
    80000132:	00002517          	auipc	a0,0x2
    80000136:	a0450513          	addi	a0,a0,-1532 # 80001b36 <__libc_fini_array>
    8000013a:	165010ef          	jal	80001a9e <atexit>
    8000013e:	19b010ef          	jal	80001ad8 <__libc_init_array>
    80000142:	a075                	j	800001ee <_start_main>

0000000080000144 <trap_entry>:
    80000144:	34011073          	csrw	mscratch,sp
    80000148:	7111                	addi	sp,sp,-256
    8000014a:	e406                	sd	ra,8(sp)
    8000014c:	340020f3          	csrr	ra,mscratch
    80000150:	e806                	sd	ra,16(sp)
    80000152:	ec0e                	sd	gp,24(sp)
    80000154:	f012                	sd	tp,32(sp)
    80000156:	f416                	sd	t0,40(sp)
    80000158:	f81a                	sd	t1,48(sp)
    8000015a:	fc1e                	sd	t2,56(sp)
    8000015c:	e0a2                	sd	s0,64(sp)
    8000015e:	e4a6                	sd	s1,72(sp)
    80000160:	e8aa                	sd	a0,80(sp)
    80000162:	ecae                	sd	a1,88(sp)
    80000164:	f0b2                	sd	a2,96(sp)
    80000166:	f4b6                	sd	a3,104(sp)
    80000168:	f8ba                	sd	a4,112(sp)
    8000016a:	fcbe                	sd	a5,120(sp)
    8000016c:	e142                	sd	a6,128(sp)
    8000016e:	e546                	sd	a7,136(sp)
    80000170:	e94a                	sd	s2,144(sp)
    80000172:	ed4e                	sd	s3,152(sp)
    80000174:	f152                	sd	s4,160(sp)
    80000176:	f556                	sd	s5,168(sp)
    80000178:	f95a                	sd	s6,176(sp)
    8000017a:	fd5e                	sd	s7,184(sp)
    8000017c:	e1e2                	sd	s8,192(sp)
    8000017e:	e5e6                	sd	s9,200(sp)
    80000180:	e9ea                	sd	s10,208(sp)
    80000182:	edee                	sd	s11,216(sp)
    80000184:	f1f2                	sd	t3,224(sp)
    80000186:	f5f6                	sd	t4,232(sp)
    80000188:	f9fa                	sd	t5,240(sp)
    8000018a:	fdfe                	sd	t6,248(sp)
    8000018c:	34102573          	csrr	a0,mepc
    80000190:	342025f3          	csrr	a1,mcause
    80000194:	34302673          	csrr	a2,mtval
    80000198:	868a                	mv	a3,sp
    8000019a:	04b010ef          	jal	800019e4 <handle_trap>
    8000019e:	34151073          	csrw	mepc,a0
    800001a2:	6289                	lui	t0,0x2
    800001a4:	8002829b          	addiw	t0,t0,-2048 # 1800 <__stack_align+0x17f0>
    800001a8:	3002a073          	csrs	mstatus,t0
    800001ac:	60a2                	ld	ra,8(sp)
    800001ae:	61e2                	ld	gp,24(sp)
    800001b0:	7202                	ld	tp,32(sp)
    800001b2:	72a2                	ld	t0,40(sp)
    800001b4:	7342                	ld	t1,48(sp)
    800001b6:	73e2                	ld	t2,56(sp)
    800001b8:	6406                	ld	s0,64(sp)
    800001ba:	64a6                	ld	s1,72(sp)
    800001bc:	6546                	ld	a0,80(sp)
    800001be:	65e6                	ld	a1,88(sp)
    800001c0:	7606                	ld	a2,96(sp)
    800001c2:	76a6                	ld	a3,104(sp)
    800001c4:	7746                	ld	a4,112(sp)
    800001c6:	77e6                	ld	a5,120(sp)
    800001c8:	680a                	ld	a6,128(sp)
    800001ca:	68aa                	ld	a7,136(sp)
    800001cc:	694a                	ld	s2,144(sp)
    800001ce:	69ea                	ld	s3,152(sp)
    800001d0:	7a0a                	ld	s4,160(sp)
    800001d2:	7aaa                	ld	s5,168(sp)
    800001d4:	7b4a                	ld	s6,176(sp)
    800001d6:	7bea                	ld	s7,184(sp)
    800001d8:	6c0e                	ld	s8,192(sp)
    800001da:	6cae                	ld	s9,200(sp)
    800001dc:	6d4e                	ld	s10,208(sp)
    800001de:	6dee                	ld	s11,216(sp)
    800001e0:	7e0e                	ld	t3,224(sp)
    800001e2:	7eae                	ld	t4,232(sp)
    800001e4:	7f4e                	ld	t5,240(sp)
    800001e6:	7fee                	ld	t6,248(sp)
    800001e8:	6142                	ld	sp,16(sp)
    800001ea:	30200073          	mret

00000000800001ee <_start_main>:
    800001ee:	52fd                	li	t0,-1
    800001f0:	0110000f          	fence	w,w
    800001f4:	a651a423          	sw	t0,-1432(gp) # 80002120 <__boot_sync>
    800001f8:	4505                	li	a0,1
    800001fa:	00002597          	auipc	a1,0x2
    800001fe:	bbe58593          	addi	a1,a1,-1090 # 80001db8 <argv>
    80000202:	8101b603          	ld	a2,-2032(gp) # 80001ec8 <environ>
    80000206:	02a000ef          	jal	80000230 <main>
    8000020a:	09f0106f          	j	80001aa8 <exit>

000000008000020e <_start_secondary>:
    8000020e:	a681a283          	lw	t0,-1432(gp) # 80002120 <__boot_sync>
    80000212:	fe028ee3          	beqz	t0,8000020e <_start_secondary>
    80000216:	0220000f          	fence	r,r
    8000021a:	4505                	li	a0,1
    8000021c:	00002597          	auipc	a1,0x2
    80000220:	b9c58593          	addi	a1,a1,-1124 # 80001db8 <argv>
    80000224:	8101b603          	ld	a2,-2032(gp) # 80001ec8 <environ>
    80000228:	003010ef          	jal	80001a2a <__main>
    8000022c:	07d0106f          	j	80001aa8 <exit>

0000000080000230 <main>:
    80000230:	ff010113          	addi	sp,sp,-16
    80000234:	00113423          	sd	ra,8(sp)
    80000238:	00004737          	lui	a4,0x4
    8000023c:	00074783          	lbu	a5,0(a4) # 4000 <__stack_align+0x3ff0>
    80000240:	0027f793          	andi	a5,a5,2
    80000244:	fe078ce3          	beqz	a5,8000023c <main+0xc>
    80000248:	00004737          	lui	a4,0x4
    8000024c:	01400693          	li	a3,20
    80000250:	00d72223          	sw	a3,4(a4) # 4004 <__stack_align+0x3ff4>
    80000254:	000047b7          	lui	a5,0x4
    80000258:	00f00713          	li	a4,15
    8000025c:	00e7a423          	sw	a4,8(a5) # 4008 <__stack_align+0x3ff8>
    80000260:	00004737          	lui	a4,0x4
    80000264:	00074783          	lbu	a5,0(a4) # 4000 <__stack_align+0x3ff0>
    80000268:	0017f793          	andi	a5,a5,1
    8000026c:	fe078ce3          	beqz	a5,80000264 <main+0x34>
    80000270:	000047b7          	lui	a5,0x4
    80000274:	00c7a583          	lw	a1,12(a5) # 400c <__stack_align+0x3ffc>
    80000278:	01400613          	li	a2,20
    8000027c:	00f00793          	li	a5,15
    80000280:	0005859b          	sext.w	a1,a1
    80000284:	00c7f663          	bgeu	a5,a2,80000290 <main+0x60>
    80000288:	40f6063b          	subw	a2,a2,a5
    8000028c:	fec7eee3          	bltu	a5,a2,80000288 <main+0x58>
    80000290:	40c787bb          	subw	a5,a5,a2
    80000294:	fe0798e3          	bnez	a5,80000284 <main+0x54>
    80000298:	02b60063          	beq	a2,a1,800002b8 <main+0x88>
    8000029c:	00002517          	auipc	a0,0x2
    800002a0:	a1450513          	addi	a0,a0,-1516 # 80001cb0 <__tbss_end+0x6>
    800002a4:	06a000ef          	jal	8000030e <iprintf>
    800002a8:	00100513          	li	a0,1
    800002ac:	00813083          	ld	ra,8(sp)
    800002b0:	01010113          	addi	sp,sp,16
    800002b4:	00008067          	ret
    800002b8:	00060593          	mv	a1,a2
    800002bc:	00002517          	auipc	a0,0x2
    800002c0:	a3450513          	addi	a0,a0,-1484 # 80001cf0 <__tbss_end+0x46>
    800002c4:	04a000ef          	jal	8000030e <iprintf>
    800002c8:	00000513          	li	a0,0
    800002cc:	fe1ff06f          	j	800002ac <main+0x7c>

00000000800002d0 <gcd_ref>:
    800002d0:	00058c63          	beqz	a1,800002e8 <gcd_ref+0x18>
    800002d4:	00a5f663          	bgeu	a1,a0,800002e0 <gcd_ref+0x10>
    800002d8:	40b5053b          	subw	a0,a0,a1
    800002dc:	fea5eee3          	bltu	a1,a0,800002d8 <gcd_ref+0x8>
    800002e0:	40a585bb          	subw	a1,a1,a0
    800002e4:	fe0598e3          	bnez	a1,800002d4 <gcd_ref+0x4>
    800002e8:	00008067          	ret

00000000800002ec <_iprintf_r>:
    800002ec:	715d                	addi	sp,sp,-80
    800002ee:	f032                	sd	a2,32(sp)
    800002f0:	f436                	sd	a3,40(sp)
    800002f2:	f83a                	sd	a4,48(sp)
    800002f4:	fc3e                	sd	a5,56(sp)
    800002f6:	e0c2                	sd	a6,64(sp)
    800002f8:	e4c6                	sd	a7,72(sp)
    800002fa:	862e                	mv	a2,a1
    800002fc:	690c                	ld	a1,16(a0)
    800002fe:	1014                	addi	a3,sp,32
    80000300:	ec06                	sd	ra,24(sp)
    80000302:	e436                	sd	a3,8(sp)
    80000304:	0cc000ef          	jal	800003d0 <_vfiprintf_r>
    80000308:	60e2                	ld	ra,24(sp)
    8000030a:	6161                	addi	sp,sp,80
    8000030c:	8082                	ret

000000008000030e <iprintf>:
    8000030e:	711d                	addi	sp,sp,-96
    80000310:	f832                	sd	a2,48(sp)
    80000312:	fc36                	sd	a3,56(sp)
    80000314:	e4be                	sd	a5,72(sp)
    80000316:	f42e                	sd	a1,40(sp)
    80000318:	e0ba                	sd	a4,64(sp)
    8000031a:	e8c2                	sd	a6,80(sp)
    8000031c:	ecc6                	sd	a7,88(sp)
    8000031e:	00002797          	auipc	a5,0x2
    80000322:	b9a7b783          	ld	a5,-1126(a5) # 80001eb8 <_impure_ptr>
    80000326:	6b8c                	ld	a1,16(a5)
    80000328:	1034                	addi	a3,sp,40
    8000032a:	862a                	mv	a2,a0
    8000032c:	853e                	mv	a0,a5
    8000032e:	ec06                	sd	ra,24(sp)
    80000330:	e436                	sd	a3,8(sp)
    80000332:	09e000ef          	jal	800003d0 <_vfiprintf_r>
    80000336:	60e2                	ld	ra,24(sp)
    80000338:	6125                	addi	sp,sp,96
    8000033a:	8082                	ret

000000008000033c <__sfputc_r>:
    8000033c:	465c                	lw	a5,12(a2)
    8000033e:	fff7871b          	addiw	a4,a5,-1
    80000342:	c658                	sw	a4,12(a2)
    80000344:	00075a63          	bgez	a4,80000358 <__sfputc_r+0x1c>
    80000348:	561c                	lw	a5,40(a2)
    8000034a:	00f74563          	blt	a4,a5,80000354 <__sfputc_r+0x18>
    8000034e:	47a9                	li	a5,10
    80000350:	00f59463          	bne	a1,a5,80000358 <__sfputc_r+0x1c>
    80000354:	4c10006f          	j	80001014 <__swbuf_r>
    80000358:	621c                	ld	a5,0(a2)
    8000035a:	852e                	mv	a0,a1
    8000035c:	00178713          	addi	a4,a5,1
    80000360:	e218                	sd	a4,0(a2)
    80000362:	00b78023          	sb	a1,0(a5)
    80000366:	8082                	ret

0000000080000368 <__sfputs_r>:
    80000368:	7179                	addi	sp,sp,-48
    8000036a:	f022                	sd	s0,32(sp)
    8000036c:	ec26                	sd	s1,24(sp)
    8000036e:	e84a                	sd	s2,16(sp)
    80000370:	e44e                	sd	s3,8(sp)
    80000372:	e052                	sd	s4,0(sp)
    80000374:	f406                	sd	ra,40(sp)
    80000376:	892a                	mv	s2,a0
    80000378:	89ae                	mv	s3,a1
    8000037a:	8432                	mv	s0,a2
    8000037c:	00d604b3          	add	s1,a2,a3
    80000380:	5a7d                	li	s4,-1
    80000382:	00941463          	bne	s0,s1,8000038a <__sfputs_r+0x22>
    80000386:	4501                	li	a0,0
    80000388:	a811                	j	8000039c <__sfputs_r+0x34>
    8000038a:	00044583          	lbu	a1,0(s0)
    8000038e:	864e                	mv	a2,s3
    80000390:	854a                	mv	a0,s2
    80000392:	fabff0ef          	jal	8000033c <__sfputc_r>
    80000396:	0405                	addi	s0,s0,1
    80000398:	ff4515e3          	bne	a0,s4,80000382 <__sfputs_r+0x1a>
    8000039c:	70a2                	ld	ra,40(sp)
    8000039e:	7402                	ld	s0,32(sp)
    800003a0:	64e2                	ld	s1,24(sp)
    800003a2:	6942                	ld	s2,16(sp)
    800003a4:	69a2                	ld	s3,8(sp)
    800003a6:	6a02                	ld	s4,0(sp)
    800003a8:	6145                	addi	sp,sp,48
    800003aa:	8082                	ret

00000000800003ac <__sprint_r>:
    800003ac:	6a1c                	ld	a5,16(a2)
    800003ae:	1141                	addi	sp,sp,-16
    800003b0:	e022                	sd	s0,0(sp)
    800003b2:	e406                	sd	ra,8(sp)
    800003b4:	8432                	mv	s0,a2
    800003b6:	cb99                	beqz	a5,800003cc <__sprint_r+0x20>
    800003b8:	059000ef          	jal	80000c10 <__sfvwrite_r>
    800003bc:	00043823          	sd	zero,16(s0)
    800003c0:	60a2                	ld	ra,8(sp)
    800003c2:	00042423          	sw	zero,8(s0)
    800003c6:	6402                	ld	s0,0(sp)
    800003c8:	0141                	addi	sp,sp,16
    800003ca:	8082                	ret
    800003cc:	4501                	li	a0,0
    800003ce:	bfcd                	j	800003c0 <__sprint_r+0x14>

00000000800003d0 <_vfiprintf_r>:
    800003d0:	7155                	addi	sp,sp,-208
    800003d2:	e1a2                	sd	s0,192(sp)
    800003d4:	fd26                	sd	s1,184(sp)
    800003d6:	f94a                	sd	s2,176(sp)
    800003d8:	f54e                	sd	s3,168(sp)
    800003da:	f152                	sd	s4,160(sp)
    800003dc:	e586                	sd	ra,200(sp)
    800003de:	ed56                	sd	s5,152(sp)
    800003e0:	e95a                	sd	s6,144(sp)
    800003e2:	e55e                	sd	s7,136(sp)
    800003e4:	e162                	sd	s8,128(sp)
    800003e6:	fce6                	sd	s9,120(sp)
    800003e8:	f8ea                	sd	s10,112(sp)
    800003ea:	8a2a                	mv	s4,a0
    800003ec:	892e                	mv	s2,a1
    800003ee:	84b2                	mv	s1,a2
    800003f0:	8436                	mv	s0,a3
    800003f2:	4981                	li	s3,0
    800003f4:	c509                	beqz	a0,800003fe <_vfiprintf_r+0x2e>
    800003f6:	613c                	ld	a5,64(a0)
    800003f8:	e399                	bnez	a5,800003fe <_vfiprintf_r+0x2e>
    800003fa:	7d2000ef          	jal	80000bcc <__sinit>
    800003fe:	01095783          	lhu	a5,16(s2)
    80000402:	8ba1                	andi	a5,a5,8
    80000404:	cbe1                	beqz	a5,800004d4 <_vfiprintf_r+0x104>
    80000406:	01893783          	ld	a5,24(s2)
    8000040a:	c7e9                	beqz	a5,800004d4 <_vfiprintf_r+0x104>
    8000040c:	02000793          	li	a5,32
    80000410:	02f104a3          	sb	a5,41(sp)
    80000414:	5afd                	li	s5,-1
    80000416:	03000793          	li	a5,48
    8000041a:	d202                	sw	zero,36(sp)
    8000041c:	02f10523          	sb	a5,42(sp)
    80000420:	e422                	sd	s0,8(sp)
    80000422:	02500b93          	li	s7,37
    80000426:	020a9c13          	slli	s8,s5,0x20
    8000042a:	00002b17          	auipc	s6,0x2
    8000042e:	8eeb0b13          	addi	s6,s6,-1810 # 80001d18 <__tbss_end+0x6e>
    80000432:	4c85                	li	s9,1
    80000434:	8426                	mv	s0,s1
    80000436:	00044783          	lbu	a5,0(s0)
    8000043a:	c399                	beqz	a5,80000440 <_vfiprintf_r+0x70>
    8000043c:	0d779063          	bne	a5,s7,800004fc <_vfiprintf_r+0x12c>
    80000440:	40940d3b          	subw	s10,s0,s1
    80000444:	000d0e63          	beqz	s10,80000460 <_vfiprintf_r+0x90>
    80000448:	86ea                	mv	a3,s10
    8000044a:	8626                	mv	a2,s1
    8000044c:	85ca                	mv	a1,s2
    8000044e:	8552                	mv	a0,s4
    80000450:	f19ff0ef          	jal	80000368 <__sfputs_r>
    80000454:	1d550963          	beq	a0,s5,80000626 <_vfiprintf_r+0x256>
    80000458:	5792                	lw	a5,36(sp)
    8000045a:	01a787bb          	addw	a5,a5,s10
    8000045e:	d23e                	sw	a5,36(sp)
    80000460:	00044783          	lbu	a5,0(s0)
    80000464:	1c078163          	beqz	a5,80000626 <_vfiprintf_r+0x256>
    80000468:	00140493          	addi	s1,s0,1
    8000046c:	e862                	sd	s8,16(sp)
    8000046e:	ec02                	sd	zero,24(sp)
    80000470:	040109a3          	sb	zero,83(sp)
    80000474:	d482                	sw	zero,104(sp)
    80000476:	0004c583          	lbu	a1,0(s1)
    8000047a:	4615                	li	a2,5
    8000047c:	855a                	mv	a0,s6
    8000047e:	50f000ef          	jal	8000118c <memchr>
    80000482:	47c2                	lw	a5,16(sp)
    80000484:	00148413          	addi	s0,s1,1
    80000488:	ed25                	bnez	a0,80000500 <_vfiprintf_r+0x130>
    8000048a:	0107f713          	andi	a4,a5,16
    8000048e:	c709                	beqz	a4,80000498 <_vfiprintf_r+0xc8>
    80000490:	02000713          	li	a4,32
    80000494:	04e109a3          	sb	a4,83(sp)
    80000498:	0087f713          	andi	a4,a5,8
    8000049c:	c709                	beqz	a4,800004a6 <_vfiprintf_r+0xd6>
    8000049e:	02b00713          	li	a4,43
    800004a2:	04e109a3          	sb	a4,83(sp)
    800004a6:	0004c683          	lbu	a3,0(s1)
    800004aa:	02a00713          	li	a4,42
    800004ae:	06e68163          	beq	a3,a4,80000510 <_vfiprintf_r+0x140>
    800004b2:	47f2                	lw	a5,28(sp)
    800004b4:	8426                	mv	s0,s1
    800004b6:	4681                	li	a3,0
    800004b8:	4625                	li	a2,9
    800004ba:	4829                	li	a6,10
    800004bc:	00044703          	lbu	a4,0(s0)
    800004c0:	00140513          	addi	a0,s0,1
    800004c4:	fd07059b          	addiw	a1,a4,-48
    800004c8:	872e                	mv	a4,a1
    800004ca:	08b67a63          	bgeu	a2,a1,8000055e <_vfiprintf_r+0x18e>
    800004ce:	caa9                	beqz	a3,80000520 <_vfiprintf_r+0x150>
    800004d0:	ce3e                	sw	a5,28(sp)
    800004d2:	a0b9                	j	80000520 <_vfiprintf_r+0x150>
    800004d4:	85ca                	mv	a1,s2
    800004d6:	8552                	mv	a0,s4
    800004d8:	3e7000ef          	jal	800010be <__swsetup_r>
    800004dc:	d905                	beqz	a0,8000040c <_vfiprintf_r+0x3c>
    800004de:	557d                	li	a0,-1
    800004e0:	60ae                	ld	ra,200(sp)
    800004e2:	640e                	ld	s0,192(sp)
    800004e4:	74ea                	ld	s1,184(sp)
    800004e6:	794a                	ld	s2,176(sp)
    800004e8:	79aa                	ld	s3,168(sp)
    800004ea:	7a0a                	ld	s4,160(sp)
    800004ec:	6aea                	ld	s5,152(sp)
    800004ee:	6b4a                	ld	s6,144(sp)
    800004f0:	6baa                	ld	s7,136(sp)
    800004f2:	6c0a                	ld	s8,128(sp)
    800004f4:	7ce6                	ld	s9,120(sp)
    800004f6:	7d46                	ld	s10,112(sp)
    800004f8:	6169                	addi	sp,sp,208
    800004fa:	8082                	ret
    800004fc:	0405                	addi	s0,s0,1
    800004fe:	bf25                	j	80000436 <_vfiprintf_r+0x66>
    80000500:	41650533          	sub	a0,a0,s6
    80000504:	00ac953b          	sllw	a0,s9,a0
    80000508:	8fc9                	or	a5,a5,a0
    8000050a:	c83e                	sw	a5,16(sp)
    8000050c:	84a2                	mv	s1,s0
    8000050e:	b7a5                	j	80000476 <_vfiprintf_r+0xa6>
    80000510:	6722                	ld	a4,8(sp)
    80000512:	00870693          	addi	a3,a4,8
    80000516:	4318                	lw	a4,0(a4)
    80000518:	e436                	sd	a3,8(sp)
    8000051a:	02074b63          	bltz	a4,80000550 <_vfiprintf_r+0x180>
    8000051e:	ce3a                	sw	a4,28(sp)
    80000520:	00044703          	lbu	a4,0(s0)
    80000524:	02e00793          	li	a5,46
    80000528:	06f71163          	bne	a4,a5,8000058a <_vfiprintf_r+0x1ba>
    8000052c:	00144703          	lbu	a4,1(s0)
    80000530:	02a00793          	li	a5,42
    80000534:	02f71b63          	bne	a4,a5,8000056a <_vfiprintf_r+0x19a>
    80000538:	67a2                	ld	a5,8(sp)
    8000053a:	0409                	addi	s0,s0,2
    8000053c:	00878713          	addi	a4,a5,8
    80000540:	e43a                	sd	a4,8(sp)
    80000542:	4398                	lw	a4,0(a5)
    80000544:	87ba                	mv	a5,a4
    80000546:	00075363          	bgez	a4,8000054c <_vfiprintf_r+0x17c>
    8000054a:	57fd                	li	a5,-1
    8000054c:	ca3e                	sw	a5,20(sp)
    8000054e:	a835                	j	8000058a <_vfiprintf_r+0x1ba>
    80000550:	40e0073b          	negw	a4,a4
    80000554:	0027e793          	ori	a5,a5,2
    80000558:	ce3a                	sw	a4,28(sp)
    8000055a:	c83e                	sw	a5,16(sp)
    8000055c:	b7d1                	j	80000520 <_vfiprintf_r+0x150>
    8000055e:	02f807bb          	mulw	a5,a6,a5
    80000562:	842a                	mv	s0,a0
    80000564:	4685                	li	a3,1
    80000566:	9fb9                	addw	a5,a5,a4
    80000568:	bf91                	j	800004bc <_vfiprintf_r+0xec>
    8000056a:	0405                	addi	s0,s0,1
    8000056c:	ca02                	sw	zero,20(sp)
    8000056e:	4681                	li	a3,0
    80000570:	4781                	li	a5,0
    80000572:	4625                	li	a2,9
    80000574:	4829                	li	a6,10
    80000576:	00044703          	lbu	a4,0(s0)
    8000057a:	00140513          	addi	a0,s0,1
    8000057e:	fd07059b          	addiw	a1,a4,-48
    80000582:	872e                	mv	a4,a1
    80000584:	06b67c63          	bgeu	a2,a1,800005fc <_vfiprintf_r+0x22c>
    80000588:	f2f1                	bnez	a3,8000054c <_vfiprintf_r+0x17c>
    8000058a:	00044583          	lbu	a1,0(s0)
    8000058e:	460d                	li	a2,3
    80000590:	00001517          	auipc	a0,0x1
    80000594:	79050513          	addi	a0,a0,1936 # 80001d20 <__tbss_end+0x76>
    80000598:	3f5000ef          	jal	8000118c <memchr>
    8000059c:	cd11                	beqz	a0,800005b8 <_vfiprintf_r+0x1e8>
    8000059e:	00001797          	auipc	a5,0x1
    800005a2:	78278793          	addi	a5,a5,1922 # 80001d20 <__tbss_end+0x76>
    800005a6:	8d1d                	sub	a0,a0,a5
    800005a8:	47c2                	lw	a5,16(sp)
    800005aa:	04000713          	li	a4,64
    800005ae:	00a7173b          	sllw	a4,a4,a0
    800005b2:	8fd9                	or	a5,a5,a4
    800005b4:	0405                	addi	s0,s0,1
    800005b6:	c83e                	sw	a5,16(sp)
    800005b8:	00044583          	lbu	a1,0(s0)
    800005bc:	4619                	li	a2,6
    800005be:	00001517          	auipc	a0,0x1
    800005c2:	76a50513          	addi	a0,a0,1898 # 80001d28 <__tbss_end+0x7e>
    800005c6:	00140493          	addi	s1,s0,1
    800005ca:	02b10423          	sb	a1,40(sp)
    800005ce:	3bf000ef          	jal	8000118c <memchr>
    800005d2:	c135                	beqz	a0,80000636 <_vfiprintf_r+0x266>
    800005d4:	00000793          	li	a5,0
    800005d8:	eb85                	bnez	a5,80000608 <_vfiprintf_r+0x238>
    800005da:	4742                	lw	a4,16(sp)
    800005dc:	67a2                	ld	a5,8(sp)
    800005de:	10077713          	andi	a4,a4,256
    800005e2:	00878693          	addi	a3,a5,8
    800005e6:	c709                	beqz	a4,800005f0 <_vfiprintf_r+0x220>
    800005e8:	07bd                	addi	a5,a5,15
    800005ea:	9bc1                	andi	a5,a5,-16
    800005ec:	01078693          	addi	a3,a5,16
    800005f0:	e436                	sd	a3,8(sp)
    800005f2:	5792                	lw	a5,36(sp)
    800005f4:	013787bb          	addw	a5,a5,s3
    800005f8:	d23e                	sw	a5,36(sp)
    800005fa:	bd2d                	j	80000434 <_vfiprintf_r+0x64>
    800005fc:	02f807bb          	mulw	a5,a6,a5
    80000600:	842a                	mv	s0,a0
    80000602:	4685                	li	a3,1
    80000604:	9fb9                	addw	a5,a5,a4
    80000606:	bf85                	j	80000576 <_vfiprintf_r+0x1a6>
    80000608:	0038                	addi	a4,sp,8
    8000060a:	00000697          	auipc	a3,0x0
    8000060e:	d5e68693          	addi	a3,a3,-674 # 80000368 <__sfputs_r>
    80000612:	864a                	mv	a2,s2
    80000614:	080c                	addi	a1,sp,16
    80000616:	8552                	mv	a0,s4
    80000618:	00000097          	auipc	ra,0x0
    8000061c:	000000e7          	jalr	zero # 0 <__boot_hart>
    80000620:	89aa                	mv	s3,a0
    80000622:	fd5518e3          	bne	a0,s5,800005f2 <_vfiprintf_r+0x222>
    80000626:	01095783          	lhu	a5,16(s2)
    8000062a:	0407f793          	andi	a5,a5,64
    8000062e:	ea0798e3          	bnez	a5,800004de <_vfiprintf_r+0x10e>
    80000632:	5512                	lw	a0,36(sp)
    80000634:	b575                	j	800004e0 <_vfiprintf_r+0x110>
    80000636:	0038                	addi	a4,sp,8
    80000638:	00000697          	auipc	a3,0x0
    8000063c:	d3068693          	addi	a3,a3,-720 # 80000368 <__sfputs_r>
    80000640:	864a                	mv	a2,s2
    80000642:	080c                	addi	a1,sp,16
    80000644:	8552                	mv	a0,s4
    80000646:	134000ef          	jal	8000077a <_printf_i>
    8000064a:	bfd9                	j	80000620 <_vfiprintf_r+0x250>

000000008000064c <vfiprintf>:
    8000064c:	86b2                	mv	a3,a2
    8000064e:	862e                	mv	a2,a1
    80000650:	85aa                	mv	a1,a0
    80000652:	00002517          	auipc	a0,0x2
    80000656:	86653503          	ld	a0,-1946(a0) # 80001eb8 <_impure_ptr>
    8000065a:	bb9d                	j	800003d0 <_vfiprintf_r>

000000008000065c <_printf_common>:
    8000065c:	715d                	addi	sp,sp,-80
    8000065e:	f052                	sd	s4,32(sp)
    80000660:	ec56                	sd	s5,24(sp)
    80000662:	8a36                	mv	s4,a3
    80000664:	8aba                	mv	s5,a4
    80000666:	4994                	lw	a3,16(a1)
    80000668:	4598                	lw	a4,8(a1)
    8000066a:	e0a2                	sd	s0,64(sp)
    8000066c:	f84a                	sd	s2,48(sp)
    8000066e:	f44e                	sd	s3,40(sp)
    80000670:	e486                	sd	ra,72(sp)
    80000672:	fc26                	sd	s1,56(sp)
    80000674:	e85a                	sd	s6,16(sp)
    80000676:	e45e                	sd	s7,8(sp)
    80000678:	89aa                	mv	s3,a0
    8000067a:	842e                	mv	s0,a1
    8000067c:	8932                	mv	s2,a2
    8000067e:	87ba                	mv	a5,a4
    80000680:	00e6c363          	blt	a3,a4,80000686 <_printf_common+0x2a>
    80000684:	87b6                	mv	a5,a3
    80000686:	00f92023          	sw	a5,0(s2)
    8000068a:	04344703          	lbu	a4,67(s0)
    8000068e:	c701                	beqz	a4,80000696 <_printf_common+0x3a>
    80000690:	2785                	addiw	a5,a5,1
    80000692:	00f92023          	sw	a5,0(s2)
    80000696:	401c                	lw	a5,0(s0)
    80000698:	0207f793          	andi	a5,a5,32
    8000069c:	c791                	beqz	a5,800006a8 <_printf_common+0x4c>
    8000069e:	00092783          	lw	a5,0(s2)
    800006a2:	2789                	addiw	a5,a5,2
    800006a4:	00f92023          	sw	a5,0(s2)
    800006a8:	4004                	lw	s1,0(s0)
    800006aa:	8899                	andi	s1,s1,6
    800006ac:	e891                	bnez	s1,800006c0 <_printf_common+0x64>
    800006ae:	01940b13          	addi	s6,s0,25
    800006b2:	5bfd                	li	s7,-1
    800006b4:	445c                	lw	a5,12(s0)
    800006b6:	00092703          	lw	a4,0(s2)
    800006ba:	9f99                	subw	a5,a5,a4
    800006bc:	06f4c063          	blt	s1,a5,8000071c <_printf_common+0xc0>
    800006c0:	04344783          	lbu	a5,67(s0)
    800006c4:	00f03633          	snez	a2,a5
    800006c8:	00f036b3          	snez	a3,a5
    800006cc:	401c                	lw	a5,0(s0)
    800006ce:	0207f793          	andi	a5,a5,32
    800006d2:	ebb5                	bnez	a5,80000746 <_printf_common+0xea>
    800006d4:	04340613          	addi	a2,s0,67
    800006d8:	85d2                	mv	a1,s4
    800006da:	854e                	mv	a0,s3
    800006dc:	9a82                	jalr	s5
    800006de:	57fd                	li	a5,-1
    800006e0:	04f50563          	beq	a0,a5,8000072a <_printf_common+0xce>
    800006e4:	401c                	lw	a5,0(s0)
    800006e6:	4711                	li	a4,4
    800006e8:	4481                	li	s1,0
    800006ea:	8b99                	andi	a5,a5,6
    800006ec:	00e79b63          	bne	a5,a4,80000702 <_printf_common+0xa6>
    800006f0:	00092783          	lw	a5,0(s2)
    800006f4:	4444                	lw	s1,12(s0)
    800006f6:	9c9d                	subw	s1,s1,a5
    800006f8:	02049793          	slli	a5,s1,0x20
    800006fc:	0007d363          	bgez	a5,80000702 <_printf_common+0xa6>
    80000700:	4481                	li	s1,0
    80000702:	441c                	lw	a5,8(s0)
    80000704:	4818                	lw	a4,16(s0)
    80000706:	00f75463          	bge	a4,a5,8000070e <_printf_common+0xb2>
    8000070a:	9f99                	subw	a5,a5,a4
    8000070c:	9cbd                	addw	s1,s1,a5
    8000070e:	4901                	li	s2,0
    80000710:	0469                	addi	s0,s0,26
    80000712:	5b7d                	li	s6,-1
    80000714:	05249a63          	bne	s1,s2,80000768 <_printf_common+0x10c>
    80000718:	4501                	li	a0,0
    8000071a:	a809                	j	8000072c <_printf_common+0xd0>
    8000071c:	4685                	li	a3,1
    8000071e:	865a                	mv	a2,s6
    80000720:	85d2                	mv	a1,s4
    80000722:	854e                	mv	a0,s3
    80000724:	9a82                	jalr	s5
    80000726:	01751e63          	bne	a0,s7,80000742 <_printf_common+0xe6>
    8000072a:	557d                	li	a0,-1
    8000072c:	60a6                	ld	ra,72(sp)
    8000072e:	6406                	ld	s0,64(sp)
    80000730:	74e2                	ld	s1,56(sp)
    80000732:	7942                	ld	s2,48(sp)
    80000734:	79a2                	ld	s3,40(sp)
    80000736:	7a02                	ld	s4,32(sp)
    80000738:	6ae2                	ld	s5,24(sp)
    8000073a:	6b42                	ld	s6,16(sp)
    8000073c:	6ba2                	ld	s7,8(sp)
    8000073e:	6161                	addi	sp,sp,80
    80000740:	8082                	ret
    80000742:	2485                	addiw	s1,s1,1
    80000744:	bf85                	j	800006b4 <_printf_common+0x58>
    80000746:	00d407b3          	add	a5,s0,a3
    8000074a:	03000693          	li	a3,48
    8000074e:	04d781a3          	sb	a3,67(a5)
    80000752:	0016071b          	addiw	a4,a2,1
    80000756:	0026069b          	addiw	a3,a2,2
    8000075a:	04544603          	lbu	a2,69(s0)
    8000075e:	00e407b3          	add	a5,s0,a4
    80000762:	04c781a3          	sb	a2,67(a5)
    80000766:	b7bd                	j	800006d4 <_printf_common+0x78>
    80000768:	4685                	li	a3,1
    8000076a:	8622                	mv	a2,s0
    8000076c:	85d2                	mv	a1,s4
    8000076e:	854e                	mv	a0,s3
    80000770:	9a82                	jalr	s5
    80000772:	fb650ce3          	beq	a0,s6,8000072a <_printf_common+0xce>
    80000776:	2905                	addiw	s2,s2,1
    80000778:	bf71                	j	80000714 <_printf_common+0xb8>

000000008000077a <_printf_i>:
    8000077a:	715d                	addi	sp,sp,-80
    8000077c:	e0a2                	sd	s0,64(sp)
    8000077e:	f84a                	sd	s2,48(sp)
    80000780:	f44e                	sd	s3,40(sp)
    80000782:	f052                	sd	s4,32(sp)
    80000784:	e486                	sd	ra,72(sp)
    80000786:	fc26                	sd	s1,56(sp)
    80000788:	ec56                	sd	s5,24(sp)
    8000078a:	e85a                	sd	s6,16(sp)
    8000078c:	0185c803          	lbu	a6,24(a1)
    80000790:	07800793          	li	a5,120
    80000794:	892a                	mv	s2,a0
    80000796:	842e                	mv	s0,a1
    80000798:	89b2                	mv	s3,a2
    8000079a:	8a36                	mv	s4,a3
    8000079c:	0307e263          	bltu	a5,a6,800007c0 <_printf_i+0x46>
    800007a0:	06200793          	li	a5,98
    800007a4:	04358693          	addi	a3,a1,67
    800007a8:	0307e163          	bltu	a5,a6,800007ca <_printf_i+0x50>
    800007ac:	1c080663          	beqz	a6,80000978 <_printf_i+0x1fe>
    800007b0:	05800793          	li	a5,88
    800007b4:	00001617          	auipc	a2,0x1
    800007b8:	57c60613          	addi	a2,a2,1404 # 80001d30 <__tbss_end+0x86>
    800007bc:	14f80a63          	beq	a6,a5,80000910 <_printf_i+0x196>
    800007c0:	04240493          	addi	s1,s0,66
    800007c4:	05040123          	sb	a6,66(s0)
    800007c8:	a815                	j	800007fc <_printf_i+0x82>
    800007ca:	f9d8079b          	addiw	a5,a6,-99
    800007ce:	0ff7f793          	zext.b	a5,a5
    800007d2:	4655                	li	a2,21
    800007d4:	fef666e3          	bltu	a2,a5,800007c0 <_printf_i+0x46>
    800007d8:	00001617          	auipc	a2,0x1
    800007dc:	58460613          	addi	a2,a2,1412 # 80001d5c <__tbss_end+0xb2>
    800007e0:	078a                	slli	a5,a5,0x2
    800007e2:	97b2                	add	a5,a5,a2
    800007e4:	439c                	lw	a5,0(a5)
    800007e6:	97b2                	add	a5,a5,a2
    800007e8:	8782                	jr	a5
    800007ea:	631c                	ld	a5,0(a4)
    800007ec:	04258493          	addi	s1,a1,66
    800007f0:	00878693          	addi	a3,a5,8
    800007f4:	439c                	lw	a5,0(a5)
    800007f6:	e314                	sd	a3,0(a4)
    800007f8:	04f58123          	sb	a5,66(a1)
    800007fc:	4785                	li	a5,1
    800007fe:	aa4d                	j	800009b0 <_printf_i+0x236>
    80000800:	419c                	lw	a5,0(a1)
    80000802:	6308                	ld	a0,0(a4)
    80000804:	0807f613          	andi	a2,a5,128
    80000808:	00850593          	addi	a1,a0,8
    8000080c:	c20d                	beqz	a2,8000082e <_printf_i+0xb4>
    8000080e:	611c                	ld	a5,0(a0)
    80000810:	e30c                	sd	a1,0(a4)
    80000812:	0007d863          	bgez	a5,80000822 <_printf_i+0xa8>
    80000816:	02d00713          	li	a4,45
    8000081a:	40f007b3          	neg	a5,a5
    8000081e:	04e401a3          	sb	a4,67(s0)
    80000822:	00001617          	auipc	a2,0x1
    80000826:	50e60613          	addi	a2,a2,1294 # 80001d30 <__tbss_end+0x86>
    8000082a:	4829                	li	a6,10
    8000082c:	a83d                	j	8000086a <_printf_i+0xf0>
    8000082e:	0407f613          	andi	a2,a5,64
    80000832:	411c                	lw	a5,0(a0)
    80000834:	e30c                	sd	a1,0(a4)
    80000836:	de71                	beqz	a2,80000812 <_printf_i+0x98>
    80000838:	0107979b          	slliw	a5,a5,0x10
    8000083c:	4107d79b          	sraiw	a5,a5,0x10
    80000840:	bfc9                	j	80000812 <_printf_i+0x98>
    80000842:	4190                	lw	a2,0(a1)
    80000844:	631c                	ld	a5,0(a4)
    80000846:	08067513          	andi	a0,a2,128
    8000084a:	00878593          	addi	a1,a5,8
    8000084e:	cd41                	beqz	a0,800008e6 <_printf_i+0x16c>
    80000850:	639c                	ld	a5,0(a5)
    80000852:	e30c                	sd	a1,0(a4)
    80000854:	06f00713          	li	a4,111
    80000858:	00001617          	auipc	a2,0x1
    8000085c:	4d860613          	addi	a2,a2,1240 # 80001d30 <__tbss_end+0x86>
    80000860:	0ee81e63          	bne	a6,a4,8000095c <_printf_i+0x1e2>
    80000864:	4821                	li	a6,8
    80000866:	040401a3          	sb	zero,67(s0)
    8000086a:	4058                	lw	a4,4(s0)
    8000086c:	c418                	sw	a4,8(s0)
    8000086e:	00074563          	bltz	a4,80000878 <_printf_i+0xfe>
    80000872:	400c                	lw	a1,0(s0)
    80000874:	99ed                	andi	a1,a1,-5
    80000876:	c00c                	sw	a1,0(s0)
    80000878:	e399                	bnez	a5,8000087e <_printf_i+0x104>
    8000087a:	84b6                	mv	s1,a3
    8000087c:	cf19                	beqz	a4,8000089a <_printf_i+0x120>
    8000087e:	84b6                	mv	s1,a3
    80000880:	0307f733          	remu	a4,a5,a6
    80000884:	14fd                	addi	s1,s1,-1
    80000886:	9732                	add	a4,a4,a2
    80000888:	00074703          	lbu	a4,0(a4)
    8000088c:	00e48023          	sb	a4,0(s1)
    80000890:	873e                	mv	a4,a5
    80000892:	0307d7b3          	divu	a5,a5,a6
    80000896:	ff0775e3          	bgeu	a4,a6,80000880 <_printf_i+0x106>
    8000089a:	47a1                	li	a5,8
    8000089c:	00f81e63          	bne	a6,a5,800008b8 <_printf_i+0x13e>
    800008a0:	401c                	lw	a5,0(s0)
    800008a2:	8b85                	andi	a5,a5,1
    800008a4:	cb91                	beqz	a5,800008b8 <_printf_i+0x13e>
    800008a6:	4058                	lw	a4,4(s0)
    800008a8:	481c                	lw	a5,16(s0)
    800008aa:	00e7c763          	blt	a5,a4,800008b8 <_printf_i+0x13e>
    800008ae:	03000793          	li	a5,48
    800008b2:	fef48fa3          	sb	a5,-1(s1)
    800008b6:	14fd                	addi	s1,s1,-1
    800008b8:	8e85                	sub	a3,a3,s1
    800008ba:	c814                	sw	a3,16(s0)
    800008bc:	8752                	mv	a4,s4
    800008be:	86ce                	mv	a3,s3
    800008c0:	0070                	addi	a2,sp,12
    800008c2:	85a2                	mv	a1,s0
    800008c4:	854a                	mv	a0,s2
    800008c6:	d97ff0ef          	jal	8000065c <_printf_common>
    800008ca:	5afd                	li	s5,-1
    800008cc:	0f551663          	bne	a0,s5,800009b8 <_printf_i+0x23e>
    800008d0:	557d                	li	a0,-1
    800008d2:	60a6                	ld	ra,72(sp)
    800008d4:	6406                	ld	s0,64(sp)
    800008d6:	74e2                	ld	s1,56(sp)
    800008d8:	7942                	ld	s2,48(sp)
    800008da:	79a2                	ld	s3,40(sp)
    800008dc:	7a02                	ld	s4,32(sp)
    800008de:	6ae2                	ld	s5,24(sp)
    800008e0:	6b42                	ld	s6,16(sp)
    800008e2:	6161                	addi	sp,sp,80
    800008e4:	8082                	ret
    800008e6:	439c                	lw	a5,0(a5)
    800008e8:	04067613          	andi	a2,a2,64
    800008ec:	e30c                	sd	a1,0(a4)
    800008ee:	c601                	beqz	a2,800008f6 <_printf_i+0x17c>
    800008f0:	17c2                	slli	a5,a5,0x30
    800008f2:	93c1                	srli	a5,a5,0x30
    800008f4:	b785                	j	80000854 <_printf_i+0xda>
    800008f6:	1782                	slli	a5,a5,0x20
    800008f8:	9381                	srli	a5,a5,0x20
    800008fa:	bfa9                	j	80000854 <_printf_i+0xda>
    800008fc:	419c                	lw	a5,0(a1)
    800008fe:	0a07e793          	ori	a5,a5,160
    80000902:	c19c                	sw	a5,0(a1)
    80000904:	07800813          	li	a6,120
    80000908:	00001617          	auipc	a2,0x1
    8000090c:	44060613          	addi	a2,a2,1088 # 80001d48 <__tbss_end+0x9e>
    80000910:	050402a3          	sb	a6,69(s0)
    80000914:	400c                	lw	a1,0(s0)
    80000916:	631c                	ld	a5,0(a4)
    80000918:	0805f813          	andi	a6,a1,128
    8000091c:	00878513          	addi	a0,a5,8
    80000920:	00080d63          	beqz	a6,8000093a <_printf_i+0x1c0>
    80000924:	639c                	ld	a5,0(a5)
    80000926:	e308                	sd	a0,0(a4)
    80000928:	0015f713          	andi	a4,a1,1
    8000092c:	c701                	beqz	a4,80000934 <_printf_i+0x1ba>
    8000092e:	0205e593          	ori	a1,a1,32
    80000932:	c00c                	sw	a1,0(s0)
    80000934:	cf99                	beqz	a5,80000952 <_printf_i+0x1d8>
    80000936:	4841                	li	a6,16
    80000938:	b73d                	j	80000866 <_printf_i+0xec>
    8000093a:	439c                	lw	a5,0(a5)
    8000093c:	0405f813          	andi	a6,a1,64
    80000940:	e308                	sd	a0,0(a4)
    80000942:	00080563          	beqz	a6,8000094c <_printf_i+0x1d2>
    80000946:	17c2                	slli	a5,a5,0x30
    80000948:	93c1                	srli	a5,a5,0x30
    8000094a:	bff9                	j	80000928 <_printf_i+0x1ae>
    8000094c:	1782                	slli	a5,a5,0x20
    8000094e:	9381                	srli	a5,a5,0x20
    80000950:	bfe1                	j	80000928 <_printf_i+0x1ae>
    80000952:	4018                	lw	a4,0(s0)
    80000954:	fdf77713          	andi	a4,a4,-33
    80000958:	c018                	sw	a4,0(s0)
    8000095a:	bff1                	j	80000936 <_printf_i+0x1bc>
    8000095c:	4829                	li	a6,10
    8000095e:	b721                	j	80000866 <_printf_i+0xec>
    80000960:	4190                	lw	a2,0(a1)
    80000962:	631c                	ld	a5,0(a4)
    80000964:	49cc                	lw	a1,20(a1)
    80000966:	08067813          	andi	a6,a2,128
    8000096a:	00878513          	addi	a0,a5,8
    8000096e:	00080963          	beqz	a6,80000980 <_printf_i+0x206>
    80000972:	e308                	sd	a0,0(a4)
    80000974:	639c                	ld	a5,0(a5)
    80000976:	e38c                	sd	a1,0(a5)
    80000978:	00042823          	sw	zero,16(s0)
    8000097c:	84b6                	mv	s1,a3
    8000097e:	bf3d                	j	800008bc <_printf_i+0x142>
    80000980:	e308                	sd	a0,0(a4)
    80000982:	04067613          	andi	a2,a2,64
    80000986:	639c                	ld	a5,0(a5)
    80000988:	c601                	beqz	a2,80000990 <_printf_i+0x216>
    8000098a:	00b79023          	sh	a1,0(a5)
    8000098e:	b7ed                	j	80000978 <_printf_i+0x1fe>
    80000990:	c38c                	sw	a1,0(a5)
    80000992:	b7dd                	j	80000978 <_printf_i+0x1fe>
    80000994:	631c                	ld	a5,0(a4)
    80000996:	41d0                	lw	a2,4(a1)
    80000998:	4581                	li	a1,0
    8000099a:	00878693          	addi	a3,a5,8
    8000099e:	e314                	sd	a3,0(a4)
    800009a0:	6384                	ld	s1,0(a5)
    800009a2:	8526                	mv	a0,s1
    800009a4:	7e8000ef          	jal	8000118c <memchr>
    800009a8:	c119                	beqz	a0,800009ae <_printf_i+0x234>
    800009aa:	8d05                	sub	a0,a0,s1
    800009ac:	c048                	sw	a0,4(s0)
    800009ae:	405c                	lw	a5,4(s0)
    800009b0:	c81c                	sw	a5,16(s0)
    800009b2:	040401a3          	sb	zero,67(s0)
    800009b6:	b719                	j	800008bc <_printf_i+0x142>
    800009b8:	4814                	lw	a3,16(s0)
    800009ba:	8626                	mv	a2,s1
    800009bc:	85ce                	mv	a1,s3
    800009be:	854a                	mv	a0,s2
    800009c0:	9a02                	jalr	s4
    800009c2:	f15507e3          	beq	a0,s5,800008d0 <_printf_i+0x156>
    800009c6:	401c                	lw	a5,0(s0)
    800009c8:	8b89                	andi	a5,a5,2
    800009ca:	eb85                	bnez	a5,800009fa <_printf_i+0x280>
    800009cc:	4458                	lw	a4,12(s0)
    800009ce:	47b2                	lw	a5,12(sp)
    800009d0:	0007051b          	sext.w	a0,a4
    800009d4:	eef75fe3          	bge	a4,a5,800008d2 <_printf_i+0x158>
    800009d8:	0007851b          	sext.w	a0,a5
    800009dc:	bddd                	j	800008d2 <_printf_i+0x158>
    800009de:	4685                	li	a3,1
    800009e0:	8656                	mv	a2,s5
    800009e2:	85ce                	mv	a1,s3
    800009e4:	854a                	mv	a0,s2
    800009e6:	9a02                	jalr	s4
    800009e8:	ef6504e3          	beq	a0,s6,800008d0 <_printf_i+0x156>
    800009ec:	2485                	addiw	s1,s1,1
    800009ee:	445c                	lw	a5,12(s0)
    800009f0:	4732                	lw	a4,12(sp)
    800009f2:	9f99                	subw	a5,a5,a4
    800009f4:	fef4c5e3          	blt	s1,a5,800009de <_printf_i+0x264>
    800009f8:	bfd1                	j	800009cc <_printf_i+0x252>
    800009fa:	4481                	li	s1,0
    800009fc:	01940a93          	addi	s5,s0,25
    80000a00:	5b7d                	li	s6,-1
    80000a02:	b7f5                	j	800009ee <_printf_i+0x274>

0000000080000a04 <__fp_lock>:
    80000a04:	4501                	li	a0,0
    80000a06:	8082                	ret

0000000080000a08 <std>:
    80000a08:	1141                	addi	sp,sp,-16
    80000a0a:	e022                	sd	s0,0(sp)
    80000a0c:	e406                	sd	ra,8(sp)
    80000a0e:	842a                	mv	s0,a0
    80000a10:	00b51823          	sh	a1,16(a0)
    80000a14:	00c51923          	sh	a2,18(a0)
    80000a18:	00053023          	sd	zero,0(a0)
    80000a1c:	00053423          	sd	zero,8(a0)
    80000a20:	0a052623          	sw	zero,172(a0)
    80000a24:	00053c23          	sd	zero,24(a0)
    80000a28:	02052023          	sw	zero,32(a0)
    80000a2c:	02052423          	sw	zero,40(a0)
    80000a30:	4621                	li	a2,8
    80000a32:	4581                	li	a1,0
    80000a34:	0a450513          	addi	a0,a0,164
    80000a38:	111000ef          	jal	80001348 <memset>
    80000a3c:	00000797          	auipc	a5,0x0
    80000a40:	51478793          	addi	a5,a5,1300 # 80000f50 <__sread>
    80000a44:	e03c                	sd	a5,64(s0)
    80000a46:	00000797          	auipc	a5,0x0
    80000a4a:	54078793          	addi	a5,a5,1344 # 80000f86 <__swrite>
    80000a4e:	e43c                	sd	a5,72(s0)
    80000a50:	00000797          	auipc	a5,0x0
    80000a54:	58678793          	addi	a5,a5,1414 # 80000fd6 <__sseek>
    80000a58:	e83c                	sd	a5,80(s0)
    80000a5a:	00000797          	auipc	a5,0x0
    80000a5e:	5b478793          	addi	a5,a5,1460 # 8000100e <__sclose>
    80000a62:	60a2                	ld	ra,8(sp)
    80000a64:	fc00                	sd	s0,56(s0)
    80000a66:	ec3c                	sd	a5,88(s0)
    80000a68:	6402                	ld	s0,0(sp)
    80000a6a:	0141                	addi	sp,sp,16
    80000a6c:	8082                	ret

0000000080000a6e <stdio_exit_handler>:
    80000a6e:	00001617          	auipc	a2,0x1
    80000a72:	43260613          	addi	a2,a2,1074 # 80001ea0 <__sglue>
    80000a76:	00001597          	auipc	a1,0x1
    80000a7a:	ce458593          	addi	a1,a1,-796 # 8000175a <_fflush_r>
    80000a7e:	00001517          	auipc	a0,0x1
    80000a82:	39250513          	addi	a0,a0,914 # 80001e10 <_impure_data>
    80000a86:	a185                	j	80000ee6 <_fwalk_sglue>

0000000080000a88 <cleanup_stdio>:
    80000a88:	650c                	ld	a1,8(a0)
    80000a8a:	1141                	addi	sp,sp,-16
    80000a8c:	e022                	sd	s0,0(sp)
    80000a8e:	e406                	sd	ra,8(sp)
    80000a90:	00001797          	auipc	a5,0x1
    80000a94:	48078793          	addi	a5,a5,1152 # 80001f10 <__sf>
    80000a98:	842a                	mv	s0,a0
    80000a9a:	00f58463          	beq	a1,a5,80000aa2 <cleanup_stdio+0x1a>
    80000a9e:	4bd000ef          	jal	8000175a <_fflush_r>
    80000aa2:	680c                	ld	a1,16(s0)
    80000aa4:	00001797          	auipc	a5,0x1
    80000aa8:	51c78793          	addi	a5,a5,1308 # 80001fc0 <__sf+0xb0>
    80000aac:	00f58563          	beq	a1,a5,80000ab6 <cleanup_stdio+0x2e>
    80000ab0:	8522                	mv	a0,s0
    80000ab2:	4a9000ef          	jal	8000175a <_fflush_r>
    80000ab6:	6c0c                	ld	a1,24(s0)
    80000ab8:	9b818793          	addi	a5,gp,-1608 # 80002070 <__sf+0x160>
    80000abc:	00f58863          	beq	a1,a5,80000acc <cleanup_stdio+0x44>
    80000ac0:	8522                	mv	a0,s0
    80000ac2:	6402                	ld	s0,0(sp)
    80000ac4:	60a2                	ld	ra,8(sp)
    80000ac6:	0141                	addi	sp,sp,16
    80000ac8:	4930006f          	j	8000175a <_fflush_r>
    80000acc:	60a2                	ld	ra,8(sp)
    80000ace:	6402                	ld	s0,0(sp)
    80000ad0:	0141                	addi	sp,sp,16
    80000ad2:	8082                	ret

0000000080000ad4 <global_stdio_init.part.0>:
    80000ad4:	1141                	addi	sp,sp,-16
    80000ad6:	00000797          	auipc	a5,0x0
    80000ada:	f9878793          	addi	a5,a5,-104 # 80000a6e <stdio_exit_handler>
    80000ade:	4601                	li	a2,0
    80000ae0:	4591                	li	a1,4
    80000ae2:	00001517          	auipc	a0,0x1
    80000ae6:	42e50513          	addi	a0,a0,1070 # 80001f10 <__sf>
    80000aea:	e406                	sd	ra,8(sp)
    80000aec:	82f1b023          	sd	a5,-2016(gp) # 80001ed8 <__stdio_exit_handler>
    80000af0:	f19ff0ef          	jal	80000a08 <std>
    80000af4:	4605                	li	a2,1
    80000af6:	45a5                	li	a1,9
    80000af8:	00001517          	auipc	a0,0x1
    80000afc:	4c850513          	addi	a0,a0,1224 # 80001fc0 <__sf+0xb0>
    80000b00:	f09ff0ef          	jal	80000a08 <std>
    80000b04:	60a2                	ld	ra,8(sp)
    80000b06:	4609                	li	a2,2
    80000b08:	45c9                	li	a1,18
    80000b0a:	9b818513          	addi	a0,gp,-1608 # 80002070 <__sf+0x160>
    80000b0e:	0141                	addi	sp,sp,16
    80000b10:	bde5                	j	80000a08 <std>

0000000080000b12 <__fp_unlock>:
    80000b12:	4501                	li	a0,0
    80000b14:	8082                	ret

0000000080000b16 <__sfp>:
    80000b16:	1101                	addi	sp,sp,-32
    80000b18:	e04a                	sd	s2,0(sp)
    80000b1a:	ec06                	sd	ra,24(sp)
    80000b1c:	e822                	sd	s0,16(sp)
    80000b1e:	e426                	sd	s1,8(sp)
    80000b20:	8201b783          	ld	a5,-2016(gp) # 80001ed8 <__stdio_exit_handler>
    80000b24:	892a                	mv	s2,a0
    80000b26:	e399                	bnez	a5,80000b2c <__sfp+0x16>
    80000b28:	fadff0ef          	jal	80000ad4 <global_stdio_init.part.0>
    80000b2c:	00001497          	auipc	s1,0x1
    80000b30:	37448493          	addi	s1,s1,884 # 80001ea0 <__sglue>
    80000b34:	6880                	ld	s0,16(s1)
    80000b36:	449c                	lw	a5,8(s1)
    80000b38:	37fd                	addiw	a5,a5,-1
    80000b3a:	0207d163          	bgez	a5,80000b5c <__sfp+0x46>
    80000b3e:	609c                	ld	a5,0(s1)
    80000b40:	e7c1                	bnez	a5,80000bc8 <__sfp+0xb2>
    80000b42:	2d800593          	li	a1,728
    80000b46:	854a                	mv	a0,s2
    80000b48:	121000ef          	jal	80001468 <_malloc_r>
    80000b4c:	842a                	mv	s0,a0
    80000b4e:	e12d                	bnez	a0,80000bb0 <__sfp+0x9a>
    80000b50:	0004b023          	sd	zero,0(s1)
    80000b54:	47b1                	li	a5,12
    80000b56:	00f92023          	sw	a5,0(s2)
    80000b5a:	a089                	j	80000b9c <__sfp+0x86>
    80000b5c:	01041703          	lh	a4,16(s0)
    80000b60:	e729                	bnez	a4,80000baa <__sfp+0x94>
    80000b62:	77c1                	lui	a5,0xffff0
    80000b64:	0785                	addi	a5,a5,1 # ffffffffffff0001 <__heap_end+0xffffffff7ffcd001>
    80000b66:	0a042623          	sw	zero,172(s0)
    80000b6a:	00043023          	sd	zero,0(s0)
    80000b6e:	00043423          	sd	zero,8(s0)
    80000b72:	c81c                	sw	a5,16(s0)
    80000b74:	00043c23          	sd	zero,24(s0)
    80000b78:	02042023          	sw	zero,32(s0)
    80000b7c:	02042423          	sw	zero,40(s0)
    80000b80:	4621                	li	a2,8
    80000b82:	4581                	li	a1,0
    80000b84:	0a440513          	addi	a0,s0,164
    80000b88:	7c0000ef          	jal	80001348 <memset>
    80000b8c:	06043023          	sd	zero,96(s0)
    80000b90:	06042423          	sw	zero,104(s0)
    80000b94:	08043023          	sd	zero,128(s0)
    80000b98:	08042423          	sw	zero,136(s0)
    80000b9c:	60e2                	ld	ra,24(sp)
    80000b9e:	8522                	mv	a0,s0
    80000ba0:	6442                	ld	s0,16(sp)
    80000ba2:	64a2                	ld	s1,8(sp)
    80000ba4:	6902                	ld	s2,0(sp)
    80000ba6:	6105                	addi	sp,sp,32
    80000ba8:	8082                	ret
    80000baa:	0b040413          	addi	s0,s0,176
    80000bae:	b769                	j	80000b38 <__sfp+0x22>
    80000bb0:	4791                	li	a5,4
    80000bb2:	00053023          	sd	zero,0(a0)
    80000bb6:	c51c                	sw	a5,8(a0)
    80000bb8:	0561                	addi	a0,a0,24
    80000bba:	e808                	sd	a0,16(s0)
    80000bbc:	2c000613          	li	a2,704
    80000bc0:	4581                	li	a1,0
    80000bc2:	786000ef          	jal	80001348 <memset>
    80000bc6:	e080                	sd	s0,0(s1)
    80000bc8:	6084                	ld	s1,0(s1)
    80000bca:	b7ad                	j	80000b34 <__sfp+0x1e>

0000000080000bcc <__sinit>:
    80000bcc:	613c                	ld	a5,64(a0)
    80000bce:	eb91                	bnez	a5,80000be2 <__sinit+0x16>
    80000bd0:	00000797          	auipc	a5,0x0
    80000bd4:	eb878793          	addi	a5,a5,-328 # 80000a88 <cleanup_stdio>
    80000bd8:	e13c                	sd	a5,64(a0)
    80000bda:	8201b783          	ld	a5,-2016(gp) # 80001ed8 <__stdio_exit_handler>
    80000bde:	e391                	bnez	a5,80000be2 <__sinit+0x16>
    80000be0:	bdd5                	j	80000ad4 <global_stdio_init.part.0>
    80000be2:	8082                	ret

0000000080000be4 <__sfp_lock_acquire>:
    80000be4:	8082                	ret

0000000080000be6 <__sfp_lock_release>:
    80000be6:	8082                	ret

0000000080000be8 <__fp_lock_all>:
    80000be8:	00001617          	auipc	a2,0x1
    80000bec:	2b860613          	addi	a2,a2,696 # 80001ea0 <__sglue>
    80000bf0:	00000597          	auipc	a1,0x0
    80000bf4:	e1458593          	addi	a1,a1,-492 # 80000a04 <__fp_lock>
    80000bf8:	4501                	li	a0,0
    80000bfa:	a4f5                	j	80000ee6 <_fwalk_sglue>

0000000080000bfc <__fp_unlock_all>:
    80000bfc:	00001617          	auipc	a2,0x1
    80000c00:	2a460613          	addi	a2,a2,676 # 80001ea0 <__sglue>
    80000c04:	00000597          	auipc	a1,0x0
    80000c08:	f0e58593          	addi	a1,a1,-242 # 80000b12 <__fp_unlock>
    80000c0c:	4501                	li	a0,0
    80000c0e:	ace1                	j	80000ee6 <_fwalk_sglue>

0000000080000c10 <__sfvwrite_r>:
    80000c10:	6a1c                	ld	a5,16(a2)
    80000c12:	e399                	bnez	a5,80000c18 <__sfvwrite_r+0x8>
    80000c14:	4501                	li	a0,0
    80000c16:	8082                	ret
    80000c18:	0105d783          	lhu	a5,16(a1)
    80000c1c:	7159                	addi	sp,sp,-112
    80000c1e:	f0a2                	sd	s0,96(sp)
    80000c20:	e8ca                	sd	s2,80(sp)
    80000c22:	e0d2                	sd	s4,64(sp)
    80000c24:	f486                	sd	ra,104(sp)
    80000c26:	eca6                	sd	s1,88(sp)
    80000c28:	e4ce                	sd	s3,72(sp)
    80000c2a:	fc56                	sd	s5,56(sp)
    80000c2c:	f85a                	sd	s6,48(sp)
    80000c2e:	f45e                	sd	s7,40(sp)
    80000c30:	f062                	sd	s8,32(sp)
    80000c32:	ec66                	sd	s9,24(sp)
    80000c34:	e86a                	sd	s10,16(sp)
    80000c36:	e46e                	sd	s11,8(sp)
    80000c38:	8ba1                	andi	a5,a5,8
    80000c3a:	892a                	mv	s2,a0
    80000c3c:	842e                	mv	s0,a1
    80000c3e:	8a32                	mv	s4,a2
    80000c40:	cfc1                	beqz	a5,80000cd8 <__sfvwrite_r+0xc8>
    80000c42:	6d9c                	ld	a5,24(a1)
    80000c44:	cbd1                	beqz	a5,80000cd8 <__sfvwrite_r+0xc8>
    80000c46:	01041783          	lh	a5,16(s0)
    80000c4a:	000a3983          	ld	s3,0(s4)
    80000c4e:	0027f713          	andi	a4,a5,2
    80000c52:	e765                	bnez	a4,80000d3a <__sfvwrite_r+0x12a>
    80000c54:	8b85                	andi	a5,a5,1
    80000c56:	4a81                	li	s5,0
    80000c58:	16078063          	beqz	a5,80000db8 <__sfvwrite_r+0x1a8>
    80000c5c:	4501                	li	a0,0
    80000c5e:	4b81                	li	s7,0
    80000c60:	4b01                	li	s6,0
    80000c62:	240b0063          	beqz	s6,80000ea2 <__sfvwrite_r+0x292>
    80000c66:	e919                	bnez	a0,80000c7c <__sfvwrite_r+0x6c>
    80000c68:	865a                	mv	a2,s6
    80000c6a:	45a9                	li	a1,10
    80000c6c:	855e                	mv	a0,s7
    80000c6e:	51e000ef          	jal	8000118c <memchr>
    80000c72:	22050f63          	beqz	a0,80000eb0 <__sfvwrite_r+0x2a0>
    80000c76:	0505                	addi	a0,a0,1
    80000c78:	41750abb          	subw	s5,a0,s7
    80000c7c:	8c56                	mv	s8,s5
    80000c7e:	015b7363          	bgeu	s6,s5,80000c84 <__sfvwrite_r+0x74>
    80000c82:	8c5a                	mv	s8,s6
    80000c84:	6008                	ld	a0,0(s0)
    80000c86:	6c1c                	ld	a5,24(s0)
    80000c88:	4444                	lw	s1,12(s0)
    80000c8a:	5014                	lw	a3,32(s0)
    80000c8c:	22a7f563          	bgeu	a5,a0,80000eb6 <__sfvwrite_r+0x2a6>
    80000c90:	9cb5                	addw	s1,s1,a3
    80000c92:	2384d263          	bge	s1,s8,80000eb6 <__sfvwrite_r+0x2a6>
    80000c96:	85de                	mv	a1,s7
    80000c98:	8626                	mv	a2,s1
    80000c9a:	688000ef          	jal	80001322 <memmove>
    80000c9e:	601c                	ld	a5,0(s0)
    80000ca0:	85a2                	mv	a1,s0
    80000ca2:	854a                	mv	a0,s2
    80000ca4:	97a6                	add	a5,a5,s1
    80000ca6:	e01c                	sd	a5,0(s0)
    80000ca8:	2b3000ef          	jal	8000175a <_fflush_r>
    80000cac:	0e051f63          	bnez	a0,80000daa <__sfvwrite_r+0x19a>
    80000cb0:	409a8abb          	subw	s5,s5,s1
    80000cb4:	4505                	li	a0,1
    80000cb6:	000a9763          	bnez	s5,80000cc4 <__sfvwrite_r+0xb4>
    80000cba:	85a2                	mv	a1,s0
    80000cbc:	854a                	mv	a0,s2
    80000cbe:	29d000ef          	jal	8000175a <_fflush_r>
    80000cc2:	e565                	bnez	a0,80000daa <__sfvwrite_r+0x19a>
    80000cc4:	010a3783          	ld	a5,16(s4)
    80000cc8:	9ba6                	add	s7,s7,s1
    80000cca:	409b0b33          	sub	s6,s6,s1
    80000cce:	8f85                	sub	a5,a5,s1
    80000cd0:	00fa3823          	sd	a5,16(s4)
    80000cd4:	f7d9                	bnez	a5,80000c62 <__sfvwrite_r+0x52>
    80000cd6:	a091                	j	80000d1a <__sfvwrite_r+0x10a>
    80000cd8:	85a2                	mv	a1,s0
    80000cda:	854a                	mv	a0,s2
    80000cdc:	3e2000ef          	jal	800010be <__swsetup_r>
    80000ce0:	d13d                	beqz	a0,80000c46 <__sfvwrite_r+0x36>
    80000ce2:	557d                	li	a0,-1
    80000ce4:	a825                	j	80000d1c <__sfvwrite_r+0x10c>
    80000ce6:	0009ba83          	ld	s5,0(s3)
    80000cea:	0089b483          	ld	s1,8(s3)
    80000cee:	09c1                	addi	s3,s3,16
    80000cf0:	643c                	ld	a5,72(s0)
    80000cf2:	7c0c                	ld	a1,56(s0)
    80000cf4:	d8ed                	beqz	s1,80000ce6 <__sfvwrite_r+0xd6>
    80000cf6:	86a6                	mv	a3,s1
    80000cf8:	009b7363          	bgeu	s6,s1,80000cfe <__sfvwrite_r+0xee>
    80000cfc:	86da                	mv	a3,s6
    80000cfe:	2681                	sext.w	a3,a3
    80000d00:	8656                	mv	a2,s5
    80000d02:	854a                	mv	a0,s2
    80000d04:	9782                	jalr	a5
    80000d06:	0aa05263          	blez	a0,80000daa <__sfvwrite_r+0x19a>
    80000d0a:	010a3783          	ld	a5,16(s4)
    80000d0e:	9aaa                	add	s5,s5,a0
    80000d10:	8c89                	sub	s1,s1,a0
    80000d12:	8f89                	sub	a5,a5,a0
    80000d14:	00fa3823          	sd	a5,16(s4)
    80000d18:	ffe1                	bnez	a5,80000cf0 <__sfvwrite_r+0xe0>
    80000d1a:	4501                	li	a0,0
    80000d1c:	70a6                	ld	ra,104(sp)
    80000d1e:	7406                	ld	s0,96(sp)
    80000d20:	64e6                	ld	s1,88(sp)
    80000d22:	6946                	ld	s2,80(sp)
    80000d24:	69a6                	ld	s3,72(sp)
    80000d26:	6a06                	ld	s4,64(sp)
    80000d28:	7ae2                	ld	s5,56(sp)
    80000d2a:	7b42                	ld	s6,48(sp)
    80000d2c:	7ba2                	ld	s7,40(sp)
    80000d2e:	7c02                	ld	s8,32(sp)
    80000d30:	6ce2                	ld	s9,24(sp)
    80000d32:	6d42                	ld	s10,16(sp)
    80000d34:	6da2                	ld	s11,8(sp)
    80000d36:	6165                	addi	sp,sp,112
    80000d38:	8082                	ret
    80000d3a:	80000b37          	lui	s6,0x80000
    80000d3e:	4a81                	li	s5,0
    80000d40:	4481                	li	s1,0
    80000d42:	c00b4b13          	xori	s6,s6,-1024
    80000d46:	b76d                	j	80000cf0 <__sfvwrite_r+0xe0>
    80000d48:	0009ba83          	ld	s5,0(s3)
    80000d4c:	0089bc83          	ld	s9,8(s3)
    80000d50:	09c1                	addi	s3,s3,16
    80000d52:	4444                	lw	s1,12(s0)
    80000d54:	01041783          	lh	a5,16(s0)
    80000d58:	6008                	ld	a0,0(s0)
    80000d5a:	8d26                	mv	s10,s1
    80000d5c:	fe0c86e3          	beqz	s9,80000d48 <__sfvwrite_r+0x138>
    80000d60:	2007f713          	andi	a4,a5,512
    80000d64:	c37d                	beqz	a4,80000e4a <__sfvwrite_r+0x23a>
    80000d66:	089ce763          	bltu	s9,s1,80000df4 <__sfvwrite_r+0x1e4>
    80000d6a:	4807f713          	andi	a4,a5,1152
    80000d6e:	c359                	beqz	a4,80000df4 <__sfvwrite_r+0x1e4>
    80000d70:	5004                	lw	s1,32(s0)
    80000d72:	6c0c                	ld	a1,24(s0)
    80000d74:	029b84bb          	mulw	s1,s7,s1
    80000d78:	8d0d                	sub	a0,a0,a1
    80000d7a:	00050d9b          	sext.w	s11,a0
    80000d7e:	001d8713          	addi	a4,s11,1
    80000d82:	9766                	add	a4,a4,s9
    80000d84:	0384c4bb          	divw	s1,s1,s8
    80000d88:	00e4f563          	bgeu	s1,a4,80000d92 <__sfvwrite_r+0x182>
    80000d8c:	2505                	addiw	a0,a0,1
    80000d8e:	019504bb          	addw	s1,a0,s9
    80000d92:	4007f793          	andi	a5,a5,1024
    80000d96:	cbc9                	beqz	a5,80000e28 <__sfvwrite_r+0x218>
    80000d98:	85a6                	mv	a1,s1
    80000d9a:	854a                	mv	a0,s2
    80000d9c:	6cc000ef          	jal	80001468 <_malloc_r>
    80000da0:	8d2a                	mv	s10,a0
    80000da2:	e11d                	bnez	a0,80000dc8 <__sfvwrite_r+0x1b8>
    80000da4:	47b1                	li	a5,12
    80000da6:	00f92023          	sw	a5,0(s2)
    80000daa:	01045783          	lhu	a5,16(s0)
    80000dae:	0407e793          	ori	a5,a5,64
    80000db2:	00f41823          	sh	a5,16(s0)
    80000db6:	b735                	j	80000ce2 <__sfvwrite_r+0xd2>
    80000db8:	80000b37          	lui	s6,0x80000
    80000dbc:	4c81                	li	s9,0
    80000dbe:	fffb4b13          	not	s6,s6
    80000dc2:	4b8d                	li	s7,3
    80000dc4:	4c09                	li	s8,2
    80000dc6:	b771                	j	80000d52 <__sfvwrite_r+0x142>
    80000dc8:	6c0c                	ld	a1,24(s0)
    80000dca:	866e                	mv	a2,s11
    80000dcc:	58c000ef          	jal	80001358 <memcpy>
    80000dd0:	01045783          	lhu	a5,16(s0)
    80000dd4:	b7f7f793          	andi	a5,a5,-1153
    80000dd8:	0807e793          	ori	a5,a5,128
    80000ddc:	00f41823          	sh	a5,16(s0)
    80000de0:	01a43c23          	sd	s10,24(s0)
    80000de4:	d004                	sw	s1,32(s0)
    80000de6:	9d6e                	add	s10,s10,s11
    80000de8:	41b484bb          	subw	s1,s1,s11
    80000dec:	01a43023          	sd	s10,0(s0)
    80000df0:	c444                	sw	s1,12(s0)
    80000df2:	8d66                	mv	s10,s9
    80000df4:	84e6                	mv	s1,s9
    80000df6:	01acf363          	bgeu	s9,s10,80000dfc <__sfvwrite_r+0x1ec>
    80000dfa:	8d66                	mv	s10,s9
    80000dfc:	6008                	ld	a0,0(s0)
    80000dfe:	866a                	mv	a2,s10
    80000e00:	85d6                	mv	a1,s5
    80000e02:	520000ef          	jal	80001322 <memmove>
    80000e06:	445c                	lw	a5,12(s0)
    80000e08:	41a787bb          	subw	a5,a5,s10
    80000e0c:	c45c                	sw	a5,12(s0)
    80000e0e:	601c                	ld	a5,0(s0)
    80000e10:	97ea                	add	a5,a5,s10
    80000e12:	e01c                	sd	a5,0(s0)
    80000e14:	010a3783          	ld	a5,16(s4)
    80000e18:	9aa6                	add	s5,s5,s1
    80000e1a:	409c8cb3          	sub	s9,s9,s1
    80000e1e:	8f85                	sub	a5,a5,s1
    80000e20:	00fa3823          	sd	a5,16(s4)
    80000e24:	f79d                	bnez	a5,80000d52 <__sfvwrite_r+0x142>
    80000e26:	bdd5                	j	80000d1a <__sfvwrite_r+0x10a>
    80000e28:	8626                	mv	a2,s1
    80000e2a:	854a                	mv	a0,s2
    80000e2c:	770000ef          	jal	8000159c <_realloc_r>
    80000e30:	8d2a                	mv	s10,a0
    80000e32:	f55d                	bnez	a0,80000de0 <__sfvwrite_r+0x1d0>
    80000e34:	6c0c                	ld	a1,24(s0)
    80000e36:	854a                	mv	a0,s2
    80000e38:	536000ef          	jal	8000136e <_free_r>
    80000e3c:	01045783          	lhu	a5,16(s0)
    80000e40:	f7f7f793          	andi	a5,a5,-129
    80000e44:	00f41823          	sh	a5,16(s0)
    80000e48:	bfb1                	j	80000da4 <__sfvwrite_r+0x194>
    80000e4a:	6c1c                	ld	a5,24(s0)
    80000e4c:	00a7e563          	bltu	a5,a0,80000e56 <__sfvwrite_r+0x246>
    80000e50:	5014                	lw	a3,32(s0)
    80000e52:	02dcf763          	bgeu	s9,a3,80000e80 <__sfvwrite_r+0x270>
    80000e56:	009cf363          	bgeu	s9,s1,80000e5c <__sfvwrite_r+0x24c>
    80000e5a:	84e6                	mv	s1,s9
    80000e5c:	8626                	mv	a2,s1
    80000e5e:	85d6                	mv	a1,s5
    80000e60:	4c2000ef          	jal	80001322 <memmove>
    80000e64:	445c                	lw	a5,12(s0)
    80000e66:	4097873b          	subw	a4,a5,s1
    80000e6a:	601c                	ld	a5,0(s0)
    80000e6c:	c458                	sw	a4,12(s0)
    80000e6e:	97a6                	add	a5,a5,s1
    80000e70:	e01c                	sd	a5,0(s0)
    80000e72:	f34d                	bnez	a4,80000e14 <__sfvwrite_r+0x204>
    80000e74:	85a2                	mv	a1,s0
    80000e76:	854a                	mv	a0,s2
    80000e78:	0e3000ef          	jal	8000175a <_fflush_r>
    80000e7c:	dd41                	beqz	a0,80000e14 <__sfvwrite_r+0x204>
    80000e7e:	b735                	j	80000daa <__sfvwrite_r+0x19a>
    80000e80:	87e6                	mv	a5,s9
    80000e82:	019b7363          	bgeu	s6,s9,80000e88 <__sfvwrite_r+0x278>
    80000e86:	87da                	mv	a5,s6
    80000e88:	02d7c7bb          	divw	a5,a5,a3
    80000e8c:	6438                	ld	a4,72(s0)
    80000e8e:	7c0c                	ld	a1,56(s0)
    80000e90:	8656                	mv	a2,s5
    80000e92:	854a                	mv	a0,s2
    80000e94:	02d786bb          	mulw	a3,a5,a3
    80000e98:	9702                	jalr	a4
    80000e9a:	84aa                	mv	s1,a0
    80000e9c:	f6a04ce3          	bgtz	a0,80000e14 <__sfvwrite_r+0x204>
    80000ea0:	b729                	j	80000daa <__sfvwrite_r+0x19a>
    80000ea2:	0009bb83          	ld	s7,0(s3)
    80000ea6:	0089bb03          	ld	s6,8(s3)
    80000eaa:	4501                	li	a0,0
    80000eac:	09c1                	addi	s3,s3,16
    80000eae:	bb55                	j	80000c62 <__sfvwrite_r+0x52>
    80000eb0:	001b0a9b          	addiw	s5,s6,1 # ffffffff80000001 <__heap_end+0xfffffffefffdd001>
    80000eb4:	b3e1                	j	80000c7c <__sfvwrite_r+0x6c>
    80000eb6:	00dc4b63          	blt	s8,a3,80000ecc <__sfvwrite_r+0x2bc>
    80000eba:	643c                	ld	a5,72(s0)
    80000ebc:	7c0c                	ld	a1,56(s0)
    80000ebe:	865e                	mv	a2,s7
    80000ec0:	854a                	mv	a0,s2
    80000ec2:	9782                	jalr	a5
    80000ec4:	84aa                	mv	s1,a0
    80000ec6:	dea045e3          	bgtz	a0,80000cb0 <__sfvwrite_r+0xa0>
    80000eca:	b5c5                	j	80000daa <__sfvwrite_r+0x19a>
    80000ecc:	8662                	mv	a2,s8
    80000ece:	85de                	mv	a1,s7
    80000ed0:	452000ef          	jal	80001322 <memmove>
    80000ed4:	445c                	lw	a5,12(s0)
    80000ed6:	84e2                	mv	s1,s8
    80000ed8:	418787bb          	subw	a5,a5,s8
    80000edc:	c45c                	sw	a5,12(s0)
    80000ede:	601c                	ld	a5,0(s0)
    80000ee0:	97e2                	add	a5,a5,s8
    80000ee2:	e01c                	sd	a5,0(s0)
    80000ee4:	b3f1                	j	80000cb0 <__sfvwrite_r+0xa0>

0000000080000ee6 <_fwalk_sglue>:
    80000ee6:	715d                	addi	sp,sp,-80
    80000ee8:	e0a2                	sd	s0,64(sp)
    80000eea:	fc26                	sd	s1,56(sp)
    80000eec:	f44e                	sd	s3,40(sp)
    80000eee:	f052                	sd	s4,32(sp)
    80000ef0:	e85a                	sd	s6,16(sp)
    80000ef2:	e45e                	sd	s7,8(sp)
    80000ef4:	e486                	sd	ra,72(sp)
    80000ef6:	f84a                	sd	s2,48(sp)
    80000ef8:	ec56                	sd	s5,24(sp)
    80000efa:	89aa                	mv	s3,a0
    80000efc:	8a2e                	mv	s4,a1
    80000efe:	8432                	mv	s0,a2
    80000f00:	4481                	li	s1,0
    80000f02:	4b05                	li	s6,1
    80000f04:	5bfd                	li	s7,-1
    80000f06:	01043903          	ld	s2,16(s0)
    80000f0a:	00842a83          	lw	s5,8(s0)
    80000f0e:	3afd                	addiw	s5,s5,-1
    80000f10:	020ad063          	bgez	s5,80000f30 <_fwalk_sglue+0x4a>
    80000f14:	6000                	ld	s0,0(s0)
    80000f16:	f865                	bnez	s0,80000f06 <_fwalk_sglue+0x20>
    80000f18:	60a6                	ld	ra,72(sp)
    80000f1a:	6406                	ld	s0,64(sp)
    80000f1c:	7942                	ld	s2,48(sp)
    80000f1e:	79a2                	ld	s3,40(sp)
    80000f20:	7a02                	ld	s4,32(sp)
    80000f22:	6ae2                	ld	s5,24(sp)
    80000f24:	6b42                	ld	s6,16(sp)
    80000f26:	6ba2                	ld	s7,8(sp)
    80000f28:	8526                	mv	a0,s1
    80000f2a:	74e2                	ld	s1,56(sp)
    80000f2c:	6161                	addi	sp,sp,80
    80000f2e:	8082                	ret
    80000f30:	01095783          	lhu	a5,16(s2)
    80000f34:	00fb7b63          	bgeu	s6,a5,80000f4a <_fwalk_sglue+0x64>
    80000f38:	01291783          	lh	a5,18(s2)
    80000f3c:	01778763          	beq	a5,s7,80000f4a <_fwalk_sglue+0x64>
    80000f40:	85ca                	mv	a1,s2
    80000f42:	854e                	mv	a0,s3
    80000f44:	9a02                	jalr	s4
    80000f46:	8cc9                	or	s1,s1,a0
    80000f48:	2481                	sext.w	s1,s1
    80000f4a:	0b090913          	addi	s2,s2,176
    80000f4e:	b7c1                	j	80000f0e <_fwalk_sglue+0x28>

0000000080000f50 <__sread>:
    80000f50:	1141                	addi	sp,sp,-16
    80000f52:	e022                	sd	s0,0(sp)
    80000f54:	842e                	mv	s0,a1
    80000f56:	01259583          	lh	a1,18(a1)
    80000f5a:	e406                	sd	ra,8(sp)
    80000f5c:	36e000ef          	jal	800012ca <_read_r>
    80000f60:	00054963          	bltz	a0,80000f72 <__sread+0x22>
    80000f64:	6c5c                	ld	a5,152(s0)
    80000f66:	97aa                	add	a5,a5,a0
    80000f68:	ec5c                	sd	a5,152(s0)
    80000f6a:	60a2                	ld	ra,8(sp)
    80000f6c:	6402                	ld	s0,0(sp)
    80000f6e:	0141                	addi	sp,sp,16
    80000f70:	8082                	ret
    80000f72:	01045783          	lhu	a5,16(s0)
    80000f76:	777d                	lui	a4,0xfffff
    80000f78:	177d                	addi	a4,a4,-1 # ffffffffffffefff <__heap_end+0xffffffff7ffdbfff>
    80000f7a:	8ff9                	and	a5,a5,a4
    80000f7c:	00f41823          	sh	a5,16(s0)
    80000f80:	b7ed                	j	80000f6a <__sread+0x1a>

0000000080000f82 <__seofread>:
    80000f82:	4501                	li	a0,0
    80000f84:	8082                	ret

0000000080000f86 <__swrite>:
    80000f86:	0105d783          	lhu	a5,16(a1)
    80000f8a:	7179                	addi	sp,sp,-48
    80000f8c:	f022                	sd	s0,32(sp)
    80000f8e:	ec26                	sd	s1,24(sp)
    80000f90:	e84a                	sd	s2,16(sp)
    80000f92:	e44e                	sd	s3,8(sp)
    80000f94:	f406                	sd	ra,40(sp)
    80000f96:	1007f793          	andi	a5,a5,256
    80000f9a:	84aa                	mv	s1,a0
    80000f9c:	842e                	mv	s0,a1
    80000f9e:	8932                	mv	s2,a2
    80000fa0:	89b6                	mv	s3,a3
    80000fa2:	c799                	beqz	a5,80000fb0 <__swrite+0x2a>
    80000fa4:	01259583          	lh	a1,18(a1)
    80000fa8:	4689                	li	a3,2
    80000faa:	4601                	li	a2,0
    80000fac:	2f2000ef          	jal	8000129e <_lseek_r>
    80000fb0:	01045783          	lhu	a5,16(s0)
    80000fb4:	777d                	lui	a4,0xfffff
    80000fb6:	177d                	addi	a4,a4,-1 # ffffffffffffefff <__heap_end+0xffffffff7ffdbfff>
    80000fb8:	8ff9                	and	a5,a5,a4
    80000fba:	01241583          	lh	a1,18(s0)
    80000fbe:	00f41823          	sh	a5,16(s0)
    80000fc2:	7402                	ld	s0,32(sp)
    80000fc4:	70a2                	ld	ra,40(sp)
    80000fc6:	86ce                	mv	a3,s3
    80000fc8:	864a                	mv	a2,s2
    80000fca:	69a2                	ld	s3,8(sp)
    80000fcc:	6942                	ld	s2,16(sp)
    80000fce:	8526                	mv	a0,s1
    80000fd0:	64e2                	ld	s1,24(sp)
    80000fd2:	6145                	addi	sp,sp,48
    80000fd4:	a60d                	j	800012f6 <_write_r>

0000000080000fd6 <__sseek>:
    80000fd6:	1141                	addi	sp,sp,-16
    80000fd8:	e022                	sd	s0,0(sp)
    80000fda:	842e                	mv	s0,a1
    80000fdc:	01259583          	lh	a1,18(a1)
    80000fe0:	e406                	sd	ra,8(sp)
    80000fe2:	2bc000ef          	jal	8000129e <_lseek_r>
    80000fe6:	577d                	li	a4,-1
    80000fe8:	01045783          	lhu	a5,16(s0)
    80000fec:	00e51b63          	bne	a0,a4,80001002 <__sseek+0x2c>
    80000ff0:	777d                	lui	a4,0xfffff
    80000ff2:	177d                	addi	a4,a4,-1 # ffffffffffffefff <__heap_end+0xffffffff7ffdbfff>
    80000ff4:	8ff9                	and	a5,a5,a4
    80000ff6:	00f41823          	sh	a5,16(s0)
    80000ffa:	60a2                	ld	ra,8(sp)
    80000ffc:	6402                	ld	s0,0(sp)
    80000ffe:	0141                	addi	sp,sp,16
    80001000:	8082                	ret
    80001002:	6705                	lui	a4,0x1
    80001004:	8fd9                	or	a5,a5,a4
    80001006:	00f41823          	sh	a5,16(s0)
    8000100a:	ec48                	sd	a0,152(s0)
    8000100c:	b7fd                	j	80000ffa <__sseek+0x24>

000000008000100e <__sclose>:
    8000100e:	01259583          	lh	a1,18(a1)
    80001012:	aa51                	j	800011a6 <_close_r>

0000000080001014 <__swbuf_r>:
    80001014:	7179                	addi	sp,sp,-48
    80001016:	f022                	sd	s0,32(sp)
    80001018:	ec26                	sd	s1,24(sp)
    8000101a:	e84a                	sd	s2,16(sp)
    8000101c:	f406                	sd	ra,40(sp)
    8000101e:	e44e                	sd	s3,8(sp)
    80001020:	892a                	mv	s2,a0
    80001022:	84ae                	mv	s1,a1
    80001024:	8432                	mv	s0,a2
    80001026:	c509                	beqz	a0,80001030 <__swbuf_r+0x1c>
    80001028:	613c                	ld	a5,64(a0)
    8000102a:	e399                	bnez	a5,80001030 <__swbuf_r+0x1c>
    8000102c:	ba1ff0ef          	jal	80000bcc <__sinit>
    80001030:	541c                	lw	a5,40(s0)
    80001032:	c45c                	sw	a5,12(s0)
    80001034:	01045783          	lhu	a5,16(s0)
    80001038:	8ba1                	andi	a5,a5,8
    8000103a:	c399                	beqz	a5,80001040 <__swbuf_r+0x2c>
    8000103c:	6c1c                	ld	a5,24(s0)
    8000103e:	ef99                	bnez	a5,8000105c <__swbuf_r+0x48>
    80001040:	85a2                	mv	a1,s0
    80001042:	854a                	mv	a0,s2
    80001044:	07a000ef          	jal	800010be <__swsetup_r>
    80001048:	c911                	beqz	a0,8000105c <__swbuf_r+0x48>
    8000104a:	54fd                	li	s1,-1
    8000104c:	70a2                	ld	ra,40(sp)
    8000104e:	7402                	ld	s0,32(sp)
    80001050:	6942                	ld	s2,16(sp)
    80001052:	69a2                	ld	s3,8(sp)
    80001054:	8526                	mv	a0,s1
    80001056:	64e2                	ld	s1,24(sp)
    80001058:	6145                	addi	sp,sp,48
    8000105a:	8082                	ret
    8000105c:	601c                	ld	a5,0(s0)
    8000105e:	6c18                	ld	a4,24(s0)
    80001060:	0ff4f993          	zext.b	s3,s1
    80001064:	84ce                	mv	s1,s3
    80001066:	40e7853b          	subw	a0,a5,a4
    8000106a:	501c                	lw	a5,32(s0)
    8000106c:	00f54763          	blt	a0,a5,8000107a <__swbuf_r+0x66>
    80001070:	85a2                	mv	a1,s0
    80001072:	854a                	mv	a0,s2
    80001074:	6e6000ef          	jal	8000175a <_fflush_r>
    80001078:	f969                	bnez	a0,8000104a <__swbuf_r+0x36>
    8000107a:	445c                	lw	a5,12(s0)
    8000107c:	37fd                	addiw	a5,a5,-1
    8000107e:	c45c                	sw	a5,12(s0)
    80001080:	601c                	ld	a5,0(s0)
    80001082:	00178713          	addi	a4,a5,1
    80001086:	e018                	sd	a4,0(s0)
    80001088:	01378023          	sb	s3,0(a5)
    8000108c:	5018                	lw	a4,32(s0)
    8000108e:	0015079b          	addiw	a5,a0,1
    80001092:	00f70963          	beq	a4,a5,800010a4 <__swbuf_r+0x90>
    80001096:	01045783          	lhu	a5,16(s0)
    8000109a:	8b85                	andi	a5,a5,1
    8000109c:	dbc5                	beqz	a5,8000104c <__swbuf_r+0x38>
    8000109e:	47a9                	li	a5,10
    800010a0:	faf496e3          	bne	s1,a5,8000104c <__swbuf_r+0x38>
    800010a4:	85a2                	mv	a1,s0
    800010a6:	854a                	mv	a0,s2
    800010a8:	6b2000ef          	jal	8000175a <_fflush_r>
    800010ac:	d145                	beqz	a0,8000104c <__swbuf_r+0x38>
    800010ae:	bf71                	j	8000104a <__swbuf_r+0x36>

00000000800010b0 <__swbuf>:
    800010b0:	862e                	mv	a2,a1
    800010b2:	85aa                	mv	a1,a0
    800010b4:	00001517          	auipc	a0,0x1
    800010b8:	e0453503          	ld	a0,-508(a0) # 80001eb8 <_impure_ptr>
    800010bc:	bfa1                	j	80001014 <__swbuf_r>

00000000800010be <__swsetup_r>:
    800010be:	1101                	addi	sp,sp,-32
    800010c0:	e822                	sd	s0,16(sp)
    800010c2:	e426                	sd	s1,8(sp)
    800010c4:	ec06                	sd	ra,24(sp)
    800010c6:	84aa                	mv	s1,a0
    800010c8:	00001517          	auipc	a0,0x1
    800010cc:	df053503          	ld	a0,-528(a0) # 80001eb8 <_impure_ptr>
    800010d0:	842e                	mv	s0,a1
    800010d2:	c509                	beqz	a0,800010dc <__swsetup_r+0x1e>
    800010d4:	613c                	ld	a5,64(a0)
    800010d6:	e399                	bnez	a5,800010dc <__swsetup_r+0x1e>
    800010d8:	af5ff0ef          	jal	80000bcc <__sinit>
    800010dc:	01041783          	lh	a5,16(s0)
    800010e0:	0087f713          	andi	a4,a5,8
    800010e4:	eb29                	bnez	a4,80001136 <__swsetup_r+0x78>
    800010e6:	0107f713          	andi	a4,a5,16
    800010ea:	eb09                	bnez	a4,800010fc <__swsetup_r+0x3e>
    800010ec:	4725                	li	a4,9
    800010ee:	c098                	sw	a4,0(s1)
    800010f0:	0407e793          	ori	a5,a5,64
    800010f4:	00f41823          	sh	a5,16(s0)
    800010f8:	557d                	li	a0,-1
    800010fa:	a8ad                	j	80001174 <__swsetup_r+0xb6>
    800010fc:	8b91                	andi	a5,a5,4
    800010fe:	c795                	beqz	a5,8000112a <__swsetup_r+0x6c>
    80001100:	702c                	ld	a1,96(s0)
    80001102:	c991                	beqz	a1,80001116 <__swsetup_r+0x58>
    80001104:	07c40793          	addi	a5,s0,124
    80001108:	00f58563          	beq	a1,a5,80001112 <__swsetup_r+0x54>
    8000110c:	8526                	mv	a0,s1
    8000110e:	260000ef          	jal	8000136e <_free_r>
    80001112:	06043023          	sd	zero,96(s0)
    80001116:	01045783          	lhu	a5,16(s0)
    8000111a:	00042423          	sw	zero,8(s0)
    8000111e:	fdb7f793          	andi	a5,a5,-37
    80001122:	00f41823          	sh	a5,16(s0)
    80001126:	6c1c                	ld	a5,24(s0)
    80001128:	e01c                	sd	a5,0(s0)
    8000112a:	01045783          	lhu	a5,16(s0)
    8000112e:	0087e793          	ori	a5,a5,8
    80001132:	00f41823          	sh	a5,16(s0)
    80001136:	6c1c                	ld	a5,24(s0)
    80001138:	ef89                	bnez	a5,80001152 <__swsetup_r+0x94>
    8000113a:	01045783          	lhu	a5,16(s0)
    8000113e:	20000713          	li	a4,512
    80001142:	2807f793          	andi	a5,a5,640
    80001146:	00e78663          	beq	a5,a4,80001152 <__swsetup_r+0x94>
    8000114a:	85a2                	mv	a1,s0
    8000114c:	8526                	mv	a0,s1
    8000114e:	6ca000ef          	jal	80001818 <__smakebuf_r>
    80001152:	01041783          	lh	a5,16(s0)
    80001156:	0017f713          	andi	a4,a5,1
    8000115a:	c315                	beqz	a4,8000117e <__swsetup_r+0xc0>
    8000115c:	5018                	lw	a4,32(s0)
    8000115e:	00042623          	sw	zero,12(s0)
    80001162:	40e0073b          	negw	a4,a4
    80001166:	d418                	sw	a4,40(s0)
    80001168:	6c18                	ld	a4,24(s0)
    8000116a:	4501                	li	a0,0
    8000116c:	e701                	bnez	a4,80001174 <__swsetup_r+0xb6>
    8000116e:	0807f713          	andi	a4,a5,128
    80001172:	ff3d                	bnez	a4,800010f0 <__swsetup_r+0x32>
    80001174:	60e2                	ld	ra,24(sp)
    80001176:	6442                	ld	s0,16(sp)
    80001178:	64a2                	ld	s1,8(sp)
    8000117a:	6105                	addi	sp,sp,32
    8000117c:	8082                	ret
    8000117e:	0027f713          	andi	a4,a5,2
    80001182:	4681                	li	a3,0
    80001184:	e311                	bnez	a4,80001188 <__swsetup_r+0xca>
    80001186:	5014                	lw	a3,32(s0)
    80001188:	c454                	sw	a3,12(s0)
    8000118a:	bff9                	j	80001168 <__swsetup_r+0xaa>

000000008000118c <memchr>:
    8000118c:	0ff5f593          	zext.b	a1,a1
    80001190:	962a                	add	a2,a2,a0
    80001192:	00c51463          	bne	a0,a2,8000119a <memchr+0xe>
    80001196:	4501                	li	a0,0
    80001198:	8082                	ret
    8000119a:	00054783          	lbu	a5,0(a0)
    8000119e:	feb78de3          	beq	a5,a1,80001198 <memchr+0xc>
    800011a2:	0505                	addi	a0,a0,1
    800011a4:	b7fd                	j	80001192 <memchr+0x6>

00000000800011a6 <_close_r>:
    800011a6:	1141                	addi	sp,sp,-16
    800011a8:	e022                	sd	s0,0(sp)
    800011aa:	842a                	mv	s0,a0
    800011ac:	852e                	mv	a0,a1
    800011ae:	8201a423          	sw	zero,-2008(gp) # 80001ee0 <errno>
    800011b2:	e406                	sd	ra,8(sp)
    800011b4:	794000ef          	jal	80001948 <_close>
    800011b8:	57fd                	li	a5,-1
    800011ba:	00f51663          	bne	a0,a5,800011c6 <_close_r+0x20>
    800011be:	8281a783          	lw	a5,-2008(gp) # 80001ee0 <errno>
    800011c2:	c391                	beqz	a5,800011c6 <_close_r+0x20>
    800011c4:	c01c                	sw	a5,0(s0)
    800011c6:	60a2                	ld	ra,8(sp)
    800011c8:	6402                	ld	s0,0(sp)
    800011ca:	0141                	addi	sp,sp,16
    800011cc:	8082                	ret

00000000800011ce <_reclaim_reent>:
    800011ce:	00001797          	auipc	a5,0x1
    800011d2:	cea7b783          	ld	a5,-790(a5) # 80001eb8 <_impure_ptr>
    800011d6:	0ca78363          	beq	a5,a0,8000129c <_reclaim_reent+0xce>
    800011da:	7d1c                	ld	a5,56(a0)
    800011dc:	7179                	addi	sp,sp,-48
    800011de:	f022                	sd	s0,32(sp)
    800011e0:	f406                	sd	ra,40(sp)
    800011e2:	ec26                	sd	s1,24(sp)
    800011e4:	e84a                	sd	s2,16(sp)
    800011e6:	e44e                	sd	s3,8(sp)
    800011e8:	842a                	mv	s0,a0
    800011ea:	cb8d                	beqz	a5,8000121c <_reclaim_reent+0x4e>
    800011ec:	6f9c                	ld	a5,24(a5)
    800011ee:	c38d                	beqz	a5,80001210 <_reclaim_reent+0x42>
    800011f0:	4481                	li	s1,0
    800011f2:	20000913          	li	s2,512
    800011f6:	7c1c                	ld	a5,56(s0)
    800011f8:	6f9c                	ld	a5,24(a5)
    800011fa:	97a6                	add	a5,a5,s1
    800011fc:	638c                	ld	a1,0(a5)
    800011fe:	e1c9                	bnez	a1,80001280 <_reclaim_reent+0xb2>
    80001200:	04a1                	addi	s1,s1,8
    80001202:	ff249ae3          	bne	s1,s2,800011f6 <_reclaim_reent+0x28>
    80001206:	7c1c                	ld	a5,56(s0)
    80001208:	8522                	mv	a0,s0
    8000120a:	6f8c                	ld	a1,24(a5)
    8000120c:	162000ef          	jal	8000136e <_free_r>
    80001210:	7c1c                	ld	a5,56(s0)
    80001212:	638c                	ld	a1,0(a5)
    80001214:	c581                	beqz	a1,8000121c <_reclaim_reent+0x4e>
    80001216:	8522                	mv	a0,s0
    80001218:	156000ef          	jal	8000136e <_free_r>
    8000121c:	740c                	ld	a1,40(s0)
    8000121e:	c581                	beqz	a1,80001226 <_reclaim_reent+0x58>
    80001220:	8522                	mv	a0,s0
    80001222:	14c000ef          	jal	8000136e <_free_r>
    80001226:	7c0c                	ld	a1,56(s0)
    80001228:	c581                	beqz	a1,80001230 <_reclaim_reent+0x62>
    8000122a:	8522                	mv	a0,s0
    8000122c:	142000ef          	jal	8000136e <_free_r>
    80001230:	6c2c                	ld	a1,88(s0)
    80001232:	c581                	beqz	a1,8000123a <_reclaim_reent+0x6c>
    80001234:	8522                	mv	a0,s0
    80001236:	138000ef          	jal	8000136e <_free_r>
    8000123a:	702c                	ld	a1,96(s0)
    8000123c:	c581                	beqz	a1,80001244 <_reclaim_reent+0x76>
    8000123e:	8522                	mv	a0,s0
    80001240:	12e000ef          	jal	8000136e <_free_r>
    80001244:	742c                	ld	a1,104(s0)
    80001246:	c581                	beqz	a1,8000124e <_reclaim_reent+0x80>
    80001248:	8522                	mv	a0,s0
    8000124a:	124000ef          	jal	8000136e <_free_r>
    8000124e:	644c                	ld	a1,136(s0)
    80001250:	c581                	beqz	a1,80001258 <_reclaim_reent+0x8a>
    80001252:	8522                	mv	a0,s0
    80001254:	11a000ef          	jal	8000136e <_free_r>
    80001258:	604c                	ld	a1,128(s0)
    8000125a:	c581                	beqz	a1,80001262 <_reclaim_reent+0x94>
    8000125c:	8522                	mv	a0,s0
    8000125e:	110000ef          	jal	8000136e <_free_r>
    80001262:	682c                	ld	a1,80(s0)
    80001264:	c581                	beqz	a1,8000126c <_reclaim_reent+0x9e>
    80001266:	8522                	mv	a0,s0
    80001268:	106000ef          	jal	8000136e <_free_r>
    8000126c:	603c                	ld	a5,64(s0)
    8000126e:	c385                	beqz	a5,8000128e <_reclaim_reent+0xc0>
    80001270:	8522                	mv	a0,s0
    80001272:	7402                	ld	s0,32(sp)
    80001274:	70a2                	ld	ra,40(sp)
    80001276:	64e2                	ld	s1,24(sp)
    80001278:	6942                	ld	s2,16(sp)
    8000127a:	69a2                	ld	s3,8(sp)
    8000127c:	6145                	addi	sp,sp,48
    8000127e:	8782                	jr	a5
    80001280:	0005b983          	ld	s3,0(a1)
    80001284:	8522                	mv	a0,s0
    80001286:	0e8000ef          	jal	8000136e <_free_r>
    8000128a:	85ce                	mv	a1,s3
    8000128c:	bf8d                	j	800011fe <_reclaim_reent+0x30>
    8000128e:	70a2                	ld	ra,40(sp)
    80001290:	7402                	ld	s0,32(sp)
    80001292:	64e2                	ld	s1,24(sp)
    80001294:	6942                	ld	s2,16(sp)
    80001296:	69a2                	ld	s3,8(sp)
    80001298:	6145                	addi	sp,sp,48
    8000129a:	8082                	ret
    8000129c:	8082                	ret

000000008000129e <_lseek_r>:
    8000129e:	1141                	addi	sp,sp,-16
    800012a0:	e022                	sd	s0,0(sp)
    800012a2:	842a                	mv	s0,a0
    800012a4:	852e                	mv	a0,a1
    800012a6:	85b2                	mv	a1,a2
    800012a8:	8636                	mv	a2,a3
    800012aa:	8201a423          	sw	zero,-2008(gp) # 80001ee0 <errno>
    800012ae:	e406                	sd	ra,8(sp)
    800012b0:	6c8000ef          	jal	80001978 <_lseek>
    800012b4:	57fd                	li	a5,-1
    800012b6:	00f51663          	bne	a0,a5,800012c2 <_lseek_r+0x24>
    800012ba:	8281a783          	lw	a5,-2008(gp) # 80001ee0 <errno>
    800012be:	c391                	beqz	a5,800012c2 <_lseek_r+0x24>
    800012c0:	c01c                	sw	a5,0(s0)
    800012c2:	60a2                	ld	ra,8(sp)
    800012c4:	6402                	ld	s0,0(sp)
    800012c6:	0141                	addi	sp,sp,16
    800012c8:	8082                	ret

00000000800012ca <_read_r>:
    800012ca:	1141                	addi	sp,sp,-16
    800012cc:	e022                	sd	s0,0(sp)
    800012ce:	842a                	mv	s0,a0
    800012d0:	852e                	mv	a0,a1
    800012d2:	85b2                	mv	a1,a2
    800012d4:	8636                	mv	a2,a3
    800012d6:	8201a423          	sw	zero,-2008(gp) # 80001ee0 <errno>
    800012da:	e406                	sd	ra,8(sp)
    800012dc:	6b0000ef          	jal	8000198c <_read>
    800012e0:	57fd                	li	a5,-1
    800012e2:	00f51663          	bne	a0,a5,800012ee <_read_r+0x24>
    800012e6:	8281a783          	lw	a5,-2008(gp) # 80001ee0 <errno>
    800012ea:	c391                	beqz	a5,800012ee <_read_r+0x24>
    800012ec:	c01c                	sw	a5,0(s0)
    800012ee:	60a2                	ld	ra,8(sp)
    800012f0:	6402                	ld	s0,0(sp)
    800012f2:	0141                	addi	sp,sp,16
    800012f4:	8082                	ret

00000000800012f6 <_write_r>:
    800012f6:	1141                	addi	sp,sp,-16
    800012f8:	e022                	sd	s0,0(sp)
    800012fa:	842a                	mv	s0,a0
    800012fc:	852e                	mv	a0,a1
    800012fe:	85b2                	mv	a1,a2
    80001300:	8636                	mv	a2,a3
    80001302:	8201a423          	sw	zero,-2008(gp) # 80001ee0 <errno>
    80001306:	e406                	sd	ra,8(sp)
    80001308:	6d6000ef          	jal	800019de <_write>
    8000130c:	57fd                	li	a5,-1
    8000130e:	00f51663          	bne	a0,a5,8000131a <_write_r+0x24>
    80001312:	8281a783          	lw	a5,-2008(gp) # 80001ee0 <errno>
    80001316:	c391                	beqz	a5,8000131a <_write_r+0x24>
    80001318:	c01c                	sw	a5,0(s0)
    8000131a:	60a2                	ld	ra,8(sp)
    8000131c:	6402                	ld	s0,0(sp)
    8000131e:	0141                	addi	sp,sp,16
    80001320:	8082                	ret

0000000080001322 <memmove>:
    80001322:	c215                	beqz	a2,80001346 <memmove+0x24>
    80001324:	832a                	mv	t1,a0
    80001326:	4685                	li	a3,1
    80001328:	00b56763          	bltu	a0,a1,80001336 <memmove+0x14>
    8000132c:	56fd                	li	a3,-1
    8000132e:	fff60713          	addi	a4,a2,-1
    80001332:	933a                	add	t1,t1,a4
    80001334:	95ba                	add	a1,a1,a4
    80001336:	00058383          	lb	t2,0(a1)
    8000133a:	00730023          	sb	t2,0(t1)
    8000133e:	167d                	addi	a2,a2,-1
    80001340:	9336                	add	t1,t1,a3
    80001342:	95b6                	add	a1,a1,a3
    80001344:	fa6d                	bnez	a2,80001336 <memmove+0x14>
    80001346:	8082                	ret

0000000080001348 <memset>:
    80001348:	832a                	mv	t1,a0
    8000134a:	c611                	beqz	a2,80001356 <memset+0xe>
    8000134c:	00b30023          	sb	a1,0(t1)
    80001350:	167d                	addi	a2,a2,-1
    80001352:	0305                	addi	t1,t1,1
    80001354:	fe65                	bnez	a2,8000134c <memset+0x4>
    80001356:	8082                	ret

0000000080001358 <memcpy>:
    80001358:	832a                	mv	t1,a0
    8000135a:	ca09                	beqz	a2,8000136c <memcpy+0x14>
    8000135c:	00058383          	lb	t2,0(a1)
    80001360:	00730023          	sb	t2,0(t1)
    80001364:	167d                	addi	a2,a2,-1
    80001366:	0305                	addi	t1,t1,1
    80001368:	0585                	addi	a1,a1,1
    8000136a:	fa6d                	bnez	a2,8000135c <memcpy+0x4>
    8000136c:	8082                	ret

000000008000136e <_free_r>:
    8000136e:	cdd9                	beqz	a1,8000140c <_free_r+0x9e>
    80001370:	ff85b783          	ld	a5,-8(a1)
    80001374:	1101                	addi	sp,sp,-32
    80001376:	e822                	sd	s0,16(sp)
    80001378:	ec06                	sd	ra,24(sp)
    8000137a:	ff858413          	addi	s0,a1,-8
    8000137e:	0007d363          	bgez	a5,80001384 <_free_r+0x16>
    80001382:	943e                	add	s0,s0,a5
    80001384:	e42a                	sd	a0,8(sp)
    80001386:	212000ef          	jal	80001598 <__malloc_lock>
    8000138a:	83818713          	addi	a4,gp,-1992 # 80001ef0 <__malloc_free_list>
    8000138e:	631c                	ld	a5,0(a4)
    80001390:	6522                	ld	a0,8(sp)
    80001392:	eb81                	bnez	a5,800013a2 <_free_r+0x34>
    80001394:	00043423          	sd	zero,8(s0)
    80001398:	e300                	sd	s0,0(a4)
    8000139a:	6442                	ld	s0,16(sp)
    8000139c:	60e2                	ld	ra,24(sp)
    8000139e:	6105                	addi	sp,sp,32
    800013a0:	aaed                	j	8000159a <__malloc_unlock>
    800013a2:	00f47d63          	bgeu	s0,a5,800013bc <_free_r+0x4e>
    800013a6:	6010                	ld	a2,0(s0)
    800013a8:	00c406b3          	add	a3,s0,a2
    800013ac:	00d79663          	bne	a5,a3,800013b8 <_free_r+0x4a>
    800013b0:	6394                	ld	a3,0(a5)
    800013b2:	679c                	ld	a5,8(a5)
    800013b4:	96b2                	add	a3,a3,a2
    800013b6:	e014                	sd	a3,0(s0)
    800013b8:	e41c                	sd	a5,8(s0)
    800013ba:	bff9                	j	80001398 <_free_r+0x2a>
    800013bc:	873e                	mv	a4,a5
    800013be:	679c                	ld	a5,8(a5)
    800013c0:	c399                	beqz	a5,800013c6 <_free_r+0x58>
    800013c2:	fef47de3          	bgeu	s0,a5,800013bc <_free_r+0x4e>
    800013c6:	6314                	ld	a3,0(a4)
    800013c8:	00d70633          	add	a2,a4,a3
    800013cc:	00861f63          	bne	a2,s0,800013ea <_free_r+0x7c>
    800013d0:	6010                	ld	a2,0(s0)
    800013d2:	96b2                	add	a3,a3,a2
    800013d4:	e314                	sd	a3,0(a4)
    800013d6:	00d70633          	add	a2,a4,a3
    800013da:	fcc790e3          	bne	a5,a2,8000139a <_free_r+0x2c>
    800013de:	6390                	ld	a2,0(a5)
    800013e0:	679c                	ld	a5,8(a5)
    800013e2:	96b2                	add	a3,a3,a2
    800013e4:	e314                	sd	a3,0(a4)
    800013e6:	e71c                	sd	a5,8(a4)
    800013e8:	bf4d                	j	8000139a <_free_r+0x2c>
    800013ea:	00c47563          	bgeu	s0,a2,800013f4 <_free_r+0x86>
    800013ee:	47b1                	li	a5,12
    800013f0:	c11c                	sw	a5,0(a0)
    800013f2:	b765                	j	8000139a <_free_r+0x2c>
    800013f4:	6010                	ld	a2,0(s0)
    800013f6:	00c406b3          	add	a3,s0,a2
    800013fa:	00d79663          	bne	a5,a3,80001406 <_free_r+0x98>
    800013fe:	6394                	ld	a3,0(a5)
    80001400:	679c                	ld	a5,8(a5)
    80001402:	96b2                	add	a3,a3,a2
    80001404:	e014                	sd	a3,0(s0)
    80001406:	e41c                	sd	a5,8(s0)
    80001408:	e700                	sd	s0,8(a4)
    8000140a:	bf41                	j	8000139a <_free_r+0x2c>
    8000140c:	8082                	ret

000000008000140e <sbrk_aligned>:
    8000140e:	1101                	addi	sp,sp,-32
    80001410:	e04a                	sd	s2,0(sp)
    80001412:	83018913          	addi	s2,gp,-2000 # 80001ee8 <__malloc_sbrk_start>
    80001416:	00093783          	ld	a5,0(s2)
    8000141a:	e822                	sd	s0,16(sp)
    8000141c:	e426                	sd	s1,8(sp)
    8000141e:	ec06                	sd	ra,24(sp)
    80001420:	84aa                	mv	s1,a0
    80001422:	842e                	mv	s0,a1
    80001424:	e791                	bnez	a5,80001430 <sbrk_aligned+0x22>
    80001426:	4581                	li	a1,0
    80001428:	4e0000ef          	jal	80001908 <_sbrk_r>
    8000142c:	00a93023          	sd	a0,0(s2)
    80001430:	85a2                	mv	a1,s0
    80001432:	8526                	mv	a0,s1
    80001434:	4d4000ef          	jal	80001908 <_sbrk_r>
    80001438:	597d                	li	s2,-1
    8000143a:	01251a63          	bne	a0,s2,8000144e <sbrk_aligned+0x40>
    8000143e:	547d                	li	s0,-1
    80001440:	60e2                	ld	ra,24(sp)
    80001442:	8522                	mv	a0,s0
    80001444:	6442                	ld	s0,16(sp)
    80001446:	64a2                	ld	s1,8(sp)
    80001448:	6902                	ld	s2,0(sp)
    8000144a:	6105                	addi	sp,sp,32
    8000144c:	8082                	ret
    8000144e:	00750413          	addi	s0,a0,7
    80001452:	9861                	andi	s0,s0,-8
    80001454:	fe8506e3          	beq	a0,s0,80001440 <sbrk_aligned+0x32>
    80001458:	40a405b3          	sub	a1,s0,a0
    8000145c:	8526                	mv	a0,s1
    8000145e:	4aa000ef          	jal	80001908 <_sbrk_r>
    80001462:	fd251fe3          	bne	a0,s2,80001440 <sbrk_aligned+0x32>
    80001466:	bfe1                	j	8000143e <sbrk_aligned+0x30>

0000000080001468 <_malloc_r>:
    80001468:	00758793          	addi	a5,a1,7
    8000146c:	7179                	addi	sp,sp,-48
    8000146e:	9be1                	andi	a5,a5,-8
    80001470:	ec26                	sd	s1,24(sp)
    80001472:	e84a                	sd	s2,16(sp)
    80001474:	f406                	sd	ra,40(sp)
    80001476:	f022                	sd	s0,32(sp)
    80001478:	e44e                	sd	s3,8(sp)
    8000147a:	e052                	sd	s4,0(sp)
    8000147c:	07a1                	addi	a5,a5,8
    8000147e:	4741                	li	a4,16
    80001480:	892a                	mv	s2,a0
    80001482:	44c1                	li	s1,16
    80001484:	00e7e363          	bltu	a5,a4,8000148a <_malloc_r+0x22>
    80001488:	84be                	mv	s1,a5
    8000148a:	80000737          	lui	a4,0x80000
    8000148e:	fff74713          	not	a4,a4
    80001492:	00f76463          	bltu	a4,a5,8000149a <_malloc_r+0x32>
    80001496:	00b4fe63          	bgeu	s1,a1,800014b2 <_malloc_r+0x4a>
    8000149a:	47b1                	li	a5,12
    8000149c:	00f92023          	sw	a5,0(s2)
    800014a0:	4501                	li	a0,0
    800014a2:	70a2                	ld	ra,40(sp)
    800014a4:	7402                	ld	s0,32(sp)
    800014a6:	64e2                	ld	s1,24(sp)
    800014a8:	6942                	ld	s2,16(sp)
    800014aa:	69a2                	ld	s3,8(sp)
    800014ac:	6a02                	ld	s4,0(sp)
    800014ae:	6145                	addi	sp,sp,48
    800014b0:	8082                	ret
    800014b2:	854a                	mv	a0,s2
    800014b4:	0e4000ef          	jal	80001598 <__malloc_lock>
    800014b8:	83818993          	addi	s3,gp,-1992 # 80001ef0 <__malloc_free_list>
    800014bc:	0009b783          	ld	a5,0(s3)
    800014c0:	843e                	mv	s0,a5
    800014c2:	ec21                	bnez	s0,8000151a <_malloc_r+0xb2>
    800014c4:	85a6                	mv	a1,s1
    800014c6:	854a                	mv	a0,s2
    800014c8:	f47ff0ef          	jal	8000140e <sbrk_aligned>
    800014cc:	57fd                	li	a5,-1
    800014ce:	842a                	mv	s0,a0
    800014d0:	0af51f63          	bne	a0,a5,8000158e <_malloc_r+0x126>
    800014d4:	0009b403          	ld	s0,0(s3)
    800014d8:	87a2                	mv	a5,s0
    800014da:	efd1                	bnez	a5,80001576 <_malloc_r+0x10e>
    800014dc:	c055                	beqz	s0,80001580 <_malloc_r+0x118>
    800014de:	00043a03          	ld	s4,0(s0)
    800014e2:	4581                	li	a1,0
    800014e4:	854a                	mv	a0,s2
    800014e6:	9a22                	add	s4,s4,s0
    800014e8:	420000ef          	jal	80001908 <_sbrk_r>
    800014ec:	08aa1a63          	bne	s4,a0,80001580 <_malloc_r+0x118>
    800014f0:	601c                	ld	a5,0(s0)
    800014f2:	854a                	mv	a0,s2
    800014f4:	8c9d                	sub	s1,s1,a5
    800014f6:	85a6                	mv	a1,s1
    800014f8:	f17ff0ef          	jal	8000140e <sbrk_aligned>
    800014fc:	57fd                	li	a5,-1
    800014fe:	08f50163          	beq	a0,a5,80001580 <_malloc_r+0x118>
    80001502:	601c                	ld	a5,0(s0)
    80001504:	97a6                	add	a5,a5,s1
    80001506:	e01c                	sd	a5,0(s0)
    80001508:	0009b783          	ld	a5,0(s3)
    8000150c:	c3d9                	beqz	a5,80001592 <_malloc_r+0x12a>
    8000150e:	6798                	ld	a4,8(a5)
    80001510:	06871663          	bne	a4,s0,8000157c <_malloc_r+0x114>
    80001514:	0007b423          	sd	zero,8(a5)
    80001518:	a015                	j	8000153c <_malloc_r+0xd4>
    8000151a:	6014                	ld	a3,0(s0)
    8000151c:	9e85                	subw	a3,a3,s1
    8000151e:	0406c963          	bltz	a3,80001570 <_malloc_r+0x108>
    80001522:	473d                	li	a4,15
    80001524:	02d75e63          	bge	a4,a3,80001560 <_malloc_r+0xf8>
    80001528:	e004                	sd	s1,0(s0)
    8000152a:	00940733          	add	a4,s0,s1
    8000152e:	02879763          	bne	a5,s0,8000155c <_malloc_r+0xf4>
    80001532:	00e9b023          	sd	a4,0(s3)
    80001536:	641c                	ld	a5,8(s0)
    80001538:	e314                	sd	a3,0(a4)
    8000153a:	e71c                	sd	a5,8(a4)
    8000153c:	854a                	mv	a0,s2
    8000153e:	05c000ef          	jal	8000159a <__malloc_unlock>
    80001542:	00f40513          	addi	a0,s0,15
    80001546:	00840793          	addi	a5,s0,8
    8000154a:	9961                	andi	a0,a0,-8
    8000154c:	40f507bb          	subw	a5,a0,a5
    80001550:	dba9                	beqz	a5,800014a2 <_malloc_r+0x3a>
    80001552:	943e                	add	s0,s0,a5
    80001554:	40f007bb          	negw	a5,a5
    80001558:	e01c                	sd	a5,0(s0)
    8000155a:	b7a1                	j	800014a2 <_malloc_r+0x3a>
    8000155c:	e798                	sd	a4,8(a5)
    8000155e:	bfe1                	j	80001536 <_malloc_r+0xce>
    80001560:	6418                	ld	a4,8(s0)
    80001562:	00879563          	bne	a5,s0,8000156c <_malloc_r+0x104>
    80001566:	00e9b023          	sd	a4,0(s3)
    8000156a:	bfc9                	j	8000153c <_malloc_r+0xd4>
    8000156c:	e798                	sd	a4,8(a5)
    8000156e:	b7f9                	j	8000153c <_malloc_r+0xd4>
    80001570:	87a2                	mv	a5,s0
    80001572:	6400                	ld	s0,8(s0)
    80001574:	b7b9                	j	800014c2 <_malloc_r+0x5a>
    80001576:	843e                	mv	s0,a5
    80001578:	679c                	ld	a5,8(a5)
    8000157a:	b785                	j	800014da <_malloc_r+0x72>
    8000157c:	87ba                	mv	a5,a4
    8000157e:	b779                	j	8000150c <_malloc_r+0xa4>
    80001580:	47b1                	li	a5,12
    80001582:	00f92023          	sw	a5,0(s2)
    80001586:	854a                	mv	a0,s2
    80001588:	012000ef          	jal	8000159a <__malloc_unlock>
    8000158c:	bf11                	j	800014a0 <_malloc_r+0x38>
    8000158e:	e104                	sd	s1,0(a0)
    80001590:	b775                	j	8000153c <_malloc_r+0xd4>
    80001592:	00003423          	sd	zero,8(zero) # 8 <__boot_hart+0x8>
    80001596:	9002                	ebreak

0000000080001598 <__malloc_lock>:
    80001598:	8082                	ret

000000008000159a <__malloc_unlock>:
    8000159a:	8082                	ret

000000008000159c <_realloc_r>:
    8000159c:	7179                	addi	sp,sp,-48
    8000159e:	f022                	sd	s0,32(sp)
    800015a0:	f406                	sd	ra,40(sp)
    800015a2:	ec26                	sd	s1,24(sp)
    800015a4:	e84a                	sd	s2,16(sp)
    800015a6:	e44e                	sd	s3,8(sp)
    800015a8:	e052                	sd	s4,0(sp)
    800015aa:	8432                	mv	s0,a2
    800015ac:	e991                	bnez	a1,800015c0 <_realloc_r+0x24>
    800015ae:	7402                	ld	s0,32(sp)
    800015b0:	70a2                	ld	ra,40(sp)
    800015b2:	64e2                	ld	s1,24(sp)
    800015b4:	6942                	ld	s2,16(sp)
    800015b6:	69a2                	ld	s3,8(sp)
    800015b8:	6a02                	ld	s4,0(sp)
    800015ba:	85b2                	mv	a1,a2
    800015bc:	6145                	addi	sp,sp,48
    800015be:	b56d                	j	80001468 <_malloc_r>
    800015c0:	ee09                	bnez	a2,800015da <_realloc_r+0x3e>
    800015c2:	dadff0ef          	jal	8000136e <_free_r>
    800015c6:	4481                	li	s1,0
    800015c8:	70a2                	ld	ra,40(sp)
    800015ca:	7402                	ld	s0,32(sp)
    800015cc:	6942                	ld	s2,16(sp)
    800015ce:	69a2                	ld	s3,8(sp)
    800015d0:	6a02                	ld	s4,0(sp)
    800015d2:	8526                	mv	a0,s1
    800015d4:	64e2                	ld	s1,24(sp)
    800015d6:	6145                	addi	sp,sp,48
    800015d8:	8082                	ret
    800015da:	8a2a                	mv	s4,a0
    800015dc:	84ae                	mv	s1,a1
    800015de:	352000ef          	jal	80001930 <_malloc_usable_size_r>
    800015e2:	892a                	mv	s2,a0
    800015e4:	00856663          	bltu	a0,s0,800015f0 <_realloc_r+0x54>
    800015e8:	00155793          	srli	a5,a0,0x1
    800015ec:	fc87eee3          	bltu	a5,s0,800015c8 <_realloc_r+0x2c>
    800015f0:	85a2                	mv	a1,s0
    800015f2:	8552                	mv	a0,s4
    800015f4:	e75ff0ef          	jal	80001468 <_malloc_r>
    800015f8:	89aa                	mv	s3,a0
    800015fa:	e119                	bnez	a0,80001600 <_realloc_r+0x64>
    800015fc:	84ce                	mv	s1,s3
    800015fe:	b7e9                	j	800015c8 <_realloc_r+0x2c>
    80001600:	8622                	mv	a2,s0
    80001602:	00897363          	bgeu	s2,s0,80001608 <_realloc_r+0x6c>
    80001606:	864a                	mv	a2,s2
    80001608:	85a6                	mv	a1,s1
    8000160a:	854e                	mv	a0,s3
    8000160c:	d4dff0ef          	jal	80001358 <memcpy>
    80001610:	85a6                	mv	a1,s1
    80001612:	8552                	mv	a0,s4
    80001614:	d5bff0ef          	jal	8000136e <_free_r>
    80001618:	b7d5                	j	800015fc <_realloc_r+0x60>

000000008000161a <__sflush_r>:
    8000161a:	01059783          	lh	a5,16(a1)
    8000161e:	7179                	addi	sp,sp,-48
    80001620:	f022                	sd	s0,32(sp)
    80001622:	ec26                	sd	s1,24(sp)
    80001624:	f406                	sd	ra,40(sp)
    80001626:	e84a                	sd	s2,16(sp)
    80001628:	e44e                	sd	s3,8(sp)
    8000162a:	0087f713          	andi	a4,a5,8
    8000162e:	84aa                	mv	s1,a0
    80001630:	842e                	mv	s0,a1
    80001632:	eb69                	bnez	a4,80001704 <__sflush_r+0xea>
    80001634:	4598                	lw	a4,8(a1)
    80001636:	00e04563          	bgtz	a4,80001640 <__sflush_r+0x26>
    8000163a:	5db8                	lw	a4,120(a1)
    8000163c:	0ae05b63          	blez	a4,800016f2 <__sflush_r+0xd8>
    80001640:	6838                	ld	a4,80(s0)
    80001642:	cb45                	beqz	a4,800016f2 <__sflush_r+0xd8>
    80001644:	0004a903          	lw	s2,0(s1)
    80001648:	03379693          	slli	a3,a5,0x33
    8000164c:	0004a023          	sw	zero,0(s1)
    80001650:	7c0c                	ld	a1,56(s0)
    80001652:	0606de63          	bgez	a3,800016ce <__sflush_r+0xb4>
    80001656:	6c50                	ld	a2,152(s0)
    80001658:	01045783          	lhu	a5,16(s0)
    8000165c:	8b91                	andi	a5,a5,4
    8000165e:	c799                	beqz	a5,8000166c <__sflush_r+0x52>
    80001660:	441c                	lw	a5,8(s0)
    80001662:	8e1d                	sub	a2,a2,a5
    80001664:	703c                	ld	a5,96(s0)
    80001666:	c399                	beqz	a5,8000166c <__sflush_r+0x52>
    80001668:	5c3c                	lw	a5,120(s0)
    8000166a:	8e1d                	sub	a2,a2,a5
    8000166c:	683c                	ld	a5,80(s0)
    8000166e:	7c0c                	ld	a1,56(s0)
    80001670:	4681                	li	a3,0
    80001672:	8526                	mv	a0,s1
    80001674:	9782                	jalr	a5
    80001676:	577d                	li	a4,-1
    80001678:	01045783          	lhu	a5,16(s0)
    8000167c:	00e51d63          	bne	a0,a4,80001696 <__sflush_r+0x7c>
    80001680:	4094                	lw	a3,0(s1)
    80001682:	4775                	li	a4,29
    80001684:	06d76963          	bltu	a4,a3,800016f6 <__sflush_r+0xdc>
    80001688:	20400737          	lui	a4,0x20400
    8000168c:	0705                	addi	a4,a4,1 # 20400001 <__heap_size+0x203e0001>
    8000168e:	00d75733          	srl	a4,a4,a3
    80001692:	8b05                	andi	a4,a4,1
    80001694:	c32d                	beqz	a4,800016f6 <__sflush_r+0xdc>
    80001696:	6c18                	ld	a4,24(s0)
    80001698:	00042423          	sw	zero,8(s0)
    8000169c:	e018                	sd	a4,0(s0)
    8000169e:	03379713          	slli	a4,a5,0x33
    800016a2:	00075863          	bgez	a4,800016b2 <__sflush_r+0x98>
    800016a6:	57fd                	li	a5,-1
    800016a8:	00f51463          	bne	a0,a5,800016b0 <__sflush_r+0x96>
    800016ac:	409c                	lw	a5,0(s1)
    800016ae:	e391                	bnez	a5,800016b2 <__sflush_r+0x98>
    800016b0:	ec48                	sd	a0,152(s0)
    800016b2:	702c                	ld	a1,96(s0)
    800016b4:	0124a023          	sw	s2,0(s1)
    800016b8:	cd8d                	beqz	a1,800016f2 <__sflush_r+0xd8>
    800016ba:	07c40793          	addi	a5,s0,124
    800016be:	00f58563          	beq	a1,a5,800016c8 <__sflush_r+0xae>
    800016c2:	8526                	mv	a0,s1
    800016c4:	cabff0ef          	jal	8000136e <_free_r>
    800016c8:	06043023          	sd	zero,96(s0)
    800016cc:	a01d                	j	800016f2 <__sflush_r+0xd8>
    800016ce:	4601                	li	a2,0
    800016d0:	4685                	li	a3,1
    800016d2:	8526                	mv	a0,s1
    800016d4:	9702                	jalr	a4
    800016d6:	57fd                	li	a5,-1
    800016d8:	862a                	mv	a2,a0
    800016da:	f6f51fe3          	bne	a0,a5,80001658 <__sflush_r+0x3e>
    800016de:	409c                	lw	a5,0(s1)
    800016e0:	dfa5                	beqz	a5,80001658 <__sflush_r+0x3e>
    800016e2:	4775                	li	a4,29
    800016e4:	00e78563          	beq	a5,a4,800016ee <__sflush_r+0xd4>
    800016e8:	4759                	li	a4,22
    800016ea:	04e79663          	bne	a5,a4,80001736 <__sflush_r+0x11c>
    800016ee:	0124a023          	sw	s2,0(s1)
    800016f2:	4501                	li	a0,0
    800016f4:	a881                	j	80001744 <__sflush_r+0x12a>
    800016f6:	0407e793          	ori	a5,a5,64
    800016fa:	0107979b          	slliw	a5,a5,0x10
    800016fe:	4107d79b          	sraiw	a5,a5,0x10
    80001702:	a835                	j	8000173e <__sflush_r+0x124>
    80001704:	0185b983          	ld	s3,24(a1)
    80001708:	fe0985e3          	beqz	s3,800016f2 <__sflush_r+0xd8>
    8000170c:	0005b903          	ld	s2,0(a1)
    80001710:	8b8d                	andi	a5,a5,3
    80001712:	0135b023          	sd	s3,0(a1)
    80001716:	4139093b          	subw	s2,s2,s3
    8000171a:	4701                	li	a4,0
    8000171c:	e391                	bnez	a5,80001720 <__sflush_r+0x106>
    8000171e:	5198                	lw	a4,32(a1)
    80001720:	c458                	sw	a4,12(s0)
    80001722:	fd2058e3          	blez	s2,800016f2 <__sflush_r+0xd8>
    80001726:	643c                	ld	a5,72(s0)
    80001728:	7c0c                	ld	a1,56(s0)
    8000172a:	86ca                	mv	a3,s2
    8000172c:	864e                	mv	a2,s3
    8000172e:	8526                	mv	a0,s1
    80001730:	9782                	jalr	a5
    80001732:	02a04063          	bgtz	a0,80001752 <__sflush_r+0x138>
    80001736:	01041783          	lh	a5,16(s0)
    8000173a:	0407e793          	ori	a5,a5,64
    8000173e:	00f41823          	sh	a5,16(s0)
    80001742:	557d                	li	a0,-1
    80001744:	70a2                	ld	ra,40(sp)
    80001746:	7402                	ld	s0,32(sp)
    80001748:	64e2                	ld	s1,24(sp)
    8000174a:	6942                	ld	s2,16(sp)
    8000174c:	69a2                	ld	s3,8(sp)
    8000174e:	6145                	addi	sp,sp,48
    80001750:	8082                	ret
    80001752:	99aa                	add	s3,s3,a0
    80001754:	40a9093b          	subw	s2,s2,a0
    80001758:	b7e9                	j	80001722 <__sflush_r+0x108>

000000008000175a <_fflush_r>:
    8000175a:	6d9c                	ld	a5,24(a1)
    8000175c:	cb8d                	beqz	a5,8000178e <_fflush_r+0x34>
    8000175e:	1101                	addi	sp,sp,-32
    80001760:	e822                	sd	s0,16(sp)
    80001762:	ec06                	sd	ra,24(sp)
    80001764:	842a                	mv	s0,a0
    80001766:	c519                	beqz	a0,80001774 <_fflush_r+0x1a>
    80001768:	613c                	ld	a5,64(a0)
    8000176a:	e789                	bnez	a5,80001774 <_fflush_r+0x1a>
    8000176c:	e42e                	sd	a1,8(sp)
    8000176e:	c5eff0ef          	jal	80000bcc <__sinit>
    80001772:	65a2                	ld	a1,8(sp)
    80001774:	01059783          	lh	a5,16(a1)
    80001778:	c791                	beqz	a5,80001784 <_fflush_r+0x2a>
    8000177a:	8522                	mv	a0,s0
    8000177c:	6442                	ld	s0,16(sp)
    8000177e:	60e2                	ld	ra,24(sp)
    80001780:	6105                	addi	sp,sp,32
    80001782:	bd61                	j	8000161a <__sflush_r>
    80001784:	60e2                	ld	ra,24(sp)
    80001786:	6442                	ld	s0,16(sp)
    80001788:	4501                	li	a0,0
    8000178a:	6105                	addi	sp,sp,32
    8000178c:	8082                	ret
    8000178e:	4501                	li	a0,0
    80001790:	8082                	ret

0000000080001792 <fflush>:
    80001792:	85aa                	mv	a1,a0
    80001794:	ed19                	bnez	a0,800017b2 <fflush+0x20>
    80001796:	00000617          	auipc	a2,0x0
    8000179a:	70a60613          	addi	a2,a2,1802 # 80001ea0 <__sglue>
    8000179e:	00000597          	auipc	a1,0x0
    800017a2:	fbc58593          	addi	a1,a1,-68 # 8000175a <_fflush_r>
    800017a6:	00000517          	auipc	a0,0x0
    800017aa:	66a50513          	addi	a0,a0,1642 # 80001e10 <_impure_data>
    800017ae:	f38ff06f          	j	80000ee6 <_fwalk_sglue>
    800017b2:	00000517          	auipc	a0,0x0
    800017b6:	70653503          	ld	a0,1798(a0) # 80001eb8 <_impure_ptr>
    800017ba:	b745                	j	8000175a <_fflush_r>

00000000800017bc <__swhatbuf_r>:
    800017bc:	7175                	addi	sp,sp,-144
    800017be:	e122                	sd	s0,128(sp)
    800017c0:	842e                	mv	s0,a1
    800017c2:	01259583          	lh	a1,18(a1)
    800017c6:	fca6                	sd	s1,120(sp)
    800017c8:	f8ca                	sd	s2,112(sp)
    800017ca:	e506                	sd	ra,136(sp)
    800017cc:	84b2                	mv	s1,a2
    800017ce:	8936                	mv	s2,a3
    800017d0:	0205d363          	bgez	a1,800017f6 <__swhatbuf_r+0x3a>
    800017d4:	01045783          	lhu	a5,16(s0)
    800017d8:	0807f793          	andi	a5,a5,128
    800017dc:	eb95                	bnez	a5,80001810 <__swhatbuf_r+0x54>
    800017de:	40000713          	li	a4,1024
    800017e2:	60aa                	ld	ra,136(sp)
    800017e4:	640a                	ld	s0,128(sp)
    800017e6:	00f92023          	sw	a5,0(s2)
    800017ea:	e098                	sd	a4,0(s1)
    800017ec:	7946                	ld	s2,112(sp)
    800017ee:	74e6                	ld	s1,120(sp)
    800017f0:	4501                	li	a0,0
    800017f2:	6149                	addi	sp,sp,144
    800017f4:	8082                	ret
    800017f6:	0030                	addi	a2,sp,8
    800017f8:	0be000ef          	jal	800018b6 <_fstat_r>
    800017fc:	fc054ce3          	bltz	a0,800017d4 <__swhatbuf_r+0x18>
    80001800:	47b2                	lw	a5,12(sp)
    80001802:	673d                	lui	a4,0xf
    80001804:	8ff9                	and	a5,a5,a4
    80001806:	6709                	lui	a4,0x2
    80001808:	8f99                	sub	a5,a5,a4
    8000180a:	0017b793          	seqz	a5,a5
    8000180e:	bfc1                	j	800017de <__swhatbuf_r+0x22>
    80001810:	4781                	li	a5,0
    80001812:	04000713          	li	a4,64
    80001816:	b7f1                	j	800017e2 <__swhatbuf_r+0x26>

0000000080001818 <__smakebuf_r>:
    80001818:	0105d783          	lhu	a5,16(a1)
    8000181c:	7139                	addi	sp,sp,-64
    8000181e:	f822                	sd	s0,48(sp)
    80001820:	fc06                	sd	ra,56(sp)
    80001822:	f426                	sd	s1,40(sp)
    80001824:	f04a                	sd	s2,32(sp)
    80001826:	ec4e                	sd	s3,24(sp)
    80001828:	8b89                	andi	a5,a5,2
    8000182a:	842e                	mv	s0,a1
    8000182c:	cf91                	beqz	a5,80001848 <__smakebuf_r+0x30>
    8000182e:	07f40793          	addi	a5,s0,127
    80001832:	e01c                	sd	a5,0(s0)
    80001834:	ec1c                	sd	a5,24(s0)
    80001836:	4785                	li	a5,1
    80001838:	d01c                	sw	a5,32(s0)
    8000183a:	70e2                	ld	ra,56(sp)
    8000183c:	7442                	ld	s0,48(sp)
    8000183e:	74a2                	ld	s1,40(sp)
    80001840:	7902                	ld	s2,32(sp)
    80001842:	69e2                	ld	s3,24(sp)
    80001844:	6121                	addi	sp,sp,64
    80001846:	8082                	ret
    80001848:	0054                	addi	a3,sp,4
    8000184a:	0030                	addi	a2,sp,8
    8000184c:	84aa                	mv	s1,a0
    8000184e:	f6fff0ef          	jal	800017bc <__swhatbuf_r>
    80001852:	69a2                	ld	s3,8(sp)
    80001854:	892a                	mv	s2,a0
    80001856:	8526                	mv	a0,s1
    80001858:	85ce                	mv	a1,s3
    8000185a:	c0fff0ef          	jal	80001468 <_malloc_r>
    8000185e:	ed01                	bnez	a0,80001876 <__smakebuf_r+0x5e>
    80001860:	01041783          	lh	a5,16(s0)
    80001864:	2007f713          	andi	a4,a5,512
    80001868:	fb69                	bnez	a4,8000183a <__smakebuf_r+0x22>
    8000186a:	9bf1                	andi	a5,a5,-4
    8000186c:	0027e793          	ori	a5,a5,2
    80001870:	00f41823          	sh	a5,16(s0)
    80001874:	bf6d                	j	8000182e <__smakebuf_r+0x16>
    80001876:	01045783          	lhu	a5,16(s0)
    8000187a:	e008                	sd	a0,0(s0)
    8000187c:	ec08                	sd	a0,24(s0)
    8000187e:	0807e793          	ori	a5,a5,128
    80001882:	00f41823          	sh	a5,16(s0)
    80001886:	4792                	lw	a5,4(sp)
    80001888:	03342023          	sw	s3,32(s0)
    8000188c:	cf91                	beqz	a5,800018a8 <__smakebuf_r+0x90>
    8000188e:	01241583          	lh	a1,18(s0)
    80001892:	8526                	mv	a0,s1
    80001894:	04c000ef          	jal	800018e0 <_isatty_r>
    80001898:	c901                	beqz	a0,800018a8 <__smakebuf_r+0x90>
    8000189a:	01045783          	lhu	a5,16(s0)
    8000189e:	9bf1                	andi	a5,a5,-4
    800018a0:	0017e793          	ori	a5,a5,1
    800018a4:	00f41823          	sh	a5,16(s0)
    800018a8:	01045783          	lhu	a5,16(s0)
    800018ac:	0127e533          	or	a0,a5,s2
    800018b0:	00a41823          	sh	a0,16(s0)
    800018b4:	b759                	j	8000183a <__smakebuf_r+0x22>

00000000800018b6 <_fstat_r>:
    800018b6:	1141                	addi	sp,sp,-16
    800018b8:	e022                	sd	s0,0(sp)
    800018ba:	842a                	mv	s0,a0
    800018bc:	852e                	mv	a0,a1
    800018be:	85b2                	mv	a1,a2
    800018c0:	8201a423          	sw	zero,-2008(gp) # 80001ee0 <errno>
    800018c4:	e406                	sd	ra,8(sp)
    800018c6:	096000ef          	jal	8000195c <_fstat>
    800018ca:	57fd                	li	a5,-1
    800018cc:	00f51663          	bne	a0,a5,800018d8 <_fstat_r+0x22>
    800018d0:	8281a783          	lw	a5,-2008(gp) # 80001ee0 <errno>
    800018d4:	c391                	beqz	a5,800018d8 <_fstat_r+0x22>
    800018d6:	c01c                	sw	a5,0(s0)
    800018d8:	60a2                	ld	ra,8(sp)
    800018da:	6402                	ld	s0,0(sp)
    800018dc:	0141                	addi	sp,sp,16
    800018de:	8082                	ret

00000000800018e0 <_isatty_r>:
    800018e0:	1141                	addi	sp,sp,-16
    800018e2:	e022                	sd	s0,0(sp)
    800018e4:	842a                	mv	s0,a0
    800018e6:	852e                	mv	a0,a1
    800018e8:	8201a423          	sw	zero,-2008(gp) # 80001ee0 <errno>
    800018ec:	e406                	sd	ra,8(sp)
    800018ee:	082000ef          	jal	80001970 <_isatty>
    800018f2:	57fd                	li	a5,-1
    800018f4:	00f51663          	bne	a0,a5,80001900 <_isatty_r+0x20>
    800018f8:	8281a783          	lw	a5,-2008(gp) # 80001ee0 <errno>
    800018fc:	c391                	beqz	a5,80001900 <_isatty_r+0x20>
    800018fe:	c01c                	sw	a5,0(s0)
    80001900:	60a2                	ld	ra,8(sp)
    80001902:	6402                	ld	s0,0(sp)
    80001904:	0141                	addi	sp,sp,16
    80001906:	8082                	ret

0000000080001908 <_sbrk_r>:
    80001908:	1141                	addi	sp,sp,-16
    8000190a:	e022                	sd	s0,0(sp)
    8000190c:	842a                	mv	s0,a0
    8000190e:	852e                	mv	a0,a1
    80001910:	8201a423          	sw	zero,-2008(gp) # 80001ee0 <errno>
    80001914:	e406                	sd	ra,8(sp)
    80001916:	08c000ef          	jal	800019a2 <_sbrk>
    8000191a:	57fd                	li	a5,-1
    8000191c:	00f51663          	bne	a0,a5,80001928 <_sbrk_r+0x20>
    80001920:	8281a783          	lw	a5,-2008(gp) # 80001ee0 <errno>
    80001924:	c391                	beqz	a5,80001928 <_sbrk_r+0x20>
    80001926:	c01c                	sw	a5,0(s0)
    80001928:	60a2                	ld	ra,8(sp)
    8000192a:	6402                	ld	s0,0(sp)
    8000192c:	0141                	addi	sp,sp,16
    8000192e:	8082                	ret

0000000080001930 <_malloc_usable_size_r>:
    80001930:	ff85b503          	ld	a0,-8(a1)
    80001934:	0005079b          	sext.w	a5,a0
    80001938:	1561                	addi	a0,a0,-8
    8000193a:	0007d663          	bgez	a5,80001946 <_malloc_usable_size_r+0x16>
    8000193e:	95aa                	add	a1,a1,a0
    80001940:	6188                	ld	a0,0(a1)
    80001942:	17e1                	addi	a5,a5,-8
    80001944:	953e                	add	a0,a0,a5
    80001946:	8082                	ret

0000000080001948 <_close>:
    80001948:	1141                	addi	sp,sp,-16
    8000194a:	e406                	sd	ra,8(sp)
    8000194c:	182000ef          	jal	80001ace <__errno>
    80001950:	60a2                	ld	ra,8(sp)
    80001952:	47a5                	li	a5,9
    80001954:	c11c                	sw	a5,0(a0)
    80001956:	557d                	li	a0,-1
    80001958:	0141                	addi	sp,sp,16
    8000195a:	8082                	ret

000000008000195c <_fstat>:
    8000195c:	1141                	addi	sp,sp,-16
    8000195e:	e406                	sd	ra,8(sp)
    80001960:	16e000ef          	jal	80001ace <__errno>
    80001964:	60a2                	ld	ra,8(sp)
    80001966:	47a5                	li	a5,9
    80001968:	c11c                	sw	a5,0(a0)
    8000196a:	557d                	li	a0,-1
    8000196c:	0141                	addi	sp,sp,16
    8000196e:	8082                	ret

0000000080001970 <_isatty>:
    80001970:	357d                	addiw	a0,a0,-1
    80001972:	00253513          	sltiu	a0,a0,2
    80001976:	8082                	ret

0000000080001978 <_lseek>:
    80001978:	1141                	addi	sp,sp,-16
    8000197a:	e406                	sd	ra,8(sp)
    8000197c:	152000ef          	jal	80001ace <__errno>
    80001980:	60a2                	ld	ra,8(sp)
    80001982:	47a5                	li	a5,9
    80001984:	c11c                	sw	a5,0(a0)
    80001986:	557d                	li	a0,-1
    80001988:	0141                	addi	sp,sp,16
    8000198a:	8082                	ret

000000008000198c <_read>:
    8000198c:	1141                	addi	sp,sp,-16
    8000198e:	e406                	sd	ra,8(sp)
    80001990:	13e000ef          	jal	80001ace <__errno>
    80001994:	60a2                	ld	ra,8(sp)
    80001996:	05800793          	li	a5,88
    8000199a:	c11c                	sw	a5,0(a0)
    8000199c:	557d                	li	a0,-1
    8000199e:	0141                	addi	sp,sp,16
    800019a0:	8082                	ret

00000000800019a2 <_sbrk>:
    800019a2:	00000717          	auipc	a4,0x0
    800019a6:	51e70713          	addi	a4,a4,1310 # 80001ec0 <curbrk>
    800019aa:	631c                	ld	a5,0(a4)
    800019ac:	b8818693          	addi	a3,gp,-1144 # 80002240 <_end>
    800019b0:	953e                	add	a0,a0,a5
    800019b2:	00d56b63          	bltu	a0,a3,800019c8 <_sbrk+0x26>
    800019b6:	00021697          	auipc	a3,0x21
    800019ba:	64a68693          	addi	a3,a3,1610 # 80023000 <__heap_end>
    800019be:	00d57563          	bgeu	a0,a3,800019c8 <_sbrk+0x26>
    800019c2:	e308                	sd	a0,0(a4)
    800019c4:	853e                	mv	a0,a5
    800019c6:	8082                	ret
    800019c8:	1141                	addi	sp,sp,-16
    800019ca:	e406                	sd	ra,8(sp)
    800019cc:	102000ef          	jal	80001ace <__errno>
    800019d0:	60a2                	ld	ra,8(sp)
    800019d2:	47b1                	li	a5,12
    800019d4:	c11c                	sw	a5,0(a0)
    800019d6:	57fd                	li	a5,-1
    800019d8:	853e                	mv	a0,a5
    800019da:	0141                	addi	sp,sp,16
    800019dc:	8082                	ret

00000000800019de <_write>:
    800019de:	04000693          	li	a3,64
    800019e2:	a0b9                	j	80001a30 <htif_syscall>

00000000800019e4 <handle_trap>:
    800019e4:	1141                	addi	sp,sp,-16
    800019e6:	02159513          	slli	a0,a1,0x21
    800019ea:	e406                	sd	ra,8(sp)
    800019ec:	9105                	srli	a0,a0,0x21
    800019ee:	0005d463          	bgez	a1,800019f6 <handle_trap+0x12>
    800019f2:	40a0053b          	negw	a0,a0
    800019f6:	086000ef          	jal	80001a7c <_exit>

00000000800019fa <__init_tls>:
    800019fa:	1141                	addi	sp,sp,-16
    800019fc:	00000613          	li	a2,0
    80001a00:	00000597          	auipc	a1,0x0
    80001a04:	2aa58593          	addi	a1,a1,682 # 80001caa <__tbss_end>
    80001a08:	8512                	mv	a0,tp
    80001a0a:	e022                	sd	s0,0(sp)
    80001a0c:	e406                	sd	ra,8(sp)
    80001a0e:	8412                	mv	s0,tp
    80001a10:	949ff0ef          	jal	80001358 <memcpy>
    80001a14:	00000513          	li	a0,0
    80001a18:	9522                	add	a0,a0,s0
    80001a1a:	6402                	ld	s0,0(sp)
    80001a1c:	60a2                	ld	ra,8(sp)
    80001a1e:	00000613          	li	a2,0
    80001a22:	4581                	li	a1,0
    80001a24:	0141                	addi	sp,sp,16
    80001a26:	923ff06f          	j	80001348 <memset>

0000000080001a2a <__main>:
    80001a2a:	10500073          	wfi
    80001a2e:	bff5                	j	80001a2a <__main>

0000000080001a30 <htif_syscall>:
    80001a30:	7139                	addi	sp,sp,-64
    80001a32:	e036                	sd	a3,0(sp)
    80001a34:	e42a                	sd	a0,8(sp)
    80001a36:	fff007b7          	lui	a5,0xfff00
    80001a3a:	e82e                	sd	a1,16(sp)
    80001a3c:	83c1                	srli	a5,a5,0x10
    80001a3e:	ec32                	sd	a2,24(sp)
    80001a40:	860a                	mv	a2,sp
    80001a42:	8e7d                	and	a2,a2,a5
    80001a44:	84018713          	addi	a4,gp,-1984 # 80001ef8 <htif_lock>
    80001a48:	56fd                	li	a3,-1
    80001a4a:	431c                	lw	a5,0(a4)
    80001a4c:	fffd                	bnez	a5,80001a4a <htif_syscall+0x1a>
    80001a4e:	0cd727af          	amoswap.w.aq	a5,a3,(a4)
    80001a52:	ffe5                	bnez	a5,80001a4a <htif_syscall+0x1a>
    80001a54:	0110000f          	fence	w,w
    80001a58:	00000697          	auipc	a3,0x0
    80001a5c:	3a868693          	addi	a3,a3,936 # 80001e00 <tohost>
    80001a60:	e290                	sd	a2,0(a3)
    80001a62:	669c                	ld	a5,8(a3)
    80001a64:	dffd                	beqz	a5,80001a62 <htif_syscall+0x32>
    80001a66:	00000797          	auipc	a5,0x0
    80001a6a:	3a07b123          	sd	zero,930(a5) # 80001e08 <fromhost>
    80001a6e:	0a07202f          	amoswap.w.rl	zero,zero,(a4)
    80001a72:	0220000f          	fence	r,r
    80001a76:	6502                	ld	a0,0(sp)
    80001a78:	6121                	addi	sp,sp,64
    80001a7a:	8082                	ret

0000000080001a7c <_exit>:
    80001a7c:	0015179b          	slliw	a5,a0,0x1
    80001a80:	0017e793          	ori	a5,a5,1
    80001a84:	2781                	sext.w	a5,a5
    80001a86:	07c2                	slli	a5,a5,0x10
    80001a88:	83c1                	srli	a5,a5,0x10
    80001a8a:	00000717          	auipc	a4,0x0
    80001a8e:	37670713          	addi	a4,a4,886 # 80001e00 <tohost>
    80001a92:	00000697          	auipc	a3,0x0
    80001a96:	3606bb23          	sd	zero,886(a3) # 80001e08 <fromhost>
    80001a9a:	e31c                	sd	a5,0(a4)
    80001a9c:	bfdd                	j	80001a92 <_exit+0x16>

0000000080001a9e <atexit>:
    80001a9e:	85aa                	mv	a1,a0
    80001aa0:	4681                	li	a3,0
    80001aa2:	4601                	li	a2,0
    80001aa4:	4501                	li	a0,0
    80001aa6:	a0d9                	j	80001b6c <__register_exitproc>

0000000080001aa8 <exit>:
    80001aa8:	1141                	addi	sp,sp,-16
    80001aaa:	e022                	sd	s0,0(sp)
    80001aac:	e406                	sd	ra,8(sp)
    80001aae:	00000797          	auipc	a5,0x0
    80001ab2:	13478793          	addi	a5,a5,308 # 80001be2 <__call_exitprocs>
    80001ab6:	842a                	mv	s0,a0
    80001ab8:	c781                	beqz	a5,80001ac0 <exit+0x18>
    80001aba:	4581                	li	a1,0
    80001abc:	126000ef          	jal	80001be2 <__call_exitprocs>
    80001ac0:	8201b783          	ld	a5,-2016(gp) # 80001ed8 <__stdio_exit_handler>
    80001ac4:	c391                	beqz	a5,80001ac8 <exit+0x20>
    80001ac6:	9782                	jalr	a5
    80001ac8:	8522                	mv	a0,s0
    80001aca:	fb3ff0ef          	jal	80001a7c <_exit>

0000000080001ace <__errno>:
    80001ace:	00000517          	auipc	a0,0x0
    80001ad2:	3ea53503          	ld	a0,1002(a0) # 80001eb8 <_impure_ptr>
    80001ad6:	8082                	ret

0000000080001ad8 <__libc_init_array>:
    80001ad8:	1101                	addi	sp,sp,-32
    80001ada:	e822                	sd	s0,16(sp)
    80001adc:	e426                	sd	s1,8(sp)
    80001ade:	00000417          	auipc	s0,0x0
    80001ae2:	32240413          	addi	s0,s0,802 # 80001e00 <tohost>
    80001ae6:	00000497          	auipc	s1,0x0
    80001aea:	31a48493          	addi	s1,s1,794 # 80001e00 <tohost>
    80001aee:	8c81                	sub	s1,s1,s0
    80001af0:	e04a                	sd	s2,0(sp)
    80001af2:	ec06                	sd	ra,24(sp)
    80001af4:	848d                	srai	s1,s1,0x3
    80001af6:	4901                	li	s2,0
    80001af8:	02991563          	bne	s2,s1,80001b22 <__libc_init_array+0x4a>
    80001afc:	00000417          	auipc	s0,0x0
    80001b00:	30440413          	addi	s0,s0,772 # 80001e00 <tohost>
    80001b04:	00000497          	auipc	s1,0x0
    80001b08:	2fc48493          	addi	s1,s1,764 # 80001e00 <tohost>
    80001b0c:	8c81                	sub	s1,s1,s0
    80001b0e:	848d                	srai	s1,s1,0x3
    80001b10:	4901                	li	s2,0
    80001b12:	00991d63          	bne	s2,s1,80001b2c <__libc_init_array+0x54>
    80001b16:	60e2                	ld	ra,24(sp)
    80001b18:	6442                	ld	s0,16(sp)
    80001b1a:	64a2                	ld	s1,8(sp)
    80001b1c:	6902                	ld	s2,0(sp)
    80001b1e:	6105                	addi	sp,sp,32
    80001b20:	8082                	ret
    80001b22:	601c                	ld	a5,0(s0)
    80001b24:	0905                	addi	s2,s2,1
    80001b26:	0421                	addi	s0,s0,8
    80001b28:	9782                	jalr	a5
    80001b2a:	b7f9                	j	80001af8 <__libc_init_array+0x20>
    80001b2c:	601c                	ld	a5,0(s0)
    80001b2e:	0905                	addi	s2,s2,1
    80001b30:	0421                	addi	s0,s0,8
    80001b32:	9782                	jalr	a5
    80001b34:	bff9                	j	80001b12 <__libc_init_array+0x3a>

0000000080001b36 <__libc_fini_array>:
    80001b36:	1101                	addi	sp,sp,-32
    80001b38:	e822                	sd	s0,16(sp)
    80001b3a:	e426                	sd	s1,8(sp)
    80001b3c:	00000417          	auipc	s0,0x0
    80001b40:	2c440413          	addi	s0,s0,708 # 80001e00 <tohost>
    80001b44:	00000497          	auipc	s1,0x0
    80001b48:	2bc48493          	addi	s1,s1,700 # 80001e00 <tohost>
    80001b4c:	8c05                	sub	s0,s0,s1
    80001b4e:	ec06                	sd	ra,24(sp)
    80001b50:	840d                	srai	s0,s0,0x3
    80001b52:	e411                	bnez	s0,80001b5e <__libc_fini_array+0x28>
    80001b54:	60e2                	ld	ra,24(sp)
    80001b56:	6442                	ld	s0,16(sp)
    80001b58:	64a2                	ld	s1,8(sp)
    80001b5a:	6105                	addi	sp,sp,32
    80001b5c:	8082                	ret
    80001b5e:	147d                	addi	s0,s0,-1
    80001b60:	00341793          	slli	a5,s0,0x3
    80001b64:	97a6                	add	a5,a5,s1
    80001b66:	639c                	ld	a5,0(a5)
    80001b68:	9782                	jalr	a5
    80001b6a:	b7e5                	j	80001b52 <__libc_fini_array+0x1c>

0000000080001b6c <__register_exitproc>:
    80001b6c:	88aa                	mv	a7,a0
    80001b6e:	85018513          	addi	a0,gp,-1968 # 80001f08 <__atexit>
    80001b72:	6118                	ld	a4,0(a0)
    80001b74:	ef01                	bnez	a4,80001b8c <__register_exitproc+0x20>
    80001b76:	a7018793          	addi	a5,gp,-1424 # 80002128 <__atexit0>
    80001b7a:	e11c                	sd	a5,0(a0)
    80001b7c:	00000713          	li	a4,0
    80001b80:	c701                	beqz	a4,80001b88 <__register_exitproc+0x1c>
    80001b82:	6318                	ld	a4,0(a4)
    80001b84:	10e7b823          	sd	a4,272(a5)
    80001b88:	a7018713          	addi	a4,gp,-1424 # 80002128 <__atexit0>
    80001b8c:	471c                	lw	a5,8(a4)
    80001b8e:	487d                	li	a6,31
    80001b90:	557d                	li	a0,-1
    80001b92:	04f84763          	blt	a6,a5,80001be0 <__register_exitproc+0x74>
    80001b96:	02088d63          	beqz	a7,80001bd0 <__register_exitproc+0x64>
    80001b9a:	11073803          	ld	a6,272(a4)
    80001b9e:	04080163          	beqz	a6,80001be0 <__register_exitproc+0x74>
    80001ba2:	00379513          	slli	a0,a5,0x3
    80001ba6:	9542                	add	a0,a0,a6
    80001ba8:	e110                	sd	a2,0(a0)
    80001baa:	20082303          	lw	t1,512(a6)
    80001bae:	4605                	li	a2,1
    80001bb0:	00f6163b          	sllw	a2,a2,a5
    80001bb4:	00c36333          	or	t1,t1,a2
    80001bb8:	20682023          	sw	t1,512(a6)
    80001bbc:	10d53023          	sd	a3,256(a0)
    80001bc0:	4689                	li	a3,2
    80001bc2:	00d89763          	bne	a7,a3,80001bd0 <__register_exitproc+0x64>
    80001bc6:	20482683          	lw	a3,516(a6)
    80001bca:	8ed1                	or	a3,a3,a2
    80001bcc:	20d82223          	sw	a3,516(a6)
    80001bd0:	0017869b          	addiw	a3,a5,1
    80001bd4:	0789                	addi	a5,a5,2
    80001bd6:	078e                	slli	a5,a5,0x3
    80001bd8:	c714                	sw	a3,8(a4)
    80001bda:	973e                	add	a4,a4,a5
    80001bdc:	e30c                	sd	a1,0(a4)
    80001bde:	4501                	li	a0,0
    80001be0:	8082                	ret

0000000080001be2 <__call_exitprocs>:
    80001be2:	711d                	addi	sp,sp,-96
    80001be4:	f852                	sd	s4,48(sp)
    80001be6:	f456                	sd	s5,40(sp)
    80001be8:	f05a                	sd	s6,32(sp)
    80001bea:	ec5e                	sd	s7,24(sp)
    80001bec:	ec86                	sd	ra,88(sp)
    80001bee:	e8a2                	sd	s0,80(sp)
    80001bf0:	e4a6                	sd	s1,72(sp)
    80001bf2:	e0ca                	sd	s2,64(sp)
    80001bf4:	fc4e                	sd	s3,56(sp)
    80001bf6:	e862                	sd	s8,16(sp)
    80001bf8:	e466                	sd	s9,8(sp)
    80001bfa:	8aaa                	mv	s5,a0
    80001bfc:	8a2e                	mv	s4,a1
    80001bfe:	85018b13          	addi	s6,gp,-1968 # 80001f08 <__atexit>
    80001c02:	4b85                	li	s7,1
    80001c04:	000b3483          	ld	s1,0(s6)
    80001c08:	cc81                	beqz	s1,80001c20 <__call_exitprocs+0x3e>
    80001c0a:	4480                	lw	s0,8(s1)
    80001c0c:	1104b983          	ld	s3,272(s1)
    80001c10:	fff4091b          	addiw	s2,s0,-1
    80001c14:	040e                	slli	s0,s0,0x3
    80001c16:	00898cb3          	add	s9,s3,s0
    80001c1a:	9426                	add	s0,s0,s1
    80001c1c:	00095f63          	bgez	s2,80001c3a <__call_exitprocs+0x58>
    80001c20:	60e6                	ld	ra,88(sp)
    80001c22:	6446                	ld	s0,80(sp)
    80001c24:	64a6                	ld	s1,72(sp)
    80001c26:	6906                	ld	s2,64(sp)
    80001c28:	79e2                	ld	s3,56(sp)
    80001c2a:	7a42                	ld	s4,48(sp)
    80001c2c:	7aa2                	ld	s5,40(sp)
    80001c2e:	7b02                	ld	s6,32(sp)
    80001c30:	6be2                	ld	s7,24(sp)
    80001c32:	6c42                	ld	s8,16(sp)
    80001c34:	6ca2                	ld	s9,8(sp)
    80001c36:	6125                	addi	sp,sp,96
    80001c38:	8082                	ret
    80001c3a:	000a0c63          	beqz	s4,80001c52 <__call_exitprocs+0x70>
    80001c3e:	00099663          	bnez	s3,80001c4a <__call_exitprocs+0x68>
    80001c42:	397d                	addiw	s2,s2,-1
    80001c44:	1ce1                	addi	s9,s9,-8
    80001c46:	1461                	addi	s0,s0,-8
    80001c48:	bfd1                	j	80001c1c <__call_exitprocs+0x3a>
    80001c4a:	0f8cb783          	ld	a5,248(s9)
    80001c4e:	ff479ae3          	bne	a5,s4,80001c42 <__call_exitprocs+0x60>
    80001c52:	449c                	lw	a5,8(s1)
    80001c54:	6418                	ld	a4,8(s0)
    80001c56:	37fd                	addiw	a5,a5,-1
    80001c58:	03279963          	bne	a5,s2,80001c8a <__call_exitprocs+0xa8>
    80001c5c:	0124a423          	sw	s2,8(s1)
    80001c60:	d36d                	beqz	a4,80001c42 <__call_exitprocs+0x60>
    80001c62:	0084ac03          	lw	s8,8(s1)
    80001c66:	00098963          	beqz	s3,80001c78 <__call_exitprocs+0x96>
    80001c6a:	2009a783          	lw	a5,512(s3)
    80001c6e:	012b96bb          	sllw	a3,s7,s2
    80001c72:	8ff5                	and	a5,a5,a3
    80001c74:	2781                	sext.w	a5,a5
    80001c76:	ef89                	bnez	a5,80001c90 <__call_exitprocs+0xae>
    80001c78:	9702                	jalr	a4
    80001c7a:	4498                	lw	a4,8(s1)
    80001c7c:	000b3783          	ld	a5,0(s6)
    80001c80:	f98712e3          	bne	a4,s8,80001c04 <__call_exitprocs+0x22>
    80001c84:	faf48fe3          	beq	s1,a5,80001c42 <__call_exitprocs+0x60>
    80001c88:	bfb5                	j	80001c04 <__call_exitprocs+0x22>
    80001c8a:	00043423          	sd	zero,8(s0)
    80001c8e:	bfc9                	j	80001c60 <__call_exitprocs+0x7e>
    80001c90:	2049a783          	lw	a5,516(s3)
    80001c94:	ff8cb583          	ld	a1,-8(s9)
    80001c98:	8ff5                	and	a5,a5,a3
    80001c9a:	2781                	sext.w	a5,a5
    80001c9c:	e781                	bnez	a5,80001ca4 <__call_exitprocs+0xc2>
    80001c9e:	8556                	mv	a0,s5
    80001ca0:	9702                	jalr	a4
    80001ca2:	bfe1                	j	80001c7a <__call_exitprocs+0x98>
    80001ca4:	852e                	mv	a0,a1
    80001ca6:	9702                	jalr	a4
    80001ca8:	bfc9                	j	80001c7a <__call_exitprocs+0x98>

Disassembly of section .rodata:

0000000080001cb0 <__tbss_end+0x6>:
    80001cb0:	6148                	ld	a0,128(a0)
    80001cb2:	6472                	ld	s0,280(sp)
    80001cb4:	65726177          	.insn	4, 0x65726177
    80001cb8:	7220                	ld	s0,96(a2)
    80001cba:	7365                	lui	t1,0xffff9
    80001cbc:	6c75                	lui	s8,0x1d
    80001cbe:	2074                	fld	fa3,192(s0)
    80001cc0:	6425                	lui	s0,0x9
    80001cc2:	6420                	ld	s0,72(s0)
    80001cc4:	2073656f          	jal	a0,800386ca <__heap_end+0x156ca>
    80001cc8:	6f6e                	ld	t5,216(sp)
    80001cca:	2074                	fld	fa3,192(s0)
    80001ccc:	616d                	addi	sp,sp,240
    80001cce:	6374                	ld	a3,192(a4)
    80001cd0:	2068                	fld	fa0,192(s0)
    80001cd2:	6572                	ld	a0,280(sp)
    80001cd4:	6566                	ld	a0,88(sp)
    80001cd6:	6572                	ld	a0,280(sp)
    80001cd8:	636e                	ld	t1,216(sp)
    80001cda:	2065                	.insn	2, 0x2065
    80001cdc:	6176                	ld	sp,344(sp)
    80001cde:	756c                	ld	a1,232(a0)
    80001ce0:	2065                	.insn	2, 0x2065
    80001ce2:	6425                	lui	s0,0x9
    80001ce4:	000a                	c.slli	zero,0x2
	...
    80001cee:	0000                	unimp
    80001cf0:	6148                	ld	a0,128(a0)
    80001cf2:	6472                	ld	s0,280(sp)
    80001cf4:	65726177          	.insn	4, 0x65726177
    80001cf8:	7220                	ld	s0,96(a2)
    80001cfa:	7365                	lui	t1,0xffff9
    80001cfc:	6c75                	lui	s8,0x1d
    80001cfe:	2074                	fld	fa3,192(s0)
    80001d00:	6425                	lui	s0,0x9
    80001d02:	6920                	ld	s0,80(a0)
    80001d04:	6f632073          	csrs	0x6f6,t1
    80001d08:	7272                	ld	tp,312(sp)
    80001d0a:	6365                	lui	t1,0x19
    80001d0c:	2074                	fld	fa3,192(s0)
    80001d0e:	6f66                	ld	t5,88(sp)
    80001d10:	2072                	fld	ft0,280(sp)
    80001d12:	0a444347          	fmsub.d	ft6,fs0,ft4,ft1,rmm
    80001d16:	0000                	unimp
    80001d18:	2b302d23          	sw	s3,698(zero) # 2ba <__stack_align+0x2aa>
    80001d1c:	0020                	addi	s0,sp,8
    80001d1e:	0000                	unimp
    80001d20:	6c68                	ld	a0,216(s0)
    80001d22:	004c                	addi	a1,sp,4
    80001d24:	0000                	unimp
    80001d26:	0000                	unimp
    80001d28:	6665                	lui	a2,0x19
    80001d2a:	47464567          	.insn	4, 0x47464567
    80001d2e:	0000                	unimp
    80001d30:	3130                	fld	fa2,96(a0)
    80001d32:	3332                	fld	ft6,296(sp)
    80001d34:	3534                	fld	fa3,104(a0)
    80001d36:	3736                	fld	fa4,360(sp)
    80001d38:	3938                	fld	fa4,112(a0)
    80001d3a:	4241                	li	tp,16
    80001d3c:	46454443          	.insn	4, 0x46454443
	...
    80001d48:	3130                	fld	fa2,96(a0)
    80001d4a:	3332                	fld	ft6,296(sp)
    80001d4c:	3534                	fld	fa3,104(a0)
    80001d4e:	3736                	fld	fa4,360(sp)
    80001d50:	3938                	fld	fa4,112(a0)
    80001d52:	6261                	lui	tp,0x18
    80001d54:	66656463          	bltu	a0,t1,800023bc <_end+0x17c>
    80001d58:	0000                	unimp
    80001d5a:	0000                	unimp
    80001d5c:	ea8e                	sd	gp,336(sp)
    80001d5e:	ffff                	.insn	2, 0xffff
    80001d60:	eaa4                	sd	s1,80(a3)
    80001d62:	ffff                	.insn	2, 0xffff
    80001d64:	ea64                	sd	s1,208(a2)
    80001d66:	ffff                	.insn	2, 0xffff
    80001d68:	ea64                	sd	s1,208(a2)
    80001d6a:	ffff                	.insn	2, 0xffff
    80001d6c:	ea64                	sd	s1,208(a2)
    80001d6e:	ffff                	.insn	2, 0xffff
    80001d70:	ea64                	sd	s1,208(a2)
    80001d72:	ffff                	.insn	2, 0xffff
    80001d74:	eaa4                	sd	s1,80(a3)
    80001d76:	ffff                	.insn	2, 0xffff
    80001d78:	ea64                	sd	s1,208(a2)
    80001d7a:	ffff                	.insn	2, 0xffff
    80001d7c:	ea64                	sd	s1,208(a2)
    80001d7e:	ffff                	.insn	2, 0xffff
    80001d80:	ea64                	sd	s1,208(a2)
    80001d82:	ffff                	.insn	2, 0xffff
    80001d84:	ea64                	sd	s1,208(a2)
    80001d86:	ffff                	.insn	2, 0xffff
    80001d88:	ec04                	sd	s1,24(s0)
    80001d8a:	ffff                	.insn	2, 0xffff
    80001d8c:	eae6                	sd	s9,336(sp)
    80001d8e:	ffff                	.insn	2, 0xffff
    80001d90:	eba0                	sd	s0,80(a5)
    80001d92:	ffff                	.insn	2, 0xffff
    80001d94:	ea64                	sd	s1,208(a2)
    80001d96:	ffff                	.insn	2, 0xffff
    80001d98:	ea64                	sd	s1,208(a2)
    80001d9a:	ffff                	.insn	2, 0xffff
    80001d9c:	ec38                	sd	a4,88(s0)
    80001d9e:	ffff                	.insn	2, 0xffff
    80001da0:	ea64                	sd	s1,208(a2)
    80001da2:	ffff                	.insn	2, 0xffff
    80001da4:	eae6                	sd	s9,336(sp)
    80001da6:	ffff                	.insn	2, 0xffff
    80001da8:	ea64                	sd	s1,208(a2)
    80001daa:	ffff                	.insn	2, 0xffff
    80001dac:	ea64                	sd	s1,208(a2)
    80001dae:	ffff                	.insn	2, 0xffff
    80001db0:	eba8                	sd	a0,80(a5)
    80001db2:	ffff                	.insn	2, 0xffff
    80001db4:	0000                	unimp
	...

0000000080001db8 <argv>:
    80001db8:	1dc8                	addi	a0,sp,756
    80001dba:	8000                	.insn	2, 0x8000
	...

0000000080001dc8 <name>:
    80001dc8:	70696863          	bltu	s2,t1,800024d8 <_end+0x298>
    80001dcc:	6179                	addi	sp,sp,464
    80001dce:	6472                	ld	s0,280(sp)
	...

Disassembly of section .eh_frame:

0000000080001dd8 <.eh_frame>:
    80001dd8:	0010                	.insn	2, 0x0010
    80001dda:	0000                	unimp
    80001ddc:	0000                	unimp
    80001dde:	0000                	unimp
    80001de0:	00527a03          	.insn	4, 0x00527a03
    80001de4:	7c01                	lui	s8,0xfffe0
    80001de6:	0101                	addi	sp,sp,0
    80001de8:	00020d1b          	sext.w	s10,tp
    80001dec:	0010                	.insn	2, 0x0010
    80001dee:	0000                	unimp
    80001df0:	0018                	.insn	2, 0x0018
    80001df2:	0000                	unimp
    80001df4:	e20c                	sd	a1,0(a2)
    80001df6:	ffff                	.insn	2, 0xffff
    80001df8:	0144                	addi	s1,sp,132
    80001dfa:	0000                	unimp
    80001dfc:	0000                	unimp
	...

Disassembly of section .htif:

0000000080001e00 <tohost>:
	...

0000000080001e08 <fromhost>:
	...

Disassembly of section .data._impure_data:

0000000080001e10 <_impure_data>:
	...
    80001e18:	1f10                	addi	a2,sp,944
    80001e1a:	8000                	.insn	2, 0x8000
    80001e1c:	0000                	unimp
    80001e1e:	0000                	unimp
    80001e20:	1fc0                	addi	s0,sp,1012
    80001e22:	8000                	.insn	2, 0x8000
    80001e24:	0000                	unimp
    80001e26:	0000                	unimp
    80001e28:	2070                	fld	fa2,192(s0)
    80001e2a:	8000                	.insn	2, 0x8000
	...

Disassembly of section .data.__sglue:

0000000080001ea0 <__sglue>:
	...
    80001ea8:	00000003          	lb	zero,0(zero) # 0 <__boot_hart>
    80001eac:	0000                	unimp
    80001eae:	0000                	unimp
    80001eb0:	1f10                	addi	a2,sp,944
    80001eb2:	8000                	.insn	2, 0x8000
    80001eb4:	0000                	unimp
	...

Disassembly of section .sdata:

0000000080001eb8 <_impure_ptr>:
    80001eb8:	1e10                	addi	a2,sp,816
    80001eba:	8000                	.insn	2, 0x8000
    80001ebc:	0000                	unimp
	...

0000000080001ec0 <curbrk>:
    80001ec0:	2240                	fld	fs0,128(a2)
    80001ec2:	8000                	.insn	2, 0x8000
    80001ec4:	0000                	unimp
	...

0000000080001ec8 <environ>:
    80001ec8:	1f00                	addi	s0,sp,944
    80001eca:	8000                	.insn	2, 0x8000
    80001ecc:	0000                	unimp
	...

0000000080001ed0 <__atexit_dummy>:
    80001ed0:	1be2                	slli	s7,s7,0x38
    80001ed2:	8000                	.insn	2, 0x8000
    80001ed4:	0000                	unimp
	...

Disassembly of section .debug_info:

0000000000000000 <.debug_info>:
       0:	0368                	addi	a0,sp,396
       2:	0000                	unimp
       4:	0005                	c.nop	1
       6:	0801                	addi	a6,a6,0
       8:	0000                	unimp
       a:	0000                	unimp
       c:	6715                	lui	a4,0x5
       e:	0000                	unimp
      10:	0c00                	addi	s0,sp,528
      12:	0034                	addi	a3,sp,8
      14:	0000                	unimp
      16:	0000                	unimp
      18:	0000                	unimp
      1a:	002c                	addi	a1,sp,8
	...
      28:	0000                	unimp
      2a:	0102                	c.slli64	sp
      2c:	2e06                	fld	ft8,64(sp)
      2e:	0000                	unimp
      30:	0300                	addi	s0,sp,384
      32:	0000                	unimp
      34:	0000                	unimp
      36:	3d182b03          	lw	s6,977(a6)
      3a:	0000                	unimp
      3c:	0200                	addi	s0,sp,256
      3e:	0801                	addi	a6,a6,0
      40:	002c                	addi	a1,sp,8
      42:	0000                	unimp
      44:	0202                	c.slli64	tp
      46:	0d05                	addi	s10,s10,1
      48:	0001                	nop
      4a:	0200                	addi	s0,sp,256
      4c:	0702                	c.slli64	a4
      4e:	003a                	c.slli	zero,0xe
      50:	0000                	unimp
      52:	0416                	slli	s0,s0,0x5
      54:	6905                	lui	s2,0x1
      56:	746e                	ld	s0,248(sp)
      58:	0300                	addi	s0,sp,384
      5a:	004d                	c.nop	19
      5c:	0000                	unimp
      5e:	65194f03          	lbu	t5,1617(s2) # 1651 <__stack_align+0x1641>
      62:	0000                	unimp
      64:	0200                	addi	s0,sp,256
      66:	0704                	addi	s1,sp,896
      68:	0144                	addi	s1,sp,132
      6a:	0000                	unimp
      6c:	0802                	c.slli64	a6
      6e:	3105                	addiw	sp,sp,-31
      70:	0001                	nop
      72:	0200                	addi	s0,sp,256
      74:	0708                	addi	a0,sp,896
      76:	0000013f 00000a03 	.insn	8, 0x0a030000013f
      7e:	0300                	addi	s0,sp,384
      80:	1ae8                	addi	a0,sp,380
      82:	00000073          	ecall
      86:	00000203          	lb	tp,0(zero) # 0 <__boot_hart>
      8a:	0400                	addi	s0,sp,512
      8c:	1318                	addi	a4,sp,416
      8e:	0031                	c.nop	12
      90:	0000                	unimp
      92:	860a                	mv	a2,sp
      94:	0000                	unimp
      96:	0300                	addi	s0,sp,384
      98:	0000004f          	fnmadd.s	ft0,ft0,ft0,ft0,rne
      9c:	3004                	fld	fs1,32(s0)
      9e:	5914                	lw	a3,48(a0)
      a0:	0000                	unimp
      a2:	0a00                	addi	s0,sp,272
      a4:	00000097          	auipc	ra,0x0
      a8:	00000c03          	lb	s8,0(zero) # 0 <__boot_hart>
      ac:	0400                	addi	s0,sp,512
      ae:	1552                	slli	a0,a0,0x34
      b0:	007a                	c.slli	zero,0x1e
      b2:	0000                	unimp
      b4:	0606                	slli	a2,a2,0x1
      b6:	0001                	nop
      b8:	5200                	lw	s0,32(a2)
      ba:	0000                	unimp
      bc:	c300                	sw	s0,0(a4)
      be:	0000                	unimp
      c0:	0700                	addi	s0,sp,896
      c2:	1700                	addi	s0,sp,928
      c4:	0462                	slli	s0,s0,0x18
      c6:	0000                	unimp
      c8:	1301                	addi	t1,t1,-32 # 18fe0 <__stack_size+0x10fe0>
      ca:	5205                	li	tp,-31
      cc:	0000                	unimp
      ce:	3000                	fld	fs0,32(s0)
      d0:	0002                	c.slli64	zero
      d2:	0080                	addi	s0,sp,64
      d4:	0000                	unimp
      d6:	a000                	fsd	fs0,0(s0)
      d8:	0000                	unimp
      da:	0000                	unimp
      dc:	0000                	unimp
      de:	0100                	addi	s0,sp,128
      e0:	9a9c                	.insn	2, 0x9a9c
      e2:	0002                	c.slli64	zero
      e4:	1800                	addi	s0,sp,48
      e6:	0058                	addi	a4,sp,4
      e8:	0000                	unimp
      ea:	1501                	addi	a0,a0,-32
      ec:	970c                	.insn	2, 0x970c
      ee:	0000                	unimp
      f0:	0c00                	addi	s0,sp,528
      f2:	0000                	unimp
      f4:	1900                	addi	s0,sp,176
      f6:	6572                	ld	a0,280(sp)
      f8:	0066                	c.slli	zero,0x19
      fa:	1501                	addi	a0,a0,-32
      fc:	9714                	.insn	2, 0x9714
      fe:	0000                	unimp
     100:	2000                	fld	fs0,0(s0)
     102:	0000                	unimp
     104:	0b00                	addi	s0,sp,400
     106:	0078                	addi	a4,sp,12
     108:	9719                	srai	a4,a4,0x26
     10a:	0000                	unimp
     10c:	1400                	addi	s0,sp,544
     10e:	2100790b          	.insn	4, 0x2100790b
     112:	00000097          	auipc	ra,0x0
     116:	0106060f          	.insn	4, 0x0106060f
     11a:	0000                	unimp
     11c:	0052                	c.slli	zero,0x14
     11e:	0000                	unimp
     120:	0126                	slli	sp,sp,0x9
     122:	0000                	unimp
     124:	9c1a0007          	.insn	4, 0x9c1a0007
     128:	0002                	c.slli64	zero
     12a:	0080                	addi	s0,sp,64
     12c:	0000                	unimp
     12e:	1000                	addi	s0,sp,32
     130:	0000                	unimp
     132:	0000                	unimp
     134:	0000                	unimp
     136:	6600                	ld	s0,8(a2)
     138:	0001                	nop
     13a:	0600                	addi	s0,sp,768
     13c:	0106                	slli	sp,sp,0x1
     13e:	0000                	unimp
     140:	0052                	c.slli	zero,0x14
     142:	0000                	unimp
     144:	014a                	slli	sp,sp,0x12
     146:	0000                	unimp
     148:	a80c0007          	.insn	4, 0xa80c0007
     14c:	0002                	c.slli64	zero
     14e:	0080                	addi	s0,sp,64
     150:	0000                	unimp
     152:	b400                	fsd	fs0,40(s0)
     154:	0000                	unimp
     156:	0d00                	addi	s0,sp,656
     158:	5a01                	li	s4,-32
     15a:	0309                	addi	t1,t1,2
     15c:	1cb0                	addi	a2,sp,632
     15e:	8000                	.insn	2, 0x8000
     160:	0000                	unimp
     162:	0000                	unimp
     164:	0000                	unimp
     166:	160e                	slli	a2,a2,0x23
     168:	38000003          	lb	zero,896(zero) # 380 <__stack_align+0x370>
     16c:	0002                	c.slli64	zero
     16e:	0080                	addi	s0,sp,64
     170:	0000                	unimp
     172:	0c00                	addi	s0,sp,528
     174:	0000                	unimp
     176:	1800                	addi	s0,sp,48
     178:	018d                	addi	gp,gp,3 # 800026bb <__global_pointer$+0x3>
     17a:	0000                	unimp
     17c:	0003250f          	.insn	4, 0x0003250f
     180:	1000                	addi	s0,sp,32
     182:	000c                	.insn	2, 0x000c
     184:	0000                	unimp
     186:	3011                	.insn	2, 0x3011
     188:	00000003          	lb	zero,0(zero) # 0 <__boot_hart>
     18c:	0400                	addi	s0,sp,512
     18e:	000002e7          	jalr	t0,zero # 0 <__boot_hart>
     192:	0248                	addi	a0,sp,260
     194:	8000                	.insn	2, 0x8000
     196:	0000                	unimp
     198:	0000                	unimp
     19a:	000c                	.insn	2, 0x000c
     19c:	0000                	unimp
     19e:	0000                	unimp
     1a0:	0000                	unimp
     1a2:	031a                	slli	t1,t1,0x6
     1a4:	01c4                	addi	s1,sp,196
     1a6:	0000                	unimp
     1a8:	ff01                	bnez	a4,c0 <__stack_align+0xb0>
     1aa:	0002                	c.slli64	zero
     1ac:	3400                	fld	fs0,40(s0)
     1ae:	0000                	unimp
     1b0:	0100                	addi	s0,sp,128
     1b2:	02f4                	addi	a3,sp,332
     1b4:	0000                	unimp
     1b6:	0042                	c.slli	zero,0x10
     1b8:	0000                	unimp
     1ba:	0a08                	addi	a0,sp,272
     1bc:	42000003          	lb	zero,1056(zero) # 420 <__stack_align+0x410>
     1c0:	0000                	unimp
     1c2:	0000                	unimp
     1c4:	e704                	sd	s1,8(a4)
     1c6:	0002                	c.slli64	zero
     1c8:	5400                	lw	s0,40(s0)
     1ca:	0002                	c.slli64	zero
     1cc:	0080                	addi	s0,sp,64
     1ce:	0000                	unimp
     1d0:	0c00                	addi	s0,sp,528
     1d2:	0000                	unimp
     1d4:	0000                	unimp
     1d6:	0000                	unimp
     1d8:	1b00                	addi	s0,sp,432
     1da:	0001fb03          	.insn	4, 0x0001fb03
     1de:	0100                	addi	s0,sp,128
     1e0:	02ff 0000 0052 0000 	.insn	10, 0xf40100000052000002ff
     1e8:	f401 
     1ea:	0002                	c.slli64	zero
     1ec:	6000                	ld	s0,0(s0)
     1ee:	0000                	unimp
     1f0:	0800                	addi	s0,sp,16
     1f2:	030a                	slli	t1,t1,0x2
     1f4:	0000                	unimp
     1f6:	0060                	addi	s0,sp,12
     1f8:	0000                	unimp
     1fa:	0e00                	addi	s0,sp,784
     1fc:	0316                	slli	t1,t1,0x5
     1fe:	0000                	unimp
     200:	0260                	addi	s0,sp,268
     202:	8000                	.insn	2, 0x8000
     204:	0000                	unimp
     206:	0000                	unimp
     208:	001c                	.insn	2, 0x001c
     20a:	0000                	unimp
     20c:	221f 0002 0f00      	.insn	6, 0x0f000002221f
     212:	0325                	addi	t1,t1,9
     214:	0000                	unimp
     216:	1c10                	addi	a2,sp,560
     218:	0000                	unimp
     21a:	1100                	addi	s0,sp,160
     21c:	0330                	addi	a2,sp,392
     21e:	0000                	unimp
     220:	0000                	unimp
     222:	bc04                	fsd	fs1,56(s0)
     224:	0002                	c.slli64	zero
     226:	7000                	ld	s0,32(s0)
     228:	0002                	c.slli64	zero
     22a:	0080                	addi	s0,sp,64
     22c:	0000                	unimp
     22e:	1400                	addi	s0,sp,544
     230:	0000                	unimp
     232:	0000                	unimp
     234:	0000                	unimp
     236:	2100                	fld	fs0,0(a0)
     238:	500c                	lw	a1,32(s0)
     23a:	0002                	c.slli64	zero
     23c:	0100                	addi	s0,sp,128
     23e:	000002cb          	fnmsub.s	ft5,ft0,ft0,ft0,rne
     242:	0070                	addi	a2,sp,12
     244:	0000                	unimp
     246:	d608                	sw	a0,40(a2)
     248:	0002                	c.slli64	zero
     24a:	7000                	ld	s0,32(s0)
     24c:	0000                	unimp
     24e:	0000                	unimp
     250:	9a04                	.insn	2, 0x9a04
     252:	0002                	c.slli64	zero
     254:	8400                	.insn	2, 0x8400
     256:	0002                	c.slli64	zero
     258:	0080                	addi	s0,sp,64
     25a:	0000                	unimp
     25c:	1400                	addi	s0,sp,544
     25e:	0000                	unimp
     260:	0000                	unimp
     262:	0000                	unimp
     264:	2200                	fld	fs0,0(a2)
     266:	7e09                	lui	t3,0xfffe2
     268:	0002                	c.slli64	zero
     26a:	0100                	addi	s0,sp,128
     26c:	000002b3          	add	t0,zero,zero
     270:	0080                	addi	s0,sp,64
     272:	0000                	unimp
     274:	ab01                	j	784 <__stack_align+0x774>
     276:	0002                	c.slli64	zero
     278:	8d00                	.insn	2, 0x8d00
     27a:	0000                	unimp
     27c:	0000                	unimp
     27e:	c80c                	sw	a1,16(s0)
     280:	0002                	c.slli64	zero
     282:	0080                	addi	s0,sp,64
     284:	0000                	unimp
     286:	b400                	fsd	fs0,40(s0)
     288:	0000                	unimp
     28a:	0d00                	addi	s0,sp,656
     28c:	5a01                	li	s4,-32
     28e:	0309                	addi	t1,t1,2
     290:	1cf0                	addi	a2,sp,636
     292:	8000                	.insn	2, 0x8000
     294:	0000                	unimp
     296:	0000                	unimp
     298:	0000                	unimp
     29a:	00005f1b          	srliw	t5,zero,0x0
     29e:	0100                	addi	s0,sp,128
     2a0:	0e08                	addi	a0,sp,784
     2a2:	0065                	c.nop	25
     2a4:	0000                	unimp
     2a6:	bc01                	j	fffffffffffffcb6 <__heap_end+0xffffffff7ffdccb6>
     2a8:	0002                	c.slli64	zero
     2aa:	1200                	addi	s0,sp,288
     2ac:	0078                	addi	a4,sp,12
     2ae:	00006523          	.insn	4, 0x6523
     2b2:	1200                	addi	s0,sp,288
     2b4:	0079                	c.nop	30
     2b6:	00006533          	or	a0,zero,zero
     2ba:	0000                	unimp
     2bc:	00011713          	slli	a4,sp,0x0
     2c0:	2400                	fld	fs0,8(s0)
     2c2:	9718                	.insn	2, 0x9718
     2c4:	0000                	unimp
     2c6:	e200                	sd	s0,0(a2)
     2c8:	0002                	c.slli64	zero
     2ca:	0500                	addi	s0,sp,640
     2cc:	0022                	c.slli	zero,0x8
     2ce:	0000                	unimp
     2d0:	2d24                	fld	fs1,88(a0)
     2d2:	00a8                	addi	a0,sp,72
     2d4:	0000                	unimp
     2d6:	7009                	c.lui	zero,0xfffe2
     2d8:	7274                	ld	a3,224(a2)
     2da:	2600                	fld	fs0,8(a2)
     2dc:	e215                	bnez	a2,300 <__stack_align+0x2f0>
     2de:	0002                	c.slli64	zero
     2e0:	0000                	unimp
     2e2:	a314                	fsd	fa3,0(a4)
     2e4:	0000                	unimp
     2e6:	1c00                	addi	s0,sp,560
     2e8:	0016                	c.slli	zero,0x5
     2ea:	0000                	unimp
     2ec:	1e02                	slli	t3,t3,0x20
     2ee:	0314                	addi	a3,sp,384
     2f0:	0316                	slli	t1,t1,0x5
     2f2:	0000                	unimp
     2f4:	2205                	addiw	tp,tp,1 # 18001 <__stack_size+0x10001>
     2f6:	0000                	unimp
     2f8:	1e00                	addi	s0,sp,816
     2fa:	a82a                	fsd	fa0,16(sp)
     2fc:	0000                	unimp
     2fe:	0500                	addi	s0,sp,640
     300:	00000027          	.insn	4, 0x0027
     304:	391e                	fld	fs2,480(sp)
     306:	00000097          	auipc	ra,0x0
     30a:	7009                	c.lui	zero,0xfffe2
     30c:	7274                	ld	a3,224(a2)
     30e:	2000                	fld	fs0,0(s0)
     310:	e215                	bnez	a2,334 <__stack_align+0x324>
     312:	0002                	c.slli64	zero
     314:	0000                	unimp
     316:	00012213          	slti	tp,sp,0
     31a:	0c00                	addi	s0,sp,528
     31c:	00008617          	auipc	a2,0x8
     320:	3c00                	fld	fs0,56(s0)
     322:	05000003          	lb	zero,80(zero) # 50 <__stack_align+0x40>
     326:	0022                	c.slli	zero,0x8
     328:	0000                	unimp
     32a:	2b0c                	fld	fa1,16(a4)
     32c:	00a8                	addi	a0,sp,72
     32e:	0000                	unimp
     330:	7009                	c.lui	zero,0xfffe2
     332:	7274                	ld	a3,224(a2)
     334:	0e00                	addi	s0,sp,784
     336:	3c14                	fld	fa3,56(s0)
     338:	00000003          	lb	zero,0(zero) # 0 <__boot_hart>
     33c:	9214                	.insn	2, 0x9214
     33e:	0000                	unimp
     340:	1d00                	addi	s0,sp,688
     342:	029a                	slli	t0,t0,0x6
     344:	0000                	unimp
     346:	02d0                	addi	a2,sp,324
     348:	8000                	.insn	2, 0x8000
     34a:	0000                	unimp
     34c:	0000                	unimp
     34e:	001c                	.insn	2, 0x001c
     350:	0000                	unimp
     352:	0000                	unimp
     354:	0000                	unimp
     356:	9c01                	subw	s0,s0,s0
     358:	ab01                	j	868 <__stack_align+0x858>
     35a:	0002                	c.slli64	zero
     35c:	9a00                	.insn	2, 0x9a00
     35e:	0000                	unimp
     360:	0100                	addi	s0,sp,128
     362:	000002b3          	add	t0,zero,zero
     366:	00ae                	slli	ra,ra,0xb
     368:	0000                	unimp
     36a:	0000                	unimp
     36c:	00cd                	addi	ra,ra,19 # 319 <__stack_align+0x309>
     36e:	0000                	unimp
     370:	0005                	c.nop	1
     372:	0801                	addi	a6,a6,0
     374:	000001a7          	.insn	4, 0x01a7
     378:	5d02                	lw	s10,32(sp)
     37a:	0001                	nop
     37c:	1d00                	addi	s0,sp,688
     37e:	01da                	slli	gp,gp,0x16
     380:	0000                	unimp
     382:	0192                	slli	gp,gp,0x4
     384:	0000                	unimp
     386:	1948                	addi	a0,sp,180
     388:	8000                	.insn	2, 0x8000
     38a:	0000                	unimp
     38c:	0000                	unimp
     38e:	0014                	.insn	2, 0x0014
     390:	0000                	unimp
     392:	0000                	unimp
     394:	0000                	unimp
     396:	02d5                	addi	t0,t0,21
     398:	0000                	unimp
     39a:	69050403          	lb	s0,1680(a0)
     39e:	746e                	ld	s0,248(sp)
     3a0:	0100                	addi	s0,sp,128
     3a2:	0508                	addi	a0,sp,640
     3a4:	0131                	addi	sp,sp,12
     3a6:	0000                	unimp
     3a8:	0801                	addi	a6,a6,0
     3aa:	00013f07          	fld	ft10,0(sp)
     3ae:	0100                	addi	s0,sp,128
     3b0:	0508                	addi	a0,sp,640
     3b2:	012c                	addi	a1,sp,136
     3b4:	0000                	unimp
     3b6:	1001                	c.nop	-32
     3b8:	f304                	sd	s1,32(a4)
     3ba:	0001                	nop
     3bc:	0100                	addi	s0,sp,128
     3be:	0704                	addi	s1,sp,896
     3c0:	0144                	addi	s1,sp,132
     3c2:	0000                	unimp
     3c4:	0101                	addi	sp,sp,0
     3c6:	2e06                	fld	ft8,64(sp)
     3c8:	0000                	unimp
     3ca:	0100                	addi	s0,sp,128
     3cc:	0801                	addi	a6,a6,0
     3ce:	002c                	addi	a1,sp,8
     3d0:	0000                	unimp
     3d2:	0201                	addi	tp,tp,0 # 0 <__boot_hart>
     3d4:	0d05                	addi	s10,s10,1
     3d6:	0001                	nop
     3d8:	0100                	addi	s0,sp,128
     3da:	0702                	c.slli64	a4
     3dc:	003a                	c.slli	zero,0xe
     3de:	0000                	unimp
     3e0:	0101                	addi	sp,sp,0
     3e2:	3508                	fld	fa0,40(a0)
     3e4:	0000                	unimp
     3e6:	0100                	addi	s0,sp,128
     3e8:	0708                	addi	a0,sp,896
     3ea:	013a                	slli	sp,sp,0xe
     3ec:	0000                	unimp
     3ee:	eb04                	sd	s1,16(a4)
     3f0:	0001                	nop
     3f2:	0200                	addi	s0,sp,256
     3f4:	008e0d13          	addi	s10,t3,8 # fffffffffffe2008 <__heap_end+0xffffffff7ffbf008>
     3f8:	0000                	unimp
     3fa:	0805                	addi	a6,a6,1
     3fc:	002e                	c.slli	zero,0xb
     3fe:	0000                	unimp
     400:	5106                	lw	sp,96(sp)
     402:	0001                	nop
     404:	0100                	addi	s0,sp,128
     406:	0504                	addi	s1,sp,640
     408:	002e                	c.slli	zero,0xb
     40a:	0000                	unimp
     40c:	1948                	addi	a0,sp,180
     40e:	8000                	.insn	2, 0x8000
     410:	0000                	unimp
     412:	0000                	unimp
     414:	0014                	.insn	2, 0x0014
     416:	0000                	unimp
     418:	0000                	unimp
     41a:	0000                	unimp
     41c:	9c01                	subw	s0,s0,s0
     41e:	00015807          	.insn	4, 0x00015807
     422:	0100                	addi	s0,sp,128
     424:	1004                	addi	s1,sp,32
     426:	002e                	c.slli	zero,0xb
     428:	0000                	unimp
     42a:	00ce                	slli	ra,ra,0x13
     42c:	0000                	unimp
     42e:	5008                	lw	a0,32(s0)
     430:	0019                	c.nop	6
     432:	0080                	addi	s0,sp,64
     434:	0000                	unimp
     436:	8200                	.insn	2, 0x8200
     438:	0000                	unimp
     43a:	0000                	unimp
     43c:	da00                	sw	s0,48(a2)
     43e:	0002                	c.slli64	zero
     440:	0500                	addi	s0,sp,640
     442:	0100                	addi	s0,sp,128
     444:	2408                	fld	fa0,8(s0)
     446:	0002                	c.slli64	zero
     448:	0600                	addi	s0,sp,768
     44a:	015d                	addi	sp,sp,23
     44c:	0000                	unimp
     44e:	f81d                	bnez	s0,384 <__stack_align+0x374>
     450:	0001                	nop
     452:	9200                	.insn	2, 0x9200
     454:	0001                	nop
     456:	5c00                	lw	s0,56(s0)
     458:	0019                	c.nop	6
     45a:	0080                	addi	s0,sp,64
     45c:	0000                	unimp
     45e:	1400                	addi	s0,sp,544
     460:	0000                	unimp
     462:	0000                	unimp
     464:	0000                	unimp
     466:	6b00                	ld	s0,16(a4)
     468:	07000003          	lb	zero,112(zero) # 70 <__stack_align+0x60>
     46c:	0504                	addi	s1,sp,640
     46e:	6e69                	lui	t3,0x1a
     470:	0074                	addi	a3,sp,12
     472:	31050803          	lb	a6,784(a0)
     476:	0001                	nop
     478:	0300                	addi	s0,sp,384
     47a:	0708                	addi	a0,sp,896
     47c:	0000013f 2c050803 	.insn	8, 0x2c0508030000013f
     484:	0001                	nop
     486:	0300                	addi	s0,sp,384
     488:	0410                	addi	a2,sp,512
     48a:	000001f3          	.insn	4, 0x01f3
     48e:	44070403          	lb	s0,1088(a4) # 5440 <__stack_align+0x5430>
     492:	0001                	nop
     494:	0300                	addi	s0,sp,384
     496:	0601                	addi	a2,a2,0 # 831c <__stack_size+0x31c>
     498:	002e                	c.slli	zero,0xb
     49a:	0000                	unimp
     49c:	2c080103          	lb	sp,704(a6)
     4a0:	0000                	unimp
     4a2:	0300                	addi	s0,sp,384
     4a4:	0502                	c.slli64	a0
     4a6:	010d                	addi	sp,sp,3
     4a8:	0000                	unimp
     4aa:	3a070203          	lb	tp,928(a4)
     4ae:	0000                	unimp
     4b0:	0100                	addi	s0,sp,128
     4b2:	004d                	c.nop	19
     4b4:	0000                	unimp
     4b6:	4f02                	lw	t5,0(sp)
     4b8:	5119                	li	sp,-26
     4ba:	0000                	unimp
     4bc:	0100                	addi	s0,sp,128
     4be:	0000028b          	.insn	4, 0x028b
     4c2:	350e1e03          	lh	t3,848(t3) # 1a350 <__stack_size+0x12350>
     4c6:	0000                	unimp
     4c8:	0100                	addi	s0,sp,128
     4ca:	027f 0000 2203 350e 	.insn	10, 0x350e22030000027f
     4d2:	0000 
     4d4:	0100                	addi	s0,sp,128
     4d6:	02ae                	slli	t0,t0,0xb
     4d8:	0000                	unimp
     4da:	350e2e03          	lw	t3,848(t3)
     4de:	0000                	unimp
     4e0:	0100                	addi	s0,sp,128
     4e2:	0244                	addi	s1,sp,260
     4e4:	0000                	unimp
     4e6:	660f3803          	ld	a6,1632(t5)
     4ea:	0000                	unimp
     4ec:	0100                	addi	s0,sp,128
     4ee:	01ff 0000 3c03 6d18 	.insn	10, 0x6d183c03000001ff
     4f6:	0000 
     4f8:	0100                	addi	s0,sp,128
     4fa:	02a5                	addi	t0,t0,9
     4fc:	0000                	unimp
     4fe:	6d183f03          	ld	t5,1745(a6)
     502:	0000                	unimp
     504:	0100                	addi	s0,sp,128
     506:	02d5                	addi	t0,t0,21
     508:	0000                	unimp
     50a:	6d184b03          	lbu	s6,1745(a6)
     50e:	0000                	unimp
     510:	0100                	addi	s0,sp,128
     512:	02cc                	addi	a1,sp,324
     514:	0000                	unimp
     516:	74145a03          	lhu	s4,1857(s0) # 9741 <__stack_size+0x1741>
     51a:	0000                	unimp
     51c:	0100                	addi	s0,sp,128
     51e:	02ad                	addi	t0,t0,11
     520:	0000                	unimp
     522:	98106603          	lwu	a2,-1663(zero) # fffffffffffff981 <__heap_end+0xffffffff7ffdc981>
     526:	0000                	unimp
     528:	0100                	addi	s0,sp,128
     52a:	026d                	addi	tp,tp,27 # 1b <__stack_align+0xb>
     52c:	0000                	unimp
     52e:	6d18d503          	lhu	a0,1745(a7)
     532:	0000                	unimp
     534:	0300                	addi	s0,sp,384
     536:	0801                	addi	a6,a6,0
     538:	0035                	c.nop	13
     53a:	0000                	unimp
     53c:	3a070803          	lb	a6,928(a4)
     540:	0001                	nop
     542:	0100                	addi	s0,sp,128
     544:	028d                	addi	t0,t0,3
     546:	0000                	unimp
     548:	6104                	ld	s1,0(a0)
     54a:	8014                	.insn	2, 0x8014
     54c:	0000                	unimp
     54e:	0100                	addi	s0,sp,128
     550:	0281                	addi	t0,t0,0
     552:	0000                	unimp
     554:	6604                	ld	s1,8(a2)
     556:	8c15                	sub	s0,s0,a3
     558:	0000                	unimp
     55a:	0100                	addi	s0,sp,128
     55c:	0266                	slli	tp,tp,0x19
     55e:	0000                	unimp
     560:	7104                	ld	s1,32(a0)
     562:	3512                	fld	fa0,288(sp)
     564:	0000                	unimp
     566:	0100                	addi	s0,sp,128
     568:	000002d7          	.insn	4, 0x02d7
     56c:	8904                	.insn	2, 0x8904
     56e:	c812                	sw	tp,16(sp)
     570:	0000                	unimp
     572:	0100                	addi	s0,sp,128
     574:	000002af          	.insn	4, 0x02af
     578:	9b04                	.insn	2, 0x9b04
     57a:	e012                	sd	tp,0(sp)
     57c:	0000                	unimp
     57e:	0100                	addi	s0,sp,128
     580:	0246                	slli	tp,tp,0x11
     582:	0000                	unimp
     584:	9f04                	.insn	2, 0x9f04
     586:	a412                	fsd	ft4,8(sp)
     588:	0000                	unimp
     58a:	0100                	addi	s0,sp,128
     58c:	0201                	addi	tp,tp,0 # 0 <__boot_hart>
     58e:	0000                	unimp
     590:	a304                	fsd	fs1,0(a4)
     592:	b012                	fsd	ft4,32(sp)
     594:	0000                	unimp
     596:	0100                	addi	s0,sp,128
     598:	000002a7          	.insn	4, 0x02a7
     59c:	a704                	fsd	fs1,8(a4)
     59e:	bc12                	fsd	ft4,56(sp)
     5a0:	0000                	unimp
     5a2:	0100                	addi	s0,sp,128
     5a4:	02ce                	slli	t0,t0,0x13
     5a6:	0000                	unimp
     5a8:	bb04                	fsd	fs1,48(a4)
     5aa:	d412                	sw	tp,40(sp)
     5ac:	0000                	unimp
     5ae:	0100                	addi	s0,sp,128
     5b0:	0000026f          	jal	tp,5b0 <__stack_align+0x5a0>
     5b4:	c004                	sw	s1,0(s0)
     5b6:	0000ec13          	ori	s8,ra,0
     5ba:	0400                	addi	s0,sp,512
     5bc:	02bc                	addi	a5,sp,328
     5be:	0000                	unimp
     5c0:	0510                	addi	a2,sp,640
     5c2:	0001a52f          	amoadd.w	a0,zero,(gp)
     5c6:	0200                	addi	s0,sp,256
     5c8:	02b5                	addi	t0,t0,13
     5ca:	0000                	unimp
     5cc:	3005                	.insn	2, 0x3005
     5ce:	1e09                	addi	t3,t3,-30
     5d0:	0001                	nop
     5d2:	0000                	unimp
     5d4:	1002                	c.slli	zero,0x20
     5d6:	0002                	c.slli64	zero
     5d8:	0500                	addi	s0,sp,640
     5da:	0731                	addi	a4,a4,12
     5dc:	0035                	c.nop	13
     5de:	0000                	unimp
     5e0:	0008                	.insn	2, 0x0008
     5e2:	c704                	sw	s1,8(a4)
     5e4:	0002                	c.slli64	zero
     5e6:	6800                	ld	s0,16(s0)
     5e8:	1b06                	slli	s6,s6,0x21
     5ea:	0268                	addi	a0,sp,268
     5ec:	0000                	unimp
     5ee:	dd02                	sw	zero,184(sp)
     5f0:	0002                	c.slli64	zero
     5f2:	0600                	addi	s0,sp,768
     5f4:	0a1d                	addi	s4,s4,7
     5f6:	0142                	slli	sp,sp,0x10
     5f8:	0000                	unimp
     5fa:	0200                	addi	s0,sp,256
     5fc:	0228                	addi	a0,sp,264
     5fe:	0000                	unimp
     600:	1e06                	slli	t3,t3,0x21
     602:	2a0a                	fld	fs4,128(sp)
     604:	0001                	nop
     606:	0200                	addi	s0,sp,256
     608:	5602                	lw	a2,32(sp)
     60a:	0002                	c.slli64	zero
     60c:	0600                	addi	s0,sp,768
     60e:	0a1f 0166 0000      	.insn	6, 0x01660a1f
     614:	0204                	addi	s1,sp,256
     616:	00000207          	.insn	4, 0x0207
     61a:	2006                	fld	ft0,64(sp)
     61c:	0001720b          	.insn	4, 0x0001720b
     620:	0800                	addi	s0,sp,16
     622:	9e02                	jalr	t3
     624:	0002                	c.slli64	zero
     626:	0600                	addi	s0,sp,768
     628:	0a21                	addi	s4,s4,8
     62a:	014e                	slli	sp,sp,0x13
     62c:	0000                	unimp
     62e:	020a                	slli	tp,tp,0x2
     630:	02e4                	addi	s1,sp,332
     632:	0000                	unimp
     634:	2206                	fld	ft4,64(sp)
     636:	5a0a                	lw	s4,160(sp)
     638:	0001                	nop
     63a:	0c00                	addi	s0,sp,528
     63c:	7702                	ld	a4,32(sp)
     63e:	0002                	c.slli64	zero
     640:	0600                	addi	s0,sp,768
     642:	01420a23          	sb	s4,20(tp) # 14 <__stack_align+0x4>
     646:	0000                	unimp
     648:	020e                	slli	tp,tp,0x3
     64a:	0218                	addi	a4,sp,256
     64c:	0000                	unimp
     64e:	2406                	fld	fs0,64(sp)
     650:	360a                	fld	fa2,160(sp)
     652:	0001                	nop
     654:	1000                	addi	s0,sp,32
     656:	5e02                	lw	t3,32(sp)
     658:	0002                	c.slli64	zero
     65a:	0600                	addi	s0,sp,768
     65c:	132a                	slli	t1,t1,0x2a
     65e:	017e                	slli	sp,sp,0x1f
     660:	0000                	unimp
     662:	0218                	addi	a4,sp,256
     664:	0220                	addi	s0,sp,264
     666:	0000                	unimp
     668:	2b06                	fld	fs6,64(sp)
     66a:	00017e13          	andi	t3,sp,0
     66e:	2800                	fld	fs0,16(s0)
     670:	9602                	jalr	a2
     672:	0002                	c.slli64	zero
     674:	0600                	addi	s0,sp,768
     676:	132c                	addi	a1,sp,424
     678:	017e                	slli	sp,sp,0x1f
     67a:	0000                	unimp
     67c:	0238                	addi	a4,sp,264
     67e:	0000022f          	.insn	4, 0x022f
     682:	2d06                	fld	fs10,64(sp)
     684:	1211                	addi	tp,tp,-28 # ffffffffffffffe4 <__heap_end+0xffffffff7ffdcfe4>
     686:	0001                	nop
     688:	4800                	lw	s0,16(s0)
     68a:	4c02                	lw	s8,0(sp)
     68c:	0002                	c.slli64	zero
     68e:	0600                	addi	s0,sp,768
     690:	0c2e                	slli	s8,s8,0xb
     692:	0106                	slli	sp,sp,0x1
     694:	0000                	unimp
     696:	0250                	addi	a2,sp,260
     698:	023a                	slli	tp,tp,0xe
     69a:	0000                	unimp
     69c:	3006                	fld	ft0,96(sp)
     69e:	6809                	lui	a6,0x2
     6a0:	0002                	c.slli64	zero
     6a2:	5800                	lw	s0,48(s0)
     6a4:	0800                	addi	s0,sp,16
     6a6:	0035                	c.nop	13
     6a8:	0000                	unimp
     6aa:	0278                	addi	a4,sp,268
     6ac:	0000                	unimp
     6ae:	3c09                	addiw	s8,s8,-30 # fffffffffffdffe2 <__heap_end+0xffffffff7ffbcfe2>
     6b0:	0000                	unimp
     6b2:	0100                	addi	s0,sp,128
     6b4:	0a00                	addi	s0,sp,272
     6b6:	000001eb          	.insn	4, 0x01eb
     6ba:	840d1307          	.insn	4, 0x840d1307
     6be:	0002                	c.slli64	zero
     6c0:	0500                	addi	s0,sp,640
     6c2:	002e                	c.slli	zero,0xb
     6c4:	0000                	unimp
     6c6:	0002c50b          	.insn	4, 0x0002c50b
     6ca:	0100                	addi	s0,sp,128
     6cc:	0505                	addi	a0,a0,1
     6ce:	002e                	c.slli	zero,0xb
     6d0:	0000                	unimp
     6d2:	195c                	addi	a5,sp,180
     6d4:	8000                	.insn	2, 0x8000
     6d6:	0000                	unimp
     6d8:	0000                	unimp
     6da:	0014                	.insn	2, 0x0014
     6dc:	0000                	unimp
     6de:	0000                	unimp
     6e0:	0000                	unimp
     6e2:	9c01                	subw	s0,s0,s0
     6e4:	02d8                	addi	a4,sp,324
     6e6:	0000                	unimp
     6e8:	580c                	lw	a1,48(s0)
     6ea:	0001                	nop
     6ec:	0100                	addi	s0,sp,128
     6ee:	1005                	c.nop	-31
     6f0:	002e                	c.slli	zero,0xb
     6f2:	0000                	unimp
     6f4:	00e8                	addi	a0,sp,76
     6f6:	0000                	unimp
     6f8:	730d                	lui	t1,0xfffe3
     6fa:	0074                	addi	a3,sp,12
     6fc:	0501                	addi	a0,a0,0
     6fe:	0002d823          	.insn	4, 0x0002d823
     702:	f600                	sd	s0,40(a2)
     704:	0000                	unimp
     706:	0e00                	addi	s0,sp,784
     708:	1964                	addi	s1,sp,188
     70a:	8000                	.insn	2, 0x8000
     70c:	0000                	unimp
     70e:	0000                	unimp
     710:	0278                	addi	a4,sp,268
     712:	0000                	unimp
     714:	0500                	addi	s0,sp,640
     716:	01a5                	addi	gp,gp,9 # 800026c1 <__global_pointer$+0x9>
     718:	0000                	unimp
     71a:	a700                	fsd	fs0,8(a4)
     71c:	0000                	unimp
     71e:	0500                	addi	s0,sp,640
     720:	0100                	addi	s0,sp,128
     722:	f908                	sd	a0,48(a0)
     724:	0002                	c.slli64	zero
     726:	0200                	addi	s0,sp,256
     728:	015d                	addi	sp,sp,23
     72a:	0000                	unimp
     72c:	1a1d                	addi	s4,s4,-25
     72e:	0002                	c.slli64	zero
     730:	9200                	.insn	2, 0x9200
     732:	0001                	nop
     734:	7000                	ld	s0,32(s0)
     736:	0019                	c.nop	6
     738:	0080                	addi	s0,sp,64
     73a:	0000                	unimp
     73c:	0800                	addi	s0,sp,16
     73e:	0000                	unimp
     740:	0000                	unimp
     742:	0000                	unimp
     744:	1e00                	addi	s0,sp,816
     746:	0004                	.insn	2, 0x0004
     748:	0100                	addi	s0,sp,128
     74a:	0601                	addi	a2,a2,0
     74c:	002e                	c.slli	zero,0xb
     74e:	0000                	unimp
     750:	0101                	addi	sp,sp,0
     752:	2c08                	fld	fa0,24(s0)
     754:	0000                	unimp
     756:	0100                	addi	s0,sp,128
     758:	0502                	c.slli64	a0
     75a:	010d                	addi	sp,sp,3
     75c:	0000                	unimp
     75e:	0201                	addi	tp,tp,0 # 0 <__boot_hart>
     760:	00003a07          	fld	fs4,0(zero) # 0 <__boot_hart>
     764:	0300                	addi	s0,sp,384
     766:	0504                	addi	s1,sp,640
     768:	6e69                	lui	t3,0x1a
     76a:	0074                	addi	a3,sp,12
     76c:	0401                	addi	s0,s0,0
     76e:	00014407          	.insn	4, 0x00014407
     772:	0100                	addi	s0,sp,128
     774:	0508                	addi	a0,sp,640
     776:	0131                	addi	sp,sp,12
     778:	0000                	unimp
     77a:	0801                	addi	a6,a6,0 # 2000 <__stack_align+0x1ff0>
     77c:	00013f07          	fld	ft10,0(sp)
     780:	0100                	addi	s0,sp,128
     782:	0508                	addi	a0,sp,640
     784:	012c                	addi	a1,sp,136
     786:	0000                	unimp
     788:	0101                	addi	sp,sp,0
     78a:	3508                	fld	fa0,40(a0)
     78c:	0000                	unimp
     78e:	0100                	addi	s0,sp,128
     790:	0410                	addi	a2,sp,512
     792:	000001f3          	.insn	4, 0x01f3
     796:	eb04                	sd	s1,16(a4)
     798:	0002                	c.slli64	zero
     79a:	0100                	addi	s0,sp,128
     79c:	0504                	addi	s1,sp,640
     79e:	004a                	c.slli	zero,0x12
     7a0:	0000                	unimp
     7a2:	1970                	addi	a2,sp,188
     7a4:	8000                	.insn	2, 0x8000
     7a6:	0000                	unimp
     7a8:	0000                	unimp
     7aa:	0008                	.insn	2, 0x0008
     7ac:	0000                	unimp
     7ae:	0000                	unimp
     7b0:	0000                	unimp
     7b2:	9c01                	subw	s0,s0,s0
     7b4:	5805                	li	a6,-31
     7b6:	0001                	nop
     7b8:	0100                	addi	s0,sp,128
     7ba:	1104                	addi	s1,sp,160
     7bc:	004a                	c.slli	zero,0x12
     7be:	0000                	unimp
     7c0:	0110                	addi	a2,sp,128
     7c2:	0000                	unimp
     7c4:	0000                	unimp
     7c6:	010d                	addi	sp,sp,3
     7c8:	0000                	unimp
     7ca:	0005                	c.nop	1
     7cc:	0801                	addi	a6,a6,0
     7ce:	0000034f          	fnmadd.s	ft6,ft0,ft0,ft0,rne
     7d2:	5d04                	lw	s1,56(a0)
     7d4:	0001                	nop
     7d6:	1d00                	addi	s0,sp,688
     7d8:	022a                	slli	tp,tp,0xa
     7da:	0000                	unimp
     7dc:	0192                	slli	gp,gp,0x4
     7de:	0000                	unimp
     7e0:	1978                	addi	a4,sp,188
     7e2:	8000                	.insn	2, 0x8000
     7e4:	0000                	unimp
     7e6:	0000                	unimp
     7e8:	0014                	.insn	2, 0x0014
     7ea:	0000                	unimp
     7ec:	0000                	unimp
     7ee:	0000                	unimp
     7f0:	0485                	addi	s1,s1,1
     7f2:	0000                	unimp
     7f4:	0405                	addi	s0,s0,1
     7f6:	6905                	lui	s2,0x1
     7f8:	746e                	ld	s0,248(sp)
     7fa:	0100                	addi	s0,sp,128
     7fc:	0508                	addi	a0,sp,640
     7fe:	0131                	addi	sp,sp,12
     800:	0000                	unimp
     802:	0801                	addi	a6,a6,0
     804:	00013f07          	fld	ft10,0(sp)
     808:	0100                	addi	s0,sp,128
     80a:	0508                	addi	a0,sp,640
     80c:	012c                	addi	a1,sp,136
     80e:	0000                	unimp
     810:	1001                	c.nop	-32
     812:	f304                	sd	s1,32(a4)
     814:	0001                	nop
     816:	0100                	addi	s0,sp,128
     818:	0704                	addi	s1,sp,896
     81a:	0144                	addi	s1,sp,132
     81c:	0000                	unimp
     81e:	0101                	addi	sp,sp,0
     820:	2e06                	fld	ft8,64(sp)
     822:	0000                	unimp
     824:	0100                	addi	s0,sp,128
     826:	0801                	addi	a6,a6,0
     828:	002c                	addi	a1,sp,8
     82a:	0000                	unimp
     82c:	0201                	addi	tp,tp,0 # 0 <__boot_hart>
     82e:	0d05                	addi	s10,s10,1
     830:	0001                	nop
     832:	0100                	addi	s0,sp,128
     834:	0702                	c.slli64	a4
     836:	003a                	c.slli	zero,0xe
     838:	0000                	unimp
     83a:	ae02                	fsd	ft0,280(sp)
     83c:	0002                	c.slli64	zero
     83e:	0200                	addi	s0,sp,256
     840:	0e2e                	slli	t3,t3,0xb
     842:	0035                	c.nop	13
     844:	0000                	unimp
     846:	ad02                	fsd	ft0,152(sp)
     848:	0002                	c.slli64	zero
     84a:	0200                	addi	s0,sp,256
     84c:	1066                	c.slli	zero,0x39
     84e:	0074                	addi	a3,sp,12
     850:	0000                	unimp
     852:	0101                	addi	sp,sp,0
     854:	3508                	fld	fa0,40(a0)
     856:	0000                	unimp
     858:	0100                	addi	s0,sp,128
     85a:	0708                	addi	a0,sp,896
     85c:	013a                	slli	sp,sp,0xe
     85e:	0000                	unimp
     860:	af02                	fsd	ft0,408(sp)
     862:	0002                	c.slli64	zero
     864:	0300                	addi	s0,sp,384
     866:	0080129b          	slliw	t0,zero,0x8
     86a:	0000                	unimp
     86c:	eb06                	sd	ra,400(sp)
     86e:	0001                	nop
     870:	0400                	addi	s0,sp,512
     872:	00b20d13          	addi	s10,tp,11 # b <__boot_hart+0xb>
     876:	0000                	unimp
     878:	002e0807          	.insn	4, 0x002e0807
     87c:	0000                	unimp
     87e:	f308                	sd	a0,32(a4)
     880:	0002                	c.slli64	zero
     882:	0100                	addi	s0,sp,128
     884:	0705                	addi	a4,a4,1
     886:	009a                	slli	ra,ra,0x6
     888:	0000                	unimp
     88a:	1978                	addi	a4,sp,188
     88c:	8000                	.insn	2, 0x8000
     88e:	0000                	unimp
     890:	0000                	unimp
     892:	0014                	.insn	2, 0x0014
     894:	0000                	unimp
     896:	0000                	unimp
     898:	0000                	unimp
     89a:	9c01                	subw	s0,s0,s0
     89c:	5809                	li	a6,-30
     89e:	0001                	nop
     8a0:	0100                	addi	s0,sp,128
     8a2:	1205                	addi	tp,tp,-31 # ffffffffffffffe1 <__heap_end+0xffffffff7ffdcfe1>
     8a4:	002e                	c.slli	zero,0xb
     8a6:	0000                	unimp
     8a8:	012a                	slli	sp,sp,0xa
     8aa:	0000                	unimp
     8ac:	72747003          	.insn	4, 0x72747003
     8b0:	1e00                	addi	s0,sp,816
     8b2:	009a                	slli	ra,ra,0x6
     8b4:	0000                	unimp
     8b6:	0138                	addi	a4,sp,136
     8b8:	0000                	unimp
     8ba:	72696403          	lwu	s0,1830(s2) # 1726 <__stack_align+0x1716>
     8be:	2700                	fld	fs0,8(a4)
     8c0:	002e                	c.slli	zero,0xb
     8c2:	0000                	unimp
     8c4:	0146                	slli	sp,sp,0x11
     8c6:	0000                	unimp
     8c8:	800a                	c.mv	zero,sp
     8ca:	0019                	c.nop	6
     8cc:	0080                	addi	s0,sp,64
     8ce:	0000                	unimp
     8d0:	a600                	fsd	fs0,8(a2)
     8d2:	0000                	unimp
     8d4:	0000                	unimp
     8d6:	0f00                	addi	s0,sp,912
     8d8:	0001                	nop
     8da:	0500                	addi	s0,sp,640
     8dc:	0100                	addi	s0,sp,128
     8de:	ee08                	sd	a0,24(a2)
     8e0:	04000003          	lb	zero,64(zero) # 40 <__stack_align+0x30>
     8e4:	015d                	addi	sp,sp,23
     8e6:	0000                	unimp
     8e8:	391d                	addiw	s2,s2,-25
     8ea:	0002                	c.slli64	zero
     8ec:	9200                	.insn	2, 0x9200
     8ee:	0001                	nop
     8f0:	8c00                	.insn	2, 0x8c00
     8f2:	0019                	c.nop	6
     8f4:	0080                	addi	s0,sp,64
     8f6:	0000                	unimp
     8f8:	1600                	addi	s0,sp,800
     8fa:	0000                	unimp
     8fc:	0000                	unimp
     8fe:	0000                	unimp
     900:	2500                	fld	fs0,8(a0)
     902:	0005                	c.nop	1
     904:	0500                	addi	s0,sp,640
     906:	0504                	addi	s1,sp,640
     908:	6e69                	lui	t3,0x1a
     90a:	0074                	addi	a3,sp,12
     90c:	0801                	addi	a6,a6,0
     90e:	3105                	addiw	sp,sp,-31
     910:	0001                	nop
     912:	0200                	addi	s0,sp,256
     914:	0284                	addi	s1,sp,320
     916:	0000                	unimp
     918:	d602                	sw	zero,44(sp)
     91a:	00004817          	auipc	a6,0x4
     91e:	0100                	addi	s0,sp,128
     920:	0708                	addi	a0,sp,896
     922:	0000013f 2c050801 	.insn	8, 0x2c0508010000013f
     92a:	0001                	nop
     92c:	0100                	addi	s0,sp,128
     92e:	0410                	addi	a2,sp,512
     930:	000001f3          	.insn	4, 0x01f3
     934:	0401                	addi	s0,s0,0
     936:	00014407          	.insn	4, 0x00014407
     93a:	0100                	addi	s0,sp,128
     93c:	0601                	addi	a2,a2,0
     93e:	002e                	c.slli	zero,0xb
     940:	0000                	unimp
     942:	0101                	addi	sp,sp,0
     944:	2c08                	fld	fa0,24(s0)
     946:	0000                	unimp
     948:	0100                	addi	s0,sp,128
     94a:	0502                	c.slli64	a0
     94c:	010d                	addi	sp,sp,3
     94e:	0000                	unimp
     950:	0201                	addi	tp,tp,0 # 0 <__boot_hart>
     952:	00003a07          	fld	fs4,0(zero) # 0 <__boot_hart>
     956:	0200                	addi	s0,sp,256
     958:	0300                	addi	s0,sp,384
     95a:	0000                	unimp
     95c:	35179303          	lh	t1,849(a5)
     960:	0000                	unimp
     962:	0600                	addi	s0,sp,768
     964:	0108                	addi	a0,sp,128
     966:	0801                	addi	a6,a6,0 # 491a <__stack_align+0x490a>
     968:	0035                	c.nop	13
     96a:	0000                	unimp
     96c:	0801                	addi	a6,a6,0
     96e:	00013a07          	fld	fs4,0(sp)
     972:	0200                	addi	s0,sp,256
     974:	0301                	addi	t1,t1,0 # fffffffffffe3000 <__heap_end+0xffffffff7ffc0000>
     976:	0000                	unimp
     978:	b604                	fsd	fs1,40(a2)
     97a:	8012                	c.mv	zero,tp
     97c:	0000                	unimp
     97e:	0700                	addi	s0,sp,896
     980:	000001eb          	.insn	4, 0x01eb
     984:	1305                	addi	t1,t1,-31
     986:	b40d                	j	3a8 <__stack_align+0x398>
     988:	0000                	unimp
     98a:	0800                	addi	s0,sp,16
     98c:	2e08                	fld	fa0,24(a2)
     98e:	0000                	unimp
     990:	0900                	addi	s0,sp,144
     992:	02fa                	slli	t0,t0,0x1e
     994:	0000                	unimp
     996:	0501                	addi	a0,a0,0
     998:	9c09                	subw	s0,s0,a0
     99a:	0000                	unimp
     99c:	8c00                	.insn	2, 0x8c00
     99e:	0019                	c.nop	6
     9a0:	0080                	addi	s0,sp,64
     9a2:	0000                	unimp
     9a4:	1600                	addi	s0,sp,800
     9a6:	0000                	unimp
     9a8:	0000                	unimp
     9aa:	0000                	unimp
     9ac:	0100                	addi	s0,sp,128
     9ae:	0a9c                	addi	a5,sp,336
     9b0:	0158                	addi	a4,sp,132
     9b2:	0000                	unimp
     9b4:	0501                	addi	a0,a0,0
     9b6:	00002e13          	slti	t3,zero,0
     9ba:	6000                	ld	s0,0(s0)
     9bc:	0001                	nop
     9be:	0300                	addi	s0,sp,384
     9c0:	7470                	ld	a2,232(s0)
     9c2:	0072                	c.slli	zero,0x1c
     9c4:	8c1f 0000 6e00      	.insn	6, 0x6e0000008c1f
     9ca:	0001                	nop
     9cc:	0300                	addi	s0,sp,384
     9ce:	656c                	ld	a1,200(a0)
     9d0:	006e                	c.slli	zero,0x1b
     9d2:	00003c2b          	.insn	4, 0x3c2b
     9d6:	7c00                	ld	s0,56(s0)
     9d8:	0001                	nop
     9da:	0b00                	addi	s0,sp,400
     9dc:	1994                	addi	a3,sp,240
     9de:	8000                	.insn	2, 0x8000
     9e0:	0000                	unimp
     9e2:	0000                	unimp
     9e4:	00a8                	addi	a0,sp,72
     9e6:	0000                	unimp
     9e8:	0000                	unimp
     9ea:	0132                	slli	sp,sp,0xc
     9ec:	0000                	unimp
     9ee:	0005                	c.nop	1
     9f0:	0801                	addi	a6,a6,0
     9f2:	0494                	addi	a3,sp,576
     9f4:	0000                	unimp
     9f6:	5d05                	li	s10,-31
     9f8:	0001                	nop
     9fa:	1d00                	addi	s0,sp,688
     9fc:	02c0                	addi	s0,sp,324
     9fe:	0000                	unimp
     a00:	0192                	slli	gp,gp,0x4
     a02:	0000                	unimp
     a04:	19a2                	slli	s3,s3,0x28
     a06:	8000                	.insn	2, 0x8000
     a08:	0000                	unimp
     a0a:	0000                	unimp
     a0c:	003c                	addi	a5,sp,8
     a0e:	0000                	unimp
     a10:	0000                	unimp
     a12:	0000                	unimp
     a14:	05ce                	slli	a1,a1,0x13
     a16:	0000                	unimp
     a18:	0906                	slli	s2,s2,0x1
     a1a:	02000003          	lb	zero,32(zero) # 20 <__stack_align+0x10>
     a1e:	1a91                	addi	s5,s5,-28
     a20:	003a                	c.slli	zero,0xe
     a22:	0000                	unimp
     a24:	0801                	addi	a6,a6,0
     a26:	3105                	addiw	sp,sp,-31
     a28:	0001                	nop
     a2a:	0100                	addi	s0,sp,128
     a2c:	0708                	addi	a0,sp,896
     a2e:	0000013f 69050407 	.insn	8, 0x690504070000013f
     a36:	746e                	ld	s0,248(sp)
     a38:	0100                	addi	s0,sp,128
     a3a:	0508                	addi	a0,sp,640
     a3c:	012c                	addi	a1,sp,136
     a3e:	0000                	unimp
     a40:	1001                	c.nop	-32
     a42:	f304                	sd	s1,32(a4)
     a44:	0001                	nop
     a46:	0100                	addi	s0,sp,128
     a48:	0704                	addi	s1,sp,896
     a4a:	0144                	addi	s1,sp,132
     a4c:	0000                	unimp
     a4e:	0101                	addi	sp,sp,0
     a50:	2e06                	fld	ft8,64(sp)
     a52:	0000                	unimp
     a54:	0100                	addi	s0,sp,128
     a56:	0801                	addi	a6,a6,0
     a58:	002c                	addi	a1,sp,8
     a5a:	0000                	unimp
     a5c:	0201                	addi	tp,tp,0 # 0 <__boot_hart>
     a5e:	0d05                	addi	s10,s10,1
     a60:	0001                	nop
     a62:	0100                	addi	s0,sp,128
     a64:	0702                	c.slli64	a4
     a66:	003a                	c.slli	zero,0xe
     a68:	0000                	unimp
     a6a:	0808                	addi	a0,sp,16
     a6c:	8702                	jr	a4
     a6e:	0000                	unimp
     a70:	0100                	addi	s0,sp,128
     a72:	0801                	addi	a6,a6,0
     a74:	0035                	c.nop	13
     a76:	0000                	unimp
     a78:	0801                	addi	a6,a6,0
     a7a:	00013a07          	fld	fs4,0(sp)
     a7e:	0900                	addi	s0,sp,144
     a80:	00000087          	.insn	4, 0x0087
     a84:	00a0                	addi	s0,sp,72
     a86:	0000                	unimp
     a88:	000a                	c.slli	zero,0x2
     a8a:	00031903          	lh	s2,0(t1)
     a8e:	0600                	addi	s0,sp,768
     a90:	950d                	srai	a0,a0,0x23
     a92:	0000                	unimp
     a94:	0b00                	addi	s0,sp,400
     a96:	031e                	slli	t1,t1,0x7
     a98:	0000                	unimp
     a9a:	0701                	addi	a4,a4,0
     a9c:	820e                	mv	tp,gp
     a9e:	0000                	unimp
     aa0:	0900                	addi	s0,sp,144
     aa2:	001ec003          	lbu	zero,1(t4)
     aa6:	0080                	addi	s0,sp,64
     aa8:	0000                	unimp
     aaa:	0c00                	addi	s0,sp,528
     aac:	000001eb          	.insn	4, 0x01eb
     ab0:	cd0d1303          	lh	t1,-816(s10)
     ab4:	0000                	unimp
     ab6:	0200                	addi	s0,sp,256
     ab8:	0048                	addi	a0,sp,4
     aba:	0000                	unimp
     abc:	250d                	addiw	a0,a0,3
     abe:	01000003          	lb	zero,16(zero) # 10 <__stack_align>
     ac2:	0709                	addi	a4,a4,2
     ac4:	0080                	addi	s0,sp,64
     ac6:	0000                	unimp
     ac8:	19a2                	slli	s3,s3,0x28
     aca:	8000                	.insn	2, 0x8000
     acc:	0000                	unimp
     ace:	0000                	unimp
     ad0:	003c                	addi	a5,sp,8
     ad2:	0000                	unimp
     ad4:	0000                	unimp
     ad6:	0000                	unimp
     ad8:	9c01                	subw	s0,s0,s0
     ada:	2b0e                	fld	fs6,192(sp)
     adc:	01000003          	lb	zero,16(zero) # 10 <__stack_align>
     ae0:	1709                	addi	a4,a4,-30
     ae2:	002e                	c.slli	zero,0xb
     ae4:	0000                	unimp
     ae6:	0196                	slli	gp,gp,0x5
     ae8:	0000                	unimp
     aea:	00031303          	lh	t1,0(t1)
     aee:	0b00                	addi	s0,sp,400
     af0:	9511                	srai	a0,a0,0x24
     af2:	0000                	unimp
     af4:	0400                	addi	s0,sp,512
     af6:	00000337          	lui	t1,0x0
     afa:	820c                	.insn	2, 0x820c
     afc:	0000                	unimp
     afe:	a400                	fsd	fs0,8(s0)
     b00:	0001                	nop
     b02:	0400                	addi	s0,sp,512
     b04:	0330                	addi	a2,sp,392
     b06:	0000                	unimp
     b08:	820d                	srli	a2,a2,0x3
     b0a:	0000                	unimp
     b0c:	bc00                	fsd	fs0,56(s0)
     b0e:	0001                	nop
     b10:	0f00                	addi	s0,sp,912
     b12:	19d0                	addi	a2,sp,244
     b14:	8000                	.insn	2, 0x8000
     b16:	0000                	unimp
     b18:	0000                	unimp
     b1a:	00c1                	addi	ra,ra,16
     b1c:	0000                	unimp
     b1e:	0000                	unimp
     b20:	0174                	addi	a3,sp,140
     b22:	0000                	unimp
     b24:	0005                	c.nop	1
     b26:	0801                	addi	a6,a6,0
     b28:	056e                	slli	a0,a0,0x1b
     b2a:	0000                	unimp
     b2c:	5d06                	lw	s10,96(sp)
     b2e:	0001                	nop
     b30:	1d00                	addi	s0,sp,688
     b32:	02ce                	slli	t0,t0,0x13
     b34:	0000                	unimp
     b36:	0192                	slli	gp,gp,0x4
     b38:	0000                	unimp
     b3a:	19de                	slli	s3,s3,0x37
     b3c:	8000                	.insn	2, 0x8000
     b3e:	0000                	unimp
     b40:	0000                	unimp
     b42:	0006                	c.slli	zero,0x1
     b44:	0000                	unimp
     b46:	0000                	unimp
     b48:	0000                	unimp
     b4a:	000006f3          	.insn	4, 0x06f3
     b4e:	69050407          	.insn	4, 0x69050407
     b52:	746e                	ld	s0,248(sp)
     b54:	0100                	addi	s0,sp,128
     b56:	0508                	addi	a0,sp,640
     b58:	0131                	addi	sp,sp,12
     b5a:	0000                	unimp
     b5c:	8402                	jr	s0
     b5e:	0002                	c.slli64	zero
     b60:	0200                	addi	s0,sp,256
     b62:	17d6                	slli	a5,a5,0x35
     b64:	0048                	addi	a0,sp,4
     b66:	0000                	unimp
     b68:	0801                	addi	a6,a6,0
     b6a:	00013f07          	fld	ft10,0(sp)
     b6e:	0100                	addi	s0,sp,128
     b70:	0508                	addi	a0,sp,640
     b72:	012c                	addi	a1,sp,136
     b74:	0000                	unimp
     b76:	1001                	c.nop	-32
     b78:	f304                	sd	s1,32(a4)
     b7a:	0001                	nop
     b7c:	0100                	addi	s0,sp,128
     b7e:	0704                	addi	s1,sp,896
     b80:	0144                	addi	s1,sp,132
     b82:	0000                	unimp
     b84:	0101                	addi	sp,sp,0
     b86:	2e06                	fld	ft8,64(sp)
     b88:	0000                	unimp
     b8a:	0100                	addi	s0,sp,128
     b8c:	0801                	addi	a6,a6,0
     b8e:	002c                	addi	a1,sp,8
     b90:	0000                	unimp
     b92:	0201                	addi	tp,tp,0 # 0 <__boot_hart>
     b94:	0d05                	addi	s10,s10,1
     b96:	0001                	nop
     b98:	0100                	addi	s0,sp,128
     b9a:	0702                	c.slli64	a4
     b9c:	003a                	c.slli	zero,0xe
     b9e:	0000                	unimp
     ba0:	5202                	lw	tp,32(sp)
     ba2:	03000003          	lb	zero,48(zero) # 30 <__stack_align+0x20>
     ba6:	1969                	addi	s2,s2,-6
     ba8:	0048                	addi	a0,sp,4
     baa:	0000                	unimp
     bac:	0a02                	c.slli64	s4
     bae:	0000                	unimp
     bb0:	0300                	addi	s0,sp,384
     bb2:	1ae8                	addi	a0,sp,380
     bb4:	0048                	addi	a0,sp,4
     bb6:	0000                	unimp
     bb8:	0002                	c.slli64	zero
     bba:	04000003          	lb	zero,64(zero) # 40 <__stack_align+0x30>
     bbe:	00351793          	slli	a5,a0,0x3
     bc2:	0000                	unimp
     bc4:	0101                	addi	sp,sp,0
     bc6:	3508                	fld	fa0,40(a0)
     bc8:	0000                	unimp
     bca:	0100                	addi	s0,sp,128
     bcc:	0708                	addi	a0,sp,896
     bce:	013a                	slli	sp,sp,0xe
     bd0:	0000                	unimp
     bd2:	5402                	lw	s0,32(sp)
     bd4:	05000003          	lb	zero,80(zero) # 50 <__stack_align+0x40>
     bd8:	143c                	addi	a5,sp,552
     bda:	0080                	addi	s0,sp,64
     bdc:	0000                	unimp
     bde:	0c02                	c.slli64	s8
     be0:	0000                	unimp
     be2:	0500                	addi	s0,sp,640
     be4:	1552                	slli	a0,a0,0x34
     be6:	008c                	addi	a1,sp,64
     be8:	0000                	unimp
     bea:	0102                	c.slli64	sp
     bec:	06000003          	lb	zero,96(zero) # 60 <__stack_align+0x50>
     bf0:	12b6                	slli	t0,t0,0x2d
     bf2:	0098                	addi	a4,sp,64
     bf4:	0000                	unimp
     bf6:	3e08                	fld	fa0,56(a2)
     bf8:	07000003          	lb	zero,112(zero) # 70 <__stack_align+0x60>
     bfc:	0d1a                	slli	s10,s10,0x6
     bfe:	0035                	c.nop	13
     c00:	0000                	unimp
     c02:	000000fb          	.insn	4, 0x00fb
     c06:	0000b203          	ld	tp,0(ra)
     c0a:	0300                	addi	s0,sp,384
     c0c:	00b2                	slli	ra,ra,0xc
     c0e:	0000                	unimp
     c10:	0000b203          	ld	tp,0(ra)
     c14:	0300                	addi	s0,sp,384
     c16:	0048                	addi	a0,sp,4
     c18:	0000                	unimp
     c1a:	0900                	addi	s0,sp,144
     c1c:	0000034b          	fnmsub.s	ft6,ft0,ft0,ft0,rne
     c20:	0601                	addi	a2,a2,0
     c22:	ca09                	beqz	a2,c34 <__stack_align+0xc24>
     c24:	0000                	unimp
     c26:	de00                	sw	s0,56(a2)
     c28:	0019                	c.nop	6
     c2a:	0080                	addi	s0,sp,64
     c2c:	0000                	unimp
     c2e:	0600                	addi	s0,sp,768
     c30:	0000                	unimp
     c32:	0000                	unimp
     c34:	0000                	unimp
     c36:	0100                	addi	s0,sp,128
     c38:	709c                	ld	a5,32(s1)
     c3a:	0001                	nop
     c3c:	0500                	addi	s0,sp,640
     c3e:	6466                	ld	s0,88(sp)
     c40:	1400                	addi	s0,sp,544
     c42:	002e                	c.slli	zero,0xb
     c44:	0000                	unimp
     c46:	01ce                	slli	gp,gp,0x13
     c48:	0000                	unimp
     c4a:	7005                	c.lui	zero,0xfffe1
     c4c:	7274                	ld	a3,224(a2)
     c4e:	2400                	fld	fs0,8(s0)
     c50:	0170                	addi	a2,sp,140
     c52:	0000                	unimp
     c54:	01dc                	addi	a5,sp,196
     c56:	0000                	unimp
     c58:	6c05                	lui	s8,0x1
     c5a:	6e65                	lui	t3,0x19
     c5c:	3000                	fld	fs0,32(s0)
     c5e:	003c                	addi	a5,sp,8
     c60:	0000                	unimp
     c62:	01ea                	slli	gp,gp,0x1a
     c64:	0000                	unimp
     c66:	e40a                	sd	sp,8(sp)
     c68:	0019                	c.nop	6
     c6a:	0080                	addi	s0,sp,64
     c6c:	0000                	unimp
     c6e:	d600                	sw	s0,40(a2)
     c70:	0000                	unimp
     c72:	0400                	addi	s0,sp,512
     c74:	5a01                	li	s4,-32
     c76:	5a01a303          	lw	t1,1440(gp) # 80002c58 <__global_pointer$+0x5a0>
     c7a:	0104                	addi	s1,sp,128
     c7c:	01a3035b          	.insn	4, 0x01a3035b
     c80:	5c01045b          	.insn	4, 0x5c01045b
     c84:	5c01a303          	lw	t1,1472(gp) # 80002c78 <__global_pointer$+0x5c0>
     c88:	0104                	addi	s1,sp,128
     c8a:	025d                	addi	tp,tp,23 # 17 <__stack_align+0x7>
     c8c:	4008                	lw	a0,0(s0)
     c8e:	0000                	unimp
     c90:	0176080b          	.insn	4, 0x0176080b
     c94:	0000                	unimp
     c96:	000c                	.insn	2, 0x000c
     c98:	0025                	c.nop	9
     c9a:	0000                	unimp
     c9c:	0005                	c.nop	1
     c9e:	0801                	addi	a6,a6,0
     ca0:	0618                	addi	a4,sp,768
     ca2:	0000                	unimp
     ca4:	8001                	c.srli64	s0
     ca6:	00000007          	.insn	4, 0x0007
     caa:	0000                	unimp
     cac:	0080                	addi	s0,sp,64
     cae:	0000                	unimp
     cb0:	9800                	.insn	2, 0x9800
     cb2:	5d04                	lw	s1,56(a0)
     cb4:	6c000003          	lb	zero,1728(zero) # 6c0 <__stack_align+0x6b0>
     cb8:	b4000003          	lb	zero,-1216(zero) # fffffffffffffb40 <__heap_end+0xffffffff7ffdcb40>
     cbc:	01000003          	lb	zero,16(zero) # 10 <__stack_align>
     cc0:	2480                	fld	fs0,8(s1)
     cc2:	0000                	unimp
     cc4:	0500                	addi	s0,sp,640
     cc6:	0100                	addi	s0,sp,128
     cc8:	2c08                	fld	fa0,24(s0)
     cca:	0006                	c.slli	zero,0x1
     ccc:	0100                	addi	s0,sp,128
     cce:	0bb2                	slli	s7,s7,0xc
     cd0:	0000                	unimp
     cd2:	01ee                	slli	gp,gp,0x1b
     cd4:	8000                	.insn	2, 0x8000
     cd6:	0000                	unimp
     cd8:	0000                	unimp
     cda:	c062                	sw	s8,0(sp)
     cdc:	6c000003          	lb	zero,1728(zero) # 6c0 <__stack_align+0x6b0>
     ce0:	b4000003          	lb	zero,-1216(zero) # fffffffffffffb40 <__heap_end+0xffffffff7ffdcb40>
     ce4:	01000003          	lb	zero,16(zero) # 10 <__stack_align>
     ce8:	3680                	fld	fs0,40(a3)
     cea:	0001                	nop
     cec:	0500                	addi	s0,sp,640
     cee:	0100                	addi	s0,sp,128
     cf0:	4008                	lw	a0,0(s0)
     cf2:	0006                	c.slli	zero,0x1
     cf4:	0400                	addi	s0,sp,512
     cf6:	015d                	addi	sp,sp,23
     cf8:	0000                	unimp
     cfa:	081d                	addi	a6,a6,7
     cfc:	92000003          	lb	zero,-1760(zero) # fffffffffffff920 <__heap_end+0xffffffff7ffdc920>
     d00:	0001                	nop
     d02:	e400                	sd	s0,8(s0)
     d04:	0019                	c.nop	6
     d06:	0080                	addi	s0,sp,64
     d08:	0000                	unimp
     d0a:	1600                	addi	s0,sp,800
     d0c:	0000                	unimp
     d0e:	0000                	unimp
     d10:	0000                	unimp
     d12:	1200                	addi	s0,sp,288
     d14:	000c                	.insn	2, 0x000c
     d16:	0100                	addi	s0,sp,128
     d18:	0601                	addi	a2,a2,0
     d1a:	002e                	c.slli	zero,0xb
     d1c:	0000                	unimp
     d1e:	0101                	addi	sp,sp,0
     d20:	2c08                	fld	fa0,24(s0)
     d22:	0000                	unimp
     d24:	0100                	addi	s0,sp,128
     d26:	0502                	c.slli64	a0
     d28:	010d                	addi	sp,sp,3
     d2a:	0000                	unimp
     d2c:	0201                	addi	tp,tp,0 # 0 <__boot_hart>
     d2e:	00003a07          	fld	fs4,0(zero) # 0 <__boot_hart>
     d32:	0500                	addi	s0,sp,640
     d34:	0504                	addi	s1,sp,640
     d36:	6e69                	lui	t3,0x1a
     d38:	0074                	addi	a3,sp,12
     d3a:	0401                	addi	s0,s0,0
     d3c:	00014407          	.insn	4, 0x00014407
     d40:	0100                	addi	s0,sp,128
     d42:	0508                	addi	a0,sp,640
     d44:	0131                	addi	sp,sp,12
     d46:	0000                	unimp
     d48:	0801                	addi	a6,a6,0
     d4a:	00013f07          	fld	ft10,0(sp)
     d4e:	0200                	addi	s0,sp,256
     d50:	03ea                	slli	t2,t2,0x1a
     d52:	0000                	unimp
     d54:	e602                	sd	zero,264(sp)
     d56:	5819                	li	a6,-26
     d58:	0000                	unimp
     d5a:	0200                	addi	s0,sp,256
     d5c:	000a                	c.slli	zero,0x2
     d5e:	0000                	unimp
     d60:	e802                	sd	zero,16(sp)
     d62:	5f1a                	lw	t5,164(sp)
     d64:	0000                	unimp
     d66:	0200                	addi	s0,sp,256
     d68:	03ec                	addi	a1,sp,460
     d6a:	0000                	unimp
     d6c:	66144d03          	lbu	s10,1633(s0)
     d70:	0000                	unimp
     d72:	0200                	addi	s0,sp,256
     d74:	000c                	.insn	2, 0x000c
     d76:	0000                	unimp
     d78:	72155203          	lhu	tp,1825(a0)
     d7c:	0000                	unimp
     d7e:	0100                	addi	s0,sp,128
     d80:	0508                	addi	a0,sp,640
     d82:	012c                	addi	a1,sp,136
     d84:	0000                	unimp
     d86:	1001                	c.nop	-32
     d88:	f304                	sd	s1,32(a4)
     d8a:	0001                	nop
     d8c:	0100                	addi	s0,sp,128
     d8e:	0801                	addi	a6,a6,0
     d90:	0035                	c.nop	13
     d92:	0000                	unimp
     d94:	e406                	sd	ra,8(sp)
     d96:	04000003          	lb	zero,64(zero) # 40 <__stack_align+0x30>
     d9a:	0d41                	addi	s10,s10,16
     d9c:	00bd                	addi	ra,ra,15
     d9e:	0000                	unimp
     da0:	00004a07          	.insn	4, 0x4a07
     da4:	0000                	unimp
     da6:	d208                	sw	a0,32(a2)
     da8:	01000003          	lb	zero,16(zero) # 10 <__stack_align>
     dac:	1c04                	addi	s1,sp,560
     dae:	19e4                	addi	s1,sp,252
     db0:	8000                	.insn	2, 0x8000
     db2:	0000                	unimp
     db4:	0000                	unimp
     db6:	0016                	c.slli	zero,0x5
     db8:	0000                	unimp
     dba:	0000                	unimp
     dbc:	0000                	unimp
     dbe:	9c01                	subw	s0,s0,s0
     dc0:	00000133          	add	sp,zero,zero
     dc4:	6509                	lui	a0,0x2
     dc6:	6370                	ld	a2,192(a4)
     dc8:	0100                	addi	s0,sp,128
     dca:	3204                	fld	fs1,32(a2)
     dcc:	008a                	slli	ra,ra,0x2
     dce:	0000                	unimp
     dd0:	0204                	addi	s1,sp,256
     dd2:	0000                	unimp
     dd4:	0003de03          	lhu	t3,0(t2)
     dd8:	4100                	lw	s0,0(a0)
     dda:	008a                	slli	ra,ra,0x2
     ddc:	0000                	unimp
     dde:	0212                	slli	tp,tp,0x4
     de0:	0000                	unimp
     de2:	0003ff03          	.insn	4, 0x0003ff03
     de6:	5200                	lw	s0,32(a2)
     de8:	008a                	slli	ra,ra,0x2
     dea:	0000                	unimp
     dec:	0220                	addi	s0,sp,264
     dee:	0000                	unimp
     df0:	0003f503          	.insn	4, 0x0003f503
     df4:	6200                	ld	s0,0(a2)
     df6:	00000133          	add	sp,zero,zero
     dfa:	022e                	slli	tp,tp,0xb
     dfc:	0000                	unimp
     dfe:	fa0a                	sd	sp,304(sp)
     e00:	01000003          	lb	zero,16(zero) # 10 <__stack_align>
     e04:	004a0907          	.insn	4, 0x004a0907
     e08:	0000                	unimp
     e0a:	023c                	addi	a5,sp,264
     e0c:	0000                	unimp
     e0e:	0019fa0b          	.insn	4, 0x0019fa0b
     e12:	0080                	addi	s0,sp,64
     e14:	0000                	unimp
     e16:	ab00                	fsd	fs0,16(a4)
     e18:	0000                	unimp
     e1a:	0000                	unimp
     e1c:	080c                	addi	a1,sp,16
     e1e:	008a                	slli	ra,ra,0x2
     e20:	0000                	unimp
     e22:	6500                	ld	s0,8(a0)
     e24:	0001                	nop
     e26:	0500                	addi	s0,sp,640
     e28:	0100                	addi	s0,sp,128
     e2a:	fa08                	sd	a0,48(a2)
     e2c:	0006                	c.slli	zero,0x1
     e2e:	0800                	addi	s0,sp,16
     e30:	015d                	addi	sp,sp,23
     e32:	0000                	unimp
     e34:	221d                	addiw	tp,tp,7 # 7 <__boot_hart+0x7>
     e36:	92000003          	lb	zero,-1760(zero) # fffffffffffff920 <__heap_end+0xffffffff7ffdc920>
     e3a:	0001                	nop
     e3c:	fa00                	sd	s0,48(a2)
     e3e:	0019                	c.nop	6
     e40:	0080                	addi	s0,sp,64
     e42:	0000                	unimp
     e44:	3000                	fld	fs0,32(s0)
     e46:	0000                	unimp
     e48:	0000                	unimp
     e4a:	0000                	unimp
     e4c:	c900                	sw	s0,16(a0)
     e4e:	000c                	.insn	2, 0x000c
     e50:	0100                	addi	s0,sp,128
     e52:	0508                	addi	a0,sp,640
     e54:	0131                	addi	sp,sp,12
     e56:	0000                	unimp
     e58:	8409                	srai	s0,s0,0x2
     e5a:	0002                	c.slli64	zero
     e5c:	0300                	addi	s0,sp,384
     e5e:	17d6                	slli	a5,a5,0x35
     e60:	0041                	c.nop	16
     e62:	0000                	unimp
     e64:	0801                	addi	a6,a6,0
     e66:	00013f07          	fld	ft10,0(sp)
     e6a:	0a00                	addi	s0,sp,272
     e6c:	0504                	addi	s1,sp,640
     e6e:	6e69                	lui	t3,0x1a
     e70:	0074                	addi	a3,sp,12
     e72:	0801                	addi	a6,a6,0
     e74:	2c05                	addiw	s8,s8,1 # 1001 <__stack_align+0xff1>
     e76:	0001                	nop
     e78:	0100                	addi	s0,sp,128
     e7a:	0410                	addi	a2,sp,512
     e7c:	000001f3          	.insn	4, 0x01f3
     e80:	0401                	addi	s0,s0,0
     e82:	00014407          	.insn	4, 0x00014407
     e86:	0100                	addi	s0,sp,128
     e88:	0601                	addi	a2,a2,0
     e8a:	002e                	c.slli	zero,0xb
     e8c:	0000                	unimp
     e8e:	0101                	addi	sp,sp,0
     e90:	2c08                	fld	fa0,24(s0)
     e92:	0000                	unimp
     e94:	0100                	addi	s0,sp,128
     e96:	0502                	c.slli64	a0
     e98:	010d                	addi	sp,sp,3
     e9a:	0000                	unimp
     e9c:	0201                	addi	tp,tp,0 # 0 <__boot_hart>
     e9e:	00003a07          	fld	fs4,0(zero) # 0 <__boot_hart>
     ea2:	0b00                	addi	s0,sp,400
     ea4:	0408                	addi	a0,sp,512
     ea6:	0080                	addi	s0,sp,64
     ea8:	0000                	unimp
     eaa:	8c05                	sub	s0,s0,s1
     eac:	0000                	unimp
     eae:	0100                	addi	s0,sp,128
     eb0:	0801                	addi	a6,a6,0
     eb2:	0035                	c.nop	13
     eb4:	0000                	unimp
     eb6:	0801                	addi	a6,a6,0
     eb8:	00013a07          	fld	fs4,0(sp)
     ebc:	0600                	addi	s0,sp,768
     ebe:	0459                	addi	s0,s0,22
     ec0:	0000                	unimp
     ec2:	8021                	srli	s0,s0,0x8
     ec4:	0000                	unimp
     ec6:	b800                	fsd	fs0,48(s0)
     ec8:	0000                	unimp
     eca:	0200                	addi	s0,sp,256
     ecc:	0080                	addi	s0,sp,64
     ece:	0000                	unimp
     ed0:	4802                	lw	a6,0(sp)
     ed2:	0000                	unimp
     ed4:	0200                	addi	s0,sp,256
     ed6:	0035                	c.nop	13
     ed8:	0000                	unimp
     eda:	0600                	addi	s0,sp,768
     edc:	0444                	addi	s1,sp,516
     ede:	0000                	unimp
     ee0:	801f 0000 d600      	.insn	6, 0xd6000000801f
     ee6:	0000                	unimp
     ee8:	0200                	addi	s0,sp,256
     eea:	0082                	c.slli64	ra
     eec:	0000                	unimp
     eee:	db02                	sw	zero,180(sp)
     ef0:	0000                	unimp
     ef2:	0200                	addi	s0,sp,256
     ef4:	0035                	c.nop	13
     ef6:	0000                	unimp
     ef8:	0500                	addi	s0,sp,640
     efa:	00e0                	addi	s0,sp,76
     efc:	0000                	unimp
     efe:	d604                	sw	s1,40(a2)
     f00:	0000                	unimp
     f02:	0c00                	addi	s0,sp,528
     f04:	040d                	addi	s0,s0,3
     f06:	0004                	.insn	2, 0x0004
     f08:	0100                	addi	s0,sp,128
     f0a:	19fa0603          	lb	a2,415(s4)
     f0e:	8000                	.insn	2, 0x8000
     f10:	0000                	unimp
     f12:	0000                	unimp
     f14:	0030                	addi	a2,sp,8
     f16:	0000                	unimp
     f18:	0000                	unimp
     f1a:	0000                	unimp
     f1c:	9c01                	subw	s0,s0,s0
     f1e:	0161                	addi	sp,sp,24
     f20:	0000                	unimp
     f22:	2a0e                	fld	fs4,192(sp)
     f24:	0004                	.insn	2, 0x0004
     f26:	0100                	addi	s0,sp,128
     f28:	1405                	addi	s0,s0,-31
     f2a:	00000087          	.insn	4, 0x0087
     f2e:	5401                	li	s0,-32
     f30:	00044b03          	lbu	s6,0(s0)
     f34:	0600                	addi	s0,sp,768
     f36:	0161                	addi	sp,sp,24
     f38:	0000                	unimp
     f3a:	00041c03          	lh	s8,0(s0)
     f3e:	0700                	addi	s0,sp,896
     f40:	0161                	addi	sp,sp,24
     f42:	0000                	unimp
     f44:	00040f03          	lb	t5,0(s0)
     f48:	0800                	addi	s0,sp,16
     f4a:	0161                	addi	sp,sp,24
     f4c:	0000                	unimp
     f4e:	00043803          	ld	a6,0(s0)
     f52:	0900                	addi	s0,sp,144
     f54:	0161                	addi	sp,sp,24
     f56:	0000                	unimp
     f58:	001a140f          	.insn	4, 0x001a140f
     f5c:	0080                	addi	s0,sp,64
     f5e:	0000                	unimp
     f60:	b800                	fsd	fs0,48(s0)
     f62:	0000                	unimp
     f64:	4d00                	lw	s0,24(a0)
     f66:	0001                	nop
     f68:	0700                	addi	s0,sp,896
     f6a:	5a01                	li	s4,-32
     f6c:	7802                	ld	a6,32(sp)
     f6e:	0000                	unimp
     f70:	2a10                	fld	fa2,16(a2)
     f72:	001a                	c.slli	zero,0x6
     f74:	0080                	addi	s0,sp,64
     f76:	0000                	unimp
     f78:	9a00                	.insn	2, 0x9a00
     f7a:	0000                	unimp
     f7c:	0700                	addi	s0,sp,896
     f7e:	5b01                	li	s6,-32
     f80:	3001                	.insn	2, 0x3001
     f82:	0000                	unimp
     f84:	8c11                	sub	s0,s0,a2
     f86:	0000                	unimp
     f88:	1200                	addi	s0,sp,288
     f8a:	0000                	unimp
     f8c:	0045                	c.nop	17
     f8e:	0000                	unimp
     f90:	0005                	c.nop	1
     f92:	0801                	addi	a6,a6,0
     f94:	07dd                	addi	a5,a5,23
     f96:	0000                	unimp
     f98:	5d01                	li	s10,-32
     f9a:	0001                	nop
     f9c:	1d00                	addi	s0,sp,688
     f9e:	039a                	slli	t2,t2,0x6
     fa0:	0000                	unimp
     fa2:	0192                	slli	gp,gp,0x4
     fa4:	0000                	unimp
     fa6:	1a2a                	slli	s4,s4,0x2a
     fa8:	8000                	.insn	2, 0x8000
     faa:	0000                	unimp
     fac:	0000                	unimp
     fae:	0006                	c.slli	zero,0x1
     fb0:	0000                	unimp
     fb2:	0000                	unimp
     fb4:	0000                	unimp
     fb6:	0da8                	addi	a0,sp,728
     fb8:	0000                	unimp
     fba:	6002                	.insn	2, 0x6002
     fbc:	0004                	.insn	2, 0x0004
     fbe:	0100                	addi	s0,sp,128
     fc0:	1a2a2707          	flw	fa4,418(s4)
     fc4:	8000                	.insn	2, 0x8000
     fc6:	0000                	unimp
     fc8:	0000                	unimp
     fca:	0006                	c.slli	zero,0x1
     fcc:	0000                	unimp
     fce:	0000                	unimp
     fd0:	0000                	unimp
     fd2:	9c01                	subw	s0,s0,s0
     fd4:	3c00                	fld	fs0,56(s0)
     fd6:	05000003          	lb	zero,80(zero) # 50 <__stack_align+0x40>
     fda:	0100                	addi	s0,sp,128
     fdc:	0d08                	addi	a0,sp,656
     fde:	0008                	.insn	2, 0x0008
     fe0:	1200                	addi	s0,sp,288
     fe2:	015d                	addi	sp,sp,23
     fe4:	0000                	unimp
     fe6:	a91d                	j	141c <__stack_align+0x140c>
     fe8:	92000003          	lb	zero,-1760(zero) # fffffffffffff920 <__heap_end+0xffffffff7ffdc920>
     fec:	0001                	nop
     fee:	3000                	fld	fs0,32(s0)
     ff0:	001a                	c.slli	zero,0x6
     ff2:	0080                	addi	s0,sp,64
     ff4:	0000                	unimp
     ff6:	4c00                	lw	s0,24(s0)
     ff8:	0000                	unimp
     ffa:	0000                	unimp
     ffc:	0000                	unimp
     ffe:	1200                	addi	s0,sp,288
    1000:	000e                	c.slli	zero,0x3
    1002:	0200                	addi	s0,sp,256
    1004:	0601                	addi	a2,a2,0
    1006:	002e                	c.slli	zero,0xb
    1008:	0000                	unimp
    100a:	0102                	c.slli64	sp
    100c:	2c08                	fld	fa0,24(s0)
    100e:	0000                	unimp
    1010:	0200                	addi	s0,sp,256
    1012:	0502                	c.slli64	a0
    1014:	010d                	addi	sp,sp,3
    1016:	0000                	unimp
    1018:	0202                	c.slli64	tp
    101a:	00003a07          	fld	fs4,0(zero) # 0 <__boot_hart>
    101e:	0100                	addi	s0,sp,128
    1020:	0482                	c.slli64	s1
    1022:	0000                	unimp
    1024:	4d04                	lw	s1,24(a0)
    1026:	5618                	lw	a4,40(a2)
    1028:	0000                	unimp
    102a:	1300                	addi	s0,sp,416
    102c:	0504                	addi	s1,sp,640
    102e:	6e69                	lui	t3,0x1a
    1030:	0074                	addi	a3,sp,12
    1032:	0402                	c.slli64	s0
    1034:	00014407          	.insn	4, 0x00014407
    1038:	0200                	addi	s0,sp,256
    103a:	0508                	addi	a0,sp,640
    103c:	0131                	addi	sp,sp,12
    103e:	0000                	unimp
    1040:	5201                	li	tp,-32
    1042:	04000003          	lb	zero,64(zero) # 40 <__stack_align+0x30>
    1046:	1969                	addi	s2,s2,-6
    1048:	00000077          	.insn	4, 0x0077
    104c:	0802                	c.slli64	a6
    104e:	00013f07          	fld	ft10,0(sp)
    1052:	0100                	addi	s0,sp,128
    1054:	000a                	c.slli	zero,0x2
    1056:	0000                	unimp
    1058:	e804                	sd	s1,16(s0)
    105a:	771a                	ld	a4,416(sp)
    105c:	0000                	unimp
    105e:	0100                	addi	s0,sp,128
    1060:	0484                	addi	s1,sp,576
    1062:	0000                	unimp
    1064:	2c05                	addiw	s8,s8,1
    1066:	00004a13          	xori	s4,zero,0
    106a:	0100                	addi	s0,sp,128
    106c:	0354                	addi	a3,sp,388
    106e:	0000                	unimp
    1070:	3c05                	addiw	s8,s8,-31
    1072:	6b14                	ld	a3,16(a4)
    1074:	0000                	unimp
    1076:	0800                	addi	s0,sp,16
    1078:	0096                	slli	ra,ra,0x5
    107a:	0000                	unimp
    107c:	0c01                	addi	s8,s8,0
    107e:	0000                	unimp
    1080:	0500                	addi	s0,sp,640
    1082:	1552                	slli	a0,a0,0x34
    1084:	007e                	c.slli	zero,0x1f
    1086:	0000                	unimp
    1088:	aa01                	j	1198 <__stack_align+0x1188>
    108a:	0004                	.insn	2, 0x0004
    108c:	0200                	addi	s0,sp,256
    108e:	008a111b          	slliw	sp,s4,0x8
    1092:	0000                	unimp
    1094:	b314                	fsd	fa3,32(a4)
    1096:	0000                	unimp
    1098:	1500                	addi	s0,sp,672
    109a:	0304                	addi	s1,sp,384
    109c:	0906                	slli	s2,s2,0x1
    109e:	000000db          	.insn	4, 0x00db
    10a2:	9116                	add	sp,sp,t0
    10a4:	0004                	.insn	2, 0x0004
    10a6:	0300                	addi	s0,sp,384
    10a8:	00b30e07          	.insn	4, 0x00b30e07
    10ac:	0000                	unimp
    10ae:	0000                	unimp
    10b0:	6701                	.insn	2, 0x6701
    10b2:	0004                	.insn	2, 0x0004
    10b4:	0300                	addi	s0,sp,384
    10b6:	0308                	addi	a0,sp,384
    10b8:	00c4                	addi	s1,sp,68
    10ba:	0000                	unimp
    10bc:	7b09                	lui	s6,0xfffe2
    10be:	0004                	.insn	2, 0x0004
    10c0:	0600                	addi	s0,sp,768
    10c2:	00a2                	slli	ra,ra,0x8
    10c4:	0000                	unimp
    10c6:	7209                	lui	tp,0xfffe2
    10c8:	0004                	.insn	2, 0x0004
    10ca:	0700                	addi	s0,sp,896
    10cc:	00a2                	slli	ra,ra,0x8
    10ce:	0000                	unimp
    10d0:	e70a                	sd	sp,392(sp)
    10d2:	0000                	unimp
    10d4:	0700                	addi	s0,sp,896
    10d6:	0309                	addi	t1,t1,2 # 2 <__boot_hart+0x2>
    10d8:	1e00                	addi	s0,sp,816
    10da:	8000                	.insn	2, 0x8000
    10dc:	0000                	unimp
    10de:	0000                	unimp
    10e0:	f10a                	sd	sp,160(sp)
    10e2:	0000                	unimp
    10e4:	0800                	addi	s0,sp,16
    10e6:	0309                	addi	t1,t1,2
    10e8:	1e08                	addi	a0,sp,816
    10ea:	8000                	.insn	2, 0x8000
    10ec:	0000                	unimp
    10ee:	0000                	unimp
    10f0:	00048c17          	auipc	s8,0x48
    10f4:	0100                	addi	s0,sp,128
    10f6:	130a                	slli	t1,t1,0x22
    10f8:	000000db          	.insn	4, 0x00db
    10fc:	0309                	addi	t1,t1,2
    10fe:	1ef8                	addi	a4,sp,892
    1100:	8000                	.insn	2, 0x8000
    1102:	0000                	unimp
    1104:	0000                	unimp
    1106:	3e18                	fld	fa4,56(a2)
    1108:	01000003          	lb	zero,16(zero) # 10 <__stack_align>
    110c:	060c                	addi	a1,sp,768
    110e:	0064                	addi	s1,sp,12
    1110:	0000                	unimp
    1112:	1a30                	addi	a2,sp,312
    1114:	8000                	.insn	2, 0x8000
    1116:	0000                	unimp
    1118:	0000                	unimp
    111a:	004c                	addi	a1,sp,4
    111c:	0000                	unimp
    111e:	0000                	unimp
    1120:	0000                	unimp
    1122:	9c01                	subw	s0,s0,s0
    1124:	0289                	addi	t0,t0,2
    1126:	0000                	unimp
    1128:	6105                	addi	sp,sp,32
    112a:	0030                	addi	a2,sp,8
    112c:	961c                	.insn	2, 0x961c
    112e:	0000                	unimp
    1130:	4e00                	lw	s0,24(a2)
    1132:	0002                	c.slli64	zero
    1134:	1900                	addi	s0,sp,176
    1136:	3161                	addiw	sp,sp,-8
    1138:	0100                	addi	s0,sp,128
    113a:	290c                	fld	fa1,16(a0)
    113c:	0096                	slli	ra,ra,0x5
    113e:	0000                	unimp
    1140:	5b01                	li	s6,-32
    1142:	6105                	addi	sp,sp,32
    1144:	0032                	c.slli	zero,0xc
    1146:	9636                	add	a2,a2,a3
    1148:	0000                	unimp
    114a:	5c00                	lw	s0,56(s0)
    114c:	0002                	c.slli64	zero
    114e:	0500                	addi	s0,sp,640
    1150:	006e                	c.slli	zero,0x1b
    1152:	7748                	ld	a0,168(a4)
    1154:	0000                	unimp
    1156:	7000                	ld	s0,32(s0)
    1158:	0002                	c.slli64	zero
    115a:	0b00                	addi	s0,sp,400
    115c:	7562                	ld	a0,56(sp)
    115e:	0066                	c.slli	zero,0x19
    1160:	170e                	slli	a4,a4,0x23
    1162:	0299                	addi	t0,t0,6
    1164:	0000                	unimp
    1166:	9102                	jalr	sp
    1168:	0b40                	addi	s0,sp,404
    116a:	0f006373          	csrrsi	t1,0xf0,0
    116e:	960e                	add	a2,a2,gp
    1170:	0000                	unimp
    1172:	0100                	addi	s0,sp,128
    1174:	0c5c                	addi	a5,sp,532
    1176:	02ba                	slli	t0,t0,0xe
    1178:	0000                	unimp
    117a:	1a48                	addi	a0,sp,308
    117c:	8000                	.insn	2, 0x8000
    117e:	0000                	unimp
    1180:	0000                	unimp
    1182:	000c                	.insn	2, 0x000c
    1184:	0000                	unimp
    1186:	0000                	unimp
    1188:	0000                	unimp
    118a:	00021717          	auipc	a4,0x21
    118e:	0300                	addi	s0,sp,384
    1190:	02c5                	addi	t0,t0,17
    1192:	0000                	unimp
    1194:	027e                	slli	tp,tp,0x1f
    1196:	0000                	unimp
    1198:	eb1a                	sd	t1,400(sp)
    119a:	0002                	c.slli64	zero
    119c:	4800                	lw	s0,16(s0)
    119e:	001a                	c.slli	zero,0x6
    11a0:	0080                	addi	s0,sp,64
    11a2:	0000                	unimp
    11a4:	4e00                	lw	s0,24(a2)
    11a6:	0000                	unimp
    11a8:	0300                	addi	s0,sp,384
    11aa:	0e12                	slli	t3,t3,0x4
    11ac:	01f9                	addi	gp,gp,30 # 800026d6 <__global_pointer$+0x1e>
    11ae:	0000                	unimp
    11b0:	00030203          	lb	tp,0(t1)
    11b4:	8d00                	.insn	2, 0x8d00
    11b6:	0002                	c.slli64	zero
    11b8:	0300                	addi	s0,sp,384
    11ba:	02f9                	addi	t0,t0,30
    11bc:	0000                	unimp
    11be:	0295                	addi	t0,t0,5
    11c0:	0000                	unimp
    11c2:	00004e1b          	.insn	4, 0x4e1b
    11c6:	1c00                	addi	s0,sp,560
    11c8:	0000030b          	.insn	4, 0x030b
    11cc:	0000                	unimp
    11ce:	160d                	addi	a2,a2,-29
    11d0:	4a000003          	lb	zero,1184(zero) # 4a0 <__stack_align+0x490>
    11d4:	001a                	c.slli	zero,0x6
    11d6:	0080                	addi	s0,sp,64
    11d8:	0000                	unimp
    11da:	0200                	addi	s0,sp,256
    11dc:	0000                	unimp
    11de:	0000                	unimp
    11e0:	0000                	unimp
    11e2:	1000                	addi	s0,sp,32
    11e4:	1d10                	addi	a2,sp,688
    11e6:	0324                	addi	s1,sp,392
    11e8:	0000                	unimp
    11ea:	0000                	unimp
    11ec:	330e                	fld	ft6,224(sp)
    11ee:	54000003          	lb	zero,1344(zero) # 540 <__stack_align+0x530>
    11f2:	001a                	c.slli	zero,0x6
    11f4:	0080                	addi	s0,sp,64
    11f6:	0000                	unimp
    11f8:	0400                	addi	s0,sp,512
    11fa:	0000                	unimp
    11fc:	0000                	unimp
    11fe:	0000                	unimp
    1200:	1800                	addi	s0,sp,48
    1202:	9e0c                	.insn	2, 0x9e0c
    1204:	0002                	c.slli64	zero
    1206:	6e00                	ld	s0,24(a2)
    1208:	001a                	c.slli	zero,0x6
    120a:	0080                	addi	s0,sp,64
    120c:	0000                	unimp
    120e:	0400                	addi	s0,sp,512
    1210:	0000                	unimp
    1212:	0000                	unimp
    1214:	0000                	unimp
    1216:	1c00                	addi	s0,sp,560
    1218:	0272                	slli	tp,tp,0x1c
    121a:	0000                	unimp
    121c:	0002a903          	lw	s2,0(t0)
    1220:	a400                	fsd	fs0,8(s0)
    1222:	0002                	c.slli64	zero
    1224:	0d00                	addi	s0,sp,656
    1226:	02d1                	addi	t0,t0,20
    1228:	0000                	unimp
    122a:	1a6e                	slli	s4,s4,0x3b
    122c:	8000                	.insn	2, 0x8000
    122e:	0000                	unimp
    1230:	0000                	unimp
    1232:	0004                	.insn	2, 0x0004
    1234:	0000                	unimp
    1236:	0000                	unimp
    1238:	0000                	unimp
    123a:	dc030517          	auipc	a0,0xdc030
    123e:	0002                	c.slli64	zero
    1240:	a400                	fsd	fs0,8(s0)
    1242:	0002                	c.slli64	zero
    1244:	0000                	unimp
    1246:	0e00                	addi	s0,sp,784
    1248:	0339                	addi	t1,t1,14
    124a:	0000                	unimp
    124c:	1a72                	slli	s4,s4,0x3c
    124e:	8000                	.insn	2, 0x8000
    1250:	0000                	unimp
    1252:	0000                	unimp
    1254:	0004                	.insn	2, 0x0004
    1256:	0000                	unimp
    1258:	0000                	unimp
    125a:	0000                	unimp
    125c:	001e                	c.slli	zero,0x7
    125e:	a21e                	fsd	ft7,256(sp)
    1260:	0000                	unimp
    1262:	9900                	.insn	2, 0x9900
    1264:	0002                	c.slli64	zero
    1266:	1f00                	addi	s0,sp,944
    1268:	00000077          	.insn	4, 0x0077
    126c:	89080007          	.insn	4, 0x89080007
    1270:	0002                	c.slli64	zero
    1272:	0600                	addi	s0,sp,768
    1274:	04c9                	addi	s1,s1,18
    1276:	0000                	unimp
    1278:	02b51503          	lh	a0,43(a0) # ffffffffdc031265 <__heap_end+0xffffffff5c00e265>
    127c:	0000                	unimp
    127e:	0004910f          	.insn	4, 0x0004910f
    1282:	1500                	addi	s0,sp,672
    1284:	b52c                	fsd	fa1,104(a0)
    1286:	0002                	c.slli64	zero
    1288:	0000                	unimp
    128a:	0000db07          	.insn	4, 0xdb07
    128e:	0600                	addi	s0,sp,768
    1290:	000004bf 02d10c03 	.insn	8, 0x02d10c03000004bf
    1298:	0000                	unimp
    129a:	0004910f          	.insn	4, 0x0004910f
    129e:	0c00                	addi	s0,sp,528
    12a0:	b52a                	fsd	fa0,168(sp)
    12a2:	0002                	c.slli64	zero
    12a4:	0000                	unimp
    12a6:	d506                	sw	ra,168(sp)
    12a8:	0004                	.insn	2, 0x0004
    12aa:	0200                	addi	s0,sp,256
    12ac:	e63c                	sd	a5,72(a2)
    12ae:	0002                	c.slli64	zero
    12b0:	0400                	addi	s0,sp,512
    12b2:	0070                	addi	a2,sp,12
    12b4:	333c                	fld	fa5,96(a4)
    12b6:	02e6                	slli	t0,t0,0x19
    12b8:	0000                	unimp
    12ba:	0700                	addi	s0,sp,896
    12bc:	000000b3          	add	ra,zero,zero
    12c0:	9610                	.insn	2, 0x9610
    12c2:	0004                	.insn	2, 0x0004
    12c4:	2800                	fld	fs0,16(s0)
    12c6:	0064                	addi	s1,sp,12
    12c8:	0000                	unimp
    12ca:	0316                	slli	t1,t1,0x5
    12cc:	0000                	unimp
    12ce:	7004                	ld	s1,32(s0)
    12d0:	2800                	fld	fs0,16(s0)
    12d2:	e632                	sd	a2,264(sp)
    12d4:	0002                	c.slli64	zero
    12d6:	0400                	addi	s0,sp,512
    12d8:	0076                	c.slli	zero,0x1d
    12da:	3e28                	fld	fa0,120(a2)
    12dc:	000000b3          	add	ra,zero,zero
    12e0:	6e20                	ld	s0,88(a2)
    12e2:	0200                	addi	s0,sp,256
    12e4:	0a2a                	slli	s4,s4,0xa
    12e6:	0064                	addi	s1,sp,12
    12e8:	0000                	unimp
    12ea:	1000                	addi	s0,sp,32
    12ec:	000004b3          	add	s1,zero,zero
    12f0:	641d                	lui	s0,0x7
    12f2:	0000                	unimp
    12f4:	2e00                	fld	fs0,24(a2)
    12f6:	04000003          	lb	zero,64(zero) # 40 <__stack_align+0x30>
    12fa:	0070                	addi	a2,sp,12
    12fc:	301d                	.insn	2, 0x301d
    12fe:	032e                	slli	t1,t1,0xb
    1300:	0000                	unimp
    1302:	0700                	addi	s0,sp,896
    1304:	000000bf 626d7711 	.insn	8, 0x626d7711000000bf
    130c:	1600                	addi	s0,sp,800
    130e:	7211                	lui	tp,0xfffe4
    1310:	626d                	lui	tp,0x1b
    1312:	1500                	addi	s0,sp,672
    1314:	e000                	sd	s0,0(s0)
    1316:	0000                	unimp
    1318:	0500                	addi	s0,sp,640
    131a:	0100                	addi	s0,sp,128
    131c:	f508                	sd	a0,40(a0)
    131e:	0009                	c.nop	2
    1320:	0400                	addi	s0,sp,512
    1322:	015d                	addi	sp,sp,23
    1324:	0000                	unimp
    1326:	cc1d                	beqz	s0,1364 <__stack_align+0x1354>
    1328:	92000003          	lb	zero,-1760(zero) # fffffffffffff920 <__heap_end+0xffffffff7ffdc920>
    132c:	0001                	nop
    132e:	7c00                	ld	s0,56(s0)
    1330:	001a                	c.slli	zero,0x6
    1332:	0080                	addi	s0,sp,64
    1334:	0000                	unimp
    1336:	2200                	fld	fs0,0(a2)
    1338:	0000                	unimp
    133a:	0000                	unimp
    133c:	0000                	unimp
    133e:	0800                	addi	s0,sp,16
    1340:	0010                	.insn	2, 0x0010
    1342:	0100                	addi	s0,sp,128
    1344:	0508                	addi	a0,sp,640
    1346:	0131                	addi	sp,sp,12
    1348:	0000                	unimp
    134a:	0801                	addi	a6,a6,0
    134c:	00013f07          	fld	ft10,0(sp)
    1350:	0500                	addi	s0,sp,640
    1352:	0504                	addi	s1,sp,640
    1354:	6e69                	lui	t3,0x1a
    1356:	0074                	addi	a3,sp,12
    1358:	0801                	addi	a6,a6,0
    135a:	2c05                	addiw	s8,s8,1 # 490f1 <__heap_size+0x290f1>
    135c:	0001                	nop
    135e:	0100                	addi	s0,sp,128
    1360:	0410                	addi	a2,sp,512
    1362:	000001f3          	.insn	4, 0x01f3
    1366:	0101                	addi	sp,sp,0
    1368:	2e06                	fld	ft8,64(sp)
    136a:	0000                	unimp
    136c:	0100                	addi	s0,sp,128
    136e:	0801                	addi	a6,a6,0
    1370:	002c                	addi	a1,sp,8
    1372:	0000                	unimp
    1374:	0201                	addi	tp,tp,0 # 1b000 <__stack_size+0x13000>
    1376:	0d05                	addi	s10,s10,1
    1378:	0001                	nop
    137a:	0100                	addi	s0,sp,128
    137c:	0702                	c.slli64	a4
    137e:	003a                	c.slli	zero,0xe
    1380:	0000                	unimp
    1382:	0401                	addi	s0,s0,0 # 7000 <__stack_size_min+0x1000>
    1384:	00014407          	.insn	4, 0x00014407
    1388:	0200                	addi	s0,sp,256
    138a:	0352                	slli	t1,t1,0x14
    138c:	0000                	unimp
    138e:	6902                	ld	s2,0(sp)
    1390:	3519                	addiw	a0,a0,-26
    1392:	0000                	unimp
    1394:	0200                	addi	s0,sp,256
    1396:	0354                	addi	a3,sp,388
    1398:	0000                	unimp
    139a:	74143c03          	ld	s8,1857(s0)
    139e:	0000                	unimp
    13a0:	0600                	addi	s0,sp,768
    13a2:	0080                	addi	s0,sp,64
    13a4:	0000                	unimp
    13a6:	0101                	addi	sp,sp,0
    13a8:	3508                	fld	fa0,40(a0)
    13aa:	0000                	unimp
    13ac:	0300                	addi	s0,sp,384
    13ae:	0000047b          	.insn	4, 0x047b
    13b2:	8c06                	mv	s8,ra
    13b4:	0000                	unimp
    13b6:	0300                	addi	s0,sp,384
    13b8:	0472                	slli	s0,s0,0x1c
    13ba:	0000                	unimp
    13bc:	00008c07          	.insn	4, 0x8c07
    13c0:	0700                	addi	s0,sp,896
    13c2:	03e4                	addi	s1,sp,460
    13c4:	0000                	unimp
    13c6:	0401                	addi	s0,s0,0
    13c8:	7c21                	lui	s8,0xfffe8
    13ca:	001a                	c.slli	zero,0x6
    13cc:	0080                	addi	s0,sp,64
    13ce:	0000                	unimp
    13d0:	2200                	fld	fs0,0(a2)
    13d2:	0000                	unimp
    13d4:	0000                	unimp
    13d6:	0000                	unimp
    13d8:	0100                	addi	s0,sp,128
    13da:	089c                	addi	a5,sp,80
    13dc:	03fa                	slli	t2,t2,0x1e
    13de:	0000                	unimp
    13e0:	0401                	addi	s0,s0,0
    13e2:	00003c2b          	.insn	4, 0x3c2b
    13e6:	0100                	addi	s0,sp,128
    13e8:	095a                	slli	s2,s2,0x16
    13ea:	00646d63          	bltu	s0,t1,1404 <__stack_align+0x13f4>
    13ee:	0601                	addi	a2,a2,0
    13f0:	800e                	c.mv	zero,gp
    13f2:	0000                	unimp
    13f4:	0100                	addi	s0,sp,128
    13f6:	Address 0x13f6 is out of bounds.


Disassembly of section .debug_abbrev:

0000000000000000 <.debug_abbrev>:
   0:	0501                	addi	a0,a0,0
   2:	3100                	fld	fs0,32(a0)
   4:	00170213          	addi	tp,a4,1 # 2218b <__heap_size+0x218b>
   8:	0200                	addi	s0,sp,256
   a:	0024                	addi	s1,sp,8
   c:	0b3e0b0b          	.insn	4, 0x0b3e0b0b
  10:	00000e03          	lb	t3,0(zero) # 0 <__boot_hart>
  14:	03001603          	lh	a2,48(zero) # 30 <__stack_align+0x20>
  18:	3a0e                	fld	fs4,224(sp)
  1a:	390b3b0b          	.insn	4, 0x390b3b0b
  1e:	0013490b          	.insn	4, 0x0013490b
  22:	0400                	addi	s0,sp,512
  24:	011d                	addi	sp,sp,7
  26:	1331                	addi	t1,t1,-20
  28:	0111                	addi	sp,sp,4
  2a:	0712                	slli	a4,a4,0x4
  2c:	2158                	fld	fa4,128(a0)
  2e:	5901                	li	s2,-32
  30:	010b570b          	.insn	4, 0x010b570b
  34:	05000013          	li	zero,80
  38:	0005                	c.nop	1
  3a:	213a0e03          	lb	t3,531(s4)
  3e:	3b02                	fld	fs6,32(sp)
  40:	490b390b          	.insn	4, 0x490b390b
  44:	06000013          	li	zero,96
  48:	012e                	slli	sp,sp,0xb
  4a:	0e03193f 3b01213a 	.insn	8, 0x3b01213a0e03193f
  52:	2521                	addiw	a0,a0,8
  54:	2139                	addiw	sp,sp,14
  56:	4905                	li	s2,1
  58:	01193c13          	sltiu	s8,s2,17
  5c:	07000013          	li	zero,112
  60:	0018                	.insn	2, 0x0018
  62:	0000                	unimp
  64:	3408                	fld	fa0,40(s0)
  66:	3100                	fld	fs0,32(a0)
  68:	00170213          	addi	tp,a4,1
  6c:	0900                	addi	s0,sp,144
  6e:	0034                	addi	a3,sp,8
  70:	213a0803          	lb	a6,531(s4)
  74:	3b02                	fld	fs6,32(sp)
  76:	490b390b          	.insn	4, 0x490b390b
  7a:	0a000013          	li	zero,160
  7e:	0035                	c.nop	13
  80:	1349                	addi	t1,t1,-14
  82:	0000                	unimp
  84:	0300340b          	.insn	4, 0x0300340b
  88:	3a08                	fld	fa0,48(a2)
  8a:	0121                	addi	sp,sp,8
  8c:	3915213b          	.insn	4, 0x3915213b
  90:	1c13490b          	.insn	4, 0x1c13490b
  94:	0c00000b          	.insn	4, 0x0c00000b
  98:	0148                	addi	a0,sp,132
  9a:	017d                	addi	sp,sp,31
  9c:	0000137f 0200490d 	.insn	12, 0x00187e180200490d0000137f
  a4:	00187e18 
  a8:	0e00                	addi	s0,sp,784
  aa:	011d                	addi	sp,sp,7
  ac:	1331                	addi	t1,t1,-20
  ae:	0152                	slli	sp,sp,0x14
  b0:	1755                	addi	a4,a4,-11
  b2:	2158                	fld	fa4,128(a0)
  b4:	5901                	li	s2,-32
  b6:	0b21570b          	.insn	4, 0x0b21570b
  ba:	1301                	addi	t1,t1,-32
  bc:	0000                	unimp
  be:	3100050f          	.insn	4, 0x3100050f
  c2:	10000013          	li	zero,256
  c6:	1755010b          	.insn	4, 0x1755010b
  ca:	0000                	unimp
  cc:	3411                	addiw	s0,s0,-28
  ce:	3100                	fld	fs0,32(a0)
  d0:	12000013          	li	zero,288
  d4:	0005                	c.nop	1
  d6:	213a0803          	lb	a6,531(s4)
  da:	3b01                	addiw	s6,s6,-32 # fffffffffffe1fe0 <__heap_end+0xffffffff7ffbefe0>
  dc:	0821                	addi	a6,a6,8
  de:	0b39                	addi	s6,s6,14
  e0:	1349                	addi	t1,t1,-14
  e2:	0000                	unimp
  e4:	03012e13          	slti	t3,sp,48
  e8:	3a0e                	fld	fs4,224(sp)
  ea:	0221                	addi	tp,tp,8 # 8 <__boot_hart+0x8>
  ec:	0b390b3b          	.insn	4, 0x0b390b3b
  f0:	13491927          	.insn	4, 0x13491927
  f4:	2120                	fld	fs0,64(a0)
  f6:	00130103          	lb	sp,1(t1)
  fa:	1400                	addi	s0,sp,544
  fc:	210b000f          	.insn	4, 0x210b000f
 100:	4908                	lw	a0,16(a0)
 102:	15000013          	li	zero,336
 106:	0111                	addi	sp,sp,4
 108:	0e25                	addi	t3,t3,9 # 1a009 <__stack_size+0x12009>
 10a:	1f030b13          	addi	s6,t1,496
 10e:	17551f1b          	.insn	4, 0x17551f1b
 112:	0111                	addi	sp,sp,4
 114:	1710                	addi	a2,sp,928
 116:	0000                	unimp
 118:	2416                	fld	fs0,320(sp)
 11a:	0b00                	addi	s0,sp,400
 11c:	030b3e0b          	.insn	4, 0x030b3e0b
 120:	0008                	.insn	2, 0x0008
 122:	1700                	addi	s0,sp,928
 124:	012e                	slli	sp,sp,0xb
 126:	0e03193f 0b3b0b3a 	.insn	8, 0x0b3b0b3a0e03193f
 12e:	0b39                	addi	s6,s6,14
 130:	13491927          	.insn	4, 0x13491927
 134:	0111                	addi	sp,sp,4
 136:	0712                	slli	a4,a4,0x4
 138:	1840                	addi	s0,sp,52
 13a:	197a                	slli	s2,s2,0x3e
 13c:	1301                	addi	t1,t1,-32
 13e:	0000                	unimp
 140:	3418                	fld	fa4,40(s0)
 142:	0300                	addi	s0,sp,384
 144:	3a0e                	fld	fs4,224(sp)
 146:	390b3b0b          	.insn	4, 0x390b3b0b
 14a:	0213490b          	.insn	4, 0x0213490b
 14e:	19000017          	auipc	zero,0x19000
 152:	0034                	addi	a3,sp,8
 154:	0b3a0803          	lb	a6,179(s4)
 158:	0b390b3b          	.insn	4, 0x0b390b3b
 15c:	1349                	addi	t1,t1,-14
 15e:	1702                	slli	a4,a4,0x20
 160:	0000                	unimp
 162:	0b1a                	slli	s6,s6,0x6
 164:	1101                	addi	sp,sp,-32
 166:	1201                	addi	tp,tp,-32 # ffffffffffffffe0 <__heap_end+0xffffffff7ffdcfe0>
 168:	00130107          	.insn	4, 0x00130107
 16c:	1b00                	addi	s0,sp,432
 16e:	012e                	slli	sp,sp,0xb
 170:	0e03193f 0b3b0b3a 	.insn	8, 0x0b3b0b3a0e03193f
 178:	0b39                	addi	s6,s6,14
 17a:	13491927          	.insn	4, 0x13491927
 17e:	0b20                	addi	s0,sp,408
 180:	1301                	addi	t1,t1,-32
 182:	0000                	unimp
 184:	2e1c                	fld	fa5,24(a2)
 186:	0301                	addi	t1,t1,0
 188:	3a0e                	fld	fs4,224(sp)
 18a:	390b3b0b          	.insn	4, 0x390b3b0b
 18e:	2019270b          	.insn	4, 0x2019270b
 192:	0013010b          	.insn	4, 0x0013010b
 196:	1d00                	addi	s0,sp,688
 198:	012e                	slli	sp,sp,0xb
 19a:	1331                	addi	t1,t1,-20
 19c:	0111                	addi	sp,sp,4
 19e:	0712                	slli	a4,a4,0x4
 1a0:	1840                	addi	s0,sp,52
 1a2:	197a                	slli	s2,s2,0x3e
 1a4:	0000                	unimp
 1a6:	0100                	addi	s0,sp,128
 1a8:	0024                	addi	s1,sp,8
 1aa:	0b3e0b0b          	.insn	4, 0x0b3e0b0b
 1ae:	00000e03          	lb	t3,0(zero) # 0 <__boot_hart>
 1b2:	1102                	slli	sp,sp,0x20
 1b4:	2501                	sext.w	a0,a0
 1b6:	130e                	slli	t1,t1,0x23
 1b8:	1b1f030b          	.insn	4, 0x1b1f030b
 1bc:	111f 1201 1007      	.insn	6, 0x10071201111f
 1c2:	03000017          	auipc	zero,0x3000
 1c6:	0024                	addi	s1,sp,8
 1c8:	0b3e0b0b          	.insn	4, 0x0b3e0b0b
 1cc:	00000803          	lb	a6,0(zero) # 0 <__boot_hart>
 1d0:	2e04                	fld	fs1,24(a2)
 1d2:	3f00                	fld	fs0,56(a4)
 1d4:	0319                	addi	t1,t1,6
 1d6:	3a0e                	fld	fs4,224(sp)
 1d8:	390b3b0b          	.insn	4, 0x390b3b0b
 1dc:	4919270b          	.insn	4, 0x4919270b
 1e0:	00193c13          	seqz	s8,s2
 1e4:	0500                	addi	s0,sp,640
 1e6:	0b0b000f          	.insn	4, 0x0b0b000f
 1ea:	1349                	addi	t1,t1,-14
 1ec:	0000                	unimp
 1ee:	2e06                	fld	ft8,64(sp)
 1f0:	3f01                	addiw	t5,t5,-32
 1f2:	0319                	addi	t1,t1,6
 1f4:	3a0e                	fld	fs4,224(sp)
 1f6:	390b3b0b          	.insn	4, 0x390b3b0b
 1fa:	4919270b          	.insn	4, 0x4919270b
 1fe:	12011113          	.insn	4, 0x12011113
 202:	7a184007          	.insn	4, 0x7a184007
 206:	0019                	c.nop	6
 208:	0700                	addi	s0,sp,896
 20a:	0005                	c.nop	1
 20c:	0b3a0e03          	lb	t3,179(s4)
 210:	0b390b3b          	.insn	4, 0x0b390b3b
 214:	1349                	addi	t1,t1,-14
 216:	1702                	slli	a4,a4,0x20
 218:	0000                	unimp
 21a:	4808                	lw	a0,16(s0)
 21c:	7d00                	ld	s0,56(a0)
 21e:	7f01                	lui	t5,0xfffe0
 220:	00000013          	nop
 224:	1601                	addi	a2,a2,-32
 226:	0300                	addi	s0,sp,384
 228:	3a0e                	fld	fs4,224(sp)
 22a:	390b3b0b          	.insn	4, 0x390b3b0b
 22e:	0013490b          	.insn	4, 0x0013490b
 232:	0200                	addi	s0,sp,256
 234:	000d                	c.nop	3
 236:	0b3a0e03          	lb	t3,179(s4)
 23a:	0b390b3b          	.insn	4, 0x0b390b3b
 23e:	1349                	addi	t1,t1,-14
 240:	0b38                	addi	a4,sp,408
 242:	0000                	unimp
 244:	0b002403          	lw	s0,176(zero) # b0 <__stack_align+0xa0>
 248:	030b3e0b          	.insn	4, 0x030b3e0b
 24c:	000e                	c.slli	zero,0x3
 24e:	0400                	addi	s0,sp,512
 250:	0e030113          	addi	sp,t1,224
 254:	0b3a0b0b          	.insn	4, 0x0b3a0b0b
 258:	21390b3b          	.insn	4, 0x21390b3b
 25c:	0108                	addi	a0,sp,128
 25e:	05000013          	li	zero,80
 262:	210b000f          	.insn	4, 0x210b000f
 266:	4908                	lw	a0,16(a0)
 268:	06000013          	li	zero,96
 26c:	0111                	addi	sp,sp,4
 26e:	0e25                	addi	t3,t3,9
 270:	1f030b13          	addi	s6,t1,496
 274:	01111f1b          	slliw	t5,sp,0x11
 278:	0712                	slli	a4,a4,0x4
 27a:	1710                	addi	a2,sp,928
 27c:	0000                	unimp
 27e:	0b002407          	flw	fs0,176(zero) # b0 <__stack_align+0xa0>
 282:	030b3e0b          	.insn	4, 0x030b3e0b
 286:	0008                	.insn	2, 0x0008
 288:	0800                	addi	s0,sp,16
 28a:	0101                	addi	sp,sp,0
 28c:	1349                	addi	t1,t1,-14
 28e:	1301                	addi	t1,t1,-32
 290:	0000                	unimp
 292:	2109                	addiw	sp,sp,2
 294:	4900                	lw	s0,16(a0)
 296:	000b2f13          	slti	t5,s6,0
 29a:	0a00                	addi	s0,sp,272
 29c:	002e                	c.slli	zero,0xb
 29e:	0e03193f 0b3b0b3a 	.insn	8, 0x0b3b0b3a0e03193f
 2a6:	0b39                	addi	s6,s6,14
 2a8:	13491927          	.insn	4, 0x13491927
 2ac:	193c                	addi	a5,sp,184
 2ae:	0000                	unimp
 2b0:	3f012e0b          	.insn	4, 0x3f012e0b
 2b4:	0319                	addi	t1,t1,6
 2b6:	3a0e                	fld	fs4,224(sp)
 2b8:	390b3b0b          	.insn	4, 0x390b3b0b
 2bc:	4919270b          	.insn	4, 0x4919270b
 2c0:	12011113          	.insn	4, 0x12011113
 2c4:	7a184007          	.insn	4, 0x7a184007
 2c8:	0119                	addi	sp,sp,6
 2ca:	0c000013          	li	zero,192
 2ce:	0005                	c.nop	1
 2d0:	0b3a0e03          	lb	t3,179(s4)
 2d4:	0b390b3b          	.insn	4, 0x0b390b3b
 2d8:	1349                	addi	t1,t1,-14
 2da:	1702                	slli	a4,a4,0x20
 2dc:	0000                	unimp
 2de:	050d                	addi	a0,a0,3
 2e0:	0300                	addi	s0,sp,384
 2e2:	3a08                	fld	fa0,48(a2)
 2e4:	390b3b0b          	.insn	4, 0x390b3b0b
 2e8:	0213490b          	.insn	4, 0x0213490b
 2ec:	0e000017          	auipc	zero,0xe000
 2f0:	0048                	addi	a0,sp,4
 2f2:	017d                	addi	sp,sp,31
 2f4:	0000137f 00240100 	.insn	12, 0x0b3e0b0b002401000000137f
 2fc:	0b3e0b0b 
 300:	00000e03          	lb	t3,0(zero) # 0 <__boot_hart>
 304:	1102                	slli	sp,sp,0x20
 306:	2501                	sext.w	a0,a0
 308:	130e                	slli	t1,t1,0x23
 30a:	1b1f030b          	.insn	4, 0x1b1f030b
 30e:	111f 1201 1007      	.insn	6, 0x10071201111f
 314:	03000017          	auipc	zero,0x3000
 318:	0024                	addi	s1,sp,8
 31a:	0b3e0b0b          	.insn	4, 0x0b3e0b0b
 31e:	00000803          	lb	a6,0(zero) # 0 <__boot_hart>
 322:	2e04                	fld	fs1,24(a2)
 324:	3f01                	addiw	t5,t5,-32 # fffffffffffdffe0 <__heap_end+0xffffffff7ffbcfe0>
 326:	0319                	addi	t1,t1,6
 328:	3a0e                	fld	fs4,224(sp)
 32a:	390b3b0b          	.insn	4, 0x390b3b0b
 32e:	4919270b          	.insn	4, 0x4919270b
 332:	12011113          	.insn	4, 0x12011113
 336:	7a184007          	.insn	4, 0x7a184007
 33a:	0019                	c.nop	6
 33c:	0500                	addi	s0,sp,640
 33e:	0005                	c.nop	1
 340:	0b3a0e03          	lb	t3,179(s4)
 344:	0b390b3b          	.insn	4, 0x0b390b3b
 348:	1349                	addi	t1,t1,-14
 34a:	1702                	slli	a4,a4,0x20
 34c:	0000                	unimp
 34e:	0100                	addi	s0,sp,128
 350:	0024                	addi	s1,sp,8
 352:	0b3e0b0b          	.insn	4, 0x0b3e0b0b
 356:	00000e03          	lb	t3,0(zero) # 0 <__boot_hart>
 35a:	1602                	slli	a2,a2,0x20
 35c:	0300                	addi	s0,sp,384
 35e:	3a0e                	fld	fs4,224(sp)
 360:	390b3b0b          	.insn	4, 0x390b3b0b
 364:	0013490b          	.insn	4, 0x0013490b
 368:	0300                	addi	s0,sp,384
 36a:	0005                	c.nop	1
 36c:	213a0803          	lb	a6,531(s4)
 370:	3b01                	addiw	s6,s6,-32
 372:	0521                	addi	a0,a0,8
 374:	0b39                	addi	s6,s6,14
 376:	1349                	addi	t1,t1,-14
 378:	1702                	slli	a4,a4,0x20
 37a:	0000                	unimp
 37c:	1104                	addi	s1,sp,160
 37e:	2501                	sext.w	a0,a0
 380:	130e                	slli	t1,t1,0x23
 382:	1b1f030b          	.insn	4, 0x1b1f030b
 386:	111f 1201 1007      	.insn	6, 0x10071201111f
 38c:	05000017          	auipc	zero,0x5000
 390:	0024                	addi	s1,sp,8
 392:	0b3e0b0b          	.insn	4, 0x0b3e0b0b
 396:	00000803          	lb	a6,0(zero) # 0 <__boot_hart>
 39a:	2e06                	fld	ft8,64(sp)
 39c:	3f00                	fld	fs0,56(a4)
 39e:	0319                	addi	t1,t1,6
 3a0:	3a0e                	fld	fs4,224(sp)
 3a2:	390b3b0b          	.insn	4, 0x390b3b0b
 3a6:	4919270b          	.insn	4, 0x4919270b
 3aa:	00193c13          	seqz	s8,s2
 3ae:	0700                	addi	s0,sp,896
 3b0:	0b0b000f          	.insn	4, 0x0b0b000f
 3b4:	1349                	addi	t1,t1,-14
 3b6:	0000                	unimp
 3b8:	2e08                	fld	fa0,24(a2)
 3ba:	3f01                	addiw	t5,t5,-32
 3bc:	0319                	addi	t1,t1,6
 3be:	3a0e                	fld	fs4,224(sp)
 3c0:	390b3b0b          	.insn	4, 0x390b3b0b
 3c4:	4919270b          	.insn	4, 0x4919270b
 3c8:	12011113          	.insn	4, 0x12011113
 3cc:	7a184007          	.insn	4, 0x7a184007
 3d0:	0019                	c.nop	6
 3d2:	0900                	addi	s0,sp,144
 3d4:	0005                	c.nop	1
 3d6:	0b3a0e03          	lb	t3,179(s4)
 3da:	0b390b3b          	.insn	4, 0x0b390b3b
 3de:	1349                	addi	t1,t1,-14
 3e0:	1702                	slli	a4,a4,0x20
 3e2:	0000                	unimp
 3e4:	480a                	lw	a6,128(sp)
 3e6:	7d00                	ld	s0,56(a0)
 3e8:	7f01                	lui	t5,0xfffe0
 3ea:	00000013          	nop
 3ee:	2401                	sext.w	s0,s0
 3f0:	0b00                	addi	s0,sp,400
 3f2:	030b3e0b          	.insn	4, 0x030b3e0b
 3f6:	000e                	c.slli	zero,0x3
 3f8:	0200                	addi	s0,sp,256
 3fa:	0016                	c.slli	zero,0x5
 3fc:	0b3a0e03          	lb	t3,179(s4)
 400:	0b390b3b          	.insn	4, 0x0b390b3b
 404:	1349                	addi	t1,t1,-14
 406:	0000                	unimp
 408:	03000503          	lb	a0,48(zero) # 30 <__stack_align+0x20>
 40c:	3a08                	fld	fa0,48(a2)
 40e:	0121                	addi	sp,sp,8
 410:	3905213b          	.insn	4, 0x3905213b
 414:	0213490b          	.insn	4, 0x0213490b
 418:	04000017          	auipc	zero,0x4000
 41c:	0111                	addi	sp,sp,4
 41e:	0e25                	addi	t3,t3,9
 420:	1f030b13          	addi	s6,t1,496
 424:	01111f1b          	slliw	t5,sp,0x11
 428:	0712                	slli	a4,a4,0x4
 42a:	1710                	addi	a2,sp,928
 42c:	0000                	unimp
 42e:	2405                	addiw	s0,s0,1
 430:	0b00                	addi	s0,sp,400
 432:	030b3e0b          	.insn	4, 0x030b3e0b
 436:	0008                	.insn	2, 0x0008
 438:	0600                	addi	s0,sp,768
 43a:	0b0b000f          	.insn	4, 0x0b0b000f
 43e:	0000                	unimp
 440:	3f002e07          	flw	ft8,1008(zero) # 3f0 <__stack_align+0x3e0>
 444:	0319                	addi	t1,t1,6
 446:	3a0e                	fld	fs4,224(sp)
 448:	390b3b0b          	.insn	4, 0x390b3b0b
 44c:	4919270b          	.insn	4, 0x4919270b
 450:	00193c13          	seqz	s8,s2
 454:	0800                	addi	s0,sp,16
 456:	0b0b000f          	.insn	4, 0x0b0b000f
 45a:	1349                	addi	t1,t1,-14
 45c:	0000                	unimp
 45e:	2e09                	addiw	t3,t3,2
 460:	3f01                	addiw	t5,t5,-32 # fffffffffffdffe0 <__heap_end+0xffffffff7ffbcfe0>
 462:	0319                	addi	t1,t1,6
 464:	3a0e                	fld	fs4,224(sp)
 466:	390b3b0b          	.insn	4, 0x390b3b0b
 46a:	4919270b          	.insn	4, 0x4919270b
 46e:	12011113          	.insn	4, 0x12011113
 472:	7a184007          	.insn	4, 0x7a184007
 476:	0019                	c.nop	6
 478:	0a00                	addi	s0,sp,272
 47a:	0005                	c.nop	1
 47c:	0b3a0e03          	lb	t3,179(s4)
 480:	0b390b3b          	.insn	4, 0x0b390b3b
 484:	1349                	addi	t1,t1,-14
 486:	1702                	slli	a4,a4,0x20
 488:	0000                	unimp
 48a:	7d00480b          	.insn	4, 0x7d00480b
 48e:	7f01                	lui	t5,0xfffe0
 490:	00000013          	nop
 494:	2401                	sext.w	s0,s0
 496:	0b00                	addi	s0,sp,400
 498:	030b3e0b          	.insn	4, 0x030b3e0b
 49c:	000e                	c.slli	zero,0x3
 49e:	0200                	addi	s0,sp,256
 4a0:	210b000f          	.insn	4, 0x210b000f
 4a4:	4908                	lw	a0,16(a0)
 4a6:	03000013          	li	zero,48
 4aa:	0034                	addi	a3,sp,8
 4ac:	213a0e03          	lb	t3,531(s4)
 4b0:	3b01                	addiw	s6,s6,-32
 4b2:	490b390b          	.insn	4, 0x490b390b
 4b6:	3c193f13          	sltiu	t5,s2,961
 4ba:	0019                	c.nop	6
 4bc:	0400                	addi	s0,sp,512
 4be:	0034                	addi	a3,sp,8
 4c0:	213a0e03          	lb	t3,531(s4)
 4c4:	3b01                	addiw	s6,s6,-32
 4c6:	0b21390b          	.insn	4, 0x0b21390b
 4ca:	1349                	addi	t1,t1,-14
 4cc:	1702                	slli	a4,a4,0x20
 4ce:	0000                	unimp
 4d0:	1105                	addi	sp,sp,-31
 4d2:	2501                	sext.w	a0,a0
 4d4:	130e                	slli	t1,t1,0x23
 4d6:	1b1f030b          	.insn	4, 0x1b1f030b
 4da:	111f 1201 1007      	.insn	6, 0x10071201111f
 4e0:	06000017          	auipc	zero,0x6000
 4e4:	0016                	c.slli	zero,0x5
 4e6:	0b3a0e03          	lb	t3,179(s4)
 4ea:	0b390b3b          	.insn	4, 0x0b390b3b
 4ee:	1349                	addi	t1,t1,-14
 4f0:	0000                	unimp
 4f2:	0b002407          	flw	fs0,176(zero) # b0 <__stack_align+0xa0>
 4f6:	030b3e0b          	.insn	4, 0x030b3e0b
 4fa:	0008                	.insn	2, 0x0008
 4fc:	0800                	addi	s0,sp,16
 4fe:	0b0b000f          	.insn	4, 0x0b0b000f
 502:	0000                	unimp
 504:	0109                	addi	sp,sp,2
 506:	4901                	li	s2,0
 508:	00130113          	addi	sp,t1,1
 50c:	0a00                	addi	s0,sp,272
 50e:	0021                	c.nop	8
 510:	0000                	unimp
 512:	0300340b          	.insn	4, 0x0300340b
 516:	3a0e                	fld	fs4,224(sp)
 518:	390b3b0b          	.insn	4, 0x390b3b0b
 51c:	0213490b          	.insn	4, 0x0213490b
 520:	0018                	.insn	2, 0x0018
 522:	0c00                	addi	s0,sp,528
 524:	002e                	c.slli	zero,0xb
 526:	0e03193f 0b3b0b3a 	.insn	8, 0x0b3b0b3a0e03193f
 52e:	0b39                	addi	s6,s6,14
 530:	13491927          	.insn	4, 0x13491927
 534:	193c                	addi	a5,sp,184
 536:	0000                	unimp
 538:	2e0d                	addiw	t3,t3,3
 53a:	3f01                	addiw	t5,t5,-32 # fffffffffffdffe0 <__heap_end+0xffffffff7ffbcfe0>
 53c:	0319                	addi	t1,t1,6
 53e:	3a0e                	fld	fs4,224(sp)
 540:	390b3b0b          	.insn	4, 0x390b3b0b
 544:	4919270b          	.insn	4, 0x4919270b
 548:	12011113          	.insn	4, 0x12011113
 54c:	7a184007          	.insn	4, 0x7a184007
 550:	0019                	c.nop	6
 552:	0e00                	addi	s0,sp,784
 554:	0005                	c.nop	1
 556:	0b3a0e03          	lb	t3,179(s4)
 55a:	0b390b3b          	.insn	4, 0x0b390b3b
 55e:	1349                	addi	t1,t1,-14
 560:	1702                	slli	a4,a4,0x20
 562:	0000                	unimp
 564:	7d00480f          	.insn	4, 0x7d00480f
 568:	7f01                	lui	t5,0xfffe0
 56a:	00000013          	nop
 56e:	2401                	sext.w	s0,s0
 570:	0b00                	addi	s0,sp,400
 572:	030b3e0b          	.insn	4, 0x030b3e0b
 576:	000e                	c.slli	zero,0x3
 578:	0200                	addi	s0,sp,256
 57a:	0016                	c.slli	zero,0x5
 57c:	0b3a0e03          	lb	t3,179(s4)
 580:	0b390b3b          	.insn	4, 0x0b390b3b
 584:	1349                	addi	t1,t1,-14
 586:	0000                	unimp
 588:	49000503          	lb	a0,1168(zero) # 490 <__stack_align+0x480>
 58c:	04000013          	li	zero,64
 590:	0049                	c.nop	18
 592:	1802                	slli	a6,a6,0x20
 594:	187e                	slli	a6,a6,0x3f
 596:	0000                	unimp
 598:	0505                	addi	a0,a0,1
 59a:	0300                	addi	s0,sp,384
 59c:	3a08                	fld	fa0,48(a2)
 59e:	0121                	addi	sp,sp,8
 5a0:	3906213b          	.insn	4, 0x3906213b
 5a4:	0213490b          	.insn	4, 0x0213490b
 5a8:	06000017          	auipc	zero,0x6000
 5ac:	0111                	addi	sp,sp,4
 5ae:	0e25                	addi	t3,t3,9
 5b0:	1f030b13          	addi	s6,t1,496
 5b4:	01111f1b          	slliw	t5,sp,0x11
 5b8:	0712                	slli	a4,a4,0x4
 5ba:	1710                	addi	a2,sp,928
 5bc:	0000                	unimp
 5be:	0b002407          	flw	fs0,176(zero) # b0 <__stack_align+0xa0>
 5c2:	030b3e0b          	.insn	4, 0x030b3e0b
 5c6:	0008                	.insn	2, 0x0008
 5c8:	0800                	addi	s0,sp,16
 5ca:	012e                	slli	sp,sp,0xb
 5cc:	0e03193f 0b3b0b3a 	.insn	8, 0x0b3b0b3a0e03193f
 5d4:	0b39                	addi	s6,s6,14
 5d6:	13491927          	.insn	4, 0x13491927
 5da:	193c                	addi	a5,sp,184
 5dc:	1301                	addi	t1,t1,-32
 5de:	0000                	unimp
 5e0:	2e09                	addiw	t3,t3,2
 5e2:	3f01                	addiw	t5,t5,-32 # fffffffffffdffe0 <__heap_end+0xffffffff7ffbcfe0>
 5e4:	0319                	addi	t1,t1,6
 5e6:	3a0e                	fld	fs4,224(sp)
 5e8:	390b3b0b          	.insn	4, 0x390b3b0b
 5ec:	4919270b          	.insn	4, 0x4919270b
 5f0:	12011113          	.insn	4, 0x12011113
 5f4:	7a184007          	.insn	4, 0x7a184007
 5f8:	0119                	addi	sp,sp,6
 5fa:	0a000013          	li	zero,160
 5fe:	0148                	addi	a0,sp,132
 600:	017d                	addi	sp,sp,31
 602:	0182                	c.slli64	gp
 604:	7f19                	lui	t5,0xfffe6
 606:	0b000013          	li	zero,176
 60a:	0b0b000f          	.insn	4, 0x0b0b000f
 60e:	1349                	addi	t1,t1,-14
 610:	0000                	unimp
 612:	260c                	fld	fa1,8(a2)
 614:	0000                	unimp
 616:	0000                	unimp
 618:	1101                	addi	sp,sp,-32
 61a:	1000                	addi	s0,sp,32
 61c:	12011117          	auipc	sp,0x12011
 620:	1b0e030f          	.insn	4, 0x1b0e030f
 624:	250e                	fld	fa0,192(sp)
 626:	130e                	slli	t1,t1,0x23
 628:	0005                	c.nop	1
 62a:	0000                	unimp
 62c:	1101                	addi	sp,sp,-32 # 120115fc <__heap_size+0x11ff15fc>
 62e:	1000                	addi	s0,sp,32
 630:	12011117          	auipc	sp,0x12011
 634:	1b0e030f          	.insn	4, 0x1b0e030f
 638:	250e                	fld	fa0,192(sp)
 63a:	130e                	slli	t1,t1,0x23
 63c:	0005                	c.nop	1
 63e:	0000                	unimp
 640:	2401                	sext.w	s0,s0
 642:	0b00                	addi	s0,sp,400
 644:	030b3e0b          	.insn	4, 0x030b3e0b
 648:	000e                	c.slli	zero,0x3
 64a:	0200                	addi	s0,sp,256
 64c:	0016                	c.slli	zero,0x5
 64e:	0b3a0e03          	lb	t3,179(s4)
 652:	0b390b3b          	.insn	4, 0x0b390b3b
 656:	1349                	addi	t1,t1,-14
 658:	0000                	unimp
 65a:	03000503          	lb	a0,48(zero) # 30 <__stack_align+0x20>
 65e:	3a0e                	fld	fs4,224(sp)
 660:	0121                	addi	sp,sp,8 # 12011638 <__heap_size+0x11ff1638>
 662:	3904213b          	.insn	4, 0x3904213b
 666:	0213490b          	.insn	4, 0x0213490b
 66a:	04000017          	auipc	zero,0x4000
 66e:	0111                	addi	sp,sp,4
 670:	0e25                	addi	t3,t3,9
 672:	1f030b13          	addi	s6,t1,496
 676:	01111f1b          	slliw	t5,sp,0x11
 67a:	0712                	slli	a4,a4,0x4
 67c:	1710                	addi	a2,sp,928
 67e:	0000                	unimp
 680:	2405                	addiw	s0,s0,1
 682:	0b00                	addi	s0,sp,400
 684:	030b3e0b          	.insn	4, 0x030b3e0b
 688:	0008                	.insn	2, 0x0008
 68a:	0600                	addi	s0,sp,768
 68c:	012e                	slli	sp,sp,0xb
 68e:	0e03193f 0b3b0b3a 	.insn	8, 0x0b3b0b3a0e03193f
 696:	0b39                	addi	s6,s6,14
 698:	01871927          	.insn	4, 0x01871927
 69c:	3c19                	addiw	s8,s8,-26 # fffffffffffe7fe6 <__heap_end+0xffffffff7ffc4fe6>
 69e:	0119                	addi	sp,sp,6
 6a0:	07000013          	li	zero,112
 6a4:	0005                	c.nop	1
 6a6:	1349                	addi	t1,t1,-14
 6a8:	0000                	unimp
 6aa:	2e08                	fld	fa0,24(a2)
 6ac:	3f01                	addiw	t5,t5,-32 # fffffffffffe5fe0 <__heap_end+0xffffffff7ffc2fe0>
 6ae:	0319                	addi	t1,t1,6
 6b0:	3a0e                	fld	fs4,224(sp)
 6b2:	390b3b0b          	.insn	4, 0x390b3b0b
 6b6:	1119270b          	.insn	4, 0x1119270b
 6ba:	1201                	addi	tp,tp,-32 # ffffffffffffffe0 <__heap_end+0xffffffff7ffdcfe0>
 6bc:	7a184007          	.insn	4, 0x7a184007
 6c0:	0119                	addi	sp,sp,6
 6c2:	09000013          	li	zero,144
 6c6:	0005                	c.nop	1
 6c8:	0b3a0803          	lb	a6,179(s4)
 6cc:	0b390b3b          	.insn	4, 0x0b390b3b
 6d0:	1349                	addi	t1,t1,-14
 6d2:	1702                	slli	a4,a4,0x20
 6d4:	0000                	unimp
 6d6:	340a                	fld	fs0,160(sp)
 6d8:	0300                	addi	s0,sp,384
 6da:	3a0e                	fld	fs4,224(sp)
 6dc:	390b3b0b          	.insn	4, 0x390b3b0b
 6e0:	0213490b          	.insn	4, 0x0213490b
 6e4:	0b000017          	auipc	zero,0xb000
 6e8:	0048                	addi	a0,sp,4
 6ea:	017d                	addi	sp,sp,31
 6ec:	0000137f 0b000f0c 	.insn	12, 0x0013490b0b000f0c0000137f
 6f4:	0013490b 
 6f8:	0000                	unimp
 6fa:	2401                	sext.w	s0,s0
 6fc:	0b00                	addi	s0,sp,400
 6fe:	030b3e0b          	.insn	4, 0x030b3e0b
 702:	000e                	c.slli	zero,0x3
 704:	0200                	addi	s0,sp,256
 706:	0005                	c.nop	1
 708:	1349                	addi	t1,t1,-14
 70a:	0000                	unimp
 70c:	03003403          	ld	s0,48(zero) # 30 <__stack_align+0x20>
 710:	3a0e                	fld	fs4,224(sp)
 712:	0121                	addi	sp,sp,8
 714:	21390b3b          	.insn	4, 0x21390b3b
 718:	4911                	li	s2,4
 71a:	3c193f13          	sltiu	t5,s2,961
 71e:	0019                	c.nop	6
 720:	0400                	addi	s0,sp,512
 722:	13490037          	lui	zero,0x13490
 726:	0000                	unimp
 728:	0f05                	addi	t5,t5,1
 72a:	0b00                	addi	s0,sp,400
 72c:	0821                	addi	a6,a6,8
 72e:	1349                	addi	t1,t1,-14
 730:	0000                	unimp
 732:	2e06                	fld	ft8,64(sp)
 734:	3f01                	addiw	t5,t5,-32
 736:	0319                	addi	t1,t1,6
 738:	3a0e                	fld	fs4,224(sp)
 73a:	0221                	addi	tp,tp,8 # 8 <__boot_hart+0x8>
 73c:	21390b3b          	.insn	4, 0x21390b3b
 740:	2709                	addiw	a4,a4,2
 742:	4919                	li	s2,6
 744:	01193c13          	sltiu	s8,s2,17
 748:	07000013          	li	zero,112
 74c:	0049                	c.nop	18
 74e:	1802                	slli	a6,a6,0x20
 750:	187e                	slli	a6,a6,0x3f
 752:	0000                	unimp
 754:	1108                	addi	a0,sp,160
 756:	2501                	sext.w	a0,a0
 758:	130e                	slli	t1,t1,0x23
 75a:	1b1f030b          	.insn	4, 0x1b1f030b
 75e:	111f 1201 1007      	.insn	6, 0x10071201111f
 764:	09000017          	auipc	zero,0x9000
 768:	0016                	c.slli	zero,0x5
 76a:	0b3a0e03          	lb	t3,179(s4)
 76e:	0b390b3b          	.insn	4, 0x0b390b3b
 772:	1349                	addi	t1,t1,-14
 774:	0000                	unimp
 776:	240a                	fld	fs0,128(sp)
 778:	0b00                	addi	s0,sp,400
 77a:	030b3e0b          	.insn	4, 0x030b3e0b
 77e:	0008                	.insn	2, 0x0008
 780:	0b00                	addi	s0,sp,400
 782:	0b0b000f          	.insn	4, 0x0b0b000f
 786:	0000                	unimp
 788:	260c                	fld	fa1,8(a2)
 78a:	0000                	unimp
 78c:	0d00                	addi	s0,sp,656
 78e:	012e                	slli	sp,sp,0xb
 790:	0e03193f 0b3b0b3a 	.insn	8, 0x0b3b0b3a0e03193f
 798:	0b39                	addi	s6,s6,14
 79a:	01111927          	.insn	4, 0x01111927
 79e:	0712                	slli	a4,a4,0x4
 7a0:	1840                	addi	s0,sp,52
 7a2:	197a                	slli	s2,s2,0x3e
 7a4:	1301                	addi	t1,t1,-32
 7a6:	0000                	unimp
 7a8:	340e                	fld	fs0,224(sp)
 7aa:	0300                	addi	s0,sp,384
 7ac:	3a0e                	fld	fs4,224(sp)
 7ae:	390b3b0b          	.insn	4, 0x390b3b0b
 7b2:	0213490b          	.insn	4, 0x0213490b
 7b6:	0018                	.insn	2, 0x0018
 7b8:	0f00                	addi	s0,sp,912
 7ba:	0148                	addi	a0,sp,132
 7bc:	017d                	addi	sp,sp,31
 7be:	1301137f 48100000 	.insn	12, 0x82017d01481000001301137f
 7c6:	82017d01 
 7ca:	1901                	addi	s2,s2,-32
 7cc:	0000137f 49010111 	.insn	12, 0x12000013490101110000137f
 7d4:	12000013 
 7d8:	0021                	c.nop	8
 7da:	0000                	unimp
 7dc:	0100                	addi	s0,sp,128
 7de:	0111                	addi	sp,sp,4
 7e0:	0e25                	addi	t3,t3,9
 7e2:	1f030b13          	addi	s6,t1,496
 7e6:	01111f1b          	slliw	t5,sp,0x11
 7ea:	0712                	slli	a4,a4,0x4
 7ec:	1710                	addi	a2,sp,928
 7ee:	0000                	unimp
 7f0:	2e02                	fld	ft8,0(sp)
 7f2:	3f00                	fld	fs0,56(a4)
 7f4:	0319                	addi	t1,t1,6
 7f6:	3a0e                	fld	fs4,224(sp)
 7f8:	390b3b0b          	.insn	4, 0x390b3b0b
 7fc:	8719270b          	.insn	4, 0x8719270b
 800:	1901                	addi	s2,s2,-32
 802:	0111                	addi	sp,sp,4
 804:	0712                	slli	a4,a4,0x4
 806:	1840                	addi	s0,sp,52
 808:	197a                	slli	s2,s2,0x3e
 80a:	0000                	unimp
 80c:	0100                	addi	s0,sp,128
 80e:	0016                	c.slli	zero,0x5
 810:	0b3a0e03          	lb	t3,179(s4)
 814:	0b390b3b          	.insn	4, 0x0b390b3b
 818:	1349                	addi	t1,t1,-14
 81a:	0000                	unimp
 81c:	2402                	fld	fs0,0(sp)
 81e:	0b00                	addi	s0,sp,400
 820:	030b3e0b          	.insn	4, 0x030b3e0b
 824:	000e                	c.slli	zero,0x3
 826:	0300                	addi	s0,sp,384
 828:	0005                	c.nop	1
 82a:	1331                	addi	t1,t1,-20
 82c:	1702                	slli	a4,a4,0x20
 82e:	0000                	unimp
 830:	0504                	addi	s1,sp,640
 832:	0300                	addi	s0,sp,384
 834:	3a08                	fld	fa0,48(a2)
 836:	0221                	addi	tp,tp,8 # 8 <__boot_hart+0x8>
 838:	0b390b3b          	.insn	4, 0x0b390b3b
 83c:	1349                	addi	t1,t1,-14
 83e:	0000                	unimp
 840:	0505                	addi	a0,a0,1
 842:	0300                	addi	s0,sp,384
 844:	3a08                	fld	fa0,48(a2)
 846:	0121                	addi	sp,sp,8
 848:	390c213b          	.insn	4, 0x390c213b
 84c:	0213490b          	.insn	4, 0x0213490b
 850:	06000017          	auipc	zero,0x6000
 854:	012e                	slli	sp,sp,0xb
 856:	0b3a0e03          	lb	t3,179(s4)
 85a:	21390b3b          	.insn	4, 0x21390b3b
 85e:	2714                	fld	fa3,8(a4)
 860:	2019                	.insn	2, 0x2019
 862:	0321                	addi	t1,t1,8
 864:	1301                	addi	t1,t1,-32
 866:	0000                	unimp
 868:	0b000f07          	.insn	4, 0x0b000f07
 86c:	0821                	addi	a6,a6,8
 86e:	1349                	addi	t1,t1,-14
 870:	0000                	unimp
 872:	3508                	fld	fa0,40(a0)
 874:	4900                	lw	s0,16(a0)
 876:	09000013          	li	zero,144
 87a:	0034                	addi	a3,sp,8
 87c:	213a0e03          	lb	t3,531(s4)
 880:	3b06                	fld	fs6,96(sp)
 882:	1a21390b          	.insn	4, 0x1a21390b
 886:	1349                	addi	t1,t1,-14
 888:	193c193f 340a0000 	.insn	8, 0x340a0000193c193f
 890:	4700                	lw	s0,8(a4)
 892:	01213a13          	sltiu	s4,sp,18
 896:	21390b3b          	.insn	4, 0x21390b3b
 89a:	00180213          	addi	tp,a6,1
 89e:	0b00                	addi	s0,sp,400
 8a0:	0034                	addi	a3,sp,8
 8a2:	213a0803          	lb	a6,531(s4)
 8a6:	3b01                	addiw	s6,s6,-32
 8a8:	490b390b          	.insn	4, 0x490b390b
 8ac:	00180213          	addi	tp,a6,1
 8b0:	0c00                	addi	s0,sp,528
 8b2:	011d                	addi	sp,sp,7
 8b4:	1331                	addi	t1,t1,-20
 8b6:	0111                	addi	sp,sp,4
 8b8:	0712                	slli	a4,a4,0x4
 8ba:	2158                	fld	fa4,128(a0)
 8bc:	5901                	li	s2,-32
 8be:	0521570b          	.insn	4, 0x0521570b
 8c2:	1301                	addi	t1,t1,-32
 8c4:	0000                	unimp
 8c6:	1d0d                	addi	s10,s10,-29
 8c8:	3101                	addiw	sp,sp,-32
 8ca:	12011113          	.insn	4, 0x12011113
 8ce:	03215807          	.insn	4, 0x03215807
 8d2:	0b59                	addi	s6,s6,22
 8d4:	00000b57          	.insn	4, 0x0b57
 8d8:	1d0e                	slli	s10,s10,0x23
 8da:	3100                	fld	fs0,32(a0)
 8dc:	12011113          	.insn	4, 0x12011113
 8e0:	01215807          	.insn	4, 0x01215807
 8e4:	0b59                	addi	s6,s6,22
 8e6:	00052157          	.insn	4, 0x00052157
 8ea:	0f00                	addi	s0,sp,912
 8ec:	0005                	c.nop	1
 8ee:	213a0e03          	lb	t3,531(s4)
 8f2:	390b3b03          	ld	s6,912(s6)
 8f6:	0013490b          	.insn	4, 0x0013490b
 8fa:	1000                	addi	s0,sp,32
 8fc:	012e                	slli	sp,sp,0xb
 8fe:	213a0e03          	lb	t3,531(s4)
 902:	3b02                	fld	fs6,32(sp)
 904:	1421390b          	.insn	4, 0x1421390b
 908:	13491927          	.insn	4, 0x13491927
 90c:	2120                	fld	fs0,64(a0)
 90e:	00130103          	lb	sp,1(t1)
 912:	1100                	addi	s0,sp,160
 914:	002e                	c.slli	zero,0xb
 916:	213a0803          	lb	a6,531(s4)
 91a:	3b02                	fld	fs6,32(sp)
 91c:	1421390b          	.insn	4, 0x1421390b
 920:	21201927          	.insn	4, 0x21201927
 924:	12000003          	lb	zero,288(zero) # 120 <__stack_align+0x110>
 928:	0111                	addi	sp,sp,4
 92a:	0e25                	addi	t3,t3,9
 92c:	1f030b13          	addi	s6,t1,496
 930:	01111f1b          	slliw	t5,sp,0x11
 934:	0712                	slli	a4,a4,0x4
 936:	1710                	addi	a2,sp,928
 938:	0000                	unimp
 93a:	0b002413          	slti	s0,zero,176
 93e:	030b3e0b          	.insn	4, 0x030b3e0b
 942:	0008                	.insn	2, 0x0008
 944:	1400                	addi	s0,sp,544
 946:	0026                	c.slli	zero,0x9
 948:	1349                	addi	t1,t1,-14
 94a:	0000                	unimp
 94c:	1315                	addi	t1,t1,-27
 94e:	0b01                	addi	s6,s6,0
 950:	3b0b3a0b          	.insn	4, 0x3b0b3a0b
 954:	010b390b          	.insn	4, 0x010b390b
 958:	16000013          	li	zero,352
 95c:	000d                	c.nop	3
 95e:	0b3a0e03          	lb	t3,179(s4)
 962:	0b390b3b          	.insn	4, 0x0b390b3b
 966:	1349                	addi	t1,t1,-14
 968:	0b38                	addi	a4,sp,408
 96a:	0000                	unimp
 96c:	03003417          	auipc	s0,0x3003
 970:	3a0e                	fld	fs4,224(sp)
 972:	390b3b0b          	.insn	4, 0x390b3b0b
 976:	0213490b          	.insn	4, 0x0213490b
 97a:	0018                	.insn	2, 0x0018
 97c:	1800                	addi	s0,sp,48
 97e:	012e                	slli	sp,sp,0xb
 980:	0e03193f 0b3b0b3a 	.insn	8, 0x0b3b0b3a0e03193f
 988:	0b39                	addi	s6,s6,14
 98a:	13491927          	.insn	4, 0x13491927
 98e:	0111                	addi	sp,sp,4
 990:	0712                	slli	a4,a4,0x4
 992:	1840                	addi	s0,sp,52
 994:	197a                	slli	s2,s2,0x3e
 996:	1301                	addi	t1,t1,-32
 998:	0000                	unimp
 99a:	0519                	addi	a0,a0,6
 99c:	0300                	addi	s0,sp,384
 99e:	3a08                	fld	fa0,48(a2)
 9a0:	390b3b0b          	.insn	4, 0x390b3b0b
 9a4:	0213490b          	.insn	4, 0x0213490b
 9a8:	0018                	.insn	2, 0x0018
 9aa:	1a00                	addi	s0,sp,304
 9ac:	011d                	addi	sp,sp,7
 9ae:	1331                	addi	t1,t1,-20
 9b0:	0152                	slli	sp,sp,0x14
 9b2:	1755                	addi	a4,a4,-11
 9b4:	0b58                	addi	a4,sp,404
 9b6:	0b59                	addi	s6,s6,22
 9b8:	13010b57          	.insn	4, 0x13010b57
 9bc:	0000                	unimp
 9be:	55010b1b          	addiw	s6,sp,1360
 9c2:	1c000017          	auipc	zero,0x1c000
 9c6:	0034                	addi	a3,sp,8
 9c8:	1331                	addi	t1,t1,-20
 9ca:	0000                	unimp
 9cc:	051d                	addi	a0,a0,7
 9ce:	3100                	fld	fs0,32(a0)
 9d0:	1e000013          	li	zero,480
 9d4:	0101                	addi	sp,sp,0
 9d6:	1349                	addi	t1,t1,-14
 9d8:	1301                	addi	t1,t1,-32
 9da:	0000                	unimp
 9dc:	211f 4900 2f13      	.insn	6, 0x2f134900211f
 9e2:	2000000b          	.insn	4, 0x2000000b
 9e6:	0034                	addi	a3,sp,8
 9e8:	0b3a0803          	lb	a6,179(s4)
 9ec:	0b390b3b          	.insn	4, 0x0b390b3b
 9f0:	1349                	addi	t1,t1,-14
 9f2:	0000                	unimp
 9f4:	0100                	addi	s0,sp,128
 9f6:	0024                	addi	s1,sp,8
 9f8:	0b3e0b0b          	.insn	4, 0x0b3e0b0b
 9fc:	00000e03          	lb	t3,0(zero) # 0 <__boot_hart>
 a00:	1602                	slli	a2,a2,0x20
 a02:	0300                	addi	s0,sp,384
 a04:	3a0e                	fld	fs4,224(sp)
 a06:	390b3b0b          	.insn	4, 0x390b3b0b
 a0a:	0013490b          	.insn	4, 0x0013490b
 a0e:	0300                	addi	s0,sp,384
 a10:	0034                	addi	a3,sp,8
 a12:	213a0e03          	lb	t3,531(s4)
 a16:	3b04                	fld	fs1,48(a4)
 a18:	1a21390b          	.insn	4, 0x1a21390b
 a1c:	1349                	addi	t1,t1,-14
 a1e:	193c193f 11040000 	.insn	8, 0x11040000193c193f
 a26:	2501                	sext.w	a0,a0
 a28:	130e                	slli	t1,t1,0x23
 a2a:	1b1f030b          	.insn	4, 0x1b1f030b
 a2e:	111f 1201 1007      	.insn	6, 0x10071201111f
 a34:	05000017          	auipc	zero,0x5000
 a38:	0024                	addi	s1,sp,8
 a3a:	0b3e0b0b          	.insn	4, 0x0b3e0b0b
 a3e:	00000803          	lb	a6,0(zero) # 0 <__boot_hart>
 a42:	3506                	fld	fa0,96(sp)
 a44:	4900                	lw	s0,16(a0)
 a46:	07000013          	li	zero,112
 a4a:	012e                	slli	sp,sp,0xb
 a4c:	0e03193f 0b3b0b3a 	.insn	8, 0x0b3b0b3a0e03193f
 a54:	0b39                	addi	s6,s6,14
 a56:	01871927          	.insn	4, 0x01871927
 a5a:	1119                	addi	sp,sp,-26
 a5c:	1201                	addi	tp,tp,-32 # ffffffffffffffe0 <__heap_end+0xffffffff7ffdcfe0>
 a5e:	7a184007          	.insn	4, 0x7a184007
 a62:	0019                	c.nop	6
 a64:	0800                	addi	s0,sp,16
 a66:	0005                	c.nop	1
 a68:	0b3a0e03          	lb	t3,179(s4)
 a6c:	0b390b3b          	.insn	4, 0x0b390b3b
 a70:	1349                	addi	t1,t1,-14
 a72:	1802                	slli	a6,a6,0x20
 a74:	0000                	unimp
 a76:	3409                	addiw	s0,s0,-30 # 300394e <__heap_size+0x2fe394e>
 a78:	0300                	addi	s0,sp,384
 a7a:	3a08                	fld	fa0,48(a2)
 a7c:	390b3b0b          	.insn	4, 0x390b3b0b
 a80:	0213490b          	.insn	4, 0x0213490b
 a84:	0018                	.insn	2, 0x0018
	...

Disassembly of section .debug_loclists:

0000000000000000 <.debug_loclists>:
   0:	00be                	slli	ra,ra,0xf
   2:	0000                	unimp
   4:	0005                	c.nop	1
   6:	0008                	.insn	2, 0x0008
   8:	0000                	unimp
   a:	0000                	unimp
   c:	8406                	mv	s0,ra
   e:	0002                	c.slli64	zero
  10:	0080                	addi	s0,sp,64
  12:	0000                	unimp
  14:	0400                	addi	s0,sp,512
  16:	2300                	fld	fs0,0(a4)
  18:	5b01                	li	s6,-32
  1a:	3404                	fld	fs1,40(s0)
  1c:	0138                	addi	a4,sp,136
  1e:	9806005b          	.insn	4, 0x9806005b
  22:	0002                	c.slli64	zero
  24:	0080                	addi	s0,sp,64
  26:	0000                	unimp
  28:	0400                	addi	s0,sp,512
  2a:	0f00                	addi	s0,sp,912
  2c:	5c01                	li	s8,-32
  2e:	2004                	fld	fs1,0(s0)
  30:	005c012f          	.insn	4, 0x005c012f
  34:	4808                	lw	a0,16(s0)
  36:	0002                	c.slli64	zero
  38:	0080                	addi	s0,sp,64
  3a:	0000                	unimp
  3c:	0c00                	addi	s0,sp,528
  3e:	4402                	lw	s0,0(sp)
  40:	009f 4808 0002      	.insn	6, 0x00024808009f
  46:	0080                	addi	s0,sp,64
  48:	0000                	unimp
  4a:	0c00                	addi	s0,sp,528
  4c:	0a04                	addi	s1,sp,272
  4e:	4004                	lw	s1,0(s0)
  50:	009f 5408 0002      	.insn	6, 0x00025408009f
  56:	0080                	addi	s0,sp,64
  58:	0000                	unimp
  5a:	0c00                	addi	s0,sp,528
  5c:	3f02                	fld	ft10,32(sp)
  5e:	009f 5408 0002      	.insn	6, 0x00025408009f
  64:	0080                	addi	s0,sp,64
  66:	0000                	unimp
  68:	0c00                	addi	s0,sp,528
  6a:	0a04                	addi	s1,sp,272
  6c:	4008                	lw	a0,0(s0)
  6e:	009f 7008 0002      	.insn	6, 0x00027008009f
  74:	0080                	addi	s0,sp,64
  76:	0000                	unimp
  78:	1400                	addi	s0,sp,544
  7a:	0a04                	addi	s1,sp,272
  7c:	400c                	lw	a1,0(s0)
  7e:	009f 8408 0002      	.insn	6, 0x00028408009f
  84:	0080                	addi	s0,sp,64
  86:	0000                	unimp
  88:	1000                	addi	s0,sp,32
  8a:	5f01                	li	t5,-32
  8c:	0800                	addi	s0,sp,16
  8e:	0284                	addi	s1,sp,320
  90:	8000                	.insn	2, 0x8000
  92:	0000                	unimp
  94:	0000                	unimp
  96:	0114                	addi	a3,sp,128
  98:	005c                	addi	a5,sp,4
  9a:	d006                	sw	ra,32(sp)
  9c:	0002                	c.slli64	zero
  9e:	0080                	addi	s0,sp,64
  a0:	0000                	unimp
  a2:	0400                	addi	s0,sp,512
  a4:	0c00                	addi	s0,sp,528
  a6:	5a01                	li	s4,-32
  a8:	0c04                	addi	s1,sp,528
  aa:	011c                	addi	a5,sp,128
  ac:	005a                	c.slli	zero,0x16
  ae:	d006                	sw	ra,32(sp)
  b0:	0002                	c.slli64	zero
  b2:	0080                	addi	s0,sp,64
  b4:	0000                	unimp
  b6:	0400                	addi	s0,sp,512
  b8:	0000                	unimp
  ba:	5b01                	li	s6,-32
  bc:	0404                	addi	s1,sp,512
  be:	0114                	addi	a3,sp,128
  c0:	0016005b          	.insn	4, 0x0016005b
  c4:	0000                	unimp
  c6:	0005                	c.nop	1
  c8:	0008                	.insn	2, 0x0008
  ca:	0000                	unimp
  cc:	0000                	unimp
  ce:	0004                	.insn	2, 0x0004
  d0:	045a0107          	.insn	4, 0x045a0107
  d4:	a3041407          	.insn	4, 0xa3041407
  d8:	5a01                	li	s4,-32
  da:	009f 0024 0000      	.insn	6, 0x0024009f
  e0:	0005                	c.nop	1
  e2:	0008                	.insn	2, 0x0008
  e4:	0000                	unimp
  e6:	0000                	unimp
  e8:	0004                	.insn	2, 0x0004
  ea:	045a0107          	.insn	4, 0x045a0107
  ee:	a3041407          	.insn	4, 0xa3041407
  f2:	5a01                	li	s4,-32
  f4:	009f 0004 0107      	.insn	6, 0x01070004009f
  fa:	1407045b          	.insn	4, 0x1407045b
  fe:	a304                	fsd	fs1,0(a4)
 100:	5b01                	li	s6,-32
 102:	009f 0016 0000      	.insn	6, 0x0016009f
 108:	0005                	c.nop	1
 10a:	0008                	.insn	2, 0x0008
 10c:	0000                	unimp
 10e:	0000                	unimp
 110:	0004                	.insn	2, 0x0004
 112:	0102                	c.slli64	sp
 114:	045a                	slli	s0,s0,0x16
 116:	0802                	c.slli64	a6
 118:	a304                	fsd	fs1,0(a4)
 11a:	5a01                	li	s4,-32
 11c:	009f 0032 0000      	.insn	6, 0x0032009f
 122:	0005                	c.nop	1
 124:	0008                	.insn	2, 0x0008
 126:	0000                	unimp
 128:	0000                	unimp
 12a:	0004                	.insn	2, 0x0004
 12c:	045a0107          	.insn	4, 0x045a0107
 130:	a3041407          	.insn	4, 0xa3041407
 134:	5a01                	li	s4,-32
 136:	009f 0004 0107      	.insn	6, 0x01070004009f
 13c:	1407045b          	.insn	4, 0x1407045b
 140:	a304                	fsd	fs1,0(a4)
 142:	5b01                	li	s6,-32
 144:	009f 0004 0107      	.insn	6, 0x01070004009f
 14a:	045c                	addi	a5,sp,516
 14c:	a3041407          	.insn	4, 0xa3041407
 150:	5c01                	li	s8,-32
 152:	009f 0032 0000      	.insn	6, 0x0032009f
 158:	0005                	c.nop	1
 15a:	0008                	.insn	2, 0x0008
 15c:	0000                	unimp
 15e:	0000                	unimp
 160:	0004                	.insn	2, 0x0004
 162:	045a0107          	.insn	4, 0x045a0107
 166:	a3041607          	.insn	4, 0xa3041607
 16a:	5a01                	li	s4,-32
 16c:	009f 0004 0107      	.insn	6, 0x01070004009f
 172:	1607045b          	.insn	4, 0x1607045b
 176:	a304                	fsd	fs1,0(a4)
 178:	5b01                	li	s6,-32
 17a:	009f 0004 0107      	.insn	6, 0x01070004009f
 180:	045c                	addi	a5,sp,516
 182:	a3041607          	.insn	4, 0xa3041607
 186:	5c01                	li	s8,-32
 188:	009f 0034 0000      	.insn	6, 0x0034009f
 18e:	0005                	c.nop	1
 190:	0008                	.insn	2, 0x0008
 192:	0000                	unimp
 194:	0000                	unimp
 196:	0004                	.insn	2, 0x0004
 198:	0110                	addi	a2,sp,128
 19a:	045a                	slli	s0,s0,0x16
 19c:	3c10                	fld	fa2,56(s0)
 19e:	a304                	fsd	fs1,0(a4)
 1a0:	5a01                	li	s4,-32
 1a2:	009f 1004 0124      	.insn	6, 0x01241004009f
 1a8:	045a                	slli	s0,s0,0x16
 1aa:	2624                	fld	fs1,72(a2)
 1ac:	0309                	addi	t1,t1,2
 1ae:	1ec0                	addi	s0,sp,884
 1b0:	8000                	.insn	2, 0x8000
 1b2:	0000                	unimp
 1b4:	0000                	unimp
 1b6:	2604                	fld	fs1,8(a2)
 1b8:	012d                	addi	sp,sp,11
 1ba:	005a                	c.slli	zero,0x16
 1bc:	0a04                	addi	s1,sp,272
 1be:	012d                	addi	sp,sp,11
 1c0:	005f 0032 0000      	.insn	6, 0x0032005f
 1c6:	0005                	c.nop	1
 1c8:	0008                	.insn	2, 0x0008
 1ca:	0000                	unimp
 1cc:	0000                	unimp
 1ce:	0004                	.insn	2, 0x0004
 1d0:	0105                	addi	sp,sp,1
 1d2:	045a                	slli	s0,s0,0x16
 1d4:	0605                	addi	a2,a2,1
 1d6:	a304                	fsd	fs1,0(a4)
 1d8:	5a01                	li	s4,-32
 1da:	009f 0004 0105      	.insn	6, 0x01050004009f
 1e0:	0605045b          	.insn	4, 0x0605045b
 1e4:	a304                	fsd	fs1,0(a4)
 1e6:	5b01                	li	s6,-32
 1e8:	009f 0004 0105      	.insn	6, 0x01050004009f
 1ee:	045c                	addi	a5,sp,516
 1f0:	0605                	addi	a2,a2,1
 1f2:	a304                	fsd	fs1,0(a4)
 1f4:	5c01                	li	s8,-32
 1f6:	009f 0046 0000      	.insn	6, 0x0046009f
 1fc:	0005                	c.nop	1
 1fe:	0008                	.insn	2, 0x0008
 200:	0000                	unimp
 202:	0000                	unimp
 204:	0004                	.insn	2, 0x0004
 206:	0106                	slli	sp,sp,0x1
 208:	045a                	slli	s0,s0,0x16
 20a:	1606                	slli	a2,a2,0x21
 20c:	a304                	fsd	fs1,0(a4)
 20e:	5a01                	li	s4,-32
 210:	009f 0004 0115      	.insn	6, 0x01150004009f
 216:	1615045b          	.insn	4, 0x1615045b
 21a:	a304                	fsd	fs1,0(a4)
 21c:	5b01                	li	s6,-32
 21e:	009f 0004 0115      	.insn	6, 0x01150004009f
 224:	045c                	addi	a5,sp,516
 226:	1615                	addi	a2,a2,-27
 228:	a304                	fsd	fs1,0(a4)
 22a:	5c01                	li	s8,-32
 22c:	009f 0004 0115      	.insn	6, 0x01150004009f
 232:	045d                	addi	s0,s0,23
 234:	1615                	addi	a2,a2,-27
 236:	a304                	fsd	fs1,0(a4)
 238:	5d01                	li	s10,-32
 23a:	009f 0a04 0115      	.insn	6, 0x01150a04009f
 240:	005a                	c.slli	zero,0x16
 242:	006d                	c.nop	27
 244:	0000                	unimp
 246:	0005                	c.nop	1
 248:	0008                	.insn	2, 0x0008
 24a:	0000                	unimp
 24c:	0000                	unimp
 24e:	0004                	.insn	2, 0x0004
 250:	0148                	addi	a0,sp,132
 252:	045a                	slli	s0,s0,0x16
 254:	4c48                	lw	a0,28(s0)
 256:	a304                	fsd	fs1,0(a4)
 258:	5a01                	li	s4,-32
 25a:	009f 0004 0112      	.insn	6, 0x01120004009f
 260:	045c                	addi	a5,sp,516
 262:	3212                	fld	ft4,288(sp)
 264:	9102                	jalr	sp
 266:	0458                	addi	a4,sp,516
 268:	4c32                	lw	s8,12(sp)
 26a:	a304                	fsd	fs1,0(a4)
 26c:	5c01                	li	s8,-32
 26e:	009f 0004 011a      	.insn	6, 0x011a0004009f
 274:	045d                	addi	s0,s0,23
 276:	4c1a                	lw	s8,132(sp)
 278:	a304                	fsd	fs1,0(a4)
 27a:	5d01                	li	s10,-32
 27c:	009f 1404 0a24      	.insn	6, 0x0a241404009f
 282:	001ef803          	.insn	4, 0x001ef803
 286:	0080                	addi	s0,sp,64
 288:	0000                	unimp
 28a:	9f00                	.insn	2, 0x9f00
 28c:	0400                	addi	s0,sp,512
 28e:	221e                	fld	ft4,448(sp)
 290:	9fff0903          	lb	s2,-1537(t5)
 294:	0400                	addi	s0,sp,512
 296:	221e                	fld	ft4,448(sp)
 298:	030a                	slli	t1,t1,0x2
 29a:	1ef8                	addi	a4,sp,892
 29c:	8000                	.insn	2, 0x8000
 29e:	0000                	unimp
 2a0:	0000                	unimp
 2a2:	009f 3e04 0a42      	.insn	6, 0x0a423e04009f
 2a8:	001ef803          	.insn	4, 0x001ef803
 2ac:	0080                	addi	s0,sp,64
 2ae:	0000                	unimp
 2b0:	9f00                	.insn	2, 0x9f00
	...

Disassembly of section .debug_aranges:

0000000000000000 <.debug_aranges>:
   0:	003c                	addi	a5,sp,8
   2:	0000                	unimp
   4:	0002                	c.slli64	zero
   6:	0000                	unimp
   8:	0000                	unimp
   a:	0008                	.insn	2, 0x0008
   c:	0000                	unimp
   e:	0000                	unimp
  10:	02d0                	addi	a2,sp,324
  12:	8000                	.insn	2, 0x8000
  14:	0000                	unimp
  16:	0000                	unimp
  18:	001c                	.insn	2, 0x001c
  1a:	0000                	unimp
  1c:	0000                	unimp
  1e:	0000                	unimp
  20:	0230                	addi	a2,sp,264
  22:	8000                	.insn	2, 0x8000
  24:	0000                	unimp
  26:	0000                	unimp
  28:	00a0                	addi	s0,sp,72
	...
  3e:	0000                	unimp
  40:	002c                	addi	a1,sp,8
  42:	0000                	unimp
  44:	0002                	c.slli64	zero
  46:	036c                	addi	a1,sp,396
  48:	0000                	unimp
  4a:	0008                	.insn	2, 0x0008
  4c:	0000                	unimp
  4e:	0000                	unimp
  50:	1948                	addi	a0,sp,180
  52:	8000                	.insn	2, 0x8000
  54:	0000                	unimp
  56:	0000                	unimp
  58:	0014                	.insn	2, 0x0014
	...
  6e:	0000                	unimp
  70:	002c                	addi	a1,sp,8
  72:	0000                	unimp
  74:	0002                	c.slli64	zero
  76:	043d                	addi	s0,s0,15
  78:	0000                	unimp
  7a:	0008                	.insn	2, 0x0008
  7c:	0000                	unimp
  7e:	0000                	unimp
  80:	195c                	addi	a5,sp,180
  82:	8000                	.insn	2, 0x8000
  84:	0000                	unimp
  86:	0000                	unimp
  88:	0014                	.insn	2, 0x0014
	...
  9e:	0000                	unimp
  a0:	002c                	addi	a1,sp,8
  a2:	0000                	unimp
  a4:	0002                	c.slli64	zero
  a6:	0000071b          	sext.w	a4,zero
  aa:	0008                	.insn	2, 0x0008
  ac:	0000                	unimp
  ae:	0000                	unimp
  b0:	1970                	addi	a2,sp,188
  b2:	8000                	.insn	2, 0x8000
  b4:	0000                	unimp
  b6:	0000                	unimp
  b8:	0008                	.insn	2, 0x0008
	...
  ce:	0000                	unimp
  d0:	002c                	addi	a1,sp,8
  d2:	0000                	unimp
  d4:	0002                	c.slli64	zero
  d6:	07c6                	slli	a5,a5,0x11
  d8:	0000                	unimp
  da:	0008                	.insn	2, 0x0008
  dc:	0000                	unimp
  de:	0000                	unimp
  e0:	1978                	addi	a4,sp,188
  e2:	8000                	.insn	2, 0x8000
  e4:	0000                	unimp
  e6:	0000                	unimp
  e8:	0014                	.insn	2, 0x0014
	...
  fe:	0000                	unimp
 100:	002c                	addi	a1,sp,8
 102:	0000                	unimp
 104:	0002                	c.slli64	zero
 106:	000008d7          	.insn	4, 0x08d7
 10a:	0008                	.insn	2, 0x0008
 10c:	0000                	unimp
 10e:	0000                	unimp
 110:	198c                	addi	a1,sp,240
 112:	8000                	.insn	2, 0x8000
 114:	0000                	unimp
 116:	0000                	unimp
 118:	0016                	c.slli	zero,0x5
	...
 12e:	0000                	unimp
 130:	002c                	addi	a1,sp,8
 132:	0000                	unimp
 134:	0002                	c.slli64	zero
 136:	09ea                	slli	s3,s3,0x1a
 138:	0000                	unimp
 13a:	0008                	.insn	2, 0x0008
 13c:	0000                	unimp
 13e:	0000                	unimp
 140:	19a2                	slli	s3,s3,0x28
 142:	8000                	.insn	2, 0x8000
 144:	0000                	unimp
 146:	0000                	unimp
 148:	003c                	addi	a5,sp,8
	...
 15e:	0000                	unimp
 160:	002c                	addi	a1,sp,8
 162:	0000                	unimp
 164:	0002                	c.slli64	zero
 166:	0b20                	addi	s0,sp,408
 168:	0000                	unimp
 16a:	0008                	.insn	2, 0x0008
 16c:	0000                	unimp
 16e:	0000                	unimp
 170:	19de                	slli	s3,s3,0x37
 172:	8000                	.insn	2, 0x8000
 174:	0000                	unimp
 176:	0000                	unimp
 178:	0006                	c.slli	zero,0x1
	...
 18e:	0000                	unimp
 190:	002c                	addi	a1,sp,8
 192:	0000                	unimp
 194:	0002                	c.slli64	zero
 196:	0c98                	addi	a4,sp,592
 198:	0000                	unimp
 19a:	0008                	.insn	2, 0x0008
 19c:	0000                	unimp
 19e:	0000                	unimp
 1a0:	0000                	unimp
 1a2:	8000                	.insn	2, 0x8000
 1a4:	0000                	unimp
 1a6:	0000                	unimp
 1a8:	01ee                	slli	gp,gp,0x1b
	...
 1be:	0000                	unimp
 1c0:	002c                	addi	a1,sp,8
 1c2:	0000                	unimp
 1c4:	0002                	c.slli64	zero
 1c6:	0cc1                	addi	s9,s9,16
 1c8:	0000                	unimp
 1ca:	0008                	.insn	2, 0x0008
 1cc:	0000                	unimp
 1ce:	0000                	unimp
 1d0:	01ee                	slli	gp,gp,0x1b
 1d2:	8000                	.insn	2, 0x8000
 1d4:	0000                	unimp
 1d6:	0000                	unimp
 1d8:	0042                	c.slli	zero,0x10
	...
 1ee:	0000                	unimp
 1f0:	002c                	addi	a1,sp,8
 1f2:	0000                	unimp
 1f4:	0002                	c.slli64	zero
 1f6:	0ce9                	addi	s9,s9,26
 1f8:	0000                	unimp
 1fa:	0008                	.insn	2, 0x0008
 1fc:	0000                	unimp
 1fe:	0000                	unimp
 200:	19e4                	addi	s1,sp,252
 202:	8000                	.insn	2, 0x8000
 204:	0000                	unimp
 206:	0000                	unimp
 208:	0016                	c.slli	zero,0x5
	...
 21e:	0000                	unimp
 220:	002c                	addi	a1,sp,8
 222:	0000                	unimp
 224:	0002                	c.slli64	zero
 226:	00000e23          	sb	zero,28(zero) # 1c <__stack_align+0xc>
 22a:	0008                	.insn	2, 0x0008
 22c:	0000                	unimp
 22e:	0000                	unimp
 230:	19fa                	slli	s3,s3,0x3e
 232:	8000                	.insn	2, 0x8000
 234:	0000                	unimp
 236:	0000                	unimp
 238:	0030                	addi	a2,sp,8
	...
 24e:	0000                	unimp
 250:	002c                	addi	a1,sp,8
 252:	0000                	unimp
 254:	0002                	c.slli64	zero
 256:	0f8c                	addi	a1,sp,976
 258:	0000                	unimp
 25a:	0008                	.insn	2, 0x0008
 25c:	0000                	unimp
 25e:	0000                	unimp
 260:	1a2a                	slli	s4,s4,0x2a
 262:	8000                	.insn	2, 0x8000
 264:	0000                	unimp
 266:	0000                	unimp
 268:	0006                	c.slli	zero,0x1
	...
 27e:	0000                	unimp
 280:	002c                	addi	a1,sp,8
 282:	0000                	unimp
 284:	0002                	c.slli64	zero
 286:	0fd5                	addi	t6,t6,21
 288:	0000                	unimp
 28a:	0008                	.insn	2, 0x0008
 28c:	0000                	unimp
 28e:	0000                	unimp
 290:	1a30                	addi	a2,sp,312
 292:	8000                	.insn	2, 0x8000
 294:	0000                	unimp
 296:	0000                	unimp
 298:	004c                	addi	a1,sp,4
	...
 2ae:	0000                	unimp
 2b0:	002c                	addi	a1,sp,8
 2b2:	0000                	unimp
 2b4:	0002                	c.slli64	zero
 2b6:	1315                	addi	t1,t1,-27
 2b8:	0000                	unimp
 2ba:	0008                	.insn	2, 0x0008
 2bc:	0000                	unimp
 2be:	0000                	unimp
 2c0:	1a7c                	addi	a5,sp,316
 2c2:	8000                	.insn	2, 0x8000
 2c4:	0000                	unimp
 2c6:	0000                	unimp
 2c8:	0022                	c.slli	zero,0x8
	...

Disassembly of section .debug_rnglists:

0000000000000000 <.debug_rnglists>:
   0:	003e                	c.slli	zero,0xf
   2:	0000                	unimp
   4:	0005                	c.nop	1
   6:	0008                	.insn	2, 0x0008
   8:	0000                	unimp
   a:	0000                	unimp
   c:	3805                	addiw	a6,a6,-31
   e:	0002                	c.slli64	zero
  10:	0080                	addi	s0,sp,64
  12:	0000                	unimp
  14:	0400                	addi	s0,sp,512
  16:	0400                	addi	s0,sp,512
  18:	0404                	addi	s1,sp,512
  1a:	0008                	.insn	2, 0x0008
  1c:	6005                	c.lui	zero,0x1
  1e:	0002                	c.slli64	zero
  20:	0080                	addi	s0,sp,64
  22:	0000                	unimp
  24:	0400                	addi	s0,sp,512
  26:	0400                	addi	s0,sp,512
  28:	0404                	addi	s1,sp,512
  2a:	0008                	.insn	2, 0x0008
  2c:	0002d007          	.insn	4, 0x0002d007
  30:	0080                	addi	s0,sp,64
  32:	0000                	unimp
  34:	1c00                	addi	s0,sp,560
  36:	00023007          	fld	ft0,0(tp) # 0 <__boot_hart>
  3a:	0080                	addi	s0,sp,64
  3c:	0000                	unimp
  3e:	a000                	fsd	fs0,0(s0)
  40:	0001                	nop
  42:	0000000f          	fence	unknown,unknown
  46:	0005                	c.nop	1
  48:	0008                	.insn	2, 0x0008
  4a:	0000                	unimp
  4c:	0000                	unimp
  4e:	1804                	addi	s1,sp,48
  50:	041a                	slli	s0,s0,0x6
  52:	221e                	fld	ft4,448(sp)
	...

Disassembly of section .debug_line:

0000000000000000 <.debug_line>:
       0:	02d1                	addi	t0,t0,20
       2:	0000                	unimp
       4:	0005                	c.nop	1
       6:	0008                	.insn	2, 0x0008
       8:	0045                	c.nop	17
       a:	0000                	unimp
       c:	0101                	addi	sp,sp,0
       e:	fb01                	bnez	a4,ffffffffffffff1e <__heap_end+0xffffffff7ffdcf1e>
      10:	0d0e                	slli	s10,s10,0x3
      12:	0100                	addi	s0,sp,128
      14:	0101                	addi	sp,sp,0
      16:	0001                	nop
      18:	0000                	unimp
      1a:	0001                	nop
      1c:	0100                	addi	s0,sp,128
      1e:	0101                	addi	sp,sp,0
      20:	041f 0000 0000      	.insn	6, 0x041f
      26:	006e                	c.slli	zero,0x1b
      28:	0000                	unimp
      2a:	00a2                	slli	ra,ra,0x8
      2c:	0000                	unimp
      2e:	0000010b          	.insn	4, 0x010b
      32:	0102                	c.slli64	sp
      34:	021f 050f 0068      	.insn	6, 0x0068050f021f
      3a:	0000                	unimp
      3c:	6801                	.insn	2, 0x6801
      3e:	0000                	unimp
      40:	0100                	addi	s0,sp,128
      42:	0170                	addi	a2,sp,140
      44:	0000                	unimp
      46:	7701                	lui	a4,0xfffe0
      48:	0001                	nop
      4a:	0200                	addi	s0,sp,256
      4c:	0188                	addi	a0,sp,192
      4e:	0000                	unimp
      50:	00360503          	lb	a0,3(a2)
      54:	0209                	addi	tp,tp,2 # 2 <__boot_hart+0x2>
      56:	02d0                	addi	a2,sp,324
      58:	8000                	.insn	2, 0x8000
      5a:	0000                	unimp
      5c:	0000                	unimp
      5e:	0519                	addi	a0,a0,6
      60:	09010303          	lb	t1,144(sp)
      64:	0000                	unimp
      66:	0501                	addi	a0,a0,0
      68:	030c                	addi	a1,sp,384
      6a:	0900                	addi	s0,sp,144
      6c:	0000                	unimp
      6e:	0301                	addi	t1,t1,0
      70:	0900                	addi	s0,sp,144
      72:	0000                	unimp
      74:	0501                	addi	a0,a0,0
      76:	0305                	addi	t1,t1,1
      78:	0901                	addi	s2,s2,0
      7a:	0004                	.insn	2, 0x0004
      7c:	0501                	addi	a0,a0,0
      7e:	09010307          	.insn	4, 0x09010307
      82:	0000                	unimp
      84:	0301                	addi	t1,t1,0
      86:	0902                	c.slli64	s2
      88:	0000                	unimp
      8a:	0501                	addi	a0,a0,0
      8c:	0608                	addi	a0,sp,768
      8e:	00097d03          	.insn	4, 0x00097d03
      92:	0100                	addi	s0,sp,128
      94:	0905                	addi	s2,s2,1
      96:	04090103          	lb	sp,64(s2)
      9a:	0100                	addi	s0,sp,128
      9c:	0c05                	addi	s8,s8,1
      9e:	0306                	slli	t1,t1,0x1
      a0:	097e                	slli	s2,s2,0x1f
      a2:	0004                	.insn	2, 0x0004
      a4:	0501                	addi	a0,a0,0
      a6:	0305                	addi	t1,t1,1
      a8:	0901                	addi	s2,s2,0
      aa:	0000                	unimp
      ac:	0501                	addi	a0,a0,0
      ae:	09010307          	.insn	4, 0x09010307
      b2:	0000                	unimp
      b4:	0301                	addi	t1,t1,0
      b6:	0902                	c.slli64	s2
      b8:	0000                	unimp
      ba:	0501                	addi	a0,a0,0
      bc:	0608                	addi	a0,sp,768
      be:	00097d03          	.insn	4, 0x00097d03
      c2:	0100                	addi	s0,sp,128
      c4:	0905                	addi	s2,s2,1
      c6:	04090303          	lb	t1,64(s2)
      ca:	0100                	addi	s0,sp,128
      cc:	0c05                	addi	s8,s8,1
      ce:	0306                	slli	t1,t1,0x1
      d0:	097c                	addi	a5,sp,156
      d2:	0004                	.insn	2, 0x0004
      d4:	0501                	addi	a0,a0,0
      d6:	09060303          	lb	t1,144(a2)
      da:	0004                	.insn	2, 0x0004
      dc:	0501                	addi	a0,a0,0
      de:	0601                	addi	a2,a2,0
      e0:	00090103          	lb	sp,0(s2)
      e4:	0100                	addi	s0,sp,128
      e6:	0409                	addi	s0,s0,2
      e8:	0000                	unimp
      ea:	0101                	addi	sp,sp,0
      ec:	0105                	addi	sp,sp,1
      ee:	0900                	addi	s0,sp,144
      f0:	3002                	fld	ft0,32(sp)
      f2:	0002                	c.slli64	zero
      f4:	0080                	addi	s0,sp,64
      f6:	0000                	unimp
      f8:	0300                	addi	s0,sp,384
      fa:	03050113          	addi	sp,a0,48
      fe:	00090103          	lb	sp,0(s2)
     102:	0100                	addi	s0,sp,128
     104:	00090303          	lb	t1,0(s2)
     108:	0100                	addi	s0,sp,128
     10a:	0105                	addi	sp,sp,1
     10c:	0306                	slli	t1,t1,0x1
     10e:	097c                	addi	a5,sp,156
     110:	0000                	unimp
     112:	0401                	addi	s0,s0,0
     114:	0502                	c.slli64	a0
     116:	0309                	addi	t1,t1,2
     118:	0008097b          	.insn	4, 0x0008097b
     11c:	0401                	addi	s0,s0,0
     11e:	0501                	addi	a0,a0,0
     120:	0028                	addi	a0,sp,8
     122:	0402                	c.slli64	s0
     124:	0601                	addi	a2,a2,0
     126:	04090903          	lb	s2,64(s2)
     12a:	0100                	addi	s0,sp,128
     12c:	0204                	addi	s1,sp,256
     12e:	0205                	addi	tp,tp,1 # 1 <__boot_hart+0x1>
     130:	00097603          	.insn	4, 0x00097603
     134:	0100                	addi	s0,sp,128
     136:	00090103          	lb	sp,0(s2)
     13a:	0100                	addi	s0,sp,128
     13c:	0905                	addi	s2,s2,1
     13e:	0306                	slli	t1,t1,0x1
     140:	0900                	addi	s0,sp,144
     142:	0000                	unimp
     144:	0401                	addi	s0,s0,0
     146:	0501                	addi	a0,a0,0
     148:	0028                	addi	a0,sp,8
     14a:	0402                	c.slli64	s0
     14c:	0301                	addi	t1,t1,0
     14e:	0909                	addi	s2,s2,2
     150:	0004                	.insn	2, 0x0004
     152:	0501                	addi	a0,a0,0
     154:	02030603          	lb	a2,32(t1)
     158:	0809                	addi	a6,a6,2
     15a:	0100                	addi	s0,sp,128
     15c:	0204                	addi	s1,sp,256
     15e:	0205                	addi	tp,tp,1 # 1 <__boot_hart+0x1>
     160:	00090603          	lb	a2,0(s2)
     164:	0100                	addi	s0,sp,128
     166:	00090103          	lb	sp,0(s2)
     16a:	0100                	addi	s0,sp,128
     16c:	0705                	addi	a4,a4,1 # fffffffffffe0001 <__heap_end+0xffffffff7ffbd001>
     16e:	0306                	slli	t1,t1,0x1
     170:	0900                	addi	s0,sp,144
     172:	0000                	unimp
     174:	0401                	addi	s0,s0,0
     176:	0501                	addi	a0,a0,0
     178:	7a030603          	lb	a2,1952(t1)
     17c:	0c09                	addi	s8,s8,2
     17e:	0100                	addi	s0,sp,128
     180:	0204                	addi	s1,sp,256
     182:	0205                	addi	tp,tp,1 # 1 <__boot_hart+0x1>
     184:	00090503          	lb	a0,0(s2)
     188:	0100                	addi	s0,sp,128
     18a:	00090103          	lb	sp,0(s2)
     18e:	0100                	addi	s0,sp,128
     190:	0705                	addi	a4,a4,1
     192:	0306                	slli	t1,t1,0x1
     194:	0900                	addi	s0,sp,144
     196:	0000                	unimp
     198:	0401                	addi	s0,s0,0
     19a:	0501                	addi	a0,a0,0
     19c:	7e030603          	lb	a2,2016(t1)
     1a0:	0c09                	addi	s8,s8,2
     1a2:	0100                	addi	s0,sp,128
     1a4:	0204                	addi	s1,sp,256
     1a6:	0905                	addi	s2,s2,1
     1a8:	0306                	slli	t1,t1,0x1
     1aa:	0970                	addi	a2,sp,156
     1ac:	0000                	unimp
     1ae:	0401                	addi	s0,s0,0
     1b0:	0501                	addi	a0,a0,0
     1b2:	0028                	addi	a0,sp,8
     1b4:	0402                	c.slli64	s0
     1b6:	0601                	addi	a2,a2,0
     1b8:	04091003          	lh	zero,64(s2)
     1bc:	0100                	addi	s0,sp,128
     1be:	0204                	addi	s1,sp,256
     1c0:	0205                	addi	tp,tp,1 # 1 <__boot_hart+0x1>
     1c2:	00096f03          	lwu	t5,0(s2)
     1c6:	0100                	addi	s0,sp,128
     1c8:	00090103          	lb	sp,0(s2)
     1cc:	0100                	addi	s0,sp,128
     1ce:	0905                	addi	s2,s2,1
     1d0:	0306                	slli	t1,t1,0x1
     1d2:	0900                	addi	s0,sp,144
     1d4:	0000                	unimp
     1d6:	0401                	addi	s0,s0,0
     1d8:	0501                	addi	a0,a0,0
     1da:	0028                	addi	a0,sp,8
     1dc:	0402                	c.slli64	s0
     1de:	0301                	addi	t1,t1,0
     1e0:	0910                	addi	a2,sp,144
     1e2:	0004                	.insn	2, 0x0004
     1e4:	0501                	addi	a0,a0,0
     1e6:	02030603          	lb	a2,32(t1)
     1ea:	0809                	addi	a6,a6,2
     1ec:	0100                	addi	s0,sp,128
     1ee:	0204                	addi	s1,sp,256
     1f0:	0205                	addi	tp,tp,1 # 1 <__boot_hart+0x1>
     1f2:	00090503          	lb	a0,0(s2)
     1f6:	0100                	addi	s0,sp,128
     1f8:	00090103          	lb	sp,0(s2)
     1fc:	0100                	addi	s0,sp,128
     1fe:	0905                	addi	s2,s2,1
     200:	0306                	slli	t1,t1,0x1
     202:	0900                	addi	s0,sp,144
     204:	0000                	unimp
     206:	0401                	addi	s0,s0,0
     208:	0501                	addi	a0,a0,0
     20a:	7b030603          	lb	a2,1968(t1)
     20e:	1409                	addi	s0,s0,-30
     210:	0100                	addi	s0,sp,128
     212:	00096703          	lwu	a4,0(s2)
     216:	0100                	addi	s0,sp,128
     218:	0c05                	addi	s8,s8,1
     21a:	00090003          	lb	zero,0(s2)
     21e:	0100                	addi	s0,sp,128
     220:	0505                	addi	a0,a0,1
     222:	00090103          	lb	sp,0(s2)
     226:	0100                	addi	s0,sp,128
     228:	0705                	addi	a4,a4,1
     22a:	00090103          	lb	sp,0(s2)
     22e:	0100                	addi	s0,sp,128
     230:	00090203          	lb	tp,0(s2)
     234:	0100                	addi	s0,sp,128
     236:	0805                	addi	a6,a6,1
     238:	0306                	slli	t1,t1,0x1
     23a:	097d                	addi	s2,s2,31
     23c:	0000                	unimp
     23e:	0501                	addi	a0,a0,0
     240:	0309                	addi	t1,t1,2
     242:	0901                	addi	s2,s2,0
     244:	0004                	.insn	2, 0x0004
     246:	0501                	addi	a0,a0,0
     248:	060c                	addi	a1,sp,768
     24a:	04097e03          	.insn	4, 0x04097e03
     24e:	0100                	addi	s0,sp,128
     250:	0505                	addi	a0,a0,1
     252:	00090103          	lb	sp,0(s2)
     256:	0100                	addi	s0,sp,128
     258:	0705                	addi	a4,a4,1
     25a:	00090103          	lb	sp,0(s2)
     25e:	0100                	addi	s0,sp,128
     260:	00090203          	lb	tp,0(s2)
     264:	0100                	addi	s0,sp,128
     266:	0805                	addi	a6,a6,1
     268:	0306                	slli	t1,t1,0x1
     26a:	097d                	addi	s2,s2,31
     26c:	0000                	unimp
     26e:	0501                	addi	a0,a0,0
     270:	0309                	addi	t1,t1,2
     272:	00040903          	lb	s2,0(s0)
     276:	0501                	addi	a0,a0,0
     278:	060c                	addi	a1,sp,768
     27a:	04097c03          	.insn	4, 0x04097c03
     27e:	0100                	addi	s0,sp,128
     280:	0305                	addi	t1,t1,1
     282:	04090603          	lb	a2,64(s2)
     286:	0100                	addi	s0,sp,128
     288:	00091503          	lh	a0,0(s2)
     28c:	0100                	addi	s0,sp,128
     28e:	0605                	addi	a2,a2,1
     290:	0306                	slli	t1,t1,0x1
     292:	0900                	addi	s0,sp,144
     294:	0000                	unimp
     296:	0501                	addi	a0,a0,0
     298:	0605                	addi	a2,a2,1
     29a:	04090103          	lb	sp,64(s2)
     29e:	0100                	addi	s0,sp,128
     2a0:	0c090103          	lb	sp,192(s2)
     2a4:	0100                	addi	s0,sp,128
     2a6:	0c05                	addi	s8,s8,1
     2a8:	0306                	slli	t1,t1,0x1
     2aa:	0900                	addi	s0,sp,144
     2ac:	0000                	unimp
     2ae:	0501                	addi	a0,a0,0
     2b0:	0301                	addi	t1,t1,0
     2b2:	0904                	addi	s1,sp,144
     2b4:	0004                	.insn	2, 0x0004
     2b6:	0501                	addi	a0,a0,0
     2b8:	7e030603          	lb	a2,2016(t1)
     2bc:	0c09                	addi	s8,s8,2
     2be:	0100                	addi	s0,sp,128
     2c0:	10090103          	lb	sp,256(s2)
     2c4:	0100                	addi	s0,sp,128
     2c6:	0a05                	addi	s4,s4,1
     2c8:	0306                	slli	t1,t1,0x1
     2ca:	0900                	addi	s0,sp,144
     2cc:	0000                	unimp
     2ce:	0901                	addi	s2,s2,0
     2d0:	0008                	.insn	2, 0x0008
     2d2:	0100                	addi	s0,sp,128
     2d4:	9201                	srli	a2,a2,0x20
     2d6:	0000                	unimp
     2d8:	0500                	addi	s0,sp,640
     2da:	0800                	addi	s0,sp,16
     2dc:	3700                	fld	fs0,40(a4)
     2de:	0000                	unimp
     2e0:	0100                	addi	s0,sp,128
     2e2:	0101                	addi	sp,sp,0
     2e4:	000d0efb          	.insn	4, 0x000d0efb
     2e8:	0101                	addi	sp,sp,0
     2ea:	0101                	addi	sp,sp,0
     2ec:	0000                	unimp
     2ee:	0100                	addi	s0,sp,128
     2f0:	0000                	unimp
     2f2:	0101                	addi	sp,sp,0
     2f4:	1f01                	addi	t5,t5,-32
     2f6:	00019203          	lh	tp,0(gp) # 800026b8 <__global_pointer$>
     2fa:	e900                	sd	s0,16(a0)
     2fc:	0001                	nop
     2fe:	0b00                	addi	s0,sp,400
     300:	0001                	nop
     302:	0200                	addi	s0,sp,256
     304:	1f01                	addi	t5,t5,-32
     306:	0f02                	c.slli64	t5
     308:	0001e103          	lwu	sp,0(gp) # 800026b8 <__global_pointer$>
     30c:	0100                	addi	s0,sp,128
     30e:	01e1                	addi	gp,gp,24 # 800026d0 <__global_pointer$+0x18>
     310:	0000                	unimp
     312:	f001                	bnez	s0,212 <__stack_align+0x202>
     314:	0001                	nop
     316:	0200                	addi	s0,sp,256
     318:	0105                	addi	sp,sp,1
     31a:	0900                	addi	s0,sp,144
     31c:	4802                	lw	a6,0(sp)
     31e:	0019                	c.nop	6
     320:	0080                	addi	s0,sp,64
     322:	0000                	unimp
     324:	1600                	addi	s0,sp,800
     326:	0505                	addi	a0,a0,1
     328:	00090103          	lb	sp,0(s2)
     32c:	0100                	addi	s0,sp,128
     32e:	0105                	addi	sp,sp,1
     330:	0306                	slli	t1,t1,0x1
     332:	097f 0000 0501 0305 	.insn	10, 0x0901030505010000097f
     33a:	0901 
     33c:	0004                	.insn	2, 0x0004
     33e:	0501                	addi	a0,a0,0
     340:	0301                	addi	t1,t1,0
     342:	0902                	c.slli64	s2
     344:	0004                	.insn	2, 0x0004
     346:	0501                	addi	a0,a0,0
     348:	0402000b          	.insn	4, 0x0402000b
     34c:	0301                	addi	t1,t1,0
     34e:	097e                	slli	s2,s2,0x1f
     350:	0002                	c.slli64	zero
     352:	0501                	addi	a0,a0,0
     354:	0605                	addi	a2,a2,1
     356:	04090103          	lb	sp,64(s2)
     35a:	0100                	addi	s0,sp,128
     35c:	0105                	addi	sp,sp,1
     35e:	0306                	slli	t1,t1,0x1
     360:	0901                	addi	s2,s2,0
     362:	0000                	unimp
     364:	0901                	addi	s2,s2,0
     366:	0006                	c.slli	zero,0x1
     368:	0100                	addi	s0,sp,128
     36a:	af01                	j	a7a <__stack_align+0xa6a>
     36c:	0000                	unimp
     36e:	0500                	addi	s0,sp,640
     370:	0800                	addi	s0,sp,16
     372:	5400                	lw	s0,40(s0)
     374:	0000                	unimp
     376:	0100                	addi	s0,sp,128
     378:	0101                	addi	sp,sp,0
     37a:	000d0efb          	.insn	4, 0x000d0efb
     37e:	0101                	addi	sp,sp,0
     380:	0101                	addi	sp,sp,0
     382:	0000                	unimp
     384:	0100                	addi	s0,sp,128
     386:	0000                	unimp
     388:	0101                	addi	sp,sp,0
     38a:	1f01                	addi	t5,t5,-32
     38c:	9204                	.insn	2, 0x9204
     38e:	0001                	nop
     390:	e900                	sd	s0,16(a0)
     392:	0001                	nop
     394:	a200                	fsd	fs0,0(a2)
     396:	0000                	unimp
     398:	0b00                	addi	s0,sp,400
     39a:	0001                	nop
     39c:	0200                	addi	s0,sp,256
     39e:	1f01                	addi	t5,t5,-32
     3a0:	0f02                	c.slli64	t5
     3a2:	ff08                	sd	a0,56(a4)
     3a4:	0001                	nop
     3a6:	0100                	addi	s0,sp,128
     3a8:	01ff 0000 7701 0001 	.insn	10, 0x020000017701000001ff
     3b0:	0200 
     3b2:	017f 0000 8003 0001 	.insn	10, 0x0300000180030000017f
     3ba:	0300 
     3bc:	00000207          	.insn	4, 0x0207
     3c0:	00021303          	lh	t1,0(tp) # 0 <__boot_hart>
     3c4:	0300                	addi	s0,sp,384
     3c6:	01f0                	addi	a2,sp,204
     3c8:	0000                	unimp
     3ca:	00010503          	lb	a0,0(sp)
     3ce:	0209                	addi	tp,tp,2 # 2 <__boot_hart+0x2>
     3d0:	195c                	addi	a5,sp,180
     3d2:	8000                	.insn	2, 0x8000
     3d4:	0000                	unimp
     3d6:	0000                	unimp
     3d8:	03050517          	auipc	a0,0x3050
     3dc:	0901                	addi	s2,s2,0
     3de:	0000                	unimp
     3e0:	0501                	addi	a0,a0,0 # 30503d8 <__heap_size+0x30303d8>
     3e2:	0601                	addi	a2,a2,0
     3e4:	00097f03          	.insn	4, 0x00097f03
     3e8:	0100                	addi	s0,sp,128
     3ea:	0505                	addi	a0,a0,1
     3ec:	04090103          	lb	sp,64(s2)
     3f0:	0100                	addi	s0,sp,128
     3f2:	0105                	addi	sp,sp,1
     3f4:	04090203          	lb	tp,64(s2)
     3f8:	0100                	addi	s0,sp,128
     3fa:	0b05                	addi	s6,s6,1
     3fc:	0200                	addi	s0,sp,256
     3fe:	0104                	addi	s1,sp,128
     400:	02097e03          	.insn	4, 0x02097e03
     404:	0100                	addi	s0,sp,128
     406:	0505                	addi	a0,a0,1
     408:	0306                	slli	t1,t1,0x1
     40a:	0901                	addi	s2,s2,0
     40c:	0004                	.insn	2, 0x0004
     40e:	0501                	addi	a0,a0,0
     410:	0601                	addi	a2,a2,0
     412:	00090103          	lb	sp,0(s2)
     416:	0100                	addi	s0,sp,128
     418:	0609                	addi	a2,a2,2
     41a:	0000                	unimp
     41c:	0101                	addi	sp,sp,0
     41e:	00000063          	beqz	zero,41e <__stack_align+0x40e>
     422:	0005                	c.nop	1
     424:	0008                	.insn	2, 0x0008
     426:	002e                	c.slli	zero,0xb
     428:	0000                	unimp
     42a:	0101                	addi	sp,sp,0
     42c:	fb01                	bnez	a4,33c <__stack_align+0x32c>
     42e:	0d0e                	slli	s10,s10,0x3
     430:	0100                	addi	s0,sp,128
     432:	0101                	addi	sp,sp,0
     434:	0001                	nop
     436:	0000                	unimp
     438:	0001                	nop
     43a:	0100                	addi	s0,sp,128
     43c:	0101                	addi	sp,sp,0
     43e:	021f 0192 0000      	.insn	6, 0x0192021f
     444:	01e9                	addi	gp,gp,26 # 800026d2 <__global_pointer$+0x1a>
     446:	0000                	unimp
     448:	0102                	c.slli64	sp
     44a:	021f 020f 0221      	.insn	6, 0x0221020f021f
     450:	0000                	unimp
     452:	2101                	sext.w	sp,sp
     454:	0002                	c.slli64	zero
     456:	0100                	addi	s0,sp,128
     458:	0105                	addi	sp,sp,1
     45a:	0900                	addi	s0,sp,144
     45c:	7002                	.insn	2, 0x7002
     45e:	0019                	c.nop	6
     460:	0080                	addi	s0,sp,64
     462:	0000                	unimp
     464:	1600                	addi	s0,sp,800
     466:	0505                	addi	a0,a0,1
     468:	00090103          	lb	sp,0(s2)
     46c:	0100                	addi	s0,sp,128
     46e:	2305                	addiw	t1,t1,1
     470:	0306                	slli	t1,t1,0x1
     472:	0900                	addi	s0,sp,144
     474:	0000                	unimp
     476:	0501                	addi	a0,a0,0
     478:	0301                	addi	t1,t1,0
     47a:	0901                	addi	s2,s2,0
     47c:	0002                	c.slli64	zero
     47e:	0901                	addi	s2,s2,0
     480:	0006                	c.slli	zero,0x1
     482:	0100                	addi	s0,sp,128
     484:	9c01                	subw	s0,s0,s0
     486:	0000                	unimp
     488:	0500                	addi	s0,sp,640
     48a:	0800                	addi	s0,sp,16
     48c:	4100                	lw	s0,0(a0)
     48e:	0000                	unimp
     490:	0100                	addi	s0,sp,128
     492:	0101                	addi	sp,sp,0
     494:	000d0efb          	.insn	4, 0x000d0efb
     498:	0101                	addi	sp,sp,0
     49a:	0101                	addi	sp,sp,0
     49c:	0000                	unimp
     49e:	0100                	addi	s0,sp,128
     4a0:	0000                	unimp
     4a2:	0101                	addi	sp,sp,0
     4a4:	1f01                	addi	t5,t5,-32
     4a6:	00019203          	lh	tp,0(gp) # 800026b8 <__global_pointer$>
     4aa:	e900                	sd	s0,16(a0)
     4ac:	0001                	nop
     4ae:	0b00                	addi	s0,sp,400
     4b0:	0001                	nop
     4b2:	0200                	addi	s0,sp,256
     4b4:	1f01                	addi	t5,t5,-32
     4b6:	0f02                	c.slli64	t5
     4b8:	3105                	addiw	sp,sp,-31
     4ba:	0002                	c.slli64	zero
     4bc:	0100                	addi	s0,sp,128
     4be:	0231                	addi	tp,tp,12 # c <__boot_hart+0xc>
     4c0:	0000                	unimp
     4c2:	7f01                	lui	t5,0xfffe0
     4c4:	0001                	nop
     4c6:	0200                	addi	s0,sp,256
     4c8:	0180                	addi	s0,sp,192
     4ca:	0000                	unimp
     4cc:	f002                	sd	zero,32(sp)
     4ce:	0001                	nop
     4d0:	0200                	addi	s0,sp,256
     4d2:	0105                	addi	sp,sp,1
     4d4:	0900                	addi	s0,sp,144
     4d6:	7802                	ld	a6,32(sp)
     4d8:	0019                	c.nop	6
     4da:	0080                	addi	s0,sp,64
     4dc:	0000                	unimp
     4de:	1700                	addi	s0,sp,928
     4e0:	0505                	addi	a0,a0,1
     4e2:	00090103          	lb	sp,0(s2)
     4e6:	0100                	addi	s0,sp,128
     4e8:	0105                	addi	sp,sp,1
     4ea:	0306                	slli	t1,t1,0x1
     4ec:	097f 0000 0501 0305 	.insn	10, 0x0901030505010000097f
     4f4:	0901 
     4f6:	0004                	.insn	2, 0x0004
     4f8:	0501                	addi	a0,a0,0
     4fa:	0301                	addi	t1,t1,0
     4fc:	0902                	c.slli64	s2
     4fe:	0004                	.insn	2, 0x0004
     500:	0501                	addi	a0,a0,0
     502:	0402000b          	.insn	4, 0x0402000b
     506:	0301                	addi	t1,t1,0
     508:	097e                	slli	s2,s2,0x1f
     50a:	0002                	c.slli64	zero
     50c:	0501                	addi	a0,a0,0
     50e:	0605                	addi	a2,a2,1
     510:	04090103          	lb	sp,64(s2)
     514:	0100                	addi	s0,sp,128
     516:	0105                	addi	sp,sp,1
     518:	0306                	slli	t1,t1,0x1
     51a:	0901                	addi	s2,s2,0
     51c:	0000                	unimp
     51e:	0901                	addi	s2,s2,0
     520:	0006                	c.slli	zero,0x1
     522:	0100                	addi	s0,sp,128
     524:	a501                	j	b24 <__stack_align+0xb14>
     526:	0000                	unimp
     528:	0500                	addi	s0,sp,640
     52a:	0800                	addi	s0,sp,16
     52c:	4a00                	lw	s0,16(a2)
     52e:	0000                	unimp
     530:	0100                	addi	s0,sp,128
     532:	0101                	addi	sp,sp,0
     534:	000d0efb          	.insn	4, 0x000d0efb
     538:	0101                	addi	sp,sp,0
     53a:	0101                	addi	sp,sp,0
     53c:	0000                	unimp
     53e:	0100                	addi	s0,sp,128
     540:	0000                	unimp
     542:	0101                	addi	sp,sp,0
     544:	1f01                	addi	t5,t5,-32 # fffffffffffdffe0 <__heap_end+0xffffffff7ffbcfe0>
     546:	9204                	.insn	2, 0x9204
     548:	0001                	nop
     54a:	e900                	sd	s0,16(a0)
     54c:	0001                	nop
     54e:	4700                	lw	s0,8(a4)
     550:	0002                	c.slli64	zero
     552:	0b00                	addi	s0,sp,400
     554:	0001                	nop
     556:	0200                	addi	s0,sp,256
     558:	1f01                	addi	t5,t5,-32
     55a:	0f02                	c.slli64	t5
     55c:	4006                	.insn	2, 0x4006
     55e:	0002                	c.slli64	zero
     560:	0100                	addi	s0,sp,128
     562:	0240                	addi	s0,sp,260
     564:	0000                	unimp
     566:	b701                	j	466 <__stack_align+0x456>
     568:	0002                	c.slli64	zero
     56a:	0200                	addi	s0,sp,256
     56c:	017f 0000 8003 0001 	.insn	10, 0x0300000180030000017f
     574:	0300 
     576:	01f0                	addi	a2,sp,204
     578:	0000                	unimp
     57a:	00010503          	lb	a0,0(sp)
     57e:	0209                	addi	tp,tp,2 # 2 <__boot_hart+0x2>
     580:	198c                	addi	a1,sp,240
     582:	8000                	.insn	2, 0x8000
     584:	0000                	unimp
     586:	0000                	unimp
     588:	03050517          	auipc	a0,0x3050
     58c:	0901                	addi	s2,s2,0
     58e:	0000                	unimp
     590:	0501                	addi	a0,a0,0 # 3050588 <__heap_size+0x3030588>
     592:	0601                	addi	a2,a2,0
     594:	00097f03          	.insn	4, 0x00097f03
     598:	0100                	addi	s0,sp,128
     59a:	0505                	addi	a0,a0,1
     59c:	04090103          	lb	sp,64(s2)
     5a0:	0100                	addi	s0,sp,128
     5a2:	0105                	addi	sp,sp,1
     5a4:	04090203          	lb	tp,64(s2)
     5a8:	0100                	addi	s0,sp,128
     5aa:	0b05                	addi	s6,s6,1
     5ac:	0200                	addi	s0,sp,256
     5ae:	0104                	addi	s1,sp,128
     5b0:	02097e03          	.insn	4, 0x02097e03
     5b4:	0100                	addi	s0,sp,128
     5b6:	0505                	addi	a0,a0,1
     5b8:	0306                	slli	t1,t1,0x1
     5ba:	0901                	addi	s2,s2,0
     5bc:	0006                	c.slli	zero,0x1
     5be:	0501                	addi	a0,a0,0
     5c0:	0601                	addi	a2,a2,0
     5c2:	00090103          	lb	sp,0(s2)
     5c6:	0100                	addi	s0,sp,128
     5c8:	0609                	addi	a2,a2,2
     5ca:	0000                	unimp
     5cc:	0101                	addi	sp,sp,0
     5ce:	0121                	addi	sp,sp,8
     5d0:	0000                	unimp
     5d2:	0005                	c.nop	1
     5d4:	0008                	.insn	2, 0x0008
     5d6:	0040                	addi	s0,sp,4
     5d8:	0000                	unimp
     5da:	0101                	addi	sp,sp,0
     5dc:	fb01                	bnez	a4,4ec <__stack_align+0x4dc>
     5de:	0d0e                	slli	s10,s10,0x3
     5e0:	0100                	addi	s0,sp,128
     5e2:	0101                	addi	sp,sp,0
     5e4:	0001                	nop
     5e6:	0000                	unimp
     5e8:	0001                	nop
     5ea:	0100                	addi	s0,sp,128
     5ec:	0101                	addi	sp,sp,0
     5ee:	041f 0192 0000      	.insn	6, 0x0192041f
     5f4:	01e9                	addi	gp,gp,26 # 800026d2 <__global_pointer$+0x1a>
     5f6:	0000                	unimp
     5f8:	00000247          	fmsub.s	ft4,ft0,ft0,ft0,rne
     5fc:	0000010b          	.insn	4, 0x010b
     600:	0102                	c.slli64	sp
     602:	021f 040f 02c7      	.insn	6, 0x02c7040f021f
     608:	0000                	unimp
     60a:	c701                	beqz	a4,612 <__stack_align+0x602>
     60c:	0002                	c.slli64	zero
     60e:	0100                	addi	s0,sp,128
     610:	000002b7          	lui	t0,0x0
     614:	f002                	sd	zero,32(sp)
     616:	0001                	nop
     618:	0300                	addi	s0,sp,384
     61a:	0105                	addi	sp,sp,1
     61c:	0900                	addi	s0,sp,144
     61e:	a202                	fsd	ft0,256(sp)
     620:	0019                	c.nop	6
     622:	0080                	addi	s0,sp,64
     624:	0000                	unimp
     626:	0300                	addi	s0,sp,384
     628:	0109                	addi	sp,sp,2
     62a:	0505                	addi	a0,a0,1
     62c:	00090103          	lb	sp,0(s2)
     630:	0100                	addi	s0,sp,128
     632:	00090103          	lb	sp,0(s2)
     636:	0100                	addi	s0,sp,128
     638:	00090103          	lb	sp,0(s2)
     63c:	0100                	addi	s0,sp,128
     63e:	00090203          	lb	tp,0(s2)
     642:	0100                	addi	s0,sp,128
     644:	0c05                	addi	s8,s8,1
     646:	0306                	slli	t1,t1,0x1
     648:	0900                	addi	s0,sp,144
     64a:	0000                	unimp
     64c:	0501                	addi	a0,a0,0
     64e:	0605                	addi	a2,a2,1
     650:	0a090103          	lb	sp,160(s2)
     654:	0100                	addi	s0,sp,128
     656:	0805                	addi	a6,a6,1
     658:	0200                	addi	s0,sp,256
     65a:	0104                	addi	s1,sp,128
     65c:	0306                	slli	t1,t1,0x1
     65e:	0901                	addi	s2,s2,0
     660:	0000                	unimp
     662:	0501                	addi	a0,a0,0
     664:	030c                	addi	a1,sp,384
     666:	097f 0004 0501 0605 	.insn	10, 0x0103060505010004097f
     66e:	0103 
     670:	0209                	addi	tp,tp,2 # 2 <__boot_hart+0x2>
     672:	0100                	addi	s0,sp,128
     674:	0805                	addi	a6,a6,1
     676:	0200                	addi	s0,sp,256
     678:	0104                	addi	s1,sp,128
     67a:	0306                	slli	t1,t1,0x1
     67c:	0900                	addi	s0,sp,144
     67e:	0000                	unimp
     680:	0501                	addi	a0,a0,0
     682:	0605                	addi	a2,a2,1
     684:	10090503          	lb	a0,256(s2)
     688:	0100                	addi	s0,sp,128
     68a:	0c05                	addi	s8,s8,1
     68c:	0306                	slli	t1,t1,0x1
     68e:	0900                	addi	s0,sp,144
     690:	0000                	unimp
     692:	0501                	addi	a0,a0,0
     694:	0605                	addi	a2,a2,1
     696:	02090103          	lb	sp,32(s2)
     69a:	0100                	addi	s0,sp,128
     69c:	0105                	addi	sp,sp,1
     69e:	0306                	slli	t1,t1,0x1
     6a0:	0901                	addi	s2,s2,0
     6a2:	0000                	unimp
     6a4:	0501                	addi	a0,a0,0
     6a6:	0609                	addi	a2,a2,2
     6a8:	04097a03          	.insn	4, 0x04097a03
     6ac:	0100                	addi	s0,sp,128
     6ae:	0105                	addi	sp,sp,1
     6b0:	0306                	slli	t1,t1,0x1
     6b2:	0978                	addi	a4,sp,156
     6b4:	0000                	unimp
     6b6:	0501                	addi	a0,a0,0
     6b8:	0309                	addi	t1,t1,2
     6ba:	0908                	addi	a0,sp,144
     6bc:	0004                	.insn	2, 0x0004
     6be:	0501                	addi	a0,a0,0
     6c0:	0301                	addi	t1,t1,0
     6c2:	0906                	slli	s2,s2,0x1
     6c4:	0004                	.insn	2, 0x0004
     6c6:	0501                	addi	a0,a0,0
     6c8:	0402000f          	.insn	4, 0x0402000f
     6cc:	0301                	addi	t1,t1,0
     6ce:	097a                	slli	s2,s2,0x1e
     6d0:	0002                	c.slli64	zero
     6d2:	0501                	addi	a0,a0,0
     6d4:	0609                	addi	a2,a2,2
     6d6:	04090103          	lb	sp,64(s2)
     6da:	0100                	addi	s0,sp,128
     6dc:	1005                	c.nop	-31
     6de:	0306                	slli	t1,t1,0x1
     6e0:	0900                	addi	s0,sp,144
     6e2:	0000                	unimp
     6e4:	0501                	addi	a0,a0,0
     6e6:	0301                	addi	t1,t1,0
     6e8:	0905                	addi	s2,s2,1
     6ea:	0002                	c.slli64	zero
     6ec:	0901                	addi	s2,s2,0
     6ee:	0006                	c.slli	zero,0x1
     6f0:	0100                	addi	s0,sp,128
     6f2:	8901                	andi	a0,a0,0
     6f4:	0000                	unimp
     6f6:	0500                	addi	s0,sp,640
     6f8:	0800                	addi	s0,sp,16
     6fa:	5c00                	lw	s0,56(s0)
     6fc:	0000                	unimp
     6fe:	0100                	addi	s0,sp,128
     700:	0101                	addi	sp,sp,0
     702:	000d0efb          	.insn	4, 0x000d0efb
     706:	0101                	addi	sp,sp,0
     708:	0101                	addi	sp,sp,0
     70a:	0000                	unimp
     70c:	0100                	addi	s0,sp,128
     70e:	0000                	unimp
     710:	0101                	addi	sp,sp,0
     712:	1f01                	addi	t5,t5,-32
     714:	9206                	add	tp,tp,ra
     716:	0001                	nop
     718:	e900                	sd	s0,16(a0)
     71a:	0001                	nop
     71c:	4700                	lw	s0,8(a4)
     71e:	0002                	c.slli64	zero
     720:	a200                	fsd	fs0,0(a2)
     722:	0000                	unimp
     724:	0b00                	addi	s0,sp,400
     726:	0001                	nop
     728:	dd00                	sw	s0,56(a0)
     72a:	0002                	c.slli64	zero
     72c:	0200                	addi	s0,sp,256
     72e:	1f01                	addi	t5,t5,-32
     730:	0f02                	c.slli64	t5
     732:	d508                	sw	a0,40(a0)
     734:	0002                	c.slli64	zero
     736:	0100                	addi	s0,sp,128
     738:	02d5                	addi	t0,t0,21 # 15 <__stack_align+0x5>
     73a:	0000                	unimp
     73c:	b701                	j	63c <__stack_align+0x62c>
     73e:	0002                	c.slli64	zero
     740:	0200                	addi	s0,sp,256
     742:	00000177          	.insn	4, 0x0177
     746:	00017f03          	.insn	4, 0x00017f03
     74a:	0400                	addi	s0,sp,512
     74c:	0188                	addi	a0,sp,192
     74e:	0000                	unimp
     750:	8004                	.insn	2, 0x8004
     752:	0001                	nop
     754:	0400                	addi	s0,sp,512
     756:	02e8                	addi	a0,sp,332
     758:	0000                	unimp
     75a:	0505                	addi	a0,a0,1
     75c:	0001                	nop
     75e:	0209                	addi	tp,tp,2 # 2 <__boot_hart+0x2>
     760:	19de                	slli	s3,s3,0x37
     762:	8000                	.insn	2, 0x8000
     764:	0000                	unimp
     766:	0000                	unimp
     768:	0518                	addi	a4,sp,640
     76a:	0305                	addi	t1,t1,1
     76c:	0901                	addi	s2,s2,0
     76e:	0000                	unimp
     770:	0501                	addi	a0,a0,0
     772:	060c                	addi	a1,sp,768
     774:	00090003          	lb	zero,0(s2)
     778:	0100                	addi	s0,sp,128
     77a:	0609                	addi	a2,a2,2
     77c:	0000                	unimp
     77e:	0101                	addi	sp,sp,0
     780:	042e                	slli	s0,s0,0xb
     782:	0000                	unimp
     784:	0005                	c.nop	1
     786:	0008                	.insn	2, 0x0008
     788:	002e                	c.slli	zero,0xb
     78a:	0000                	unimp
     78c:	0101                	addi	sp,sp,0
     78e:	fb01                	bnez	a4,69e <__stack_align+0x68e>
     790:	0d0e                	slli	s10,s10,0x3
     792:	0100                	addi	s0,sp,128
     794:	0101                	addi	sp,sp,0
     796:	0001                	nop
     798:	0000                	unimp
     79a:	0001                	nop
     79c:	0100                	addi	s0,sp,128
     79e:	0101                	addi	sp,sp,0
     7a0:	021f 0192 0000      	.insn	6, 0x0192021f
     7a6:	000002ef          	jal	t0,7a6 <__stack_align+0x796>
     7aa:	0102                	c.slli64	sp
     7ac:	021f 020f 02f7      	.insn	6, 0x02f7020f021f
     7b2:	0000                	unimp
     7b4:	f701                	bnez	a4,6bc <__stack_align+0x6ac>
     7b6:	0002                	c.slli64	zero
     7b8:	0100                	addi	s0,sp,128
     7ba:	0900                	addi	s0,sp,144
     7bc:	0002                	c.slli64	zero
     7be:	0000                	unimp
     7c0:	0080                	addi	s0,sp,64
     7c2:	0000                	unimp
     7c4:	0300                	addi	s0,sp,384
     7c6:	0109                	addi	sp,sp,2
     7c8:	02090103          	lb	sp,32(s2)
     7cc:	0100                	addi	s0,sp,128
     7ce:	02090103          	lb	sp,32(s2)
     7d2:	0100                	addi	s0,sp,128
     7d4:	02090103          	lb	sp,32(s2)
     7d8:	0100                	addi	s0,sp,128
     7da:	02090103          	lb	sp,32(s2)
     7de:	0100                	addi	s0,sp,128
     7e0:	02090103          	lb	sp,32(s2)
     7e4:	0100                	addi	s0,sp,128
     7e6:	02090103          	lb	sp,32(s2)
     7ea:	0100                	addi	s0,sp,128
     7ec:	02090103          	lb	sp,32(s2)
     7f0:	0100                	addi	s0,sp,128
     7f2:	02090103          	lb	sp,32(s2)
     7f6:	0100                	addi	s0,sp,128
     7f8:	02090103          	lb	sp,32(s2)
     7fc:	0100                	addi	s0,sp,128
     7fe:	02090103          	lb	sp,32(s2)
     802:	0100                	addi	s0,sp,128
     804:	02090103          	lb	sp,32(s2)
     808:	0100                	addi	s0,sp,128
     80a:	02090103          	lb	sp,32(s2)
     80e:	0100                	addi	s0,sp,128
     810:	02090103          	lb	sp,32(s2)
     814:	0100                	addi	s0,sp,128
     816:	02090103          	lb	sp,32(s2)
     81a:	0100                	addi	s0,sp,128
     81c:	02090103          	lb	sp,32(s2)
     820:	0100                	addi	s0,sp,128
     822:	02090103          	lb	sp,32(s2)
     826:	0100                	addi	s0,sp,128
     828:	02090103          	lb	sp,32(s2)
     82c:	0100                	addi	s0,sp,128
     82e:	02090103          	lb	sp,32(s2)
     832:	0100                	addi	s0,sp,128
     834:	02090103          	lb	sp,32(s2)
     838:	0100                	addi	s0,sp,128
     83a:	02090103          	lb	sp,32(s2)
     83e:	0100                	addi	s0,sp,128
     840:	02090103          	lb	sp,32(s2)
     844:	0100                	addi	s0,sp,128
     846:	02090103          	lb	sp,32(s2)
     84a:	0100                	addi	s0,sp,128
     84c:	02090103          	lb	sp,32(s2)
     850:	0100                	addi	s0,sp,128
     852:	02090103          	lb	sp,32(s2)
     856:	0100                	addi	s0,sp,128
     858:	02090103          	lb	sp,32(s2)
     85c:	0100                	addi	s0,sp,128
     85e:	02090103          	lb	sp,32(s2)
     862:	0100                	addi	s0,sp,128
     864:	02090103          	lb	sp,32(s2)
     868:	0100                	addi	s0,sp,128
     86a:	02090103          	lb	sp,32(s2)
     86e:	0100                	addi	s0,sp,128
     870:	02090103          	lb	sp,32(s2)
     874:	0100                	addi	s0,sp,128
     876:	02090103          	lb	sp,32(s2)
     87a:	0100                	addi	s0,sp,128
     87c:	02090203          	lb	tp,32(s2)
     880:	0100                	addi	s0,sp,128
     882:	06090103          	lb	sp,96(s2)
     886:	0100                	addi	s0,sp,128
     888:	04090403          	lb	s0,64(s2)
     88c:	0100                	addi	s0,sp,128
     88e:	08090103          	lb	sp,128(s2)
     892:	0100                	addi	s0,sp,128
     894:	04090203          	lb	tp,64(s2)
     898:	0100                	addi	s0,sp,128
     89a:	04090103          	lb	sp,64(s2)
     89e:	0100                	addi	s0,sp,128
     8a0:	04090103          	lb	sp,64(s2)
     8a4:	0100                	addi	s0,sp,128
     8a6:	04090103          	lb	sp,64(s2)
     8aa:	0100                	addi	s0,sp,128
     8ac:	04090103          	lb	sp,64(s2)
     8b0:	0100                	addi	s0,sp,128
     8b2:	04090103          	lb	sp,64(s2)
     8b6:	0100                	addi	s0,sp,128
     8b8:	04090103          	lb	sp,64(s2)
     8bc:	0100                	addi	s0,sp,128
     8be:	04090103          	lb	sp,64(s2)
     8c2:	0100                	addi	s0,sp,128
     8c4:	04090103          	lb	sp,64(s2)
     8c8:	0100                	addi	s0,sp,128
     8ca:	04090103          	lb	sp,64(s2)
     8ce:	0100                	addi	s0,sp,128
     8d0:	04090103          	lb	sp,64(s2)
     8d4:	0100                	addi	s0,sp,128
     8d6:	04090103          	lb	sp,64(s2)
     8da:	0100                	addi	s0,sp,128
     8dc:	04090103          	lb	sp,64(s2)
     8e0:	0100                	addi	s0,sp,128
     8e2:	04090103          	lb	sp,64(s2)
     8e6:	0100                	addi	s0,sp,128
     8e8:	04090103          	lb	sp,64(s2)
     8ec:	0100                	addi	s0,sp,128
     8ee:	04090103          	lb	sp,64(s2)
     8f2:	0100                	addi	s0,sp,128
     8f4:	04090103          	lb	sp,64(s2)
     8f8:	0100                	addi	s0,sp,128
     8fa:	04090103          	lb	sp,64(s2)
     8fe:	0100                	addi	s0,sp,128
     900:	04090103          	lb	sp,64(s2)
     904:	0100                	addi	s0,sp,128
     906:	04090103          	lb	sp,64(s2)
     90a:	0100                	addi	s0,sp,128
     90c:	04090103          	lb	sp,64(s2)
     910:	0100                	addi	s0,sp,128
     912:	04090103          	lb	sp,64(s2)
     916:	0100                	addi	s0,sp,128
     918:	04090103          	lb	sp,64(s2)
     91c:	0100                	addi	s0,sp,128
     91e:	04090103          	lb	sp,64(s2)
     922:	0100                	addi	s0,sp,128
     924:	04090103          	lb	sp,64(s2)
     928:	0100                	addi	s0,sp,128
     92a:	04090103          	lb	sp,64(s2)
     92e:	0100                	addi	s0,sp,128
     930:	04090103          	lb	sp,64(s2)
     934:	0100                	addi	s0,sp,128
     936:	04090103          	lb	sp,64(s2)
     93a:	0100                	addi	s0,sp,128
     93c:	04090103          	lb	sp,64(s2)
     940:	0100                	addi	s0,sp,128
     942:	04090103          	lb	sp,64(s2)
     946:	0100                	addi	s0,sp,128
     948:	04090103          	lb	sp,64(s2)
     94c:	0100                	addi	s0,sp,128
     94e:	04090103          	lb	sp,64(s2)
     952:	0100                	addi	s0,sp,128
     954:	04090103          	lb	sp,64(s2)
     958:	0100                	addi	s0,sp,128
     95a:	04090803          	lb	a6,64(s2)
     95e:	0100                	addi	s0,sp,128
     960:	08090403          	lb	s0,128(s2)
     964:	0100                	addi	s0,sp,128
     966:	04090103          	lb	sp,64(s2)
     96a:	0100                	addi	s0,sp,128
     96c:	00090103          	lb	sp,0(s2)
     970:	0100                	addi	s0,sp,128
     972:	04090103          	lb	sp,64(s2)
     976:	0100                	addi	s0,sp,128
     978:	08090103          	lb	sp,128(s2)
     97c:	0100                	addi	s0,sp,128
     97e:	04090103          	lb	sp,64(s2)
     982:	0100                	addi	s0,sp,128
     984:	02090303          	lb	t1,32(s2)
     988:	0100                	addi	s0,sp,128
     98a:	02090103          	lb	sp,32(s2)
     98e:	0100                	addi	s0,sp,128
     990:	04090103          	lb	sp,64(s2)
     994:	0100                	addi	s0,sp,128
     996:	04090303          	lb	t1,64(s2)
     99a:	0100                	addi	s0,sp,128
     99c:	08090103          	lb	sp,128(s2)
     9a0:	0100                	addi	s0,sp,128
     9a2:	04090303          	lb	t1,64(s2)
     9a6:	0100                	addi	s0,sp,128
     9a8:	04090303          	lb	t1,64(s2)
     9ac:	0100                	addi	s0,sp,128
     9ae:	04090103          	lb	sp,64(s2)
     9b2:	0100                	addi	s0,sp,128
     9b4:	08090303          	lb	t1,128(s2)
     9b8:	0100                	addi	s0,sp,128
     9ba:	04090103          	lb	sp,64(s2)
     9be:	0100                	addi	s0,sp,128
     9c0:	04090103          	lb	sp,64(s2)
     9c4:	0100                	addi	s0,sp,128
     9c6:	04090203          	lb	tp,64(s2)
     9ca:	0100                	addi	s0,sp,128
     9cc:	04090103          	lb	sp,64(s2)
     9d0:	0100                	addi	s0,sp,128
     9d2:	02090103          	lb	sp,32(s2)
     9d6:	0100                	addi	s0,sp,128
     9d8:	04090403          	lb	s0,64(s2)
     9dc:	0100                	addi	s0,sp,128
     9de:	08090103          	lb	sp,128(s2)
     9e2:	0100                	addi	s0,sp,128
     9e4:	04090103          	lb	sp,64(s2)
     9e8:	0100                	addi	s0,sp,128
     9ea:	04090303          	lb	t1,64(s2)
     9ee:	0100                	addi	s0,sp,128
     9f0:	02090703          	lb	a4,32(s2)
     9f4:	0100                	addi	s0,sp,128
     9f6:	04090103          	lb	sp,64(s2)
     9fa:	0100                	addi	s0,sp,128
     9fc:	02090303          	lb	t1,32(s2)
     a00:	0100                	addi	s0,sp,128
     a02:	02090103          	lb	sp,32(s2)
     a06:	0100                	addi	s0,sp,128
     a08:	04090103          	lb	sp,64(s2)
     a0c:	0100                	addi	s0,sp,128
     a0e:	02090103          	lb	sp,32(s2)
     a12:	0100                	addi	s0,sp,128
     a14:	02090103          	lb	sp,32(s2)
     a18:	0100                	addi	s0,sp,128
     a1a:	02090103          	lb	sp,32(s2)
     a1e:	0100                	addi	s0,sp,128
     a20:	02090103          	lb	sp,32(s2)
     a24:	0100                	addi	s0,sp,128
     a26:	02090103          	lb	sp,32(s2)
     a2a:	0100                	addi	s0,sp,128
     a2c:	02090103          	lb	sp,32(s2)
     a30:	0100                	addi	s0,sp,128
     a32:	02090103          	lb	sp,32(s2)
     a36:	0100                	addi	s0,sp,128
     a38:	02090103          	lb	sp,32(s2)
     a3c:	0100                	addi	s0,sp,128
     a3e:	02090103          	lb	sp,32(s2)
     a42:	0100                	addi	s0,sp,128
     a44:	02090103          	lb	sp,32(s2)
     a48:	0100                	addi	s0,sp,128
     a4a:	02090103          	lb	sp,32(s2)
     a4e:	0100                	addi	s0,sp,128
     a50:	02090103          	lb	sp,32(s2)
     a54:	0100                	addi	s0,sp,128
     a56:	02090103          	lb	sp,32(s2)
     a5a:	0100                	addi	s0,sp,128
     a5c:	02090103          	lb	sp,32(s2)
     a60:	0100                	addi	s0,sp,128
     a62:	02090103          	lb	sp,32(s2)
     a66:	0100                	addi	s0,sp,128
     a68:	02090103          	lb	sp,32(s2)
     a6c:	0100                	addi	s0,sp,128
     a6e:	02090103          	lb	sp,32(s2)
     a72:	0100                	addi	s0,sp,128
     a74:	02090103          	lb	sp,32(s2)
     a78:	0100                	addi	s0,sp,128
     a7a:	02090103          	lb	sp,32(s2)
     a7e:	0100                	addi	s0,sp,128
     a80:	02090103          	lb	sp,32(s2)
     a84:	0100                	addi	s0,sp,128
     a86:	02090103          	lb	sp,32(s2)
     a8a:	0100                	addi	s0,sp,128
     a8c:	02090103          	lb	sp,32(s2)
     a90:	0100                	addi	s0,sp,128
     a92:	02090103          	lb	sp,32(s2)
     a96:	0100                	addi	s0,sp,128
     a98:	02090103          	lb	sp,32(s2)
     a9c:	0100                	addi	s0,sp,128
     a9e:	02090103          	lb	sp,32(s2)
     aa2:	0100                	addi	s0,sp,128
     aa4:	02090103          	lb	sp,32(s2)
     aa8:	0100                	addi	s0,sp,128
     aaa:	02090103          	lb	sp,32(s2)
     aae:	0100                	addi	s0,sp,128
     ab0:	02090103          	lb	sp,32(s2)
     ab4:	0100                	addi	s0,sp,128
     ab6:	02090103          	lb	sp,32(s2)
     aba:	0100                	addi	s0,sp,128
     abc:	02090303          	lb	t1,32(s2)
     ac0:	0100                	addi	s0,sp,128
     ac2:	04090103          	lb	sp,64(s2)
     ac6:	0100                	addi	s0,sp,128
     ac8:	04090103          	lb	sp,64(s2)
     acc:	0100                	addi	s0,sp,128
     ace:	04090103          	lb	sp,64(s2)
     ad2:	0100                	addi	s0,sp,128
     ad4:	02090103          	lb	sp,32(s2)
     ad8:	0100                	addi	s0,sp,128
     ada:	04090103          	lb	sp,64(s2)
     ade:	0100                	addi	s0,sp,128
     ae0:	04090303          	lb	t1,64(s2)
     ae4:	0100                	addi	s0,sp,128
     ae6:	06090103          	lb	sp,96(s2)
     aea:	0100                	addi	s0,sp,128
     aec:	04090203          	lb	tp,64(s2)
     af0:	0100                	addi	s0,sp,128
     af2:	02090103          	lb	sp,32(s2)
     af6:	0100                	addi	s0,sp,128
     af8:	02090103          	lb	sp,32(s2)
     afc:	0100                	addi	s0,sp,128
     afe:	02090103          	lb	sp,32(s2)
     b02:	0100                	addi	s0,sp,128
     b04:	02090103          	lb	sp,32(s2)
     b08:	0100                	addi	s0,sp,128
     b0a:	02090103          	lb	sp,32(s2)
     b0e:	0100                	addi	s0,sp,128
     b10:	02090103          	lb	sp,32(s2)
     b14:	0100                	addi	s0,sp,128
     b16:	02090103          	lb	sp,32(s2)
     b1a:	0100                	addi	s0,sp,128
     b1c:	02090103          	lb	sp,32(s2)
     b20:	0100                	addi	s0,sp,128
     b22:	02090103          	lb	sp,32(s2)
     b26:	0100                	addi	s0,sp,128
     b28:	02090103          	lb	sp,32(s2)
     b2c:	0100                	addi	s0,sp,128
     b2e:	02090103          	lb	sp,32(s2)
     b32:	0100                	addi	s0,sp,128
     b34:	02090103          	lb	sp,32(s2)
     b38:	0100                	addi	s0,sp,128
     b3a:	02090103          	lb	sp,32(s2)
     b3e:	0100                	addi	s0,sp,128
     b40:	02090103          	lb	sp,32(s2)
     b44:	0100                	addi	s0,sp,128
     b46:	02090103          	lb	sp,32(s2)
     b4a:	0100                	addi	s0,sp,128
     b4c:	02090103          	lb	sp,32(s2)
     b50:	0100                	addi	s0,sp,128
     b52:	02090103          	lb	sp,32(s2)
     b56:	0100                	addi	s0,sp,128
     b58:	02090103          	lb	sp,32(s2)
     b5c:	0100                	addi	s0,sp,128
     b5e:	02090103          	lb	sp,32(s2)
     b62:	0100                	addi	s0,sp,128
     b64:	02090103          	lb	sp,32(s2)
     b68:	0100                	addi	s0,sp,128
     b6a:	02090103          	lb	sp,32(s2)
     b6e:	0100                	addi	s0,sp,128
     b70:	02090103          	lb	sp,32(s2)
     b74:	0100                	addi	s0,sp,128
     b76:	02090103          	lb	sp,32(s2)
     b7a:	0100                	addi	s0,sp,128
     b7c:	02090103          	lb	sp,32(s2)
     b80:	0100                	addi	s0,sp,128
     b82:	02090103          	lb	sp,32(s2)
     b86:	0100                	addi	s0,sp,128
     b88:	02090103          	lb	sp,32(s2)
     b8c:	0100                	addi	s0,sp,128
     b8e:	02090103          	lb	sp,32(s2)
     b92:	0100                	addi	s0,sp,128
     b94:	02090103          	lb	sp,32(s2)
     b98:	0100                	addi	s0,sp,128
     b9a:	02090103          	lb	sp,32(s2)
     b9e:	0100                	addi	s0,sp,128
     ba0:	02090203          	lb	tp,32(s2)
     ba4:	0100                	addi	s0,sp,128
     ba6:	02090203          	lb	tp,32(s2)
     baa:	0100                	addi	s0,sp,128
     bac:	0409                	addi	s0,s0,2
     bae:	0000                	unimp
     bb0:	0101                	addi	sp,sp,0
     bb2:	005c                	addi	a5,sp,4
     bb4:	0000                	unimp
     bb6:	0005                	c.nop	1
     bb8:	0008                	.insn	2, 0x0008
     bba:	002e                	c.slli	zero,0xb
     bbc:	0000                	unimp
     bbe:	0101                	addi	sp,sp,0
     bc0:	fb01                	bnez	a4,ad0 <__stack_align+0xac0>
     bc2:	0d0e                	slli	s10,s10,0x3
     bc4:	0100                	addi	s0,sp,128
     bc6:	0101                	addi	sp,sp,0
     bc8:	0001                	nop
     bca:	0000                	unimp
     bcc:	0001                	nop
     bce:	0100                	addi	s0,sp,128
     bd0:	0101                	addi	sp,sp,0
     bd2:	021f 0192 0000      	.insn	6, 0x0192021f
     bd8:	000002ef          	jal	t0,bd8 <__stack_align+0xbc8>
     bdc:	0102                	c.slli64	sp
     bde:	021f 020f 02fe      	.insn	6, 0x02fe020f021f
     be4:	0000                	unimp
     be6:	fe01                	bnez	a2,afe <__stack_align+0xaee>
     be8:	0002                	c.slli64	zero
     bea:	0100                	addi	s0,sp,128
     bec:	0900                	addi	s0,sp,144
     bee:	ee02                	sd	zero,280(sp)
     bf0:	0001                	nop
     bf2:	0080                	addi	s0,sp,64
     bf4:	0000                	unimp
     bf6:	0300                	addi	s0,sp,384
     bf8:	0110                	addi	a2,sp,128
     bfa:	0a090103          	lb	sp,160(s2)
     bfe:	0100                	addi	s0,sp,128
     c00:	16090603          	lb	a2,352(s2)
     c04:	0100                	addi	s0,sp,128
     c06:	0c090103          	lb	sp,192(s2)
     c0a:	0100                	addi	s0,sp,128
     c0c:	1609                	addi	a2,a2,-30
     c0e:	0000                	unimp
     c10:	0101                	addi	sp,sp,0
     c12:	000000b3          	add	ra,zero,zero
     c16:	0005                	c.nop	1
     c18:	0008                	.insn	2, 0x0008
     c1a:	0049                	c.nop	18
     c1c:	0000                	unimp
     c1e:	0101                	addi	sp,sp,0
     c20:	fb01                	bnez	a4,b30 <__stack_align+0xb20>
     c22:	0d0e                	slli	s10,s10,0x3
     c24:	0100                	addi	s0,sp,128
     c26:	0101                	addi	sp,sp,0
     c28:	0001                	nop
     c2a:	0000                	unimp
     c2c:	0001                	nop
     c2e:	0100                	addi	s0,sp,128
     c30:	0101                	addi	sp,sp,0
     c32:	051f 0192 0000      	.insn	6, 0x0192051f
     c38:	000002ef          	jal	t0,c38 <__stack_align+0xc28>
     c3c:	00a2                	slli	ra,ra,0x8
     c3e:	0000                	unimp
     c40:	0000010b          	.insn	4, 0x010b
     c44:	02dd                	addi	t0,t0,23
     c46:	0000                	unimp
     c48:	0102                	c.slli64	sp
     c4a:	021f 050f 0310      	.insn	6, 0x0310050f021f
     c50:	0000                	unimp
     c52:	1001                	c.nop	-32
     c54:	01000003          	lb	zero,16(zero) # 10 <__stack_align>
     c58:	00000177          	.insn	4, 0x0177
     c5c:	8802                	jr	a6
     c5e:	0001                	nop
     c60:	0300                	addi	s0,sp,384
     c62:	0318                	addi	a4,sp,384
     c64:	0000                	unimp
     c66:	0504                	addi	s1,sp,640
     c68:	0001                	nop
     c6a:	0209                	addi	tp,tp,2 # 2 <__boot_hart+0x2>
     c6c:	19e4                	addi	s1,sp,252
     c6e:	8000                	.insn	2, 0x8000
     c70:	0000                	unimp
     c72:	0000                	unimp
     c74:	0516                	slli	a0,a0,0x5
     c76:	0305                	addi	t1,t1,1
     c78:	0902                	c.slli64	s2
     c7a:	0000                	unimp
     c7c:	0501                	addi	a0,a0,0
     c7e:	0601                	addi	a2,a2,0
     c80:	00097e03          	.insn	4, 0x00097e03
     c84:	0100                	addi	s0,sp,128
     c86:	0905                	addi	s2,s2,1
     c88:	02090203          	lb	tp,32(s2)
     c8c:	0100                	addi	s0,sp,128
     c8e:	0105                	addi	sp,sp,1
     c90:	04097e03          	.insn	4, 0x04097e03
     c94:	0100                	addi	s0,sp,128
     c96:	0905                	addi	s2,s2,1
     c98:	02090203          	lb	tp,32(s2)
     c9c:	0100                	addi	s0,sp,128
     c9e:	0505                	addi	a0,a0,1
     ca0:	0306                	slli	t1,t1,0x1
     ca2:	0902                	c.slli64	s2
     ca4:	0002                	c.slli64	zero
     ca6:	0501                	addi	a0,a0,0
     ca8:	062a                	slli	a2,a2,0xa
     caa:	00090003          	lb	zero,0(s2)
     cae:	0100                	addi	s0,sp,128
     cb0:	0200                	addi	s0,sp,256
     cb2:	0104                	addi	s1,sp,128
     cb4:	04090003          	lb	zero,64(s2)
     cb8:	0100                	addi	s0,sp,128
     cba:	0505                	addi	a0,a0,1
     cbc:	0306                	slli	t1,t1,0x1
     cbe:	0901                	addi	s2,s2,0
     cc0:	0004                	.insn	2, 0x0004
     cc2:	0901                	addi	s2,s2,0
     cc4:	0004                	.insn	2, 0x0004
     cc6:	0100                	addi	s0,sp,128
     cc8:	db01                	beqz	a4,bd8 <__stack_align+0xbc8>
     cca:	0000                	unimp
     ccc:	0500                	addi	s0,sp,640
     cce:	0800                	addi	s0,sp,16
     cd0:	4000                	lw	s0,0(s0)
     cd2:	0000                	unimp
     cd4:	0100                	addi	s0,sp,128
     cd6:	0101                	addi	sp,sp,0
     cd8:	000d0efb          	.insn	4, 0x000d0efb
     cdc:	0101                	addi	sp,sp,0
     cde:	0101                	addi	sp,sp,0
     ce0:	0000                	unimp
     ce2:	0100                	addi	s0,sp,128
     ce4:	0000                	unimp
     ce6:	0101                	addi	sp,sp,0
     ce8:	1f01                	addi	t5,t5,-32
     cea:	9204                	.insn	2, 0x9204
     cec:	0001                	nop
     cee:	ef00                	sd	s0,24(a4)
     cf0:	0002                	c.slli64	zero
     cf2:	3000                	fld	fs0,32(s0)
     cf4:	47000003          	lb	zero,1136(zero) # 470 <__stack_align+0x460>
     cf8:	0002                	c.slli64	zero
     cfa:	0200                	addi	s0,sp,256
     cfc:	1f01                	addi	t5,t5,-32
     cfe:	0f02                	c.slli64	t5
     d00:	2a04                	fld	fs1,16(a2)
     d02:	01000003          	lb	zero,16(zero) # 10 <__stack_align>
     d06:	032a                	slli	t1,t1,0xa
     d08:	0000                	unimp
     d0a:	9101                	srli	a0,a0,0x20
     d0c:	02000003          	lb	zero,32(zero) # 20 <__stack_align+0x10>
     d10:	000002b7          	lui	t0,0x0
     d14:	00010503          	lb	a0,0(sp)
     d18:	0209                	addi	tp,tp,2 # 2 <__boot_hart+0x2>
     d1a:	19fa                	slli	s3,s3,0x3e
     d1c:	8000                	.insn	2, 0x8000
     d1e:	0000                	unimp
     d20:	0000                	unimp
     d22:	0515                	addi	a0,a0,5
     d24:	0305                	addi	t1,t1,1
     d26:	0901                	addi	s2,s2,0
     d28:	0000                	unimp
     d2a:	0301                	addi	t1,t1,0
     d2c:	0901                	addi	s2,s2,0
     d2e:	0000                	unimp
     d30:	0301                	addi	t1,t1,0
     d32:	0901                	addi	s2,s2,0
     d34:	0000                	unimp
     d36:	0301                	addi	t1,t1,0
     d38:	0901                	addi	s2,s2,0
     d3a:	0000                	unimp
     d3c:	0301                	addi	t1,t1,0
     d3e:	0901                	addi	s2,s2,0
     d40:	0000                	unimp
     d42:	0301                	addi	t1,t1,0
     d44:	0902                	c.slli64	s2
     d46:	0000                	unimp
     d48:	0501                	addi	a0,a0,0
     d4a:	0601                	addi	a2,a2,0
     d4c:	00097903          	.insn	4, 0x00097903
     d50:	0100                	addi	s0,sp,128
     d52:	0505                	addi	a0,a0,1
     d54:	02090703          	lb	a4,32(s2)
     d58:	0100                	addi	s0,sp,128
     d5a:	0105                	addi	sp,sp,1
     d5c:	0e097903          	.insn	4, 0x0e097903
     d60:	0100                	addi	s0,sp,128
     d62:	0505                	addi	a0,a0,1
     d64:	04090703          	lb	a4,64(s2)
     d68:	0100                	addi	s0,sp,128
     d6a:	0306                	slli	t1,t1,0x1
     d6c:	0901                	addi	s2,s2,0
     d6e:	0006                	c.slli	zero,0x1
     d70:	0501                	addi	a0,a0,0
     d72:	0601                	addi	a2,a2,0
     d74:	06090103          	lb	sp,96(s2)
     d78:	0100                	addi	s0,sp,128
     d7a:	0505                	addi	a0,a0,1
     d7c:	04097f03          	.insn	4, 0x04097f03
     d80:	0100                	addi	s0,sp,128
     d82:	0105                	addi	sp,sp,1
     d84:	04090103          	lb	sp,64(s2)
     d88:	0100                	addi	s0,sp,128
     d8a:	0505                	addi	a0,a0,1
     d8c:	00097f03          	.insn	4, 0x00097f03
     d90:	0100                	addi	s0,sp,128
     d92:	0105                	addi	sp,sp,1
     d94:	02090103          	lb	sp,32(s2)
     d98:	0100                	addi	s0,sp,128
     d9a:	0505                	addi	a0,a0,1
     d9c:	02097f03          	.insn	4, 0x02097f03
     da0:	0100                	addi	s0,sp,128
     da2:	0409                	addi	s0,s0,2
     da4:	0000                	unimp
     da6:	0101                	addi	sp,sp,0
     da8:	0066                	c.slli	zero,0x19
     daa:	0000                	unimp
     dac:	0005                	c.nop	1
     dae:	0008                	.insn	2, 0x0008
     db0:	002e                	c.slli	zero,0xb
     db2:	0000                	unimp
     db4:	0101                	addi	sp,sp,0
     db6:	fb01                	bnez	a4,cc6 <__stack_align+0xcb6>
     db8:	0d0e                	slli	s10,s10,0x3
     dba:	0100                	addi	s0,sp,128
     dbc:	0101                	addi	sp,sp,0
     dbe:	0001                	nop
     dc0:	0000                	unimp
     dc2:	0001                	nop
     dc4:	0100                	addi	s0,sp,128
     dc6:	0101                	addi	sp,sp,0
     dc8:	021f 0192 0000      	.insn	6, 0x0192021f
     dce:	000002ef          	jal	t0,dce <__stack_align+0xdbe>
     dd2:	0102                	c.slli64	sp
     dd4:	021f 020f 03a2      	.insn	6, 0x03a2020f021f
     dda:	0000                	unimp
     ddc:	a201                	j	edc <__stack_align+0xecc>
     dde:	01000003          	lb	zero,16(zero) # 10 <__stack_align>
     de2:	0105                	addi	sp,sp,1
     de4:	0900                	addi	s0,sp,144
     de6:	2a02                	fld	fs4,0(sp)
     de8:	001a                	c.slli	zero,0x6
     dea:	0080                	addi	s0,sp,64
     dec:	0000                	unimp
     dee:	1900                	addi	s0,sp,176
     df0:	0505                	addi	a0,a0,1
     df2:	00090103          	lb	sp,0(s2)
     df6:	0100                	addi	s0,sp,128
     df8:	0905                	addi	s2,s2,1
     dfa:	0200                	addi	s0,sp,256
     dfc:	0104                	addi	s1,sp,128
     dfe:	00090103          	lb	sp,0(s2)
     e02:	0100                	addi	s0,sp,128
     e04:	0505                	addi	a0,a0,1
     e06:	04097f03          	.insn	4, 0x04097f03
     e0a:	0100                	addi	s0,sp,128
     e0c:	0209                	addi	tp,tp,2 # 2 <__boot_hart+0x2>
     e0e:	0000                	unimp
     e10:	0101                	addi	sp,sp,0
     e12:	01f2                	slli	gp,gp,0x1c
     e14:	0000                	unimp
     e16:	0005                	c.nop	1
     e18:	0008                	.insn	2, 0x0008
     e1a:	00000053          	fadd.s	ft0,ft0,ft0,rne
     e1e:	0101                	addi	sp,sp,0
     e20:	fb01                	bnez	a4,d30 <__stack_align+0xd20>
     e22:	0d0e                	slli	s10,s10,0x3
     e24:	0100                	addi	s0,sp,128
     e26:	0101                	addi	sp,sp,0
     e28:	0001                	nop
     e2a:	0000                	unimp
     e2c:	0001                	nop
     e2e:	0100                	addi	s0,sp,128
     e30:	0101                	addi	sp,sp,0
     e32:	051f 0192 0000      	.insn	6, 0x0192051f
     e38:	000002ef          	jal	t0,e38 <__stack_align+0xe28>
     e3c:	02dd                	addi	t0,t0,23 # 17 <__stack_align+0x7>
     e3e:	0000                	unimp
     e40:	00a2                	slli	ra,ra,0x8
     e42:	0000                	unimp
     e44:	0000010b          	.insn	4, 0x010b
     e48:	0102                	c.slli64	sp
     e4a:	021f 070f 03b1      	.insn	6, 0x03b1070f021f
     e50:	0000                	unimp
     e52:	b101                	j	a52 <__stack_align+0xa42>
     e54:	01000003          	lb	zero,16(zero) # 10 <__stack_align>
     e58:	03b8                	addi	a4,sp,456
     e5a:	0000                	unimp
     e5c:	c102                	sw	zero,128(sp)
     e5e:	02000003          	lb	zero,32(zero) # 20 <__stack_align+0x10>
     e62:	00000177          	.insn	4, 0x0177
     e66:	00018803          	lb	a6,0(gp) # 800026b8 <__global_pointer$>
     e6a:	0400                	addi	s0,sp,512
     e6c:	02e8                	addi	a0,sp,332
     e6e:	0000                	unimp
     e70:	0502                	c.slli64	a0
     e72:	0001                	nop
     e74:	0209                	addi	tp,tp,2 # 2 <__boot_hart+0x2>
     e76:	1a30                	addi	a2,sp,312
     e78:	8000                	.insn	2, 0x8000
     e7a:	0000                	unimp
     e7c:	0000                	unimp
     e7e:	05010c03          	lb	s8,80(sp)
     e82:	0305                	addi	t1,t1,1
     e84:	0901                	addi	s2,s2,0
     e86:	0000                	unimp
     e88:	0301                	addi	t1,t1,0
     e8a:	0901                	addi	s2,s2,0
     e8c:	0000                	unimp
     e8e:	0301                	addi	t1,t1,0
     e90:	0902                	c.slli64	s2
     e92:	0000                	unimp
     e94:	0501                	addi	a0,a0,0
     e96:	0601                	addi	a2,a2,0
     e98:	00097c03          	.insn	4, 0x00097c03
     e9c:	0100                	addi	s0,sp,128
     e9e:	0c05                	addi	s8,s8,1
     ea0:	02090403          	lb	s0,32(s2)
     ea4:	0100                	addi	s0,sp,128
     ea6:	0505                	addi	a0,a0,1
     ea8:	0306                	slli	t1,t1,0x1
     eaa:	0901                	addi	s2,s2,0
     eac:	0002                	c.slli64	zero
     eae:	0501                	addi	a0,a0,0
     eb0:	060c                	addi	a1,sp,768
     eb2:	00090003          	lb	zero,0(s2)
     eb6:	0100                	addi	s0,sp,128
     eb8:	0505                	addi	a0,a0,1
     eba:	0306                	slli	t1,t1,0x1
     ebc:	0901                	addi	s2,s2,0
     ebe:	0002                	c.slli64	zero
     ec0:	0501                	addi	a0,a0,0
     ec2:	0608                	addi	a0,sp,768
     ec4:	00090303          	lb	t1,0(s2)
     ec8:	0100                	addi	s0,sp,128
     eca:	0c05                	addi	s8,s8,1
     ecc:	04097d03          	.insn	4, 0x04097d03
     ed0:	0100                	addi	s0,sp,128
     ed2:	0505                	addi	a0,a0,1
     ed4:	0306                	slli	t1,t1,0x1
     ed6:	0901                	addi	s2,s2,0
     ed8:	0002                	c.slli64	zero
     eda:	0501                	addi	a0,a0,0
     edc:	0608                	addi	a0,sp,768
     ede:	00090203          	lb	tp,0(s2)
     ee2:	0100                	addi	s0,sp,128
     ee4:	0c05                	addi	s8,s8,1
     ee6:	02097e03          	.insn	4, 0x02097e03
     eea:	0100                	addi	s0,sp,128
     eec:	0505                	addi	a0,a0,1
     eee:	0306                	slli	t1,t1,0x1
     ef0:	0902                	c.slli64	s2
     ef2:	0002                	c.slli64	zero
     ef4:	0501                	addi	a0,a0,0
     ef6:	0608                	addi	a0,sp,768
     ef8:	00090003          	lb	zero,0(s2)
     efc:	0100                	addi	s0,sp,128
     efe:	0505                	addi	a0,a0,1
     f00:	0306                	slli	t1,t1,0x1
     f02:	0901                	addi	s2,s2,0
     f04:	0004                	.insn	2, 0x0004
     f06:	0401                	addi	s0,s0,0
     f08:	0602                	c.slli64	a2
     f0a:	04091503          	lh	a0,64(s2)
     f0e:	0100                	addi	s0,sp,128
     f10:	0304                	addi	s1,sp,384
     f12:	1005                	c.nop	-31
     f14:	0200                	addi	s0,sp,256
     f16:	0104                	addi	s1,sp,128
     f18:	0306                	slli	t1,t1,0x1
     f1a:	0964                	addi	s1,sp,156
     f1c:	0002                	c.slli64	zero
     f1e:	0401                	addi	s0,s0,0
     f20:	0502                	c.slli64	a0
     f22:	0305                	addi	t1,t1,1
     f24:	0910                	addi	a2,sp,144
     f26:	0000                	unimp
     f28:	0501                	addi	a0,a0,0
     f2a:	060c                	addi	a1,sp,768
     f2c:	00090003          	lb	zero,0(s2)
     f30:	0100                	addi	s0,sp,128
     f32:	0304                	addi	s1,sp,384
     f34:	1005                	c.nop	-31
     f36:	0200                	addi	s0,sp,256
     f38:	0104                	addi	s1,sp,128
     f3a:	02097003          	.insn	4, 0x02097003
     f3e:	0100                	addi	s0,sp,128
     f40:	0e05                	addi	t3,t3,1
     f42:	0306                	slli	t1,t1,0x1
     f44:	0902                	c.slli64	s2
     f46:	0002                	c.slli64	zero
     f48:	0401                	addi	s0,s0,0
     f4a:	0502                	c.slli64	a0
     f4c:	0305                	addi	t1,t1,1
     f4e:	0918                	addi	a4,sp,144
     f50:	0000                	unimp
     f52:	0301                	addi	t1,t1,0
     f54:	0902                	c.slli64	s2
     f56:	0000                	unimp
     f58:	0301                	addi	t1,t1,0
     f5a:	090d                	addi	s2,s2,3
     f5c:	0004                	.insn	2, 0x0004
     f5e:	0401                	addi	s0,s0,0
     f60:	000e0503          	lb	a0,0(t3)
     f64:	0402                	c.slli64	s0
     f66:	0601                	addi	a2,a2,0
     f68:	00095903          	lhu	s2,0(s2)
     f6c:	0100                	addi	s0,sp,128
     f6e:	0104                	addi	s1,sp,128
     f70:	0505                	addi	a0,a0,1
     f72:	0306                	slli	t1,t1,0x1
     f74:	0906                	slli	s2,s2,0x1
     f76:	0002                	c.slli64	zero
     f78:	0401                	addi	s0,s0,0
     f7a:	0502                	c.slli64	a0
     f7c:	0320                	addi	s0,sp,392
     f7e:	097e                	slli	s2,s2,0x1f
     f80:	0000                	unimp
     f82:	0401                	addi	s0,s0,0
     f84:	0501                	addi	a0,a0,0
     f86:	0305                	addi	t1,t1,1
     f88:	00040903          	lb	s2,0(s0)
     f8c:	0501                	addi	a0,a0,0
     f8e:	060c                	addi	a1,sp,768
     f90:	00090003          	lb	zero,0(s2)
     f94:	0100                	addi	s0,sp,128
     f96:	0505                	addi	a0,a0,1
     f98:	0306                	slli	t1,t1,0x1
     f9a:	0901                	addi	s2,s2,0
     f9c:	000a                	c.slli	zero,0x2
     f9e:	0501                	addi	a0,a0,0
     fa0:	0015                	c.nop	5
     fa2:	0402                	c.slli64	s0
     fa4:	0301                	addi	t1,t1,0
     fa6:	0900                	addi	s0,sp,144
     fa8:	0000                	unimp
     faa:	0501                	addi	a0,a0,0
     fac:	0305                	addi	t1,t1,1
     fae:	0901                	addi	s2,s2,0
     fb0:	0004                	.insn	2, 0x0004
     fb2:	0501                	addi	a0,a0,0
     fb4:	060e                	slli	a2,a2,0x3
     fb6:	00090003          	lb	zero,0(s2)
     fba:	0100                	addi	s0,sp,128
     fbc:	0505                	addi	a0,a0,1
     fbe:	0306                	slli	t1,t1,0x1
     fc0:	0901                	addi	s2,s2,0
     fc2:	0008                	.insn	2, 0x0008
     fc4:	0401                	addi	s0,s0,0
     fc6:	097b0303          	lb	t1,151(s6)
     fca:	0000                	unimp
     fcc:	0401                	addi	s0,s0,0
     fce:	0302                	c.slli64	t1
     fd0:	0928                	addi	a0,sp,152
     fd2:	0000                	unimp
     fd4:	0401                	addi	s0,s0,0
     fd6:	0301                	addi	t1,t1,0
     fd8:	095f 0004 0401      	.insn	6, 0x04010004095f
     fde:	0502                	c.slli64	a0
     fe0:	0320                	addi	s0,sp,392
     fe2:	00000977          	.insn	4, 0x0977
     fe6:	0401                	addi	s0,s0,0
     fe8:	0501                	addi	a0,a0,0
     fea:	0305                	addi	t1,t1,1
     fec:	090a                	slli	s2,s2,0x2
     fee:	0004                	.insn	2, 0x0004
     ff0:	0501                	addi	a0,a0,0
     ff2:	0003060f          	.insn	4, 0x0003060f
     ff6:	0009                	c.nop	2
     ff8:	0100                	addi	s0,sp,128
     ffa:	0105                	addi	sp,sp,1
     ffc:	02090103          	lb	sp,32(s2)
    1000:	0100                	addi	s0,sp,128
    1002:	0409                	addi	s0,s0,2
    1004:	0000                	unimp
    1006:	0101                	addi	sp,sp,0
    1008:	000000bb          	addw	ra,zero,zero
    100c:	0005                	c.nop	1
    100e:	0008                	.insn	2, 0x0008
    1010:	0049                	c.nop	18
    1012:	0000                	unimp
    1014:	0101                	addi	sp,sp,0
    1016:	fb01                	bnez	a4,f26 <__stack_align+0xf16>
    1018:	0d0e                	slli	s10,s10,0x3
    101a:	0100                	addi	s0,sp,128
    101c:	0101                	addi	sp,sp,0
    101e:	0001                	nop
    1020:	0000                	unimp
    1022:	0001                	nop
    1024:	0100                	addi	s0,sp,128
    1026:	0101                	addi	sp,sp,0
    1028:	051f 0192 0000      	.insn	6, 0x0192051f
    102e:	01e9                	addi	gp,gp,26 # 800026d2 <__global_pointer$+0x1a>
    1030:	0000                	unimp
    1032:	00a2                	slli	ra,ra,0x8
    1034:	0000                	unimp
    1036:	0000010b          	.insn	4, 0x010b
    103a:	02dd                	addi	t0,t0,23
    103c:	0000                	unimp
    103e:	0102                	c.slli64	sp
    1040:	021f 050f 03d3      	.insn	6, 0x03d3050f021f
    1046:	0000                	unimp
    1048:	d301                	beqz	a4,f48 <__stack_align+0xf38>
    104a:	01000003          	lb	zero,16(zero) # 10 <__stack_align>
    104e:	00000177          	.insn	4, 0x0177
    1052:	8802                	jr	a6
    1054:	0001                	nop
    1056:	0300                	addi	s0,sp,384
    1058:	02e8                	addi	a0,sp,332
    105a:	0000                	unimp
    105c:	0504                	addi	s1,sp,640
    105e:	0001                	nop
    1060:	0209                	addi	tp,tp,2 # 2 <__boot_hart+0x2>
    1062:	1a7c                	addi	a5,sp,316
    1064:	8000                	.insn	2, 0x8000
    1066:	0000                	unimp
    1068:	0000                	unimp
    106a:	0516                	slli	a0,a0,0x5
    106c:	0305                	addi	t1,t1,1
    106e:	0901                	addi	s2,s2,0
    1070:	0000                	unimp
    1072:	0501                	addi	a0,a0,0
    1074:	0614                	addi	a3,sp,768
    1076:	00090003          	lb	zero,0(s2)
    107a:	0100                	addi	s0,sp,128
    107c:	0e05                	addi	t3,t3,1
    107e:	0a090003          	lb	zero,160(s2)
    1082:	0100                	addi	s0,sp,128
    1084:	0505                	addi	a0,a0,1
    1086:	0306                	slli	t1,t1,0x1
    1088:	0901                	addi	s2,s2,0
    108a:	000c                	.insn	2, 0x000c
    108c:	0501                	addi	a0,a0,0
    108e:	0309                	addi	t1,t1,2
    1090:	0901                	addi	s2,s2,0
    1092:	0000                	unimp
    1094:	0501                	addi	a0,a0,0
    1096:	0612                	slli	a2,a2,0x4
    1098:	00090003          	lb	zero,0(s2)
    109c:	0100                	addi	s0,sp,128
    109e:	0905                	addi	s2,s2,1
    10a0:	0200                	addi	s0,sp,256
    10a2:	0104                	addi	s1,sp,128
    10a4:	0306                	slli	t1,t1,0x1
    10a6:	0901                	addi	s2,s2,0
    10a8:	0008                	.insn	2, 0x0008
    10aa:	0501                	addi	a0,a0,0
    10ac:	0010                	.insn	2, 0x0010
    10ae:	0402                	c.slli64	s0
    10b0:	0601                	addi	a2,a2,0
    10b2:	00090003          	lb	zero,0(s2)
    10b6:	0100                	addi	s0,sp,128
    10b8:	0505                	addi	a0,a0,1
    10ba:	0306                	slli	t1,t1,0x1
    10bc:	097e                	slli	s2,s2,0x1f
    10be:	0002                	c.slli64	zero
    10c0:	0901                	addi	s2,s2,0
    10c2:	0002                	c.slli64	zero
    10c4:	0100                	addi	s0,sp,128
    10c6:	Address 0x10c6 is out of bounds.


Disassembly of section .debug_str:

0000000000000000 <.debug_str>:
   0:	5f5f 6975 746e      	.insn	6, 0x746e69755f5f
   6:	5f38                	lw	a4,120(a4)
   8:	0074                	addi	a3,sp,12
   a:	5f5f 6975 746e      	.insn	6, 0x746e69755f5f
  10:	7470                	ld	a2,232(s0)
  12:	5f72                	lw	t5,60(sp)
  14:	0074                	addi	a3,sp,12
  16:	6572                	ld	a0,280(sp)
  18:	72775f67          	.insn	4, 0x72775f67
  1c:	7469                	lui	s0,0xffffa
  1e:	3365                	addiw	t1,t1,-7
  20:	0032                	c.slli	zero,0xc
  22:	6461                	lui	s0,0x18
  24:	7264                	ld	s1,224(a2)
  26:	6400                	ld	s0,8(s0)
  28:	7461                	lui	s0,0xffff8
  2a:	0061                	c.nop	24
  2c:	6e75                	lui	t3,0x1d
  2e:	6e676973          	csrrsi	s2,0x6e6,14
  32:	6465                	lui	s0,0x19
  34:	6320                	ld	s0,64(a4)
  36:	6168                	ld	a0,192(a0)
  38:	0072                	c.slli	zero,0x1c
  3a:	726f6873          	csrrsi	a6,mhpmevent6h,30
  3e:	2074                	fld	fa3,192(s0)
  40:	6e75                	lui	t3,0x1d
  42:	6e676973          	csrrsi	s2,0x6e6,14
  46:	6465                	lui	s0,0x19
  48:	6920                	ld	s0,80(a0)
  4a:	746e                	ld	s0,248(sp)
  4c:	5f00                	lw	s0,56(a4)
  4e:	755f 6e69 3374      	.insn	6, 0x33746e69755f
  54:	5f32                	lw	t5,44(sp)
  56:	0074                	addi	a3,sp,12
  58:	6572                	ld	a0,280(sp)
  5a:	746c7573          	csrrci	a0,0x746,24
  5e:	6700                	ld	s0,8(a4)
  60:	725f6463          	bltu	t5,t0,788 <__stack_align+0x778>
  64:	6665                	lui	a2,0x19
  66:	4700                	lw	s0,8(a4)
  68:	554e                	lw	a0,240(sp)
  6a:	4320                	lw	s0,64(a4)
  6c:	3939                	addiw	s2,s2,-18
  6e:	3120                	fld	fs0,96(a0)
  70:	2e322e33          	.insn	4, 0x2e322e33
  74:	2030                	fld	fa2,64(s0)
  76:	6d2d                	lui	s10,0xb
  78:	646f6d63          	bltu	t5,t1,6d2 <__stack_align+0x6c2>
  7c:	6c65                	lui	s8,0x19
  7e:	6d3d                	lui	s10,0xf
  80:	6465                	lui	s0,0x19
  82:	6e61                	lui	t3,0x18
  84:	2079                	.insn	2, 0x2079
  86:	6d2d                	lui	s10,0xb
  88:	6261                	lui	tp,0x18
  8a:	3d69                	addiw	s10,s10,-6 # affa <__stack_size+0x2ffa>
  8c:	706c                	ld	a1,224(s0)
  8e:	3436                	fld	fs0,360(sp)
  90:	2064                	fld	fs1,192(s0)
  92:	6d2d                	lui	s10,0xb
  94:	646f6d63          	bltu	t5,t1,6ee <__stack_align+0x6de>
  98:	6c65                	lui	s8,0x19
  9a:	6d3d                	lui	s10,0xf
  9c:	6465                	lui	s0,0x19
  9e:	6e61                	lui	t3,0x18
  a0:	2079                	.insn	2, 0x2079
  a2:	6d2d                	lui	s10,0xb
  a4:	7574                	ld	a3,232(a0)
  a6:	656e                	ld	a0,216(sp)
  a8:	723d                	lui	tp,0xfffef
  aa:	656b636f          	jal	t1,b6700 <__heap_size+0x96700>
  ae:	2074                	fld	fa3,192(s0)
  b0:	6d2d                	lui	s10,0xb
  b2:	7369                	lui	t1,0xffffa
  b4:	2d61                	addiw	s10,s10,24 # b018 <__stack_size+0x3018>
  b6:	63657073          	csrci	0x636,10
  ba:	323d                	addiw	tp,tp,-17 # fffffffffffeefef <__heap_end+0xffffffff7ffcbfef>
  bc:	3130                	fld	fa2,96(a0)
  be:	3139                	addiw	sp,sp,-18
  c0:	3132                	fld	ft2,296(sp)
  c2:	6d2d2033          	.insn	4, 0x6d2d2033
  c6:	7261                	lui	tp,0xffff8
  c8:	723d6863          	bltu	s10,gp,7f8 <__stack_align+0x7e8>
  cc:	3676                	fld	fa2,376(sp)
  ce:	6934                	ld	a3,80(a0)
  d0:	616d                	addi	sp,sp,240
  d2:	6466                	ld	s0,88(sp)
  d4:	7a5f 6369 7273      	.insn	6, 0x727363697a5f
  da:	2d20                	fld	fs0,88(a0)
  dc:	4f2d2067          	.insn	4, 0x4f2d2067
  e0:	2032                	fld	ft0,264(sp)
  e2:	732d                	lui	t1,0xfffeb
  e4:	6474                	ld	a3,200(s0)
  e6:	673d                	lui	a4,0xf
  e8:	756e                	ld	a0,248(sp)
  ea:	3939                	addiw	s2,s2,-18
  ec:	2d20                	fld	fs0,88(a0)
  ee:	6e66                	ld	t3,88(sp)
  f0:	6f632d6f          	jal	s10,327e6 <__heap_size+0x127e6>
  f4:	6d6d                	lui	s10,0x1b
  f6:	2d206e6f          	jal	t3,63c8 <__stack_size_min+0x3c8>
  fa:	6e66                	ld	t3,88(sp)
  fc:	75622d6f          	jal	s10,22852 <__heap_size+0x2852>
 100:	6c69                	lui	s8,0x1a
 102:	6974                	ld	a3,208(a0)
 104:	2d6e                	fld	fs10,216(sp)
 106:	7270                	ld	a2,224(a2)
 108:	6e69                	lui	t3,0x1a
 10a:	6674                	ld	a3,200(a2)
 10c:	7300                	ld	s0,32(a4)
 10e:	6f68                	ld	a0,216(a4)
 110:	7472                	ld	s0,312(sp)
 112:	6920                	ld	s0,80(a0)
 114:	746e                	ld	s0,248(sp)
 116:	7200                	ld	s0,32(a2)
 118:	6765                	lui	a4,0x19
 11a:	725f 6165 3364      	.insn	6, 0x33646165725f
 120:	0032                	c.slli	zero,0xc
 122:	6572                	ld	a0,280(sp)
 124:	65725f67          	.insn	4, 0x65725f67
 128:	6461                	lui	s0,0x18
 12a:	0038                	addi	a4,sp,8
 12c:	6f6c                	ld	a1,216(a4)
 12e:	676e                	ld	a4,216(sp)
 130:	6c20                	ld	s0,88(s0)
 132:	20676e6f          	jal	t3,76338 <__heap_size+0x56338>
 136:	6e69                	lui	t3,0x1a
 138:	0074                	addi	a3,sp,12
 13a:	6f6c                	ld	a1,216(a4)
 13c:	676e                	ld	a4,216(sp)
 13e:	6c20                	ld	s0,88(s0)
 140:	20676e6f          	jal	t3,76346 <__heap_size+0x56346>
 144:	6e75                	lui	t3,0x1d
 146:	6e676973          	csrrsi	s2,0x6e6,14
 14a:	6465                	lui	s0,0x19
 14c:	6920                	ld	s0,80(a0)
 14e:	746e                	ld	s0,248(sp)
 150:	5f00                	lw	s0,56(a4)
 152:	736f6c63          	bltu	t5,s6,88a <__stack_align+0x87a>
 156:	0065                	c.nop	25
 158:	6966                	ld	s2,88(sp)
 15a:	656c                	ld	a1,200(a0)
 15c:	4700                	lw	s0,8(a4)
 15e:	554e                	lw	a0,240(sp)
 160:	4320                	lw	s0,64(a4)
 162:	3131                	addiw	sp,sp,-20
 164:	3120                	fld	fs0,96(a0)
 166:	2e322e33          	.insn	4, 0x2e322e33
 16a:	2030                	fld	fa2,64(s0)
 16c:	6d2d                	lui	s10,0xb
 16e:	646f6d63          	bltu	t5,t1,7c8 <__stack_align+0x7b8>
 172:	6c65                	lui	s8,0x19
 174:	6d3d                	lui	s10,0xf
 176:	6465                	lui	s0,0x19
 178:	6e61                	lui	t3,0x18
 17a:	2079                	.insn	2, 0x2079
 17c:	6d2d                	lui	s10,0xb
 17e:	7574                	ld	a3,232(a0)
 180:	656e                	ld	a0,216(sp)
 182:	723d                	lui	tp,0xfffef
 184:	656b636f          	jal	t1,b67da <__heap_size+0x967da>
 188:	2074                	fld	fa3,192(s0)
 18a:	6d2d                	lui	s10,0xb
 18c:	6261                	lui	tp,0x18
 18e:	3d69                	addiw	s10,s10,-6 # affa <__stack_size+0x2ffa>
 190:	706c                	ld	a1,224(s0)
 192:	3436                	fld	fs0,360(sp)
 194:	2064                	fld	fs1,192(s0)
 196:	6d2d                	lui	s10,0xb
 198:	7369                	lui	t1,0xffffa
 19a:	2d61                	addiw	s10,s10,24 # b018 <__stack_size+0x3018>
 19c:	63657073          	csrci	0x636,10
 1a0:	323d                	addiw	tp,tp,-17 # 17fef <__stack_size+0xffef>
 1a2:	3130                	fld	fa2,96(a0)
 1a4:	3139                	addiw	sp,sp,-18
 1a6:	3132                	fld	ft2,296(sp)
 1a8:	6d2d2033          	.insn	4, 0x6d2d2033
 1ac:	7261                	lui	tp,0xffff8
 1ae:	723d6863          	bltu	s10,gp,8de <__stack_align+0x8ce>
 1b2:	3676                	fld	fa2,376(sp)
 1b4:	6934                	ld	a3,80(a0)
 1b6:	616d                	addi	sp,sp,240
 1b8:	6466                	ld	s0,88(sp)
 1ba:	697a5f63          	bge	s4,s7,858 <__stack_align+0x848>
 1be:	20727363          	bgeu	tp,t2,3c4 <__stack_align+0x3b4>
 1c2:	672d                	lui	a4,0xb
 1c4:	2d20                	fld	fs0,88(a0)
 1c6:	2d20324f          	.insn	4, 0x2d20324f
 1ca:	3d647473          	csrrci	s0,0x3d6,8
 1ce:	20313163          	.insn	4, 0x20313163
 1d2:	662d                	lui	a2,0xb
 1d4:	6f6e                	ld	t5,216(sp)
 1d6:	632d                	lui	t1,0xb
 1d8:	6f6d6d6f          	jal	s10,d68ce <__heap_size+0xb68ce>
 1dc:	206e                	fld	ft0,216(sp)
 1de:	662d                	lui	a2,0xb
 1e0:	6f6e                	ld	t5,216(sp)
 1e2:	622d                	lui	tp,0xb
 1e4:	6975                	lui	s2,0x1d
 1e6:	746c                	ld	a1,232(s0)
 1e8:	6e69                	lui	t3,0x1a
 1ea:	5f00                	lw	s0,56(a4)
 1ec:	655f 7272 6f6e      	.insn	6, 0x6f6e7272655f
 1f2:	6c00                	ld	s0,24(s0)
 1f4:	20676e6f          	jal	t3,763fa <__heap_size+0x563fa>
 1f8:	6f64                	ld	s1,216(a4)
 1fa:	6275                	lui	tp,0x1d
 1fc:	656c                	ld	a1,200(a0)
 1fe:	5f00                	lw	s0,56(a4)
 200:	755f 6469 745f      	.insn	6, 0x745f6469755f
 206:	7300                	ld	s0,32(a4)
 208:	5f74                	lw	a3,124(a4)
 20a:	6c6e                	ld	s8,216(sp)
 20c:	6e69                	lui	t3,0x1a
 20e:	7674006b          	.insn	4, 0x7674006b
 212:	6e5f 6573 0063      	.insn	6, 0x006365736e5f
 218:	735f7473          	csrrci	s0,mhpmevent21h,30
 21c:	7a69                	lui	s4,0xffffa
 21e:	0065                	c.nop	25
 220:	6d5f7473          	csrrci	s0,0x6d5,30
 224:	6974                	ld	a3,208(a0)
 226:	006d                	c.nop	27
 228:	695f7473          	csrrci	s0,0x695,30
 22c:	6f6e                	ld	t5,216(sp)
 22e:	7300                	ld	s0,32(a4)
 230:	5f74                	lw	a3,124(a4)
 232:	6c62                	ld	s8,24(sp)
 234:	7a69736b          	.insn	4, 0x7a69736b
 238:	0065                	c.nop	25
 23a:	735f7473          	csrrci	s0,mhpmevent21h,30
 23e:	6170                	ld	a2,192(a0)
 240:	6572                	ld	a0,280(sp)
 242:	0034                	addi	a3,sp,8
 244:	5f5f 6564 5f76      	.insn	6, 0x5f7665645f5f
 24a:	0074                	addi	a3,sp,12
 24c:	625f7473          	csrrci	s0,0x625,30
 250:	6f6c                	ld	a1,216(a4)
 252:	00736b63          	bltu	t1,t2,268 <__stack_align+0x258>
 256:	6d5f7473          	csrrci	s0,0x6d5,30
 25a:	0065646f          	jal	s0,56260 <__heap_size+0x36260>
 25e:	615f7473          	csrrci	s0,htimedeltah,30
 262:	6974                	ld	a3,208(a0)
 264:	006d                	c.nop	27
 266:	6974                	ld	a3,208(a0)
 268:	656d                	lui	a0,0x1b
 26a:	745f 5f00 6e5f      	.insn	6, 0x6e5f5f00745f
 270:	696c                	ld	a1,208(a0)
 272:	6b6e                	ld	s6,216(sp)
 274:	745f 7300 5f74      	.insn	6, 0x5f747300745f
 27a:	6472                	ld	s0,280(sp)
 27c:	7665                	lui	a2,0xffff9
 27e:	5f00                	lw	s0,56(a4)
 280:	625f 6b6c 6973      	.insn	6, 0x69736b6c625f
 286:	657a                	ld	a0,408(sp)
 288:	745f 5f00 625f      	.insn	6, 0x625f5f00745f
 28e:	6b6c                	ld	a1,208(a4)
 290:	5f746e63          	bltu	s0,s7,88c <__stack_align+0x87c>
 294:	0074                	addi	a3,sp,12
 296:	635f7473          	csrrci	s0,0x635,30
 29a:	6974                	ld	a3,208(a0)
 29c:	006d                	c.nop	27
 29e:	755f7473          	csrrci	s0,0x755,30
 2a2:	6469                	lui	s0,0x1a
 2a4:	5f00                	lw	s0,56(a4)
 2a6:	675f 6469 745f      	.insn	6, 0x745f6469675f
 2ac:	5f00                	lw	s0,56(a4)
 2ae:	6f5f 6666 745f      	.insn	6, 0x745f66666f5f
 2b4:	7400                	ld	s0,40(s0)
 2b6:	5f76                	lw	t5,124(sp)
 2b8:	00636573          	csrrsi	a0,0x6,6
 2bc:	6974                	ld	a3,208(a0)
 2be:	656d                	lui	a0,0x1b
 2c0:	63657073          	csrci	0x636,10
 2c4:	5f00                	lw	s0,56(a4)
 2c6:	7366                	ld	t1,120(sp)
 2c8:	6174                	ld	a3,192(a0)
 2ca:	0074                	addi	a3,sp,12
 2cc:	5f5f 6f6d 6564      	.insn	6, 0x65646f6d5f5f
 2d2:	745f 5f00 695f      	.insn	6, 0x695f5f00745f
 2d8:	6f6e                	ld	t5,216(sp)
 2da:	745f 7300 5f74      	.insn	6, 0x5f747300745f
 2e0:	6564                	ld	s1,200(a0)
 2e2:	0076                	c.slli	zero,0x1d
 2e4:	675f7473          	csrrci	s0,0x675,30
 2e8:	6469                	lui	s0,0x1a
 2ea:	5f00                	lw	s0,56(a4)
 2ec:	7369                	lui	t1,0xffffa
 2ee:	7461                	lui	s0,0xffff8
 2f0:	7974                	ld	a3,240(a0)
 2f2:	5f00                	lw	s0,56(a4)
 2f4:	736c                	ld	a1,224(a4)
 2f6:	6565                	lui	a0,0x19
 2f8:	725f006b          	.insn	4, 0x725f006b
 2fc:	6165                	addi	sp,sp,112
 2fe:	0064                	addi	s1,sp,12
 300:	735f 6973 657a      	.insn	6, 0x657a6973735f
 306:	745f 7000 7274      	.insn	6, 0x72747000745f
 30c:	6964                	ld	s1,208(a0)
 30e:	6666                	ld	a2,88(sp)
 310:	745f 5f00 685f      	.insn	6, 0x685f5f00745f
 316:	6165                	addi	sp,sp,112
 318:	5f70                	lw	a2,124(a4)
 31a:	6e65                	lui	t3,0x19
 31c:	0064                	addi	s1,sp,12
 31e:	62727563          	bgeu	tp,t2,948 <__stack_align+0x938>
 322:	6b72                	ld	s6,280(sp)
 324:	5f00                	lw	s0,56(a4)
 326:	6b726273          	csrrsi	tp,0x6b7,4
 32a:	6900                	ld	s0,16(a0)
 32c:	636e                	ld	t1,216(sp)
 32e:	0072                	c.slli	zero,0x1c
 330:	62646c6f          	jal	s8,46956 <__heap_size+0x26956>
 334:	6b72                	ld	s6,280(sp)
 336:	6e00                	ld	s0,24(a2)
 338:	7765                	lui	a4,0xffff9
 33a:	7262                	ld	tp,56(sp)
 33c:	7468006b          	.insn	4, 0x7468006b
 340:	6669                	lui	a2,0x1a
 342:	735f 7379 6163      	.insn	6, 0x61637379735f
 348:	6c6c                	ld	a1,216(s0)
 34a:	5f00                	lw	s0,56(a4)
 34c:	74697277          	.insn	4, 0x74697277
 350:	0065                	c.nop	25
 352:	5f5f 6975 746e      	.insn	6, 0x746e69755f5f
 358:	3436                	fld	fs0,360(sp)
 35a:	745f 2e00 2f2e      	.insn	6, 0x2f2e2e00745f
 360:	696d                	lui	s2,0x1b
 362:	632f6373          	csrrsi	t1,0x632,30
 366:	7472                	ld	s0,312(sp)
 368:	2e30                	fld	fa2,88(a2)
 36a:	682f0053          	.insn	4, 0x682f0053
 36e:	2f656d6f          	jal	s10,56664 <__heap_size+0x36664>
 372:	7266                	ld	tp,120(sp)
 374:	6e61                	lui	t3,0x18
 376:	65682f6b          	.insn	4, 0x65682f6b
 37a:	742f6c73          	csrrsi	s8,0x742,30
 37e:	7365                	lui	t1,0xffff9
 380:	5f74                	lw	a3,124(a4)
 382:	6972                	ld	s2,280(sp)
 384:	2f766373          	csrrsi	t1,0x2f7,12
 388:	70696863          	bltu	s2,t1,a98 <__stack_align+0xa88>
 38c:	6179                	addi	sp,sp,464
 38e:	6472                	ld	s0,280(sp)
 390:	6968632f          	.insn	4, 0x6968632f
 394:	7970                	ld	a2,240(a0)
 396:	7261                	lui	tp,0xffff8
 398:	2f64                	fld	fs1,216(a4)
 39a:	6f74                	ld	a3,216(a4)
 39c:	68636c6f          	jal	s8,36a22 <__heap_size+0x16a22>
 3a0:	6961                	lui	s2,0x18
 3a2:	736e                	ld	t1,248(sp)
 3a4:	62696c2f          	.insn	4, 0x62696c2f
 3a8:	736f6c67          	.insn	4, 0x736f6c67
 3ac:	75622f73          	csrrs	t5,0x756,tp
 3b0:	6c69                	lui	s8,0x1a
 3b2:	0064                	addi	s1,sp,12
 3b4:	20554e47          	fmsub.s	ft8,fa0,ft5,ft4,rmm
 3b8:	5341                	li	t1,-16
 3ba:	3220                	fld	fs0,96(a2)
 3bc:	342e                	fld	fs0,232(sp)
 3be:	0032                	c.slli	zero,0xc
 3c0:	2e2e                	fld	ft8,200(sp)
 3c2:	73696d2f          	.insn	4, 0x73696d2f
 3c6:	72632f63          	.insn	4, 0x72632f63
 3ca:	6d74                	ld	a3,216(a0)
 3cc:	6961                	lui	s2,0x18
 3ce:	2e6e                	fld	ft8,216(sp)
 3d0:	61680053          	.insn	4, 0x61680053
 3d4:	646e                	ld	s0,216(sp)
 3d6:	656c                	ld	a1,200(a0)
 3d8:	745f 6172 0070      	.insn	6, 0x00706172745f
 3de:	73756163          	bltu	a0,s7,b00 <__stack_align+0xaf0>
 3e2:	0065                	c.nop	25
 3e4:	655f 6978 0074      	.insn	6, 0x00746978655f
 3ea:	5f5f 6e69 7074      	.insn	6, 0x70746e695f5f
 3f0:	7274                	ld	a3,224(a2)
 3f2:	745f 7200 6765      	.insn	6, 0x67657200745f
 3f8:	6f630073          	.insn	4, 0x6f630073
 3fc:	6564                	ld	s1,200(a0)
 3fe:	7400                	ld	s0,40(s0)
 400:	6176                	ld	sp,344(sp)
 402:	006c                	addi	a1,sp,12
 404:	5f5f 6e69 7469      	.insn	6, 0x74696e695f5f
 40a:	745f 736c 5f00      	.insn	6, 0x5f00736c745f
 410:	745f 6164 6174      	.insn	6, 0x61746164745f
 416:	735f 7a69 0065      	.insn	6, 0x00657a69735f
 41c:	5f5f 6274 7373      	.insn	6, 0x737362745f5f
 422:	6f5f 6666 6573      	.insn	6, 0x657366666f5f
 428:	0074                	addi	a3,sp,12
 42a:	5f5f 6874 6572      	.insn	6, 0x657268745f5f
 430:	6461                	lui	s0,0x18
 432:	735f 6c65 0066      	.insn	6, 0x00666c65735f
 438:	5f5f 6274 7373      	.insn	6, 0x737362745f5f
 43e:	735f 7a69 0065      	.insn	6, 0x00657a69735f
 444:	656d                	lui	a0,0x1b
 446:	636d                	lui	t1,0x1b
 448:	7970                	ld	a2,240(a0)
 44a:	5f00                	lw	s0,56(a4)
 44c:	745f 6164 6174      	.insn	6, 0x61746164745f
 452:	735f 6174 7472      	.insn	6, 0x74726174735f
 458:	6d00                	ld	s0,24(a0)
 45a:	6d65                	lui	s10,0x19
 45c:	00746573          	csrrsi	a0,0x7,8
 460:	5f5f 616d 6e69      	.insn	6, 0x6e69616d5f5f
 466:	7300                	ld	s0,32(a4)
 468:	6970                	ld	a2,208(a0)
 46a:	6c6e                	ld	s8,216(sp)
 46c:	5f6b636f          	jal	t1,b6a62 <__heap_size+0x96a62>
 470:	0074                	addi	a3,sp,12
 472:	7266                	ld	tp,120(sp)
 474:	6f686d6f          	jal	s10,86b6a <__heap_size+0x66b6a>
 478:	74007473          	csrrci	s0,0x740,0
 47c:	736f686f          	jal	a6,f6bb2 <__heap_size+0xd6bb2>
 480:	0074                	addi	a3,sp,12
 482:	5f5f 6e69 3374      	.insn	6, 0x33746e695f5f
 488:	5f32                	lw	t5,44(sp)
 48a:	0074                	addi	a3,sp,12
 48c:	7468                	ld	a0,232(s0)
 48e:	6669                	lui	a2,0x1a
 490:	6c5f 636f 006b      	.insn	6, 0x006b636f6c5f
 496:	7461                	lui	s0,0xffff8
 498:	63696d6f          	jal	s10,96ace <__heap_size+0x76ace>
 49c:	735f 6177 5f70      	.insn	6, 0x5f706177735f
 4a2:	6361                	lui	t1,0x18
 4a4:	7571                	lui	a0,0xffffc
 4a6:	7269                	lui	tp,0xffffa
 4a8:	0065                	c.nop	25
 4aa:	7461                	lui	s0,0xffff8
 4ac:	63696d6f          	jal	s10,96ae2 <__heap_size+0x76ae2>
 4b0:	745f 6100 6f74      	.insn	6, 0x6f746100745f
 4b6:	696d                	lui	s2,0x1b
 4b8:	6f6c5f63          	bge	s8,s6,bb6 <__stack_align+0xba6>
 4bc:	6461                	lui	s0,0x18
 4be:	7300                	ld	s0,32(a4)
 4c0:	6970                	ld	a2,208(a0)
 4c2:	5f6e                	lw	t5,248(sp)
 4c4:	6f6c                	ld	a1,216(a4)
 4c6:	73006b63          	bltu	zero,a6,bfc <__stack_align+0xbec>
 4ca:	6970                	ld	a2,208(a0)
 4cc:	5f6e                	lw	t5,248(sp)
 4ce:	6e75                	lui	t3,0x1d
 4d0:	6f6c                	ld	a1,216(a4)
 4d2:	61006b63          	bltu	zero,a6,ae8 <__stack_align+0xad8>
 4d6:	6f74                	ld	a3,216(a4)
 4d8:	696d                	lui	s2,0x1b
 4da:	6c635f63          	bge	t1,t1,bb8 <__stack_align+0xba8>
 4de:	6165                	addi	sp,sp,112
 4e0:	5f72                	lw	t5,60(sp)
 4e2:	6572                	ld	a0,280(sp)
 4e4:	656c                	ld	a1,200(a0)
 4e6:	7361                	lui	t1,0xffff8
 4e8:	0065                	c.nop	25

Disassembly of section .debug_line_str:

0000000000000000 <.debug_line_str>:
   0:	6d6f682f          	.insn	4, 0x6d6f682f
   4:	2f65                	addiw	t5,t5,25
   6:	7266                	ld	tp,120(sp)
   8:	6e61                	lui	t3,0x18
   a:	65682f6b          	.insn	4, 0x65682f6b
   e:	742f6c73          	csrrsi	s8,0x742,30
  12:	7365                	lui	t1,0xffff9
  14:	5f74                	lw	a3,124(a4)
  16:	6972                	ld	s2,280(sp)
  18:	2f766373          	csrrsi	t1,0x2f7,12
  1c:	70696863          	bltu	s2,t1,72c <__stack_align+0x71c>
  20:	6179                	addi	sp,sp,464
  22:	6472                	ld	s0,280(sp)
  24:	6968632f          	.insn	4, 0x6968632f
  28:	7970                	ld	a2,240(a0)
  2a:	7261                	lui	tp,0xffff8
  2c:	2f64                	fld	fs1,216(a4)
  2e:	7562                	ld	a0,56(sp)
  30:	6c69                	lui	s8,0x1a
  32:	0064                	addi	s1,sp,12
  34:	6d6f682f          	.insn	4, 0x6d6f682f
  38:	2f65                	addiw	t5,t5,25
  3a:	7266                	ld	tp,120(sp)
  3c:	6e61                	lui	t3,0x18
  3e:	65682f6b          	.insn	4, 0x65682f6b
  42:	742f6c73          	csrrsi	s8,0x742,30
  46:	7365                	lui	t1,0xffff9
  48:	5f74                	lw	a3,124(a4)
  4a:	6972                	ld	s2,280(sp)
  4c:	2f766373          	csrrsi	t1,0x2f7,12
  50:	70696863          	bltu	s2,t1,760 <__stack_align+0x750>
  54:	6179                	addi	sp,sp,464
  56:	6472                	ld	s0,280(sp)
  58:	6968632f          	.insn	4, 0x6968632f
  5c:	7970                	ld	a2,240(a0)
  5e:	7261                	lui	tp,0xffff8
  60:	2f64                	fld	fs1,216(a4)
  62:	6574                	ld	a3,200(a0)
  64:	2f737473          	csrrci	s0,0x2f7,6
  68:	2e646367          	.insn	4, 0x2e646367
  6c:	682f0063          	beq	t5,sp,6ec <__stack_align+0x6dc>
  70:	2f656d6f          	jal	s10,56366 <__heap_size+0x36366>
  74:	7266                	ld	tp,120(sp)
  76:	6e61                	lui	t3,0x18
  78:	65682f6b          	.insn	4, 0x65682f6b
  7c:	742f6c73          	csrrsi	s8,0x742,30
  80:	7365                	lui	t1,0xffff9
  82:	5f74                	lw	a3,124(a4)
  84:	6972                	ld	s2,280(sp)
  86:	2f766373          	csrrsi	t1,0x2f7,12
  8a:	70696863          	bltu	s2,t1,79a <__stack_align+0x78a>
  8e:	6179                	addi	sp,sp,464
  90:	6472                	ld	s0,280(sp)
  92:	6968632f          	.insn	4, 0x6968632f
  96:	7970                	ld	a2,240(a0)
  98:	7261                	lui	tp,0xffff8
  9a:	2f64                	fld	fs1,216(a4)
  9c:	6574                	ld	a3,200(a0)
  9e:	00737473          	csrrci	s0,0x7,6
  a2:	6d6f682f          	.insn	4, 0x6d6f682f
  a6:	2f65                	addiw	t5,t5,25
  a8:	7266                	ld	tp,120(sp)
  aa:	6e61                	lui	t3,0x18
  ac:	65682f6b          	.insn	4, 0x65682f6b
  b0:	742f6c73          	csrrsi	s8,0x742,30
  b4:	7365                	lui	t1,0xffff9
  b6:	5f74                	lw	a3,124(a4)
  b8:	6972                	ld	s2,280(sp)
  ba:	2f766373          	csrrsi	t1,0x2f7,12
  be:	70696863          	bltu	s2,t1,7ce <__stack_align+0x7be>
  c2:	6179                	addi	sp,sp,464
  c4:	6472                	ld	s0,280(sp)
  c6:	6968632f          	.insn	4, 0x6968632f
  ca:	7970                	ld	a2,240(a0)
  cc:	7261                	lui	tp,0xffff8
  ce:	2f64                	fld	fs1,216(a4)
  d0:	632e                	ld	t1,200(sp)
  d2:	61646e6f          	jal	t3,466e8 <__heap_size+0x266e8>
  d6:	652d                	lui	a0,0xb
  d8:	766e                	ld	a2,248(sp)
  da:	7369722f          	.insn	4, 0x7369722f
  de:	742d7663          	bgeu	s10,sp,82a <__stack_align+0x81a>
  e2:	736c6f6f          	jal	t5,c6818 <__heap_size+0xa6818>
  e6:	7369722f          	.insn	4, 0x7369722f
  ea:	34367663          	bgeu	a2,gp,436 <__stack_align+0x426>
  ee:	752d                	lui	a0,0xfffeb
  f0:	6b6e                	ld	s6,216(sp)
  f2:	6f6e                	ld	t5,216(sp)
  f4:	652d6e77          	.insn	4, 0x652d6e77
  f8:	666c                	ld	a1,200(a2)
  fa:	636e692f          	.insn	4, 0x636e692f
  fe:	756c                	ld	a1,232(a0)
 100:	6564                	ld	s1,200(a0)
 102:	63616d2f          	.insn	4, 0x63616d2f
 106:	6968                	ld	a0,208(a0)
 108:	656e                	ld	a0,216(sp)
 10a:	2f00                	fld	fs0,24(a4)
 10c:	6f68                	ld	a0,216(a4)
 10e:	656d                	lui	a0,0x1b
 110:	6172662f          	.insn	4, 0x6172662f
 114:	6b6e                	ld	s6,216(sp)
 116:	7365682f          	.insn	4, 0x7365682f
 11a:	2f6c                	fld	fa1,216(a4)
 11c:	6574                	ld	a3,200(a0)
 11e:	725f7473          	csrrci	s0,mhpmevent5h,30
 122:	7369                	lui	t1,0xffffa
 124:	632f7663          	bgeu	t5,s2,750 <__stack_align+0x740>
 128:	6968                	ld	a0,208(a0)
 12a:	7970                	ld	a2,240(a0)
 12c:	7261                	lui	tp,0xffff8
 12e:	2f64                	fld	fs1,216(a4)
 130:	70696863          	bltu	s2,t1,840 <__stack_align+0x830>
 134:	6179                	addi	sp,sp,464
 136:	6472                	ld	s0,280(sp)
 138:	6f632e2f          	.insn	4, 0x6f632e2f
 13c:	646e                	ld	s0,216(sp)
 13e:	2d61                	addiw	s10,s10,24 # 19018 <__stack_size+0x11018>
 140:	6e65                	lui	t3,0x19
 142:	2f76                	fld	ft10,344(sp)
 144:	6972                	ld	s2,280(sp)
 146:	2d766373          	csrrsi	t1,0x2d7,12
 14a:	6f74                	ld	a3,216(a4)
 14c:	2f736c6f          	jal	s8,36c42 <__heap_size+0x16c42>
 150:	6972                	ld	s2,280(sp)
 152:	36766373          	csrrsi	t1,0x367,12
 156:	2d34                	fld	fa3,88(a0)
 158:	6e75                	lui	t3,0x1d
 15a:	776f6e6b          	.insn	4, 0x776f6e6b
 15e:	2d6e                	fld	fs10,216(sp)
 160:	6c65                	lui	s8,0x19
 162:	2f66                	fld	ft10,88(sp)
 164:	6e69                	lui	t3,0x1a
 166:	64756c63          	bltu	a0,t2,7be <__stack_align+0x7ae>
 16a:	2f65                	addiw	t5,t5,25
 16c:	00737973          	csrrci	s2,0x7,6
 170:	6d6d                	lui	s10,0x1b
 172:	6f69                	lui	t5,0x1a
 174:	682e                	ld	a6,200(sp)
 176:	5f00                	lw	s0,56(a4)
 178:	6564                	ld	s1,200(a0)
 17a:	6166                	ld	sp,88(sp)
 17c:	6c75                	lui	s8,0x1d
 17e:	5f74                	lw	a3,124(a4)
 180:	7974                	ld	a3,240(a0)
 182:	6570                	ld	a2,200(a0)
 184:	00682e73          	csrrs	t3,0x6,a6
 188:	735f 6474 6e69      	.insn	6, 0x6e696474735f
 18e:	2e74                	fld	fa3,216(a2)
 190:	0068                	addi	a0,sp,12
 192:	6d6f682f          	.insn	4, 0x6d6f682f
 196:	2f65                	addiw	t5,t5,25 # 1a019 <__stack_size+0x12019>
 198:	7266                	ld	tp,120(sp)
 19a:	6e61                	lui	t3,0x18
 19c:	65682f6b          	.insn	4, 0x65682f6b
 1a0:	742f6c73          	csrrsi	s8,0x742,30
 1a4:	7365                	lui	t1,0xffff9
 1a6:	5f74                	lw	a3,124(a4)
 1a8:	6972                	ld	s2,280(sp)
 1aa:	2f766373          	csrrsi	t1,0x2f7,12
 1ae:	70696863          	bltu	s2,t1,8be <__stack_align+0x8ae>
 1b2:	6179                	addi	sp,sp,464
 1b4:	6472                	ld	s0,280(sp)
 1b6:	6968632f          	.insn	4, 0x6968632f
 1ba:	7970                	ld	a2,240(a0)
 1bc:	7261                	lui	tp,0xffff8
 1be:	2f64                	fld	fs1,216(a4)
 1c0:	6f74                	ld	a3,216(a4)
 1c2:	68636c6f          	jal	s8,36848 <__heap_size+0x16848>
 1c6:	6961                	lui	s2,0x18
 1c8:	736e                	ld	t1,248(sp)
 1ca:	62696c2f          	.insn	4, 0x62696c2f
 1ce:	736f6c67          	.insn	4, 0x736f6c67
 1d2:	75622f73          	csrrs	t5,0x756,tp
 1d6:	6c69                	lui	s8,0x1a
 1d8:	0064                	addi	s1,sp,12
 1da:	2e2e                	fld	ft8,200(sp)
 1dc:	7379732f          	.insn	4, 0x7379732f
 1e0:	6f6c632f          	.insn	4, 0x6f6c632f
 1e4:	632e6573          	csrrsi	a0,0x632,28
 1e8:	2e00                	fld	fs0,24(a2)
 1ea:	2f2e                	fld	ft10,200(sp)
 1ec:	00737973          	csrrci	s2,0x7,6
 1f0:	7265                	lui	tp,0xffff9
 1f2:	6e72                	ld	t3,280(sp)
 1f4:	00682e6f          	jal	t3,821fa <__heap_size+0x621fa>
 1f8:	2e2e                	fld	ft8,200(sp)
 1fa:	7379732f          	.insn	4, 0x7379732f
 1fe:	7473662f          	.insn	4, 0x7473662f
 202:	7461                	lui	s0,0xffff8
 204:	632e                	ld	t1,200(sp)
 206:	5f00                	lw	s0,56(a4)
 208:	6974                	ld	a3,208(a0)
 20a:	656d                	lui	a0,0x1b
 20c:	63657073          	csrci	0x636,10
 210:	682e                	ld	a6,200(sp)
 212:	7300                	ld	s0,32(a4)
 214:	6174                	ld	a3,192(a0)
 216:	2e74                	fld	fa3,216(a2)
 218:	0068                	addi	a0,sp,12
 21a:	2e2e                	fld	ft8,200(sp)
 21c:	7379732f          	.insn	4, 0x7379732f
 220:	6173692f          	.insn	4, 0x6173692f
 224:	7474                	ld	a3,232(s0)
 226:	2e79                	addiw	t3,t3,30 # 1801e <__stack_size+0x1001e>
 228:	2e2e0063          	beq	t3,sp,508 <__stack_align+0x4f8>
 22c:	7379732f          	.insn	4, 0x7379732f
 230:	65736c2f          	.insn	4, 0x65736c2f
 234:	6b65                	lui	s6,0x19
 236:	632e                	ld	t1,200(sp)
 238:	2e00                	fld	fs0,24(a2)
 23a:	2f2e                	fld	ft10,200(sp)
 23c:	2f737973          	csrrci	s2,0x2f7,6
 240:	6572                	ld	a0,280(sp)
 242:	6461                	lui	s0,0x18
 244:	632e                	ld	t1,200(sp)
 246:	2f00                	fld	fs0,24(a4)
 248:	6f68                	ld	a0,216(a4)
 24a:	656d                	lui	a0,0x1b
 24c:	6172662f          	.insn	4, 0x6172662f
 250:	6b6e                	ld	s6,216(sp)
 252:	7365682f          	.insn	4, 0x7365682f
 256:	2f6c                	fld	fa1,216(a4)
 258:	6574                	ld	a3,200(a0)
 25a:	725f7473          	csrrci	s0,mhpmevent5h,30
 25e:	7369                	lui	t1,0xffffa
 260:	632f7663          	bgeu	t5,s2,88c <__stack_align+0x87c>
 264:	6968                	ld	a0,208(a0)
 266:	7970                	ld	a2,240(a0)
 268:	7261                	lui	tp,0xffff8
 26a:	2f64                	fld	fs1,216(a4)
 26c:	70696863          	bltu	s2,t1,97c <__stack_align+0x96c>
 270:	6179                	addi	sp,sp,464
 272:	6472                	ld	s0,280(sp)
 274:	6f632e2f          	.insn	4, 0x6f632e2f
 278:	646e                	ld	s0,216(sp)
 27a:	2d61                	addiw	s10,s10,24 # 1b018 <__stack_size+0x13018>
 27c:	6e65                	lui	t3,0x19
 27e:	2f76                	fld	ft10,344(sp)
 280:	6972                	ld	s2,280(sp)
 282:	2d766373          	csrrsi	t1,0x2d7,12
 286:	6f74                	ld	a3,216(a4)
 288:	2f736c6f          	jal	s8,36d7e <__heap_size+0x16d7e>
 28c:	696c                	ld	a1,208(a0)
 28e:	2f62                	fld	ft10,24(sp)
 290:	2f636367          	.insn	4, 0x2f636367
 294:	6972                	ld	s2,280(sp)
 296:	36766373          	csrrsi	t1,0x367,12
 29a:	2d34                	fld	fa3,88(a0)
 29c:	6e75                	lui	t3,0x1d
 29e:	776f6e6b          	.insn	4, 0x776f6e6b
 2a2:	2d6e                	fld	fs10,216(sp)
 2a4:	6c65                	lui	s8,0x19
 2a6:	2f66                	fld	ft10,88(sp)
 2a8:	3331                	addiw	t1,t1,-20 # ffffffffffff9fec <__heap_end+0xffffffff7ffd6fec>
 2aa:	322e                	fld	ft4,232(sp)
 2ac:	302e                	fld	ft0,232(sp)
 2ae:	636e692f          	.insn	4, 0x636e692f
 2b2:	756c                	ld	a1,232(a0)
 2b4:	6564                	ld	s1,200(a0)
 2b6:	7300                	ld	s0,32(a4)
 2b8:	6474                	ld	a3,200(s0)
 2ba:	6564                	ld	s1,200(a0)
 2bc:	2e66                	fld	ft8,88(sp)
 2be:	0068                	addi	a0,sp,12
 2c0:	2e2e                	fld	ft8,200(sp)
 2c2:	7379732f          	.insn	4, 0x7379732f
 2c6:	7262732f          	.insn	4, 0x7262732f
 2ca:	00632e6b          	.insn	4, 0x00632e6b
 2ce:	2e2e                	fld	ft8,200(sp)
 2d0:	7379732f          	.insn	4, 0x7379732f
 2d4:	6972772f          	.insn	4, 0x6972772f
 2d8:	6574                	ld	a3,200(a0)
 2da:	632e                	ld	t1,200(sp)
 2dc:	2e00                	fld	fs0,24(a2)
 2de:	2f2e                	fld	ft10,200(sp)
 2e0:	6e69                	lui	t3,0x1a
 2e2:	64756c63          	bltu	a0,t2,93a <__stack_align+0x92a>
 2e6:	0065                	c.nop	25
 2e8:	7468                	ld	a0,232(s0)
 2ea:	6669                	lui	a2,0x1a
 2ec:	682e                	ld	a6,200(sp)
 2ee:	2e00                	fld	fs0,24(a2)
 2f0:	2f2e                	fld	ft10,200(sp)
 2f2:	696d                	lui	s2,0x1b
 2f4:	63006373          	csrrsi	t1,0x630,0
 2f8:	7472                	ld	s0,312(sp)
 2fa:	2e30                	fld	fa2,88(a2)
 2fc:	72630053          	.insn	4, 0x72630053
 300:	6d74                	ld	a3,216(a0)
 302:	6961                	lui	s2,0x18
 304:	2e6e                	fld	ft8,216(sp)
 306:	2e2e0053          	.insn	4, 0x2e2e0053
 30a:	73696d2f          	.insn	4, 0x73696d2f
 30e:	72742f63          	.insn	4, 0x72742f63
 312:	7061                	c.lui	zero,0xffff8
 314:	00632e73          	csrrs	t3,0x6,t1
 318:	63737973          	csrrci	s2,0x637,6
 31c:	6c61                	lui	s8,0x18
 31e:	2e6c                	fld	fa1,216(a2)
 320:	0068                	addi	a0,sp,12
 322:	2e2e                	fld	ft8,200(sp)
 324:	73696d2f          	.insn	4, 0x73696d2f
 328:	6c742f63          	.insn	4, 0x6c742f63
 32c:	00632e73          	csrrs	t3,0x6,t1
 330:	6d6f682f          	.insn	4, 0x6d6f682f
 334:	2f65                	addiw	t5,t5,25
 336:	7266                	ld	tp,120(sp)
 338:	6e61                	lui	t3,0x18
 33a:	65682f6b          	.insn	4, 0x65682f6b
 33e:	742f6c73          	csrrsi	s8,0x742,30
 342:	7365                	lui	t1,0xffff9
 344:	5f74                	lw	a3,124(a4)
 346:	6972                	ld	s2,280(sp)
 348:	2f766373          	csrrsi	t1,0x2f7,12
 34c:	70696863          	bltu	s2,t1,a5c <__stack_align+0xa4c>
 350:	6179                	addi	sp,sp,464
 352:	6472                	ld	s0,280(sp)
 354:	6968632f          	.insn	4, 0x6968632f
 358:	7970                	ld	a2,240(a0)
 35a:	7261                	lui	tp,0xffff8
 35c:	2f64                	fld	fs1,216(a4)
 35e:	632e                	ld	t1,200(sp)
 360:	61646e6f          	jal	t3,46976 <__heap_size+0x26976>
 364:	652d                	lui	a0,0xb
 366:	766e                	ld	a2,248(sp)
 368:	7369722f          	.insn	4, 0x7369722f
 36c:	742d7663          	bgeu	s10,sp,ab8 <__stack_align+0xaa8>
 370:	736c6f6f          	jal	t5,c6aa6 <__heap_size+0xa6aa6>
 374:	7369722f          	.insn	4, 0x7369722f
 378:	34367663          	bgeu	a2,gp,6c4 <__stack_align+0x6b4>
 37c:	752d                	lui	a0,0xfffeb
 37e:	6b6e                	ld	s6,216(sp)
 380:	6f6e                	ld	t5,216(sp)
 382:	652d6e77          	.insn	4, 0x652d6e77
 386:	666c                	ld	a1,200(a2)
 388:	636e692f          	.insn	4, 0x636e692f
 38c:	756c                	ld	a1,232(a0)
 38e:	6564                	ld	s1,200(a0)
 390:	7300                	ld	s0,32(a4)
 392:	7274                	ld	a3,224(a2)
 394:	6e69                	lui	t3,0x1a
 396:	00682e67          	.insn	4, 0x00682e67
 39a:	2e2e                	fld	ft8,200(sp)
 39c:	73696d2f          	.insn	4, 0x73696d2f
 3a0:	616d2f63          	.insn	4, 0x616d2f63
 3a4:	6e69                	lui	t3,0x1a
 3a6:	632e                	ld	t1,200(sp)
 3a8:	2e00                	fld	fs0,24(a2)
 3aa:	2f2e                	fld	ft10,200(sp)
 3ac:	696d                	lui	s2,0x1b
 3ae:	682f6373          	csrrsi	t1,0x682,30
 3b2:	6974                	ld	a3,208(a0)
 3b4:	2e66                	fld	ft8,88(sp)
 3b6:	74610063          	beq	sp,t1,af6 <__stack_align+0xae6>
 3ba:	63696d6f          	jal	s10,969f0 <__heap_size+0x769f0>
 3be:	682e                	ld	a6,200(sp)
 3c0:	7300                	ld	s0,32(a4)
 3c2:	6970                	ld	a2,208(a0)
 3c4:	6c6e                	ld	s8,216(sp)
 3c6:	2e6b636f          	jal	t1,b66ac <__heap_size+0x966ac>
 3ca:	0068                	addi	a0,sp,12
 3cc:	2e2e                	fld	ft8,200(sp)
 3ce:	7379732f          	.insn	4, 0x7379732f
 3d2:	6978652f          	.insn	4, 0x6978652f
 3d6:	2e74                	fld	fa3,216(a2)
 3d8:	Address 0x3d8 is out of bounds.


Disassembly of section .comment:

0000000000000000 <.comment>:
   0:	3a434347          	fmsub.d	ft6,ft6,ft4,ft7,rmm
   4:	2820                	fld	fs0,80(s0)
   6:	39386367          	.insn	4, 0x39386367
   a:	6431                	lui	s0,0xc
   c:	6438                	ld	a4,72(s0)
   e:	65333263          	.insn	4, 0x65333263
  12:	2029                	.insn	2, 0x2029
  14:	3331                	addiw	t1,t1,-20 # ffffffffffff8fec <__heap_end+0xffffffff7ffd5fec>
  16:	322e                	fld	ft4,232(sp)
  18:	302e                	fld	ft0,232(sp)
  1a:	4700                	lw	s0,8(a4)
  1c:	203a4343          	fmadd.s	ft6,fs4,ft3,ft4,rmm
  20:	4728                	lw	a0,72(a4)
  22:	554e                	lw	a0,240(sp)
  24:	2029                	.insn	2, 0x2029
  26:	3331                	addiw	t1,t1,-20
  28:	322e                	fld	ft4,232(sp)
  2a:	302e                	fld	ft0,232(sp)
	...

Disassembly of section .riscv.attributes:

0000000000000000 <.riscv.attributes>:
   0:	4a41                	li	s4,16
   2:	0000                	unimp
   4:	7200                	ld	s0,32(a2)
   6:	7369                	lui	t1,0xffffa
   8:	01007663          	bgeu	zero,a6,14 <__stack_align+0x4>
   c:	0040                	addi	s0,sp,4
   e:	0000                	unimp
  10:	1004                	addi	s1,sp,32
  12:	7205                	lui	tp,0xfffe1
  14:	3676                	fld	fa2,376(sp)
  16:	6934                	ld	a3,80(a0)
  18:	7032                	.insn	2, 0x7032
  1a:	5f31                	li	t5,-20
  1c:	326d                	addiw	tp,tp,-5 # fffffffffffe0ffb <__heap_end+0xffffffff7ffbdffb>
  1e:	3070                	fld	fa2,224(s0)
  20:	615f 7032 5f31      	.insn	6, 0x5f317032615f
  26:	3266                	fld	ft4,120(sp)
  28:	3270                	fld	fa2,224(a2)
  2a:	645f 7032 5f32      	.insn	6, 0x5f327032645f
  30:	30703263          	.insn	4, 0x30703263
  34:	7a5f 6369 7273      	.insn	6, 0x727363697a5f
  3a:	7032                	.insn	2, 0x7032
  3c:	5f30                	lw	a2,120(a4)
  3e:	6d7a                	ld	s10,408(sp)
  40:	756d                	lui	a0,0xffffb
  42:	316c                	fld	fa1,224(a0)
  44:	3070                	fld	fa2,224(s0)
  46:	0800                	addi	s0,sp,16
  48:	0a01                	addi	s4,s4,0 # ffffffffffffa000 <__heap_end+0xffffffff7ffd7000>
  4a:	Address 0x4a is out of bounds.


Disassembly of section .debug_frame:

0000000000000000 <.debug_frame>:
   0:	000c                	.insn	2, 0x000c
   2:	0000                	unimp
   4:	ffff                	.insn	2, 0xffff
   6:	ffff                	.insn	2, 0xffff
   8:	7c010003          	lb	zero,1984(sp)
   c:	0d01                	addi	s10,s10,0
   e:	0002                	c.slli64	zero
  10:	0014                	.insn	2, 0x0014
  12:	0000                	unimp
  14:	0000                	unimp
  16:	0000                	unimp
  18:	02d0                	addi	a2,sp,324
  1a:	8000                	.insn	2, 0x8000
  1c:	0000                	unimp
  1e:	0000                	unimp
  20:	001c                	.insn	2, 0x001c
  22:	0000                	unimp
  24:	0000                	unimp
  26:	0000                	unimp
  28:	0024                	addi	s1,sp,8
  2a:	0000                	unimp
  2c:	0000                	unimp
  2e:	0000                	unimp
  30:	0230                	addi	a2,sp,264
  32:	8000                	.insn	2, 0x8000
  34:	0000                	unimp
  36:	0000                	unimp
  38:	00a0                	addi	s0,sp,72
  3a:	0000                	unimp
  3c:	0000                	unimp
  3e:	0000                	unimp
  40:	0e44                	addi	s1,sp,788
  42:	4410                	lw	a2,8(s0)
  44:	0281                	addi	t0,t0,0
  46:	7802                	ld	a6,32(sp)
  48:	c10a                	sw	sp,128(sp)
  4a:	0e44                	addi	s1,sp,788
  4c:	4400                	lw	s0,8(s0)
  4e:	000c000b          	.insn	4, 0x000c000b
  52:	0000                	unimp
  54:	ffff                	.insn	2, 0xffff
  56:	ffff                	.insn	2, 0xffff
  58:	7c010003          	lb	zero,1984(sp)
  5c:	0d01                	addi	s10,s10,0
  5e:	0002                	c.slli64	zero
  60:	0024                	addi	s1,sp,8
  62:	0000                	unimp
  64:	0050                	addi	a2,sp,4
  66:	0000                	unimp
  68:	1948                	addi	a0,sp,180
  6a:	8000                	.insn	2, 0x8000
  6c:	0000                	unimp
  6e:	0000                	unimp
  70:	0014                	.insn	2, 0x0014
  72:	0000                	unimp
  74:	0000                	unimp
  76:	0000                	unimp
  78:	0e42                	slli	t3,t3,0x10
  7a:	4210                	lw	a2,0(a2)
  7c:	0281                	addi	t0,t0,0
  7e:	c146                	sw	a7,128(sp)
  80:	0e48                	addi	a0,sp,788
  82:	0000                	unimp
  84:	0000                	unimp
  86:	0000                	unimp
  88:	000c                	.insn	2, 0x000c
  8a:	0000                	unimp
  8c:	ffff                	.insn	2, 0xffff
  8e:	ffff                	.insn	2, 0xffff
  90:	7c010003          	lb	zero,1984(sp)
  94:	0d01                	addi	s10,s10,0
  96:	0002                	c.slli64	zero
  98:	0024                	addi	s1,sp,8
  9a:	0000                	unimp
  9c:	0088                	addi	a0,sp,64
  9e:	0000                	unimp
  a0:	195c                	addi	a5,sp,180
  a2:	8000                	.insn	2, 0x8000
  a4:	0000                	unimp
  a6:	0000                	unimp
  a8:	0014                	.insn	2, 0x0014
  aa:	0000                	unimp
  ac:	0000                	unimp
  ae:	0000                	unimp
  b0:	0e42                	slli	t3,t3,0x10
  b2:	4210                	lw	a2,0(a2)
  b4:	0281                	addi	t0,t0,0
  b6:	c146                	sw	a7,128(sp)
  b8:	0e48                	addi	a0,sp,788
  ba:	0000                	unimp
  bc:	0000                	unimp
  be:	0000                	unimp
  c0:	000c                	.insn	2, 0x000c
  c2:	0000                	unimp
  c4:	ffff                	.insn	2, 0xffff
  c6:	ffff                	.insn	2, 0xffff
  c8:	7c010003          	lb	zero,1984(sp)
  cc:	0d01                	addi	s10,s10,0
  ce:	0002                	c.slli64	zero
  d0:	0014                	.insn	2, 0x0014
  d2:	0000                	unimp
  d4:	00c0                	addi	s0,sp,68
  d6:	0000                	unimp
  d8:	1970                	addi	a2,sp,188
  da:	8000                	.insn	2, 0x8000
  dc:	0000                	unimp
  de:	0000                	unimp
  e0:	0008                	.insn	2, 0x0008
  e2:	0000                	unimp
  e4:	0000                	unimp
  e6:	0000                	unimp
  e8:	000c                	.insn	2, 0x000c
  ea:	0000                	unimp
  ec:	ffff                	.insn	2, 0xffff
  ee:	ffff                	.insn	2, 0xffff
  f0:	7c010003          	lb	zero,1984(sp)
  f4:	0d01                	addi	s10,s10,0
  f6:	0002                	c.slli64	zero
  f8:	0024                	addi	s1,sp,8
  fa:	0000                	unimp
  fc:	00e8                	addi	a0,sp,76
  fe:	0000                	unimp
 100:	1978                	addi	a4,sp,188
 102:	8000                	.insn	2, 0x8000
 104:	0000                	unimp
 106:	0000                	unimp
 108:	0014                	.insn	2, 0x0014
 10a:	0000                	unimp
 10c:	0000                	unimp
 10e:	0000                	unimp
 110:	0e42                	slli	t3,t3,0x10
 112:	4210                	lw	a2,0(a2)
 114:	0281                	addi	t0,t0,0
 116:	c146                	sw	a7,128(sp)
 118:	0e48                	addi	a0,sp,788
 11a:	0000                	unimp
 11c:	0000                	unimp
 11e:	0000                	unimp
 120:	000c                	.insn	2, 0x000c
 122:	0000                	unimp
 124:	ffff                	.insn	2, 0xffff
 126:	ffff                	.insn	2, 0xffff
 128:	7c010003          	lb	zero,1984(sp)
 12c:	0d01                	addi	s10,s10,0
 12e:	0002                	c.slli64	zero
 130:	0024                	addi	s1,sp,8
 132:	0000                	unimp
 134:	0120                	addi	s0,sp,136
 136:	0000                	unimp
 138:	198c                	addi	a1,sp,240
 13a:	8000                	.insn	2, 0x8000
 13c:	0000                	unimp
 13e:	0000                	unimp
 140:	0016                	c.slli	zero,0x5
 142:	0000                	unimp
 144:	0000                	unimp
 146:	0000                	unimp
 148:	0e42                	slli	t3,t3,0x10
 14a:	4210                	lw	a2,0(a2)
 14c:	0281                	addi	t0,t0,0
 14e:	c146                	sw	a7,128(sp)
 150:	0e4a                	slli	t3,t3,0x12
 152:	0000                	unimp
 154:	0000                	unimp
 156:	0000                	unimp
 158:	000c                	.insn	2, 0x000c
 15a:	0000                	unimp
 15c:	ffff                	.insn	2, 0xffff
 15e:	ffff                	.insn	2, 0xffff
 160:	7c010003          	lb	zero,1984(sp)
 164:	0d01                	addi	s10,s10,0
 166:	0002                	c.slli64	zero
 168:	0024                	addi	s1,sp,8
 16a:	0000                	unimp
 16c:	0158                	addi	a4,sp,132
 16e:	0000                	unimp
 170:	19a2                	slli	s3,s3,0x28
 172:	8000                	.insn	2, 0x8000
 174:	0000                	unimp
 176:	0000                	unimp
 178:	003c                	addi	a5,sp,8
 17a:	0000                	unimp
 17c:	0000                	unimp
 17e:	0000                	unimp
 180:	0e68                	addi	a0,sp,796
 182:	4210                	lw	a2,0(a2)
 184:	0281                	addi	t0,t0,0
 186:	c146                	sw	a7,128(sp)
 188:	0e4a                	slli	t3,t3,0x12
 18a:	0000                	unimp
 18c:	0000                	unimp
 18e:	0000                	unimp
 190:	000c                	.insn	2, 0x000c
 192:	0000                	unimp
 194:	ffff                	.insn	2, 0xffff
 196:	ffff                	.insn	2, 0xffff
 198:	7c010003          	lb	zero,1984(sp)
 19c:	0d01                	addi	s10,s10,0
 19e:	0002                	c.slli64	zero
 1a0:	0014                	.insn	2, 0x0014
 1a2:	0000                	unimp
 1a4:	0190                	addi	a2,sp,192
 1a6:	0000                	unimp
 1a8:	19de                	slli	s3,s3,0x37
 1aa:	8000                	.insn	2, 0x8000
 1ac:	0000                	unimp
 1ae:	0000                	unimp
 1b0:	0006                	c.slli	zero,0x1
 1b2:	0000                	unimp
 1b4:	0000                	unimp
 1b6:	0000                	unimp
 1b8:	000c                	.insn	2, 0x000c
 1ba:	0000                	unimp
 1bc:	ffff                	.insn	2, 0xffff
 1be:	ffff                	.insn	2, 0xffff
 1c0:	7c010003          	lb	zero,1984(sp)
 1c4:	0d01                	addi	s10,s10,0
 1c6:	0002                	c.slli64	zero
 1c8:	001c                	.insn	2, 0x001c
 1ca:	0000                	unimp
 1cc:	01b8                	addi	a4,sp,200
 1ce:	0000                	unimp
 1d0:	19e4                	addi	s1,sp,252
 1d2:	8000                	.insn	2, 0x8000
 1d4:	0000                	unimp
 1d6:	0000                	unimp
 1d8:	0016                	c.slli	zero,0x5
 1da:	0000                	unimp
 1dc:	0000                	unimp
 1de:	0000                	unimp
 1e0:	0e42                	slli	t3,t3,0x10
 1e2:	4610                	lw	a2,8(a2)
 1e4:	0281                	addi	t0,t0,0
 1e6:	0000                	unimp
 1e8:	000c                	.insn	2, 0x000c
 1ea:	0000                	unimp
 1ec:	ffff                	.insn	2, 0xffff
 1ee:	ffff                	.insn	2, 0xffff
 1f0:	7c010003          	lb	zero,1984(sp)
 1f4:	0d01                	addi	s10,s10,0
 1f6:	0002                	c.slli64	zero
 1f8:	0024                	addi	s1,sp,8
 1fa:	0000                	unimp
 1fc:	01e8                	addi	a0,sp,204
 1fe:	0000                	unimp
 200:	19fa                	slli	s3,s3,0x3e
 202:	8000                	.insn	2, 0x8000
 204:	0000                	unimp
 206:	0000                	unimp
 208:	0030                	addi	a2,sp,8
 20a:	0000                	unimp
 20c:	0000                	unimp
 20e:	0000                	unimp
 210:	0e42                	slli	t3,t3,0x10
 212:	5210                	lw	a2,32(a2)
 214:	0488                	addi	a0,sp,576
 216:	0281                	addi	t0,t0,0
 218:	c84e                	sw	s3,16(sp)
 21a:	c142                	sw	a6,128(sp)
 21c:	0e48                	addi	a0,sp,788
 21e:	0000                	unimp
 220:	000c                	.insn	2, 0x000c
 222:	0000                	unimp
 224:	ffff                	.insn	2, 0xffff
 226:	ffff                	.insn	2, 0xffff
 228:	7c010003          	lb	zero,1984(sp)
 22c:	0d01                	addi	s10,s10,0
 22e:	0002                	c.slli64	zero
 230:	0014                	.insn	2, 0x0014
 232:	0000                	unimp
 234:	0220                	addi	s0,sp,264
 236:	0000                	unimp
 238:	1a2a                	slli	s4,s4,0x2a
 23a:	8000                	.insn	2, 0x8000
 23c:	0000                	unimp
 23e:	0000                	unimp
 240:	0006                	c.slli	zero,0x1
 242:	0000                	unimp
 244:	0000                	unimp
 246:	0000                	unimp
 248:	000c                	.insn	2, 0x000c
 24a:	0000                	unimp
 24c:	ffff                	.insn	2, 0xffff
 24e:	ffff                	.insn	2, 0xffff
 250:	7c010003          	lb	zero,1984(sp)
 254:	0d01                	addi	s10,s10,0
 256:	0002                	c.slli64	zero
 258:	001c                	.insn	2, 0x001c
 25a:	0000                	unimp
 25c:	0248                	addi	a0,sp,260
 25e:	0000                	unimp
 260:	1a30                	addi	a2,sp,312
 262:	8000                	.insn	2, 0x8000
 264:	0000                	unimp
 266:	0000                	unimp
 268:	004c                	addi	a1,sp,4
 26a:	0000                	unimp
 26c:	0000                	unimp
 26e:	0000                	unimp
 270:	0e42                	slli	t3,t3,0x10
 272:	0240                	addi	s0,sp,260
 274:	0e48                	addi	a0,sp,788
 276:	0000                	unimp
 278:	000c                	.insn	2, 0x000c
 27a:	0000                	unimp
 27c:	ffff                	.insn	2, 0xffff
 27e:	ffff                	.insn	2, 0xffff
 280:	7c010003          	lb	zero,1984(sp)
 284:	0d01                	addi	s10,s10,0
 286:	0002                	c.slli64	zero
 288:	0014                	.insn	2, 0x0014
 28a:	0000                	unimp
 28c:	0278                	addi	a4,sp,268
 28e:	0000                	unimp
 290:	1a7c                	addi	a5,sp,316
 292:	8000                	.insn	2, 0x8000
 294:	0000                	unimp
 296:	0000                	unimp
 298:	0022                	c.slli	zero,0x8
 29a:	0000                	unimp
 29c:	0000                	unimp
	...
