
/home/frank/hesl/test_riscv/chipyard/chipyard/build/mt-hello.riscv:     file format elf64-littleriscv


Disassembly of section .text:

0000000080000000 <_start>:
    80000000:	4081                	li	ra,0
    80000002:	4101                	li	sp,0
    80000004:	4181                	li	gp,0
    80000006:	4201                	li	tp,0
    80000008:	4281                	li	t0,0
    8000000a:	4301                	li	t1,0
    8000000c:	4381                	li	t2,0
    8000000e:	4401                	li	s0,0
    80000010:	4481                	li	s1,0
    80000012:	4501                	li	a0,0
    80000014:	4581                	li	a1,0
    80000016:	4601                	li	a2,0
    80000018:	4681                	li	a3,0
    8000001a:	4701                	li	a4,0
    8000001c:	4781                	li	a5,0
    8000001e:	4801                	li	a6,0
    80000020:	4881                	li	a7,0
    80000022:	4901                	li	s2,0
    80000024:	4981                	li	s3,0
    80000026:	4a01                	li	s4,0
    80000028:	4a81                	li	s5,0
    8000002a:	4b01                	li	s6,0
    8000002c:	4b81                	li	s7,0
    8000002e:	4c01                	li	s8,0
    80000030:	4c81                	li	s9,0
    80000032:	4d01                	li	s10,0
    80000034:	4d81                	li	s11,0
    80000036:	4e01                	li	t3,0
    80000038:	4e81                	li	t4,0
    8000003a:	4f01                	li	t5,0
    8000003c:	4f81                	li	t6,0
    8000003e:	62f9                	lui	t0,0x1e
    80000040:	6002829b          	addiw	t0,t0,1536 # 1e600 <__stack_size+0x16600>
    80000044:	3002a073          	csrs	mstatus,t0
    80000048:	00000297          	auipc	t0,0x0
    8000004c:	09028293          	addi	t0,t0,144 # 800000d8 <_start+0xd8>
    80000050:	30529073          	csrw	mtvec,t0
    80000054:	00301073          	fscsr	zero
    80000058:	f0000053          	fmv.w.x	ft0,zero
    8000005c:	f00000d3          	fmv.w.x	ft1,zero
    80000060:	f0000153          	fmv.w.x	ft2,zero
    80000064:	f00001d3          	fmv.w.x	ft3,zero
    80000068:	f0000253          	fmv.w.x	ft4,zero
    8000006c:	f00002d3          	fmv.w.x	ft5,zero
    80000070:	f0000353          	fmv.w.x	ft6,zero
    80000074:	f00003d3          	fmv.w.x	ft7,zero
    80000078:	f0000453          	fmv.w.x	fs0,zero
    8000007c:	f00004d3          	fmv.w.x	fs1,zero
    80000080:	f0000553          	fmv.w.x	fa0,zero
    80000084:	f00005d3          	fmv.w.x	fa1,zero
    80000088:	f0000653          	fmv.w.x	fa2,zero
    8000008c:	f00006d3          	fmv.w.x	fa3,zero
    80000090:	f0000753          	fmv.w.x	fa4,zero
    80000094:	f00007d3          	fmv.w.x	fa5,zero
    80000098:	f0000853          	fmv.w.x	fa6,zero
    8000009c:	f00008d3          	fmv.w.x	fa7,zero
    800000a0:	f0000953          	fmv.w.x	fs2,zero
    800000a4:	f00009d3          	fmv.w.x	fs3,zero
    800000a8:	f0000a53          	fmv.w.x	fs4,zero
    800000ac:	f0000ad3          	fmv.w.x	fs5,zero
    800000b0:	f0000b53          	fmv.w.x	fs6,zero
    800000b4:	f0000bd3          	fmv.w.x	fs7,zero
    800000b8:	f0000c53          	fmv.w.x	fs8,zero
    800000bc:	f0000cd3          	fmv.w.x	fs9,zero
    800000c0:	f0000d53          	fmv.w.x	fs10,zero
    800000c4:	f0000dd3          	fmv.w.x	fs11,zero
    800000c8:	f0000e53          	fmv.w.x	ft8,zero
    800000cc:	f0000ed3          	fmv.w.x	ft9,zero
    800000d0:	f0000f53          	fmv.w.x	ft10,zero
    800000d4:	f0000fd3          	fmv.w.x	ft11,zero
    800000d8:	00002197          	auipc	gp,0x2
    800000dc:	6a018193          	addi	gp,gp,1696 # 80002778 <__global_pointer$>
    800000e0:	f1402473          	csrr	s0,mhartid
    800000e4:	00f00293          	li	t0,15
    800000e8:	00023217          	auipc	tp,0x23
    800000ec:	f1820213          	addi	tp,tp,-232 # 80023000 <__heap_end>
    800000f0:	005412b3          	sll	t0,s0,t0
    800000f4:	9216                	add	tp,tp,t0
    800000f6:	62a1                	lui	t0,0x8
    800000f8:	00028293          	mv	t0,t0
    800000fc:	00520133          	add	sp,tp,t0
    80000100:	00000297          	auipc	t0,0x0
    80000104:	04428293          	addi	t0,t0,68 # 80000144 <trap_entry>
    80000108:	30529073          	csrw	mtvec,t0
    8000010c:	19f010ef          	jal	80001aaa <__init_tls>
    80000110:	00000293          	li	t0,0
    80000114:	00540463          	beq	s0,t0,8000011c <_start+0x11c>
    80000118:	0f60006f          	j	8000020e <_start_secondary>
    8000011c:	82018293          	addi	t0,gp,-2016 # 80001f98 <sense.0>
    80000120:	b9018313          	addi	t1,gp,-1136 # 80002308 <_end>
    80000124:	0062f763          	bgeu	t0,t1,80000132 <_start+0x132>
    80000128:	0002b023          	sd	zero,0(t0)
    8000012c:	02a1                	addi	t0,t0,8
    8000012e:	fe62ede3          	bltu	t0,t1,80000128 <_start+0x128>
    80000132:	00002517          	auipc	a0,0x2
    80000136:	aae50513          	addi	a0,a0,-1362 # 80001be0 <__libc_fini_array>
    8000013a:	20f010ef          	jal	80001b48 <atexit>
    8000013e:	245010ef          	jal	80001b82 <__libc_init_array>
    80000142:	a075                	j	800001ee <_start_main>

0000000080000144 <trap_entry>:
    80000144:	34011073          	csrw	mscratch,sp
    80000148:	7111                	addi	sp,sp,-256
    8000014a:	e406                	sd	ra,8(sp)
    8000014c:	340020f3          	csrr	ra,mscratch
    80000150:	e806                	sd	ra,16(sp)
    80000152:	ec0e                	sd	gp,24(sp)
    80000154:	f012                	sd	tp,32(sp)
    80000156:	f416                	sd	t0,40(sp)
    80000158:	f81a                	sd	t1,48(sp)
    8000015a:	fc1e                	sd	t2,56(sp)
    8000015c:	e0a2                	sd	s0,64(sp)
    8000015e:	e4a6                	sd	s1,72(sp)
    80000160:	e8aa                	sd	a0,80(sp)
    80000162:	ecae                	sd	a1,88(sp)
    80000164:	f0b2                	sd	a2,96(sp)
    80000166:	f4b6                	sd	a3,104(sp)
    80000168:	f8ba                	sd	a4,112(sp)
    8000016a:	fcbe                	sd	a5,120(sp)
    8000016c:	e142                	sd	a6,128(sp)
    8000016e:	e546                	sd	a7,136(sp)
    80000170:	e94a                	sd	s2,144(sp)
    80000172:	ed4e                	sd	s3,152(sp)
    80000174:	f152                	sd	s4,160(sp)
    80000176:	f556                	sd	s5,168(sp)
    80000178:	f95a                	sd	s6,176(sp)
    8000017a:	fd5e                	sd	s7,184(sp)
    8000017c:	e1e2                	sd	s8,192(sp)
    8000017e:	e5e6                	sd	s9,200(sp)
    80000180:	e9ea                	sd	s10,208(sp)
    80000182:	edee                	sd	s11,216(sp)
    80000184:	f1f2                	sd	t3,224(sp)
    80000186:	f5f6                	sd	t4,232(sp)
    80000188:	f9fa                	sd	t5,240(sp)
    8000018a:	fdfe                	sd	t6,248(sp)
    8000018c:	34102573          	csrr	a0,mepc
    80000190:	342025f3          	csrr	a1,mcause
    80000194:	34302673          	csrr	a2,mtval
    80000198:	868a                	mv	a3,sp
    8000019a:	0fb010ef          	jal	80001a94 <handle_trap>
    8000019e:	34151073          	csrw	mepc,a0
    800001a2:	6289                	lui	t0,0x2
    800001a4:	8002829b          	addiw	t0,t0,-2048 # 1800 <__stack_align+0x17f0>
    800001a8:	3002a073          	csrs	mstatus,t0
    800001ac:	60a2                	ld	ra,8(sp)
    800001ae:	61e2                	ld	gp,24(sp)
    800001b0:	7202                	ld	tp,32(sp)
    800001b2:	72a2                	ld	t0,40(sp)
    800001b4:	7342                	ld	t1,48(sp)
    800001b6:	73e2                	ld	t2,56(sp)
    800001b8:	6406                	ld	s0,64(sp)
    800001ba:	64a6                	ld	s1,72(sp)
    800001bc:	6546                	ld	a0,80(sp)
    800001be:	65e6                	ld	a1,88(sp)
    800001c0:	7606                	ld	a2,96(sp)
    800001c2:	76a6                	ld	a3,104(sp)
    800001c4:	7746                	ld	a4,112(sp)
    800001c6:	77e6                	ld	a5,120(sp)
    800001c8:	680a                	ld	a6,128(sp)
    800001ca:	68aa                	ld	a7,136(sp)
    800001cc:	694a                	ld	s2,144(sp)
    800001ce:	69ea                	ld	s3,152(sp)
    800001d0:	7a0a                	ld	s4,160(sp)
    800001d2:	7aaa                	ld	s5,168(sp)
    800001d4:	7b4a                	ld	s6,176(sp)
    800001d6:	7bea                	ld	s7,184(sp)
    800001d8:	6c0e                	ld	s8,192(sp)
    800001da:	6cae                	ld	s9,200(sp)
    800001dc:	6d4e                	ld	s10,208(sp)
    800001de:	6dee                	ld	s11,216(sp)
    800001e0:	7e0e                	ld	t3,224(sp)
    800001e2:	7eae                	ld	t4,232(sp)
    800001e4:	7f4e                	ld	t5,240(sp)
    800001e6:	7fee                	ld	t6,248(sp)
    800001e8:	6142                	ld	sp,16(sp)
    800001ea:	30200073          	mret

00000000800001ee <_start_main>:
    800001ee:	52fd                	li	t0,-1
    800001f0:	0110000f          	fence	w,w
    800001f4:	a651a823          	sw	t0,-1424(gp) # 800021e8 <__boot_sync>
    800001f8:	4505                	li	a0,1
    800001fa:	00002597          	auipc	a1,0x2
    800001fe:	c7658593          	addi	a1,a1,-906 # 80001e70 <argv>
    80000202:	8101b603          	ld	a2,-2032(gp) # 80001f88 <environ>
    80000206:	02a000ef          	jal	80000230 <main>
    8000020a:	1490106f          	j	80001b52 <exit>

000000008000020e <_start_secondary>:
    8000020e:	a701a283          	lw	t0,-1424(gp) # 800021e8 <__boot_sync>
    80000212:	fe028ee3          	beqz	t0,8000020e <_start_secondary>
    80000216:	0220000f          	fence	r,r
    8000021a:	4505                	li	a0,1
    8000021c:	00002597          	auipc	a1,0x2
    80000220:	c5458593          	addi	a1,a1,-940 # 80001e70 <argv>
    80000224:	8101b603          	ld	a2,-2032(gp) # 80001f88 <environ>
    80000228:	0ac000ef          	jal	800002d4 <__main>
    8000022c:	1270106f          	j	80001b52 <exit>

0000000080000230 <main>:
    80000230:	ff010113          	addi	sp,sp,-16
    80000234:	00113423          	sd	ra,8(sp)
    80000238:	09c000ef          	jal	800002d4 <__main>
    8000023c:	00813083          	ld	ra,8(sp)
    80000240:	00000513          	li	a0,0
    80000244:	01010113          	addi	sp,sp,16
    80000248:	00008067          	ret

000000008000024c <barrier>:
    8000024c:	0ff0000f          	fence
    80000250:	00022703          	lw	a4,0(tp) # 0 <__boot_hart>
    80000254:	82418693          	addi	a3,gp,-2012 # 80001f9c <count.1>
    80000258:	00100613          	li	a2,1
    8000025c:	00173713          	seqz	a4,a4
    80000260:	00e22023          	sw	a4,0(tp) # 0 <__boot_hart>
    80000264:	0f50000f          	fence	iorw,ow
    80000268:	04c6a72f          	amoadd.w.aq	a4,a2,(a3)
    8000026c:	00300693          	li	a3,3
    80000270:	0007071b          	sext.w	a4,a4
    80000274:	00d70e63          	beq	a4,a3,80000290 <barrier+0x44>
    80000278:	00022683          	lw	a3,0(tp) # 0 <__boot_hart>
    8000027c:	82018713          	addi	a4,gp,-2016 # 80001f98 <sense.0>
    80000280:	00072783          	lw	a5,0(a4)
    80000284:	fed79ee3          	bne	a5,a3,80000280 <barrier+0x34>
    80000288:	0ff0000f          	fence
    8000028c:	00008067          	ret
    80000290:	00022783          	lw	a5,0(tp) # 0 <__boot_hart>
    80000294:	8201a223          	sw	zero,-2012(gp) # 80001f9c <count.1>
    80000298:	82f1a023          	sw	a5,-2016(gp) # 80001f98 <sense.0>
    8000029c:	0ff0000f          	fence
    800002a0:	00008067          	ret

00000000800002a4 <get_march>:
    800002a4:	fff50513          	addi	a0,a0,-1
    800002a8:	00400793          	li	a5,4
    800002ac:	00a7ee63          	bltu	a5,a0,800002c8 <get_march+0x24>
    800002b0:	00351513          	slli	a0,a0,0x3
    800002b4:	00002797          	auipc	a5,0x2
    800002b8:	b3c78793          	addi	a5,a5,-1220 # 80001df0 <CSWTCH.9>
    800002bc:	00a787b3          	add	a5,a5,a0
    800002c0:	0007b503          	ld	a0,0(a5)
    800002c4:	00008067          	ret
    800002c8:	00002517          	auipc	a0,0x2
    800002cc:	a9050513          	addi	a0,a0,-1392 # 80001d58 <__tbss_end>
    800002d0:	00008067          	ret

00000000800002d4 <__main>:
    800002d4:	fd010113          	addi	sp,sp,-48
    800002d8:	02113423          	sd	ra,40(sp)
    800002dc:	02813023          	sd	s0,32(sp)
    800002e0:	00913c23          	sd	s1,24(sp)
    800002e4:	01213823          	sd	s2,16(sp)
    800002e8:	01313423          	sd	s3,8(sp)
    800002ec:	01413023          	sd	s4,0(sp)
    800002f0:	f14024f3          	csrr	s1,mhartid
    800002f4:	00300793          	li	a5,3
    800002f8:	0497e263          	bltu	a5,s1,8000033c <__main+0x68>
    800002fc:	f12027f3          	csrr	a5,marchid
    80000300:	00400713          	li	a4,4
    80000304:	fff78793          	addi	a5,a5,-1
    80000308:	00002997          	auipc	s3,0x2
    8000030c:	a5098993          	addi	s3,s3,-1456 # 80001d58 <__tbss_end>
    80000310:	06f77263          	bgeu	a4,a5,80000374 <__main+0xa0>
    80000314:	00000413          	li	s0,0
    80000318:	00002a17          	auipc	s4,0x2
    8000031c:	a48a0a13          	addi	s4,s4,-1464 # 80001d60 <__tbss_end+0x8>
    80000320:	00400913          	li	s2,4
    80000324:	00848e63          	beq	s1,s0,80000340 <__main+0x6c>
    80000328:	00140413          	addi	s0,s0,1
    8000032c:	f21ff0ef          	jal	8000024c <barrier>
    80000330:	ff241ae3          	bne	s0,s2,80000324 <__main+0x50>
    80000334:	02048063          	beqz	s1,80000354 <__main+0x80>
    80000338:	0000006f          	j	80000338 <__main+0x64>
    8000033c:	0000006f          	j	8000033c <__main+0x68>
    80000340:	00098613          	mv	a2,s3
    80000344:	00048593          	mv	a1,s1
    80000348:	000a0513          	mv	a0,s4
    8000034c:	072000ef          	jal	800003be <iprintf>
    80000350:	fd9ff06f          	j	80000328 <__main+0x54>
    80000354:	02813083          	ld	ra,40(sp)
    80000358:	02013403          	ld	s0,32(sp)
    8000035c:	01813483          	ld	s1,24(sp)
    80000360:	01013903          	ld	s2,16(sp)
    80000364:	00813983          	ld	s3,8(sp)
    80000368:	00013a03          	ld	s4,0(sp)
    8000036c:	03010113          	addi	sp,sp,48
    80000370:	00008067          	ret
    80000374:	00379793          	slli	a5,a5,0x3
    80000378:	00002717          	auipc	a4,0x2
    8000037c:	a7870713          	addi	a4,a4,-1416 # 80001df0 <CSWTCH.9>
    80000380:	00f707b3          	add	a5,a4,a5
    80000384:	0007b983          	ld	s3,0(a5)
    80000388:	00000413          	li	s0,0
    8000038c:	00002a17          	auipc	s4,0x2
    80000390:	9d4a0a13          	addi	s4,s4,-1580 # 80001d60 <__tbss_end+0x8>
    80000394:	00400913          	li	s2,4
    80000398:	f8dff06f          	j	80000324 <__main+0x50>

000000008000039c <_iprintf_r>:
    8000039c:	715d                	addi	sp,sp,-80
    8000039e:	f032                	sd	a2,32(sp)
    800003a0:	f436                	sd	a3,40(sp)
    800003a2:	f83a                	sd	a4,48(sp)
    800003a4:	fc3e                	sd	a5,56(sp)
    800003a6:	e0c2                	sd	a6,64(sp)
    800003a8:	e4c6                	sd	a7,72(sp)
    800003aa:	862e                	mv	a2,a1
    800003ac:	690c                	ld	a1,16(a0)
    800003ae:	1014                	addi	a3,sp,32
    800003b0:	ec06                	sd	ra,24(sp)
    800003b2:	e436                	sd	a3,8(sp)
    800003b4:	0cc000ef          	jal	80000480 <_vfiprintf_r>
    800003b8:	60e2                	ld	ra,24(sp)
    800003ba:	6161                	addi	sp,sp,80
    800003bc:	8082                	ret

00000000800003be <iprintf>:
    800003be:	711d                	addi	sp,sp,-96
    800003c0:	f832                	sd	a2,48(sp)
    800003c2:	fc36                	sd	a3,56(sp)
    800003c4:	e4be                	sd	a5,72(sp)
    800003c6:	f42e                	sd	a1,40(sp)
    800003c8:	e0ba                	sd	a4,64(sp)
    800003ca:	e8c2                	sd	a6,80(sp)
    800003cc:	ecc6                	sd	a7,88(sp)
    800003ce:	00002797          	auipc	a5,0x2
    800003d2:	baa7b783          	ld	a5,-1110(a5) # 80001f78 <_impure_ptr>
    800003d6:	6b8c                	ld	a1,16(a5)
    800003d8:	1034                	addi	a3,sp,40
    800003da:	862a                	mv	a2,a0
    800003dc:	853e                	mv	a0,a5
    800003de:	ec06                	sd	ra,24(sp)
    800003e0:	e436                	sd	a3,8(sp)
    800003e2:	09e000ef          	jal	80000480 <_vfiprintf_r>
    800003e6:	60e2                	ld	ra,24(sp)
    800003e8:	6125                	addi	sp,sp,96
    800003ea:	8082                	ret

00000000800003ec <__sfputc_r>:
    800003ec:	465c                	lw	a5,12(a2)
    800003ee:	fff7871b          	addiw	a4,a5,-1
    800003f2:	c658                	sw	a4,12(a2)
    800003f4:	00075a63          	bgez	a4,80000408 <__sfputc_r+0x1c>
    800003f8:	561c                	lw	a5,40(a2)
    800003fa:	00f74563          	blt	a4,a5,80000404 <__sfputc_r+0x18>
    800003fe:	47a9                	li	a5,10
    80000400:	00f59463          	bne	a1,a5,80000408 <__sfputc_r+0x1c>
    80000404:	4c10006f          	j	800010c4 <__swbuf_r>
    80000408:	621c                	ld	a5,0(a2)
    8000040a:	852e                	mv	a0,a1
    8000040c:	00178713          	addi	a4,a5,1
    80000410:	e218                	sd	a4,0(a2)
    80000412:	00b78023          	sb	a1,0(a5)
    80000416:	8082                	ret

0000000080000418 <__sfputs_r>:
    80000418:	7179                	addi	sp,sp,-48
    8000041a:	f022                	sd	s0,32(sp)
    8000041c:	ec26                	sd	s1,24(sp)
    8000041e:	e84a                	sd	s2,16(sp)
    80000420:	e44e                	sd	s3,8(sp)
    80000422:	e052                	sd	s4,0(sp)
    80000424:	f406                	sd	ra,40(sp)
    80000426:	892a                	mv	s2,a0
    80000428:	89ae                	mv	s3,a1
    8000042a:	8432                	mv	s0,a2
    8000042c:	00d604b3          	add	s1,a2,a3
    80000430:	5a7d                	li	s4,-1
    80000432:	00941463          	bne	s0,s1,8000043a <__sfputs_r+0x22>
    80000436:	4501                	li	a0,0
    80000438:	a811                	j	8000044c <__sfputs_r+0x34>
    8000043a:	00044583          	lbu	a1,0(s0)
    8000043e:	864e                	mv	a2,s3
    80000440:	854a                	mv	a0,s2
    80000442:	fabff0ef          	jal	800003ec <__sfputc_r>
    80000446:	0405                	addi	s0,s0,1
    80000448:	ff4515e3          	bne	a0,s4,80000432 <__sfputs_r+0x1a>
    8000044c:	70a2                	ld	ra,40(sp)
    8000044e:	7402                	ld	s0,32(sp)
    80000450:	64e2                	ld	s1,24(sp)
    80000452:	6942                	ld	s2,16(sp)
    80000454:	69a2                	ld	s3,8(sp)
    80000456:	6a02                	ld	s4,0(sp)
    80000458:	6145                	addi	sp,sp,48
    8000045a:	8082                	ret

000000008000045c <__sprint_r>:
    8000045c:	6a1c                	ld	a5,16(a2)
    8000045e:	1141                	addi	sp,sp,-16
    80000460:	e022                	sd	s0,0(sp)
    80000462:	e406                	sd	ra,8(sp)
    80000464:	8432                	mv	s0,a2
    80000466:	cb99                	beqz	a5,8000047c <__sprint_r+0x20>
    80000468:	059000ef          	jal	80000cc0 <__sfvwrite_r>
    8000046c:	00043823          	sd	zero,16(s0)
    80000470:	60a2                	ld	ra,8(sp)
    80000472:	00042423          	sw	zero,8(s0)
    80000476:	6402                	ld	s0,0(sp)
    80000478:	0141                	addi	sp,sp,16
    8000047a:	8082                	ret
    8000047c:	4501                	li	a0,0
    8000047e:	bfcd                	j	80000470 <__sprint_r+0x14>

0000000080000480 <_vfiprintf_r>:
    80000480:	7155                	addi	sp,sp,-208
    80000482:	e1a2                	sd	s0,192(sp)
    80000484:	fd26                	sd	s1,184(sp)
    80000486:	f94a                	sd	s2,176(sp)
    80000488:	f54e                	sd	s3,168(sp)
    8000048a:	f152                	sd	s4,160(sp)
    8000048c:	e586                	sd	ra,200(sp)
    8000048e:	ed56                	sd	s5,152(sp)
    80000490:	e95a                	sd	s6,144(sp)
    80000492:	e55e                	sd	s7,136(sp)
    80000494:	e162                	sd	s8,128(sp)
    80000496:	fce6                	sd	s9,120(sp)
    80000498:	f8ea                	sd	s10,112(sp)
    8000049a:	8a2a                	mv	s4,a0
    8000049c:	892e                	mv	s2,a1
    8000049e:	84b2                	mv	s1,a2
    800004a0:	8436                	mv	s0,a3
    800004a2:	4981                	li	s3,0
    800004a4:	c509                	beqz	a0,800004ae <_vfiprintf_r+0x2e>
    800004a6:	613c                	ld	a5,64(a0)
    800004a8:	e399                	bnez	a5,800004ae <_vfiprintf_r+0x2e>
    800004aa:	7d2000ef          	jal	80000c7c <__sinit>
    800004ae:	01095783          	lhu	a5,16(s2)
    800004b2:	8ba1                	andi	a5,a5,8
    800004b4:	cbe1                	beqz	a5,80000584 <_vfiprintf_r+0x104>
    800004b6:	01893783          	ld	a5,24(s2)
    800004ba:	c7e9                	beqz	a5,80000584 <_vfiprintf_r+0x104>
    800004bc:	02000793          	li	a5,32
    800004c0:	02f104a3          	sb	a5,41(sp)
    800004c4:	5afd                	li	s5,-1
    800004c6:	03000793          	li	a5,48
    800004ca:	d202                	sw	zero,36(sp)
    800004cc:	02f10523          	sb	a5,42(sp)
    800004d0:	e422                	sd	s0,8(sp)
    800004d2:	02500b93          	li	s7,37
    800004d6:	020a9c13          	slli	s8,s5,0x20
    800004da:	00002b17          	auipc	s6,0x2
    800004de:	8ceb0b13          	addi	s6,s6,-1842 # 80001da8 <__tbss_end+0x50>
    800004e2:	4c85                	li	s9,1
    800004e4:	8426                	mv	s0,s1
    800004e6:	00044783          	lbu	a5,0(s0)
    800004ea:	c399                	beqz	a5,800004f0 <_vfiprintf_r+0x70>
    800004ec:	0d779063          	bne	a5,s7,800005ac <_vfiprintf_r+0x12c>
    800004f0:	40940d3b          	subw	s10,s0,s1
    800004f4:	000d0e63          	beqz	s10,80000510 <_vfiprintf_r+0x90>
    800004f8:	86ea                	mv	a3,s10
    800004fa:	8626                	mv	a2,s1
    800004fc:	85ca                	mv	a1,s2
    800004fe:	8552                	mv	a0,s4
    80000500:	f19ff0ef          	jal	80000418 <__sfputs_r>
    80000504:	1d550963          	beq	a0,s5,800006d6 <_vfiprintf_r+0x256>
    80000508:	5792                	lw	a5,36(sp)
    8000050a:	01a787bb          	addw	a5,a5,s10
    8000050e:	d23e                	sw	a5,36(sp)
    80000510:	00044783          	lbu	a5,0(s0)
    80000514:	1c078163          	beqz	a5,800006d6 <_vfiprintf_r+0x256>
    80000518:	00140493          	addi	s1,s0,1
    8000051c:	e862                	sd	s8,16(sp)
    8000051e:	ec02                	sd	zero,24(sp)
    80000520:	040109a3          	sb	zero,83(sp)
    80000524:	d482                	sw	zero,104(sp)
    80000526:	0004c583          	lbu	a1,0(s1)
    8000052a:	4615                	li	a2,5
    8000052c:	855a                	mv	a0,s6
    8000052e:	50f000ef          	jal	8000123c <memchr>
    80000532:	47c2                	lw	a5,16(sp)
    80000534:	00148413          	addi	s0,s1,1
    80000538:	ed25                	bnez	a0,800005b0 <_vfiprintf_r+0x130>
    8000053a:	0107f713          	andi	a4,a5,16
    8000053e:	c709                	beqz	a4,80000548 <_vfiprintf_r+0xc8>
    80000540:	02000713          	li	a4,32
    80000544:	04e109a3          	sb	a4,83(sp)
    80000548:	0087f713          	andi	a4,a5,8
    8000054c:	c709                	beqz	a4,80000556 <_vfiprintf_r+0xd6>
    8000054e:	02b00713          	li	a4,43
    80000552:	04e109a3          	sb	a4,83(sp)
    80000556:	0004c683          	lbu	a3,0(s1)
    8000055a:	02a00713          	li	a4,42
    8000055e:	06e68163          	beq	a3,a4,800005c0 <_vfiprintf_r+0x140>
    80000562:	47f2                	lw	a5,28(sp)
    80000564:	8426                	mv	s0,s1
    80000566:	4681                	li	a3,0
    80000568:	4625                	li	a2,9
    8000056a:	4829                	li	a6,10
    8000056c:	00044703          	lbu	a4,0(s0)
    80000570:	00140513          	addi	a0,s0,1
    80000574:	fd07059b          	addiw	a1,a4,-48
    80000578:	872e                	mv	a4,a1
    8000057a:	08b67a63          	bgeu	a2,a1,8000060e <_vfiprintf_r+0x18e>
    8000057e:	caa9                	beqz	a3,800005d0 <_vfiprintf_r+0x150>
    80000580:	ce3e                	sw	a5,28(sp)
    80000582:	a0b9                	j	800005d0 <_vfiprintf_r+0x150>
    80000584:	85ca                	mv	a1,s2
    80000586:	8552                	mv	a0,s4
    80000588:	3e7000ef          	jal	8000116e <__swsetup_r>
    8000058c:	d905                	beqz	a0,800004bc <_vfiprintf_r+0x3c>
    8000058e:	557d                	li	a0,-1
    80000590:	60ae                	ld	ra,200(sp)
    80000592:	640e                	ld	s0,192(sp)
    80000594:	74ea                	ld	s1,184(sp)
    80000596:	794a                	ld	s2,176(sp)
    80000598:	79aa                	ld	s3,168(sp)
    8000059a:	7a0a                	ld	s4,160(sp)
    8000059c:	6aea                	ld	s5,152(sp)
    8000059e:	6b4a                	ld	s6,144(sp)
    800005a0:	6baa                	ld	s7,136(sp)
    800005a2:	6c0a                	ld	s8,128(sp)
    800005a4:	7ce6                	ld	s9,120(sp)
    800005a6:	7d46                	ld	s10,112(sp)
    800005a8:	6169                	addi	sp,sp,208
    800005aa:	8082                	ret
    800005ac:	0405                	addi	s0,s0,1
    800005ae:	bf25                	j	800004e6 <_vfiprintf_r+0x66>
    800005b0:	41650533          	sub	a0,a0,s6
    800005b4:	00ac953b          	sllw	a0,s9,a0
    800005b8:	8fc9                	or	a5,a5,a0
    800005ba:	c83e                	sw	a5,16(sp)
    800005bc:	84a2                	mv	s1,s0
    800005be:	b7a5                	j	80000526 <_vfiprintf_r+0xa6>
    800005c0:	6722                	ld	a4,8(sp)
    800005c2:	00870693          	addi	a3,a4,8
    800005c6:	4318                	lw	a4,0(a4)
    800005c8:	e436                	sd	a3,8(sp)
    800005ca:	02074b63          	bltz	a4,80000600 <_vfiprintf_r+0x180>
    800005ce:	ce3a                	sw	a4,28(sp)
    800005d0:	00044703          	lbu	a4,0(s0)
    800005d4:	02e00793          	li	a5,46
    800005d8:	06f71163          	bne	a4,a5,8000063a <_vfiprintf_r+0x1ba>
    800005dc:	00144703          	lbu	a4,1(s0)
    800005e0:	02a00793          	li	a5,42
    800005e4:	02f71b63          	bne	a4,a5,8000061a <_vfiprintf_r+0x19a>
    800005e8:	67a2                	ld	a5,8(sp)
    800005ea:	0409                	addi	s0,s0,2
    800005ec:	00878713          	addi	a4,a5,8
    800005f0:	e43a                	sd	a4,8(sp)
    800005f2:	4398                	lw	a4,0(a5)
    800005f4:	87ba                	mv	a5,a4
    800005f6:	00075363          	bgez	a4,800005fc <_vfiprintf_r+0x17c>
    800005fa:	57fd                	li	a5,-1
    800005fc:	ca3e                	sw	a5,20(sp)
    800005fe:	a835                	j	8000063a <_vfiprintf_r+0x1ba>
    80000600:	40e0073b          	negw	a4,a4
    80000604:	0027e793          	ori	a5,a5,2
    80000608:	ce3a                	sw	a4,28(sp)
    8000060a:	c83e                	sw	a5,16(sp)
    8000060c:	b7d1                	j	800005d0 <_vfiprintf_r+0x150>
    8000060e:	02f807bb          	mulw	a5,a6,a5
    80000612:	842a                	mv	s0,a0
    80000614:	4685                	li	a3,1
    80000616:	9fb9                	addw	a5,a5,a4
    80000618:	bf91                	j	8000056c <_vfiprintf_r+0xec>
    8000061a:	0405                	addi	s0,s0,1
    8000061c:	ca02                	sw	zero,20(sp)
    8000061e:	4681                	li	a3,0
    80000620:	4781                	li	a5,0
    80000622:	4625                	li	a2,9
    80000624:	4829                	li	a6,10
    80000626:	00044703          	lbu	a4,0(s0)
    8000062a:	00140513          	addi	a0,s0,1
    8000062e:	fd07059b          	addiw	a1,a4,-48
    80000632:	872e                	mv	a4,a1
    80000634:	06b67c63          	bgeu	a2,a1,800006ac <_vfiprintf_r+0x22c>
    80000638:	f2f1                	bnez	a3,800005fc <_vfiprintf_r+0x17c>
    8000063a:	00044583          	lbu	a1,0(s0)
    8000063e:	460d                	li	a2,3
    80000640:	00001517          	auipc	a0,0x1
    80000644:	77050513          	addi	a0,a0,1904 # 80001db0 <__tbss_end+0x58>
    80000648:	3f5000ef          	jal	8000123c <memchr>
    8000064c:	cd11                	beqz	a0,80000668 <_vfiprintf_r+0x1e8>
    8000064e:	00001797          	auipc	a5,0x1
    80000652:	76278793          	addi	a5,a5,1890 # 80001db0 <__tbss_end+0x58>
    80000656:	8d1d                	sub	a0,a0,a5
    80000658:	47c2                	lw	a5,16(sp)
    8000065a:	04000713          	li	a4,64
    8000065e:	00a7173b          	sllw	a4,a4,a0
    80000662:	8fd9                	or	a5,a5,a4
    80000664:	0405                	addi	s0,s0,1
    80000666:	c83e                	sw	a5,16(sp)
    80000668:	00044583          	lbu	a1,0(s0)
    8000066c:	4619                	li	a2,6
    8000066e:	00001517          	auipc	a0,0x1
    80000672:	74a50513          	addi	a0,a0,1866 # 80001db8 <__tbss_end+0x60>
    80000676:	00140493          	addi	s1,s0,1
    8000067a:	02b10423          	sb	a1,40(sp)
    8000067e:	3bf000ef          	jal	8000123c <memchr>
    80000682:	c135                	beqz	a0,800006e6 <_vfiprintf_r+0x266>
    80000684:	00000793          	li	a5,0
    80000688:	eb85                	bnez	a5,800006b8 <_vfiprintf_r+0x238>
    8000068a:	4742                	lw	a4,16(sp)
    8000068c:	67a2                	ld	a5,8(sp)
    8000068e:	10077713          	andi	a4,a4,256
    80000692:	00878693          	addi	a3,a5,8
    80000696:	c709                	beqz	a4,800006a0 <_vfiprintf_r+0x220>
    80000698:	07bd                	addi	a5,a5,15
    8000069a:	9bc1                	andi	a5,a5,-16
    8000069c:	01078693          	addi	a3,a5,16
    800006a0:	e436                	sd	a3,8(sp)
    800006a2:	5792                	lw	a5,36(sp)
    800006a4:	013787bb          	addw	a5,a5,s3
    800006a8:	d23e                	sw	a5,36(sp)
    800006aa:	bd2d                	j	800004e4 <_vfiprintf_r+0x64>
    800006ac:	02f807bb          	mulw	a5,a6,a5
    800006b0:	842a                	mv	s0,a0
    800006b2:	4685                	li	a3,1
    800006b4:	9fb9                	addw	a5,a5,a4
    800006b6:	bf85                	j	80000626 <_vfiprintf_r+0x1a6>
    800006b8:	0038                	addi	a4,sp,8
    800006ba:	00000697          	auipc	a3,0x0
    800006be:	d5e68693          	addi	a3,a3,-674 # 80000418 <__sfputs_r>
    800006c2:	864a                	mv	a2,s2
    800006c4:	080c                	addi	a1,sp,16
    800006c6:	8552                	mv	a0,s4
    800006c8:	00000097          	auipc	ra,0x0
    800006cc:	000000e7          	jalr	zero # 0 <__boot_hart>
    800006d0:	89aa                	mv	s3,a0
    800006d2:	fd5518e3          	bne	a0,s5,800006a2 <_vfiprintf_r+0x222>
    800006d6:	01095783          	lhu	a5,16(s2)
    800006da:	0407f793          	andi	a5,a5,64
    800006de:	ea0798e3          	bnez	a5,8000058e <_vfiprintf_r+0x10e>
    800006e2:	5512                	lw	a0,36(sp)
    800006e4:	b575                	j	80000590 <_vfiprintf_r+0x110>
    800006e6:	0038                	addi	a4,sp,8
    800006e8:	00000697          	auipc	a3,0x0
    800006ec:	d3068693          	addi	a3,a3,-720 # 80000418 <__sfputs_r>
    800006f0:	864a                	mv	a2,s2
    800006f2:	080c                	addi	a1,sp,16
    800006f4:	8552                	mv	a0,s4
    800006f6:	134000ef          	jal	8000082a <_printf_i>
    800006fa:	bfd9                	j	800006d0 <_vfiprintf_r+0x250>

00000000800006fc <vfiprintf>:
    800006fc:	86b2                	mv	a3,a2
    800006fe:	862e                	mv	a2,a1
    80000700:	85aa                	mv	a1,a0
    80000702:	00002517          	auipc	a0,0x2
    80000706:	87653503          	ld	a0,-1930(a0) # 80001f78 <_impure_ptr>
    8000070a:	bb9d                	j	80000480 <_vfiprintf_r>

000000008000070c <_printf_common>:
    8000070c:	715d                	addi	sp,sp,-80
    8000070e:	f052                	sd	s4,32(sp)
    80000710:	ec56                	sd	s5,24(sp)
    80000712:	8a36                	mv	s4,a3
    80000714:	8aba                	mv	s5,a4
    80000716:	4994                	lw	a3,16(a1)
    80000718:	4598                	lw	a4,8(a1)
    8000071a:	e0a2                	sd	s0,64(sp)
    8000071c:	f84a                	sd	s2,48(sp)
    8000071e:	f44e                	sd	s3,40(sp)
    80000720:	e486                	sd	ra,72(sp)
    80000722:	fc26                	sd	s1,56(sp)
    80000724:	e85a                	sd	s6,16(sp)
    80000726:	e45e                	sd	s7,8(sp)
    80000728:	89aa                	mv	s3,a0
    8000072a:	842e                	mv	s0,a1
    8000072c:	8932                	mv	s2,a2
    8000072e:	87ba                	mv	a5,a4
    80000730:	00e6c363          	blt	a3,a4,80000736 <_printf_common+0x2a>
    80000734:	87b6                	mv	a5,a3
    80000736:	00f92023          	sw	a5,0(s2)
    8000073a:	04344703          	lbu	a4,67(s0)
    8000073e:	c701                	beqz	a4,80000746 <_printf_common+0x3a>
    80000740:	2785                	addiw	a5,a5,1
    80000742:	00f92023          	sw	a5,0(s2)
    80000746:	401c                	lw	a5,0(s0)
    80000748:	0207f793          	andi	a5,a5,32
    8000074c:	c791                	beqz	a5,80000758 <_printf_common+0x4c>
    8000074e:	00092783          	lw	a5,0(s2)
    80000752:	2789                	addiw	a5,a5,2
    80000754:	00f92023          	sw	a5,0(s2)
    80000758:	4004                	lw	s1,0(s0)
    8000075a:	8899                	andi	s1,s1,6
    8000075c:	e891                	bnez	s1,80000770 <_printf_common+0x64>
    8000075e:	01940b13          	addi	s6,s0,25
    80000762:	5bfd                	li	s7,-1
    80000764:	445c                	lw	a5,12(s0)
    80000766:	00092703          	lw	a4,0(s2)
    8000076a:	9f99                	subw	a5,a5,a4
    8000076c:	06f4c063          	blt	s1,a5,800007cc <_printf_common+0xc0>
    80000770:	04344783          	lbu	a5,67(s0)
    80000774:	00f03633          	snez	a2,a5
    80000778:	00f036b3          	snez	a3,a5
    8000077c:	401c                	lw	a5,0(s0)
    8000077e:	0207f793          	andi	a5,a5,32
    80000782:	ebb5                	bnez	a5,800007f6 <_printf_common+0xea>
    80000784:	04340613          	addi	a2,s0,67
    80000788:	85d2                	mv	a1,s4
    8000078a:	854e                	mv	a0,s3
    8000078c:	9a82                	jalr	s5
    8000078e:	57fd                	li	a5,-1
    80000790:	04f50563          	beq	a0,a5,800007da <_printf_common+0xce>
    80000794:	401c                	lw	a5,0(s0)
    80000796:	4711                	li	a4,4
    80000798:	4481                	li	s1,0
    8000079a:	8b99                	andi	a5,a5,6
    8000079c:	00e79b63          	bne	a5,a4,800007b2 <_printf_common+0xa6>
    800007a0:	00092783          	lw	a5,0(s2)
    800007a4:	4444                	lw	s1,12(s0)
    800007a6:	9c9d                	subw	s1,s1,a5
    800007a8:	02049793          	slli	a5,s1,0x20
    800007ac:	0007d363          	bgez	a5,800007b2 <_printf_common+0xa6>
    800007b0:	4481                	li	s1,0
    800007b2:	441c                	lw	a5,8(s0)
    800007b4:	4818                	lw	a4,16(s0)
    800007b6:	00f75463          	bge	a4,a5,800007be <_printf_common+0xb2>
    800007ba:	9f99                	subw	a5,a5,a4
    800007bc:	9cbd                	addw	s1,s1,a5
    800007be:	4901                	li	s2,0
    800007c0:	0469                	addi	s0,s0,26
    800007c2:	5b7d                	li	s6,-1
    800007c4:	05249a63          	bne	s1,s2,80000818 <_printf_common+0x10c>
    800007c8:	4501                	li	a0,0
    800007ca:	a809                	j	800007dc <_printf_common+0xd0>
    800007cc:	4685                	li	a3,1
    800007ce:	865a                	mv	a2,s6
    800007d0:	85d2                	mv	a1,s4
    800007d2:	854e                	mv	a0,s3
    800007d4:	9a82                	jalr	s5
    800007d6:	01751e63          	bne	a0,s7,800007f2 <_printf_common+0xe6>
    800007da:	557d                	li	a0,-1
    800007dc:	60a6                	ld	ra,72(sp)
    800007de:	6406                	ld	s0,64(sp)
    800007e0:	74e2                	ld	s1,56(sp)
    800007e2:	7942                	ld	s2,48(sp)
    800007e4:	79a2                	ld	s3,40(sp)
    800007e6:	7a02                	ld	s4,32(sp)
    800007e8:	6ae2                	ld	s5,24(sp)
    800007ea:	6b42                	ld	s6,16(sp)
    800007ec:	6ba2                	ld	s7,8(sp)
    800007ee:	6161                	addi	sp,sp,80
    800007f0:	8082                	ret
    800007f2:	2485                	addiw	s1,s1,1
    800007f4:	bf85                	j	80000764 <_printf_common+0x58>
    800007f6:	00d407b3          	add	a5,s0,a3
    800007fa:	03000693          	li	a3,48
    800007fe:	04d781a3          	sb	a3,67(a5)
    80000802:	0016071b          	addiw	a4,a2,1
    80000806:	0026069b          	addiw	a3,a2,2
    8000080a:	04544603          	lbu	a2,69(s0)
    8000080e:	00e407b3          	add	a5,s0,a4
    80000812:	04c781a3          	sb	a2,67(a5)
    80000816:	b7bd                	j	80000784 <_printf_common+0x78>
    80000818:	4685                	li	a3,1
    8000081a:	8622                	mv	a2,s0
    8000081c:	85d2                	mv	a1,s4
    8000081e:	854e                	mv	a0,s3
    80000820:	9a82                	jalr	s5
    80000822:	fb650ce3          	beq	a0,s6,800007da <_printf_common+0xce>
    80000826:	2905                	addiw	s2,s2,1
    80000828:	bf71                	j	800007c4 <_printf_common+0xb8>

000000008000082a <_printf_i>:
    8000082a:	715d                	addi	sp,sp,-80
    8000082c:	e0a2                	sd	s0,64(sp)
    8000082e:	f84a                	sd	s2,48(sp)
    80000830:	f44e                	sd	s3,40(sp)
    80000832:	f052                	sd	s4,32(sp)
    80000834:	e486                	sd	ra,72(sp)
    80000836:	fc26                	sd	s1,56(sp)
    80000838:	ec56                	sd	s5,24(sp)
    8000083a:	e85a                	sd	s6,16(sp)
    8000083c:	0185c803          	lbu	a6,24(a1)
    80000840:	07800793          	li	a5,120
    80000844:	892a                	mv	s2,a0
    80000846:	842e                	mv	s0,a1
    80000848:	89b2                	mv	s3,a2
    8000084a:	8a36                	mv	s4,a3
    8000084c:	0307e263          	bltu	a5,a6,80000870 <_printf_i+0x46>
    80000850:	06200793          	li	a5,98
    80000854:	04358693          	addi	a3,a1,67
    80000858:	0307e163          	bltu	a5,a6,8000087a <_printf_i+0x50>
    8000085c:	1c080663          	beqz	a6,80000a28 <_printf_i+0x1fe>
    80000860:	05800793          	li	a5,88
    80000864:	00001617          	auipc	a2,0x1
    80000868:	55c60613          	addi	a2,a2,1372 # 80001dc0 <__tbss_end+0x68>
    8000086c:	14f80a63          	beq	a6,a5,800009c0 <_printf_i+0x196>
    80000870:	04240493          	addi	s1,s0,66
    80000874:	05040123          	sb	a6,66(s0)
    80000878:	a815                	j	800008ac <_printf_i+0x82>
    8000087a:	f9d8079b          	addiw	a5,a6,-99
    8000087e:	0ff7f793          	zext.b	a5,a5
    80000882:	4655                	li	a2,21
    80000884:	fef666e3          	bltu	a2,a5,80000870 <_printf_i+0x46>
    80000888:	00001617          	auipc	a2,0x1
    8000088c:	59060613          	addi	a2,a2,1424 # 80001e18 <CSWTCH.9+0x28>
    80000890:	078a                	slli	a5,a5,0x2
    80000892:	97b2                	add	a5,a5,a2
    80000894:	439c                	lw	a5,0(a5)
    80000896:	97b2                	add	a5,a5,a2
    80000898:	8782                	jr	a5
    8000089a:	631c                	ld	a5,0(a4)
    8000089c:	04258493          	addi	s1,a1,66
    800008a0:	00878693          	addi	a3,a5,8
    800008a4:	439c                	lw	a5,0(a5)
    800008a6:	e314                	sd	a3,0(a4)
    800008a8:	04f58123          	sb	a5,66(a1)
    800008ac:	4785                	li	a5,1
    800008ae:	aa4d                	j	80000a60 <_printf_i+0x236>
    800008b0:	419c                	lw	a5,0(a1)
    800008b2:	6308                	ld	a0,0(a4)
    800008b4:	0807f613          	andi	a2,a5,128
    800008b8:	00850593          	addi	a1,a0,8
    800008bc:	c20d                	beqz	a2,800008de <_printf_i+0xb4>
    800008be:	611c                	ld	a5,0(a0)
    800008c0:	e30c                	sd	a1,0(a4)
    800008c2:	0007d863          	bgez	a5,800008d2 <_printf_i+0xa8>
    800008c6:	02d00713          	li	a4,45
    800008ca:	40f007b3          	neg	a5,a5
    800008ce:	04e401a3          	sb	a4,67(s0)
    800008d2:	00001617          	auipc	a2,0x1
    800008d6:	4ee60613          	addi	a2,a2,1262 # 80001dc0 <__tbss_end+0x68>
    800008da:	4829                	li	a6,10
    800008dc:	a83d                	j	8000091a <_printf_i+0xf0>
    800008de:	0407f613          	andi	a2,a5,64
    800008e2:	411c                	lw	a5,0(a0)
    800008e4:	e30c                	sd	a1,0(a4)
    800008e6:	de71                	beqz	a2,800008c2 <_printf_i+0x98>
    800008e8:	0107979b          	slliw	a5,a5,0x10
    800008ec:	4107d79b          	sraiw	a5,a5,0x10
    800008f0:	bfc9                	j	800008c2 <_printf_i+0x98>
    800008f2:	4190                	lw	a2,0(a1)
    800008f4:	631c                	ld	a5,0(a4)
    800008f6:	08067513          	andi	a0,a2,128
    800008fa:	00878593          	addi	a1,a5,8
    800008fe:	cd41                	beqz	a0,80000996 <_printf_i+0x16c>
    80000900:	639c                	ld	a5,0(a5)
    80000902:	e30c                	sd	a1,0(a4)
    80000904:	06f00713          	li	a4,111
    80000908:	00001617          	auipc	a2,0x1
    8000090c:	4b860613          	addi	a2,a2,1208 # 80001dc0 <__tbss_end+0x68>
    80000910:	0ee81e63          	bne	a6,a4,80000a0c <_printf_i+0x1e2>
    80000914:	4821                	li	a6,8
    80000916:	040401a3          	sb	zero,67(s0)
    8000091a:	4058                	lw	a4,4(s0)
    8000091c:	c418                	sw	a4,8(s0)
    8000091e:	00074563          	bltz	a4,80000928 <_printf_i+0xfe>
    80000922:	400c                	lw	a1,0(s0)
    80000924:	99ed                	andi	a1,a1,-5
    80000926:	c00c                	sw	a1,0(s0)
    80000928:	e399                	bnez	a5,8000092e <_printf_i+0x104>
    8000092a:	84b6                	mv	s1,a3
    8000092c:	cf19                	beqz	a4,8000094a <_printf_i+0x120>
    8000092e:	84b6                	mv	s1,a3
    80000930:	0307f733          	remu	a4,a5,a6
    80000934:	14fd                	addi	s1,s1,-1
    80000936:	9732                	add	a4,a4,a2
    80000938:	00074703          	lbu	a4,0(a4)
    8000093c:	00e48023          	sb	a4,0(s1)
    80000940:	873e                	mv	a4,a5
    80000942:	0307d7b3          	divu	a5,a5,a6
    80000946:	ff0775e3          	bgeu	a4,a6,80000930 <_printf_i+0x106>
    8000094a:	47a1                	li	a5,8
    8000094c:	00f81e63          	bne	a6,a5,80000968 <_printf_i+0x13e>
    80000950:	401c                	lw	a5,0(s0)
    80000952:	8b85                	andi	a5,a5,1
    80000954:	cb91                	beqz	a5,80000968 <_printf_i+0x13e>
    80000956:	4058                	lw	a4,4(s0)
    80000958:	481c                	lw	a5,16(s0)
    8000095a:	00e7c763          	blt	a5,a4,80000968 <_printf_i+0x13e>
    8000095e:	03000793          	li	a5,48
    80000962:	fef48fa3          	sb	a5,-1(s1)
    80000966:	14fd                	addi	s1,s1,-1
    80000968:	8e85                	sub	a3,a3,s1
    8000096a:	c814                	sw	a3,16(s0)
    8000096c:	8752                	mv	a4,s4
    8000096e:	86ce                	mv	a3,s3
    80000970:	0070                	addi	a2,sp,12
    80000972:	85a2                	mv	a1,s0
    80000974:	854a                	mv	a0,s2
    80000976:	d97ff0ef          	jal	8000070c <_printf_common>
    8000097a:	5afd                	li	s5,-1
    8000097c:	0f551663          	bne	a0,s5,80000a68 <_printf_i+0x23e>
    80000980:	557d                	li	a0,-1
    80000982:	60a6                	ld	ra,72(sp)
    80000984:	6406                	ld	s0,64(sp)
    80000986:	74e2                	ld	s1,56(sp)
    80000988:	7942                	ld	s2,48(sp)
    8000098a:	79a2                	ld	s3,40(sp)
    8000098c:	7a02                	ld	s4,32(sp)
    8000098e:	6ae2                	ld	s5,24(sp)
    80000990:	6b42                	ld	s6,16(sp)
    80000992:	6161                	addi	sp,sp,80
    80000994:	8082                	ret
    80000996:	439c                	lw	a5,0(a5)
    80000998:	04067613          	andi	a2,a2,64
    8000099c:	e30c                	sd	a1,0(a4)
    8000099e:	c601                	beqz	a2,800009a6 <_printf_i+0x17c>
    800009a0:	17c2                	slli	a5,a5,0x30
    800009a2:	93c1                	srli	a5,a5,0x30
    800009a4:	b785                	j	80000904 <_printf_i+0xda>
    800009a6:	1782                	slli	a5,a5,0x20
    800009a8:	9381                	srli	a5,a5,0x20
    800009aa:	bfa9                	j	80000904 <_printf_i+0xda>
    800009ac:	419c                	lw	a5,0(a1)
    800009ae:	0a07e793          	ori	a5,a5,160
    800009b2:	c19c                	sw	a5,0(a1)
    800009b4:	07800813          	li	a6,120
    800009b8:	00001617          	auipc	a2,0x1
    800009bc:	42060613          	addi	a2,a2,1056 # 80001dd8 <__tbss_end+0x80>
    800009c0:	050402a3          	sb	a6,69(s0)
    800009c4:	400c                	lw	a1,0(s0)
    800009c6:	631c                	ld	a5,0(a4)
    800009c8:	0805f813          	andi	a6,a1,128
    800009cc:	00878513          	addi	a0,a5,8
    800009d0:	00080d63          	beqz	a6,800009ea <_printf_i+0x1c0>
    800009d4:	639c                	ld	a5,0(a5)
    800009d6:	e308                	sd	a0,0(a4)
    800009d8:	0015f713          	andi	a4,a1,1
    800009dc:	c701                	beqz	a4,800009e4 <_printf_i+0x1ba>
    800009de:	0205e593          	ori	a1,a1,32
    800009e2:	c00c                	sw	a1,0(s0)
    800009e4:	cf99                	beqz	a5,80000a02 <_printf_i+0x1d8>
    800009e6:	4841                	li	a6,16
    800009e8:	b73d                	j	80000916 <_printf_i+0xec>
    800009ea:	439c                	lw	a5,0(a5)
    800009ec:	0405f813          	andi	a6,a1,64
    800009f0:	e308                	sd	a0,0(a4)
    800009f2:	00080563          	beqz	a6,800009fc <_printf_i+0x1d2>
    800009f6:	17c2                	slli	a5,a5,0x30
    800009f8:	93c1                	srli	a5,a5,0x30
    800009fa:	bff9                	j	800009d8 <_printf_i+0x1ae>
    800009fc:	1782                	slli	a5,a5,0x20
    800009fe:	9381                	srli	a5,a5,0x20
    80000a00:	bfe1                	j	800009d8 <_printf_i+0x1ae>
    80000a02:	4018                	lw	a4,0(s0)
    80000a04:	fdf77713          	andi	a4,a4,-33
    80000a08:	c018                	sw	a4,0(s0)
    80000a0a:	bff1                	j	800009e6 <_printf_i+0x1bc>
    80000a0c:	4829                	li	a6,10
    80000a0e:	b721                	j	80000916 <_printf_i+0xec>
    80000a10:	4190                	lw	a2,0(a1)
    80000a12:	631c                	ld	a5,0(a4)
    80000a14:	49cc                	lw	a1,20(a1)
    80000a16:	08067813          	andi	a6,a2,128
    80000a1a:	00878513          	addi	a0,a5,8
    80000a1e:	00080963          	beqz	a6,80000a30 <_printf_i+0x206>
    80000a22:	e308                	sd	a0,0(a4)
    80000a24:	639c                	ld	a5,0(a5)
    80000a26:	e38c                	sd	a1,0(a5)
    80000a28:	00042823          	sw	zero,16(s0)
    80000a2c:	84b6                	mv	s1,a3
    80000a2e:	bf3d                	j	8000096c <_printf_i+0x142>
    80000a30:	e308                	sd	a0,0(a4)
    80000a32:	04067613          	andi	a2,a2,64
    80000a36:	639c                	ld	a5,0(a5)
    80000a38:	c601                	beqz	a2,80000a40 <_printf_i+0x216>
    80000a3a:	00b79023          	sh	a1,0(a5)
    80000a3e:	b7ed                	j	80000a28 <_printf_i+0x1fe>
    80000a40:	c38c                	sw	a1,0(a5)
    80000a42:	b7dd                	j	80000a28 <_printf_i+0x1fe>
    80000a44:	631c                	ld	a5,0(a4)
    80000a46:	41d0                	lw	a2,4(a1)
    80000a48:	4581                	li	a1,0
    80000a4a:	00878693          	addi	a3,a5,8
    80000a4e:	e314                	sd	a3,0(a4)
    80000a50:	6384                	ld	s1,0(a5)
    80000a52:	8526                	mv	a0,s1
    80000a54:	7e8000ef          	jal	8000123c <memchr>
    80000a58:	c119                	beqz	a0,80000a5e <_printf_i+0x234>
    80000a5a:	8d05                	sub	a0,a0,s1
    80000a5c:	c048                	sw	a0,4(s0)
    80000a5e:	405c                	lw	a5,4(s0)
    80000a60:	c81c                	sw	a5,16(s0)
    80000a62:	040401a3          	sb	zero,67(s0)
    80000a66:	b719                	j	8000096c <_printf_i+0x142>
    80000a68:	4814                	lw	a3,16(s0)
    80000a6a:	8626                	mv	a2,s1
    80000a6c:	85ce                	mv	a1,s3
    80000a6e:	854a                	mv	a0,s2
    80000a70:	9a02                	jalr	s4
    80000a72:	f15507e3          	beq	a0,s5,80000980 <_printf_i+0x156>
    80000a76:	401c                	lw	a5,0(s0)
    80000a78:	8b89                	andi	a5,a5,2
    80000a7a:	eb85                	bnez	a5,80000aaa <_printf_i+0x280>
    80000a7c:	4458                	lw	a4,12(s0)
    80000a7e:	47b2                	lw	a5,12(sp)
    80000a80:	0007051b          	sext.w	a0,a4
    80000a84:	eef75fe3          	bge	a4,a5,80000982 <_printf_i+0x158>
    80000a88:	0007851b          	sext.w	a0,a5
    80000a8c:	bddd                	j	80000982 <_printf_i+0x158>
    80000a8e:	4685                	li	a3,1
    80000a90:	8656                	mv	a2,s5
    80000a92:	85ce                	mv	a1,s3
    80000a94:	854a                	mv	a0,s2
    80000a96:	9a02                	jalr	s4
    80000a98:	ef6504e3          	beq	a0,s6,80000980 <_printf_i+0x156>
    80000a9c:	2485                	addiw	s1,s1,1
    80000a9e:	445c                	lw	a5,12(s0)
    80000aa0:	4732                	lw	a4,12(sp)
    80000aa2:	9f99                	subw	a5,a5,a4
    80000aa4:	fef4c5e3          	blt	s1,a5,80000a8e <_printf_i+0x264>
    80000aa8:	bfd1                	j	80000a7c <_printf_i+0x252>
    80000aaa:	4481                	li	s1,0
    80000aac:	01940a93          	addi	s5,s0,25
    80000ab0:	5b7d                	li	s6,-1
    80000ab2:	b7f5                	j	80000a9e <_printf_i+0x274>

0000000080000ab4 <__fp_lock>:
    80000ab4:	4501                	li	a0,0
    80000ab6:	8082                	ret

0000000080000ab8 <std>:
    80000ab8:	1141                	addi	sp,sp,-16
    80000aba:	e022                	sd	s0,0(sp)
    80000abc:	e406                	sd	ra,8(sp)
    80000abe:	842a                	mv	s0,a0
    80000ac0:	00b51823          	sh	a1,16(a0)
    80000ac4:	00c51923          	sh	a2,18(a0)
    80000ac8:	00053023          	sd	zero,0(a0)
    80000acc:	00053423          	sd	zero,8(a0)
    80000ad0:	0a052623          	sw	zero,172(a0)
    80000ad4:	00053c23          	sd	zero,24(a0)
    80000ad8:	02052023          	sw	zero,32(a0)
    80000adc:	02052423          	sw	zero,40(a0)
    80000ae0:	4621                	li	a2,8
    80000ae2:	4581                	li	a1,0
    80000ae4:	0a450513          	addi	a0,a0,164
    80000ae8:	111000ef          	jal	800013f8 <memset>
    80000aec:	00000797          	auipc	a5,0x0
    80000af0:	51478793          	addi	a5,a5,1300 # 80001000 <__sread>
    80000af4:	e03c                	sd	a5,64(s0)
    80000af6:	00000797          	auipc	a5,0x0
    80000afa:	54078793          	addi	a5,a5,1344 # 80001036 <__swrite>
    80000afe:	e43c                	sd	a5,72(s0)
    80000b00:	00000797          	auipc	a5,0x0
    80000b04:	58678793          	addi	a5,a5,1414 # 80001086 <__sseek>
    80000b08:	e83c                	sd	a5,80(s0)
    80000b0a:	00000797          	auipc	a5,0x0
    80000b0e:	5b478793          	addi	a5,a5,1460 # 800010be <__sclose>
    80000b12:	60a2                	ld	ra,8(sp)
    80000b14:	fc00                	sd	s0,56(s0)
    80000b16:	ec3c                	sd	a5,88(s0)
    80000b18:	6402                	ld	s0,0(sp)
    80000b1a:	0141                	addi	sp,sp,16
    80000b1c:	8082                	ret

0000000080000b1e <stdio_exit_handler>:
    80000b1e:	00001617          	auipc	a2,0x1
    80000b22:	44260613          	addi	a2,a2,1090 # 80001f60 <__sglue>
    80000b26:	00001597          	auipc	a1,0x1
    80000b2a:	ce458593          	addi	a1,a1,-796 # 8000180a <_fflush_r>
    80000b2e:	00001517          	auipc	a0,0x1
    80000b32:	3a250513          	addi	a0,a0,930 # 80001ed0 <_impure_data>
    80000b36:	a185                	j	80000f96 <_fwalk_sglue>

0000000080000b38 <cleanup_stdio>:
    80000b38:	650c                	ld	a1,8(a0)
    80000b3a:	1141                	addi	sp,sp,-16
    80000b3c:	e022                	sd	s0,0(sp)
    80000b3e:	e406                	sd	ra,8(sp)
    80000b40:	00001797          	auipc	a5,0x1
    80000b44:	49878793          	addi	a5,a5,1176 # 80001fd8 <__sf>
    80000b48:	842a                	mv	s0,a0
    80000b4a:	00f58463          	beq	a1,a5,80000b52 <cleanup_stdio+0x1a>
    80000b4e:	4bd000ef          	jal	8000180a <_fflush_r>
    80000b52:	680c                	ld	a1,16(s0)
    80000b54:	00001797          	auipc	a5,0x1
    80000b58:	53478793          	addi	a5,a5,1332 # 80002088 <__sf+0xb0>
    80000b5c:	00f58563          	beq	a1,a5,80000b66 <cleanup_stdio+0x2e>
    80000b60:	8522                	mv	a0,s0
    80000b62:	4a9000ef          	jal	8000180a <_fflush_r>
    80000b66:	6c0c                	ld	a1,24(s0)
    80000b68:	9c018793          	addi	a5,gp,-1600 # 80002138 <__sf+0x160>
    80000b6c:	00f58863          	beq	a1,a5,80000b7c <cleanup_stdio+0x44>
    80000b70:	8522                	mv	a0,s0
    80000b72:	6402                	ld	s0,0(sp)
    80000b74:	60a2                	ld	ra,8(sp)
    80000b76:	0141                	addi	sp,sp,16
    80000b78:	4930006f          	j	8000180a <_fflush_r>
    80000b7c:	60a2                	ld	ra,8(sp)
    80000b7e:	6402                	ld	s0,0(sp)
    80000b80:	0141                	addi	sp,sp,16
    80000b82:	8082                	ret

0000000080000b84 <global_stdio_init.part.0>:
    80000b84:	1141                	addi	sp,sp,-16
    80000b86:	00000797          	auipc	a5,0x0
    80000b8a:	f9878793          	addi	a5,a5,-104 # 80000b1e <stdio_exit_handler>
    80000b8e:	4601                	li	a2,0
    80000b90:	4591                	li	a1,4
    80000b92:	00001517          	auipc	a0,0x1
    80000b96:	44650513          	addi	a0,a0,1094 # 80001fd8 <__sf>
    80000b9a:	e406                	sd	ra,8(sp)
    80000b9c:	82f1b423          	sd	a5,-2008(gp) # 80001fa0 <__stdio_exit_handler>
    80000ba0:	f19ff0ef          	jal	80000ab8 <std>
    80000ba4:	4605                	li	a2,1
    80000ba6:	45a5                	li	a1,9
    80000ba8:	00001517          	auipc	a0,0x1
    80000bac:	4e050513          	addi	a0,a0,1248 # 80002088 <__sf+0xb0>
    80000bb0:	f09ff0ef          	jal	80000ab8 <std>
    80000bb4:	60a2                	ld	ra,8(sp)
    80000bb6:	4609                	li	a2,2
    80000bb8:	45c9                	li	a1,18
    80000bba:	9c018513          	addi	a0,gp,-1600 # 80002138 <__sf+0x160>
    80000bbe:	0141                	addi	sp,sp,16
    80000bc0:	bde5                	j	80000ab8 <std>

0000000080000bc2 <__fp_unlock>:
    80000bc2:	4501                	li	a0,0
    80000bc4:	8082                	ret

0000000080000bc6 <__sfp>:
    80000bc6:	1101                	addi	sp,sp,-32
    80000bc8:	e04a                	sd	s2,0(sp)
    80000bca:	ec06                	sd	ra,24(sp)
    80000bcc:	e822                	sd	s0,16(sp)
    80000bce:	e426                	sd	s1,8(sp)
    80000bd0:	8281b783          	ld	a5,-2008(gp) # 80001fa0 <__stdio_exit_handler>
    80000bd4:	892a                	mv	s2,a0
    80000bd6:	e399                	bnez	a5,80000bdc <__sfp+0x16>
    80000bd8:	fadff0ef          	jal	80000b84 <global_stdio_init.part.0>
    80000bdc:	00001497          	auipc	s1,0x1
    80000be0:	38448493          	addi	s1,s1,900 # 80001f60 <__sglue>
    80000be4:	6880                	ld	s0,16(s1)
    80000be6:	449c                	lw	a5,8(s1)
    80000be8:	37fd                	addiw	a5,a5,-1
    80000bea:	0207d163          	bgez	a5,80000c0c <__sfp+0x46>
    80000bee:	609c                	ld	a5,0(s1)
    80000bf0:	e7c1                	bnez	a5,80000c78 <__sfp+0xb2>
    80000bf2:	2d800593          	li	a1,728
    80000bf6:	854a                	mv	a0,s2
    80000bf8:	121000ef          	jal	80001518 <_malloc_r>
    80000bfc:	842a                	mv	s0,a0
    80000bfe:	e12d                	bnez	a0,80000c60 <__sfp+0x9a>
    80000c00:	0004b023          	sd	zero,0(s1)
    80000c04:	47b1                	li	a5,12
    80000c06:	00f92023          	sw	a5,0(s2)
    80000c0a:	a089                	j	80000c4c <__sfp+0x86>
    80000c0c:	01041703          	lh	a4,16(s0)
    80000c10:	e729                	bnez	a4,80000c5a <__sfp+0x94>
    80000c12:	77c1                	lui	a5,0xffff0
    80000c14:	0785                	addi	a5,a5,1 # ffffffffffff0001 <__heap_end+0xffffffff7ffcd001>
    80000c16:	0a042623          	sw	zero,172(s0)
    80000c1a:	00043023          	sd	zero,0(s0)
    80000c1e:	00043423          	sd	zero,8(s0)
    80000c22:	c81c                	sw	a5,16(s0)
    80000c24:	00043c23          	sd	zero,24(s0)
    80000c28:	02042023          	sw	zero,32(s0)
    80000c2c:	02042423          	sw	zero,40(s0)
    80000c30:	4621                	li	a2,8
    80000c32:	4581                	li	a1,0
    80000c34:	0a440513          	addi	a0,s0,164
    80000c38:	7c0000ef          	jal	800013f8 <memset>
    80000c3c:	06043023          	sd	zero,96(s0)
    80000c40:	06042423          	sw	zero,104(s0)
    80000c44:	08043023          	sd	zero,128(s0)
    80000c48:	08042423          	sw	zero,136(s0)
    80000c4c:	60e2                	ld	ra,24(sp)
    80000c4e:	8522                	mv	a0,s0
    80000c50:	6442                	ld	s0,16(sp)
    80000c52:	64a2                	ld	s1,8(sp)
    80000c54:	6902                	ld	s2,0(sp)
    80000c56:	6105                	addi	sp,sp,32
    80000c58:	8082                	ret
    80000c5a:	0b040413          	addi	s0,s0,176
    80000c5e:	b769                	j	80000be8 <__sfp+0x22>
    80000c60:	4791                	li	a5,4
    80000c62:	00053023          	sd	zero,0(a0)
    80000c66:	c51c                	sw	a5,8(a0)
    80000c68:	0561                	addi	a0,a0,24
    80000c6a:	e808                	sd	a0,16(s0)
    80000c6c:	2c000613          	li	a2,704
    80000c70:	4581                	li	a1,0
    80000c72:	786000ef          	jal	800013f8 <memset>
    80000c76:	e080                	sd	s0,0(s1)
    80000c78:	6084                	ld	s1,0(s1)
    80000c7a:	b7ad                	j	80000be4 <__sfp+0x1e>

0000000080000c7c <__sinit>:
    80000c7c:	613c                	ld	a5,64(a0)
    80000c7e:	eb91                	bnez	a5,80000c92 <__sinit+0x16>
    80000c80:	00000797          	auipc	a5,0x0
    80000c84:	eb878793          	addi	a5,a5,-328 # 80000b38 <cleanup_stdio>
    80000c88:	e13c                	sd	a5,64(a0)
    80000c8a:	8281b783          	ld	a5,-2008(gp) # 80001fa0 <__stdio_exit_handler>
    80000c8e:	e391                	bnez	a5,80000c92 <__sinit+0x16>
    80000c90:	bdd5                	j	80000b84 <global_stdio_init.part.0>
    80000c92:	8082                	ret

0000000080000c94 <__sfp_lock_acquire>:
    80000c94:	8082                	ret

0000000080000c96 <__sfp_lock_release>:
    80000c96:	8082                	ret

0000000080000c98 <__fp_lock_all>:
    80000c98:	00001617          	auipc	a2,0x1
    80000c9c:	2c860613          	addi	a2,a2,712 # 80001f60 <__sglue>
    80000ca0:	00000597          	auipc	a1,0x0
    80000ca4:	e1458593          	addi	a1,a1,-492 # 80000ab4 <__fp_lock>
    80000ca8:	4501                	li	a0,0
    80000caa:	a4f5                	j	80000f96 <_fwalk_sglue>

0000000080000cac <__fp_unlock_all>:
    80000cac:	00001617          	auipc	a2,0x1
    80000cb0:	2b460613          	addi	a2,a2,692 # 80001f60 <__sglue>
    80000cb4:	00000597          	auipc	a1,0x0
    80000cb8:	f0e58593          	addi	a1,a1,-242 # 80000bc2 <__fp_unlock>
    80000cbc:	4501                	li	a0,0
    80000cbe:	ace1                	j	80000f96 <_fwalk_sglue>

0000000080000cc0 <__sfvwrite_r>:
    80000cc0:	6a1c                	ld	a5,16(a2)
    80000cc2:	e399                	bnez	a5,80000cc8 <__sfvwrite_r+0x8>
    80000cc4:	4501                	li	a0,0
    80000cc6:	8082                	ret
    80000cc8:	0105d783          	lhu	a5,16(a1)
    80000ccc:	7159                	addi	sp,sp,-112
    80000cce:	f0a2                	sd	s0,96(sp)
    80000cd0:	e8ca                	sd	s2,80(sp)
    80000cd2:	e0d2                	sd	s4,64(sp)
    80000cd4:	f486                	sd	ra,104(sp)
    80000cd6:	eca6                	sd	s1,88(sp)
    80000cd8:	e4ce                	sd	s3,72(sp)
    80000cda:	fc56                	sd	s5,56(sp)
    80000cdc:	f85a                	sd	s6,48(sp)
    80000cde:	f45e                	sd	s7,40(sp)
    80000ce0:	f062                	sd	s8,32(sp)
    80000ce2:	ec66                	sd	s9,24(sp)
    80000ce4:	e86a                	sd	s10,16(sp)
    80000ce6:	e46e                	sd	s11,8(sp)
    80000ce8:	8ba1                	andi	a5,a5,8
    80000cea:	892a                	mv	s2,a0
    80000cec:	842e                	mv	s0,a1
    80000cee:	8a32                	mv	s4,a2
    80000cf0:	cfc1                	beqz	a5,80000d88 <__sfvwrite_r+0xc8>
    80000cf2:	6d9c                	ld	a5,24(a1)
    80000cf4:	cbd1                	beqz	a5,80000d88 <__sfvwrite_r+0xc8>
    80000cf6:	01041783          	lh	a5,16(s0)
    80000cfa:	000a3983          	ld	s3,0(s4)
    80000cfe:	0027f713          	andi	a4,a5,2
    80000d02:	e765                	bnez	a4,80000dea <__sfvwrite_r+0x12a>
    80000d04:	8b85                	andi	a5,a5,1
    80000d06:	4a81                	li	s5,0
    80000d08:	16078063          	beqz	a5,80000e68 <__sfvwrite_r+0x1a8>
    80000d0c:	4501                	li	a0,0
    80000d0e:	4b81                	li	s7,0
    80000d10:	4b01                	li	s6,0
    80000d12:	240b0063          	beqz	s6,80000f52 <__sfvwrite_r+0x292>
    80000d16:	e919                	bnez	a0,80000d2c <__sfvwrite_r+0x6c>
    80000d18:	865a                	mv	a2,s6
    80000d1a:	45a9                	li	a1,10
    80000d1c:	855e                	mv	a0,s7
    80000d1e:	51e000ef          	jal	8000123c <memchr>
    80000d22:	22050f63          	beqz	a0,80000f60 <__sfvwrite_r+0x2a0>
    80000d26:	0505                	addi	a0,a0,1
    80000d28:	41750abb          	subw	s5,a0,s7
    80000d2c:	8c56                	mv	s8,s5
    80000d2e:	015b7363          	bgeu	s6,s5,80000d34 <__sfvwrite_r+0x74>
    80000d32:	8c5a                	mv	s8,s6
    80000d34:	6008                	ld	a0,0(s0)
    80000d36:	6c1c                	ld	a5,24(s0)
    80000d38:	4444                	lw	s1,12(s0)
    80000d3a:	5014                	lw	a3,32(s0)
    80000d3c:	22a7f563          	bgeu	a5,a0,80000f66 <__sfvwrite_r+0x2a6>
    80000d40:	9cb5                	addw	s1,s1,a3
    80000d42:	2384d263          	bge	s1,s8,80000f66 <__sfvwrite_r+0x2a6>
    80000d46:	85de                	mv	a1,s7
    80000d48:	8626                	mv	a2,s1
    80000d4a:	688000ef          	jal	800013d2 <memmove>
    80000d4e:	601c                	ld	a5,0(s0)
    80000d50:	85a2                	mv	a1,s0
    80000d52:	854a                	mv	a0,s2
    80000d54:	97a6                	add	a5,a5,s1
    80000d56:	e01c                	sd	a5,0(s0)
    80000d58:	2b3000ef          	jal	8000180a <_fflush_r>
    80000d5c:	0e051f63          	bnez	a0,80000e5a <__sfvwrite_r+0x19a>
    80000d60:	409a8abb          	subw	s5,s5,s1
    80000d64:	4505                	li	a0,1
    80000d66:	000a9763          	bnez	s5,80000d74 <__sfvwrite_r+0xb4>
    80000d6a:	85a2                	mv	a1,s0
    80000d6c:	854a                	mv	a0,s2
    80000d6e:	29d000ef          	jal	8000180a <_fflush_r>
    80000d72:	e565                	bnez	a0,80000e5a <__sfvwrite_r+0x19a>
    80000d74:	010a3783          	ld	a5,16(s4)
    80000d78:	9ba6                	add	s7,s7,s1
    80000d7a:	409b0b33          	sub	s6,s6,s1
    80000d7e:	8f85                	sub	a5,a5,s1
    80000d80:	00fa3823          	sd	a5,16(s4)
    80000d84:	f7d9                	bnez	a5,80000d12 <__sfvwrite_r+0x52>
    80000d86:	a091                	j	80000dca <__sfvwrite_r+0x10a>
    80000d88:	85a2                	mv	a1,s0
    80000d8a:	854a                	mv	a0,s2
    80000d8c:	3e2000ef          	jal	8000116e <__swsetup_r>
    80000d90:	d13d                	beqz	a0,80000cf6 <__sfvwrite_r+0x36>
    80000d92:	557d                	li	a0,-1
    80000d94:	a825                	j	80000dcc <__sfvwrite_r+0x10c>
    80000d96:	0009ba83          	ld	s5,0(s3)
    80000d9a:	0089b483          	ld	s1,8(s3)
    80000d9e:	09c1                	addi	s3,s3,16
    80000da0:	643c                	ld	a5,72(s0)
    80000da2:	7c0c                	ld	a1,56(s0)
    80000da4:	d8ed                	beqz	s1,80000d96 <__sfvwrite_r+0xd6>
    80000da6:	86a6                	mv	a3,s1
    80000da8:	009b7363          	bgeu	s6,s1,80000dae <__sfvwrite_r+0xee>
    80000dac:	86da                	mv	a3,s6
    80000dae:	2681                	sext.w	a3,a3
    80000db0:	8656                	mv	a2,s5
    80000db2:	854a                	mv	a0,s2
    80000db4:	9782                	jalr	a5
    80000db6:	0aa05263          	blez	a0,80000e5a <__sfvwrite_r+0x19a>
    80000dba:	010a3783          	ld	a5,16(s4)
    80000dbe:	9aaa                	add	s5,s5,a0
    80000dc0:	8c89                	sub	s1,s1,a0
    80000dc2:	8f89                	sub	a5,a5,a0
    80000dc4:	00fa3823          	sd	a5,16(s4)
    80000dc8:	ffe1                	bnez	a5,80000da0 <__sfvwrite_r+0xe0>
    80000dca:	4501                	li	a0,0
    80000dcc:	70a6                	ld	ra,104(sp)
    80000dce:	7406                	ld	s0,96(sp)
    80000dd0:	64e6                	ld	s1,88(sp)
    80000dd2:	6946                	ld	s2,80(sp)
    80000dd4:	69a6                	ld	s3,72(sp)
    80000dd6:	6a06                	ld	s4,64(sp)
    80000dd8:	7ae2                	ld	s5,56(sp)
    80000dda:	7b42                	ld	s6,48(sp)
    80000ddc:	7ba2                	ld	s7,40(sp)
    80000dde:	7c02                	ld	s8,32(sp)
    80000de0:	6ce2                	ld	s9,24(sp)
    80000de2:	6d42                	ld	s10,16(sp)
    80000de4:	6da2                	ld	s11,8(sp)
    80000de6:	6165                	addi	sp,sp,112
    80000de8:	8082                	ret
    80000dea:	80000b37          	lui	s6,0x80000
    80000dee:	4a81                	li	s5,0
    80000df0:	4481                	li	s1,0
    80000df2:	c00b4b13          	xori	s6,s6,-1024
    80000df6:	b76d                	j	80000da0 <__sfvwrite_r+0xe0>
    80000df8:	0009ba83          	ld	s5,0(s3)
    80000dfc:	0089bc83          	ld	s9,8(s3)
    80000e00:	09c1                	addi	s3,s3,16
    80000e02:	4444                	lw	s1,12(s0)
    80000e04:	01041783          	lh	a5,16(s0)
    80000e08:	6008                	ld	a0,0(s0)
    80000e0a:	8d26                	mv	s10,s1
    80000e0c:	fe0c86e3          	beqz	s9,80000df8 <__sfvwrite_r+0x138>
    80000e10:	2007f713          	andi	a4,a5,512
    80000e14:	c37d                	beqz	a4,80000efa <__sfvwrite_r+0x23a>
    80000e16:	089ce763          	bltu	s9,s1,80000ea4 <__sfvwrite_r+0x1e4>
    80000e1a:	4807f713          	andi	a4,a5,1152
    80000e1e:	c359                	beqz	a4,80000ea4 <__sfvwrite_r+0x1e4>
    80000e20:	5004                	lw	s1,32(s0)
    80000e22:	6c0c                	ld	a1,24(s0)
    80000e24:	029b84bb          	mulw	s1,s7,s1
    80000e28:	8d0d                	sub	a0,a0,a1
    80000e2a:	00050d9b          	sext.w	s11,a0
    80000e2e:	001d8713          	addi	a4,s11,1
    80000e32:	9766                	add	a4,a4,s9
    80000e34:	0384c4bb          	divw	s1,s1,s8
    80000e38:	00e4f563          	bgeu	s1,a4,80000e42 <__sfvwrite_r+0x182>
    80000e3c:	2505                	addiw	a0,a0,1
    80000e3e:	019504bb          	addw	s1,a0,s9
    80000e42:	4007f793          	andi	a5,a5,1024
    80000e46:	cbc9                	beqz	a5,80000ed8 <__sfvwrite_r+0x218>
    80000e48:	85a6                	mv	a1,s1
    80000e4a:	854a                	mv	a0,s2
    80000e4c:	6cc000ef          	jal	80001518 <_malloc_r>
    80000e50:	8d2a                	mv	s10,a0
    80000e52:	e11d                	bnez	a0,80000e78 <__sfvwrite_r+0x1b8>
    80000e54:	47b1                	li	a5,12
    80000e56:	00f92023          	sw	a5,0(s2)
    80000e5a:	01045783          	lhu	a5,16(s0)
    80000e5e:	0407e793          	ori	a5,a5,64
    80000e62:	00f41823          	sh	a5,16(s0)
    80000e66:	b735                	j	80000d92 <__sfvwrite_r+0xd2>
    80000e68:	80000b37          	lui	s6,0x80000
    80000e6c:	4c81                	li	s9,0
    80000e6e:	fffb4b13          	not	s6,s6
    80000e72:	4b8d                	li	s7,3
    80000e74:	4c09                	li	s8,2
    80000e76:	b771                	j	80000e02 <__sfvwrite_r+0x142>
    80000e78:	6c0c                	ld	a1,24(s0)
    80000e7a:	866e                	mv	a2,s11
    80000e7c:	58c000ef          	jal	80001408 <memcpy>
    80000e80:	01045783          	lhu	a5,16(s0)
    80000e84:	b7f7f793          	andi	a5,a5,-1153
    80000e88:	0807e793          	ori	a5,a5,128
    80000e8c:	00f41823          	sh	a5,16(s0)
    80000e90:	01a43c23          	sd	s10,24(s0)
    80000e94:	d004                	sw	s1,32(s0)
    80000e96:	9d6e                	add	s10,s10,s11
    80000e98:	41b484bb          	subw	s1,s1,s11
    80000e9c:	01a43023          	sd	s10,0(s0)
    80000ea0:	c444                	sw	s1,12(s0)
    80000ea2:	8d66                	mv	s10,s9
    80000ea4:	84e6                	mv	s1,s9
    80000ea6:	01acf363          	bgeu	s9,s10,80000eac <__sfvwrite_r+0x1ec>
    80000eaa:	8d66                	mv	s10,s9
    80000eac:	6008                	ld	a0,0(s0)
    80000eae:	866a                	mv	a2,s10
    80000eb0:	85d6                	mv	a1,s5
    80000eb2:	520000ef          	jal	800013d2 <memmove>
    80000eb6:	445c                	lw	a5,12(s0)
    80000eb8:	41a787bb          	subw	a5,a5,s10
    80000ebc:	c45c                	sw	a5,12(s0)
    80000ebe:	601c                	ld	a5,0(s0)
    80000ec0:	97ea                	add	a5,a5,s10
    80000ec2:	e01c                	sd	a5,0(s0)
    80000ec4:	010a3783          	ld	a5,16(s4)
    80000ec8:	9aa6                	add	s5,s5,s1
    80000eca:	409c8cb3          	sub	s9,s9,s1
    80000ece:	8f85                	sub	a5,a5,s1
    80000ed0:	00fa3823          	sd	a5,16(s4)
    80000ed4:	f79d                	bnez	a5,80000e02 <__sfvwrite_r+0x142>
    80000ed6:	bdd5                	j	80000dca <__sfvwrite_r+0x10a>
    80000ed8:	8626                	mv	a2,s1
    80000eda:	854a                	mv	a0,s2
    80000edc:	770000ef          	jal	8000164c <_realloc_r>
    80000ee0:	8d2a                	mv	s10,a0
    80000ee2:	f55d                	bnez	a0,80000e90 <__sfvwrite_r+0x1d0>
    80000ee4:	6c0c                	ld	a1,24(s0)
    80000ee6:	854a                	mv	a0,s2
    80000ee8:	536000ef          	jal	8000141e <_free_r>
    80000eec:	01045783          	lhu	a5,16(s0)
    80000ef0:	f7f7f793          	andi	a5,a5,-129
    80000ef4:	00f41823          	sh	a5,16(s0)
    80000ef8:	bfb1                	j	80000e54 <__sfvwrite_r+0x194>
    80000efa:	6c1c                	ld	a5,24(s0)
    80000efc:	00a7e563          	bltu	a5,a0,80000f06 <__sfvwrite_r+0x246>
    80000f00:	5014                	lw	a3,32(s0)
    80000f02:	02dcf763          	bgeu	s9,a3,80000f30 <__sfvwrite_r+0x270>
    80000f06:	009cf363          	bgeu	s9,s1,80000f0c <__sfvwrite_r+0x24c>
    80000f0a:	84e6                	mv	s1,s9
    80000f0c:	8626                	mv	a2,s1
    80000f0e:	85d6                	mv	a1,s5
    80000f10:	4c2000ef          	jal	800013d2 <memmove>
    80000f14:	445c                	lw	a5,12(s0)
    80000f16:	4097873b          	subw	a4,a5,s1
    80000f1a:	601c                	ld	a5,0(s0)
    80000f1c:	c458                	sw	a4,12(s0)
    80000f1e:	97a6                	add	a5,a5,s1
    80000f20:	e01c                	sd	a5,0(s0)
    80000f22:	f34d                	bnez	a4,80000ec4 <__sfvwrite_r+0x204>
    80000f24:	85a2                	mv	a1,s0
    80000f26:	854a                	mv	a0,s2
    80000f28:	0e3000ef          	jal	8000180a <_fflush_r>
    80000f2c:	dd41                	beqz	a0,80000ec4 <__sfvwrite_r+0x204>
    80000f2e:	b735                	j	80000e5a <__sfvwrite_r+0x19a>
    80000f30:	87e6                	mv	a5,s9
    80000f32:	019b7363          	bgeu	s6,s9,80000f38 <__sfvwrite_r+0x278>
    80000f36:	87da                	mv	a5,s6
    80000f38:	02d7c7bb          	divw	a5,a5,a3
    80000f3c:	6438                	ld	a4,72(s0)
    80000f3e:	7c0c                	ld	a1,56(s0)
    80000f40:	8656                	mv	a2,s5
    80000f42:	854a                	mv	a0,s2
    80000f44:	02d786bb          	mulw	a3,a5,a3
    80000f48:	9702                	jalr	a4
    80000f4a:	84aa                	mv	s1,a0
    80000f4c:	f6a04ce3          	bgtz	a0,80000ec4 <__sfvwrite_r+0x204>
    80000f50:	b729                	j	80000e5a <__sfvwrite_r+0x19a>
    80000f52:	0009bb83          	ld	s7,0(s3)
    80000f56:	0089bb03          	ld	s6,8(s3)
    80000f5a:	4501                	li	a0,0
    80000f5c:	09c1                	addi	s3,s3,16
    80000f5e:	bb55                	j	80000d12 <__sfvwrite_r+0x52>
    80000f60:	001b0a9b          	addiw	s5,s6,1 # ffffffff80000001 <__heap_end+0xfffffffefffdd001>
    80000f64:	b3e1                	j	80000d2c <__sfvwrite_r+0x6c>
    80000f66:	00dc4b63          	blt	s8,a3,80000f7c <__sfvwrite_r+0x2bc>
    80000f6a:	643c                	ld	a5,72(s0)
    80000f6c:	7c0c                	ld	a1,56(s0)
    80000f6e:	865e                	mv	a2,s7
    80000f70:	854a                	mv	a0,s2
    80000f72:	9782                	jalr	a5
    80000f74:	84aa                	mv	s1,a0
    80000f76:	dea045e3          	bgtz	a0,80000d60 <__sfvwrite_r+0xa0>
    80000f7a:	b5c5                	j	80000e5a <__sfvwrite_r+0x19a>
    80000f7c:	8662                	mv	a2,s8
    80000f7e:	85de                	mv	a1,s7
    80000f80:	452000ef          	jal	800013d2 <memmove>
    80000f84:	445c                	lw	a5,12(s0)
    80000f86:	84e2                	mv	s1,s8
    80000f88:	418787bb          	subw	a5,a5,s8
    80000f8c:	c45c                	sw	a5,12(s0)
    80000f8e:	601c                	ld	a5,0(s0)
    80000f90:	97e2                	add	a5,a5,s8
    80000f92:	e01c                	sd	a5,0(s0)
    80000f94:	b3f1                	j	80000d60 <__sfvwrite_r+0xa0>

0000000080000f96 <_fwalk_sglue>:
    80000f96:	715d                	addi	sp,sp,-80
    80000f98:	e0a2                	sd	s0,64(sp)
    80000f9a:	fc26                	sd	s1,56(sp)
    80000f9c:	f44e                	sd	s3,40(sp)
    80000f9e:	f052                	sd	s4,32(sp)
    80000fa0:	e85a                	sd	s6,16(sp)
    80000fa2:	e45e                	sd	s7,8(sp)
    80000fa4:	e486                	sd	ra,72(sp)
    80000fa6:	f84a                	sd	s2,48(sp)
    80000fa8:	ec56                	sd	s5,24(sp)
    80000faa:	89aa                	mv	s3,a0
    80000fac:	8a2e                	mv	s4,a1
    80000fae:	8432                	mv	s0,a2
    80000fb0:	4481                	li	s1,0
    80000fb2:	4b05                	li	s6,1
    80000fb4:	5bfd                	li	s7,-1
    80000fb6:	01043903          	ld	s2,16(s0)
    80000fba:	00842a83          	lw	s5,8(s0)
    80000fbe:	3afd                	addiw	s5,s5,-1
    80000fc0:	020ad063          	bgez	s5,80000fe0 <_fwalk_sglue+0x4a>
    80000fc4:	6000                	ld	s0,0(s0)
    80000fc6:	f865                	bnez	s0,80000fb6 <_fwalk_sglue+0x20>
    80000fc8:	60a6                	ld	ra,72(sp)
    80000fca:	6406                	ld	s0,64(sp)
    80000fcc:	7942                	ld	s2,48(sp)
    80000fce:	79a2                	ld	s3,40(sp)
    80000fd0:	7a02                	ld	s4,32(sp)
    80000fd2:	6ae2                	ld	s5,24(sp)
    80000fd4:	6b42                	ld	s6,16(sp)
    80000fd6:	6ba2                	ld	s7,8(sp)
    80000fd8:	8526                	mv	a0,s1
    80000fda:	74e2                	ld	s1,56(sp)
    80000fdc:	6161                	addi	sp,sp,80
    80000fde:	8082                	ret
    80000fe0:	01095783          	lhu	a5,16(s2)
    80000fe4:	00fb7b63          	bgeu	s6,a5,80000ffa <_fwalk_sglue+0x64>
    80000fe8:	01291783          	lh	a5,18(s2)
    80000fec:	01778763          	beq	a5,s7,80000ffa <_fwalk_sglue+0x64>
    80000ff0:	85ca                	mv	a1,s2
    80000ff2:	854e                	mv	a0,s3
    80000ff4:	9a02                	jalr	s4
    80000ff6:	8cc9                	or	s1,s1,a0
    80000ff8:	2481                	sext.w	s1,s1
    80000ffa:	0b090913          	addi	s2,s2,176
    80000ffe:	b7c1                	j	80000fbe <_fwalk_sglue+0x28>

0000000080001000 <__sread>:
    80001000:	1141                	addi	sp,sp,-16
    80001002:	e022                	sd	s0,0(sp)
    80001004:	842e                	mv	s0,a1
    80001006:	01259583          	lh	a1,18(a1)
    8000100a:	e406                	sd	ra,8(sp)
    8000100c:	36e000ef          	jal	8000137a <_read_r>
    80001010:	00054963          	bltz	a0,80001022 <__sread+0x22>
    80001014:	6c5c                	ld	a5,152(s0)
    80001016:	97aa                	add	a5,a5,a0
    80001018:	ec5c                	sd	a5,152(s0)
    8000101a:	60a2                	ld	ra,8(sp)
    8000101c:	6402                	ld	s0,0(sp)
    8000101e:	0141                	addi	sp,sp,16
    80001020:	8082                	ret
    80001022:	01045783          	lhu	a5,16(s0)
    80001026:	777d                	lui	a4,0xfffff
    80001028:	177d                	addi	a4,a4,-1 # ffffffffffffefff <__heap_end+0xffffffff7ffdbfff>
    8000102a:	8ff9                	and	a5,a5,a4
    8000102c:	00f41823          	sh	a5,16(s0)
    80001030:	b7ed                	j	8000101a <__sread+0x1a>

0000000080001032 <__seofread>:
    80001032:	4501                	li	a0,0
    80001034:	8082                	ret

0000000080001036 <__swrite>:
    80001036:	0105d783          	lhu	a5,16(a1)
    8000103a:	7179                	addi	sp,sp,-48
    8000103c:	f022                	sd	s0,32(sp)
    8000103e:	ec26                	sd	s1,24(sp)
    80001040:	e84a                	sd	s2,16(sp)
    80001042:	e44e                	sd	s3,8(sp)
    80001044:	f406                	sd	ra,40(sp)
    80001046:	1007f793          	andi	a5,a5,256
    8000104a:	84aa                	mv	s1,a0
    8000104c:	842e                	mv	s0,a1
    8000104e:	8932                	mv	s2,a2
    80001050:	89b6                	mv	s3,a3
    80001052:	c799                	beqz	a5,80001060 <__swrite+0x2a>
    80001054:	01259583          	lh	a1,18(a1)
    80001058:	4689                	li	a3,2
    8000105a:	4601                	li	a2,0
    8000105c:	2f2000ef          	jal	8000134e <_lseek_r>
    80001060:	01045783          	lhu	a5,16(s0)
    80001064:	777d                	lui	a4,0xfffff
    80001066:	177d                	addi	a4,a4,-1 # ffffffffffffefff <__heap_end+0xffffffff7ffdbfff>
    80001068:	8ff9                	and	a5,a5,a4
    8000106a:	01241583          	lh	a1,18(s0)
    8000106e:	00f41823          	sh	a5,16(s0)
    80001072:	7402                	ld	s0,32(sp)
    80001074:	70a2                	ld	ra,40(sp)
    80001076:	86ce                	mv	a3,s3
    80001078:	864a                	mv	a2,s2
    8000107a:	69a2                	ld	s3,8(sp)
    8000107c:	6942                	ld	s2,16(sp)
    8000107e:	8526                	mv	a0,s1
    80001080:	64e2                	ld	s1,24(sp)
    80001082:	6145                	addi	sp,sp,48
    80001084:	a60d                	j	800013a6 <_write_r>

0000000080001086 <__sseek>:
    80001086:	1141                	addi	sp,sp,-16
    80001088:	e022                	sd	s0,0(sp)
    8000108a:	842e                	mv	s0,a1
    8000108c:	01259583          	lh	a1,18(a1)
    80001090:	e406                	sd	ra,8(sp)
    80001092:	2bc000ef          	jal	8000134e <_lseek_r>
    80001096:	577d                	li	a4,-1
    80001098:	01045783          	lhu	a5,16(s0)
    8000109c:	00e51b63          	bne	a0,a4,800010b2 <__sseek+0x2c>
    800010a0:	777d                	lui	a4,0xfffff
    800010a2:	177d                	addi	a4,a4,-1 # ffffffffffffefff <__heap_end+0xffffffff7ffdbfff>
    800010a4:	8ff9                	and	a5,a5,a4
    800010a6:	00f41823          	sh	a5,16(s0)
    800010aa:	60a2                	ld	ra,8(sp)
    800010ac:	6402                	ld	s0,0(sp)
    800010ae:	0141                	addi	sp,sp,16
    800010b0:	8082                	ret
    800010b2:	6705                	lui	a4,0x1
    800010b4:	8fd9                	or	a5,a5,a4
    800010b6:	00f41823          	sh	a5,16(s0)
    800010ba:	ec48                	sd	a0,152(s0)
    800010bc:	b7fd                	j	800010aa <__sseek+0x24>

00000000800010be <__sclose>:
    800010be:	01259583          	lh	a1,18(a1)
    800010c2:	aa51                	j	80001256 <_close_r>

00000000800010c4 <__swbuf_r>:
    800010c4:	7179                	addi	sp,sp,-48
    800010c6:	f022                	sd	s0,32(sp)
    800010c8:	ec26                	sd	s1,24(sp)
    800010ca:	e84a                	sd	s2,16(sp)
    800010cc:	f406                	sd	ra,40(sp)
    800010ce:	e44e                	sd	s3,8(sp)
    800010d0:	892a                	mv	s2,a0
    800010d2:	84ae                	mv	s1,a1
    800010d4:	8432                	mv	s0,a2
    800010d6:	c509                	beqz	a0,800010e0 <__swbuf_r+0x1c>
    800010d8:	613c                	ld	a5,64(a0)
    800010da:	e399                	bnez	a5,800010e0 <__swbuf_r+0x1c>
    800010dc:	ba1ff0ef          	jal	80000c7c <__sinit>
    800010e0:	541c                	lw	a5,40(s0)
    800010e2:	c45c                	sw	a5,12(s0)
    800010e4:	01045783          	lhu	a5,16(s0)
    800010e8:	8ba1                	andi	a5,a5,8
    800010ea:	c399                	beqz	a5,800010f0 <__swbuf_r+0x2c>
    800010ec:	6c1c                	ld	a5,24(s0)
    800010ee:	ef99                	bnez	a5,8000110c <__swbuf_r+0x48>
    800010f0:	85a2                	mv	a1,s0
    800010f2:	854a                	mv	a0,s2
    800010f4:	07a000ef          	jal	8000116e <__swsetup_r>
    800010f8:	c911                	beqz	a0,8000110c <__swbuf_r+0x48>
    800010fa:	54fd                	li	s1,-1
    800010fc:	70a2                	ld	ra,40(sp)
    800010fe:	7402                	ld	s0,32(sp)
    80001100:	6942                	ld	s2,16(sp)
    80001102:	69a2                	ld	s3,8(sp)
    80001104:	8526                	mv	a0,s1
    80001106:	64e2                	ld	s1,24(sp)
    80001108:	6145                	addi	sp,sp,48
    8000110a:	8082                	ret
    8000110c:	601c                	ld	a5,0(s0)
    8000110e:	6c18                	ld	a4,24(s0)
    80001110:	0ff4f993          	zext.b	s3,s1
    80001114:	84ce                	mv	s1,s3
    80001116:	40e7853b          	subw	a0,a5,a4
    8000111a:	501c                	lw	a5,32(s0)
    8000111c:	00f54763          	blt	a0,a5,8000112a <__swbuf_r+0x66>
    80001120:	85a2                	mv	a1,s0
    80001122:	854a                	mv	a0,s2
    80001124:	6e6000ef          	jal	8000180a <_fflush_r>
    80001128:	f969                	bnez	a0,800010fa <__swbuf_r+0x36>
    8000112a:	445c                	lw	a5,12(s0)
    8000112c:	37fd                	addiw	a5,a5,-1
    8000112e:	c45c                	sw	a5,12(s0)
    80001130:	601c                	ld	a5,0(s0)
    80001132:	00178713          	addi	a4,a5,1
    80001136:	e018                	sd	a4,0(s0)
    80001138:	01378023          	sb	s3,0(a5)
    8000113c:	5018                	lw	a4,32(s0)
    8000113e:	0015079b          	addiw	a5,a0,1
    80001142:	00f70963          	beq	a4,a5,80001154 <__swbuf_r+0x90>
    80001146:	01045783          	lhu	a5,16(s0)
    8000114a:	8b85                	andi	a5,a5,1
    8000114c:	dbc5                	beqz	a5,800010fc <__swbuf_r+0x38>
    8000114e:	47a9                	li	a5,10
    80001150:	faf496e3          	bne	s1,a5,800010fc <__swbuf_r+0x38>
    80001154:	85a2                	mv	a1,s0
    80001156:	854a                	mv	a0,s2
    80001158:	6b2000ef          	jal	8000180a <_fflush_r>
    8000115c:	d145                	beqz	a0,800010fc <__swbuf_r+0x38>
    8000115e:	bf71                	j	800010fa <__swbuf_r+0x36>

0000000080001160 <__swbuf>:
    80001160:	862e                	mv	a2,a1
    80001162:	85aa                	mv	a1,a0
    80001164:	00001517          	auipc	a0,0x1
    80001168:	e1453503          	ld	a0,-492(a0) # 80001f78 <_impure_ptr>
    8000116c:	bfa1                	j	800010c4 <__swbuf_r>

000000008000116e <__swsetup_r>:
    8000116e:	1101                	addi	sp,sp,-32
    80001170:	e822                	sd	s0,16(sp)
    80001172:	e426                	sd	s1,8(sp)
    80001174:	ec06                	sd	ra,24(sp)
    80001176:	84aa                	mv	s1,a0
    80001178:	00001517          	auipc	a0,0x1
    8000117c:	e0053503          	ld	a0,-512(a0) # 80001f78 <_impure_ptr>
    80001180:	842e                	mv	s0,a1
    80001182:	c509                	beqz	a0,8000118c <__swsetup_r+0x1e>
    80001184:	613c                	ld	a5,64(a0)
    80001186:	e399                	bnez	a5,8000118c <__swsetup_r+0x1e>
    80001188:	af5ff0ef          	jal	80000c7c <__sinit>
    8000118c:	01041783          	lh	a5,16(s0)
    80001190:	0087f713          	andi	a4,a5,8
    80001194:	eb29                	bnez	a4,800011e6 <__swsetup_r+0x78>
    80001196:	0107f713          	andi	a4,a5,16
    8000119a:	eb09                	bnez	a4,800011ac <__swsetup_r+0x3e>
    8000119c:	4725                	li	a4,9
    8000119e:	c098                	sw	a4,0(s1)
    800011a0:	0407e793          	ori	a5,a5,64
    800011a4:	00f41823          	sh	a5,16(s0)
    800011a8:	557d                	li	a0,-1
    800011aa:	a8ad                	j	80001224 <__swsetup_r+0xb6>
    800011ac:	8b91                	andi	a5,a5,4
    800011ae:	c795                	beqz	a5,800011da <__swsetup_r+0x6c>
    800011b0:	702c                	ld	a1,96(s0)
    800011b2:	c991                	beqz	a1,800011c6 <__swsetup_r+0x58>
    800011b4:	07c40793          	addi	a5,s0,124
    800011b8:	00f58563          	beq	a1,a5,800011c2 <__swsetup_r+0x54>
    800011bc:	8526                	mv	a0,s1
    800011be:	260000ef          	jal	8000141e <_free_r>
    800011c2:	06043023          	sd	zero,96(s0)
    800011c6:	01045783          	lhu	a5,16(s0)
    800011ca:	00042423          	sw	zero,8(s0)
    800011ce:	fdb7f793          	andi	a5,a5,-37
    800011d2:	00f41823          	sh	a5,16(s0)
    800011d6:	6c1c                	ld	a5,24(s0)
    800011d8:	e01c                	sd	a5,0(s0)
    800011da:	01045783          	lhu	a5,16(s0)
    800011de:	0087e793          	ori	a5,a5,8
    800011e2:	00f41823          	sh	a5,16(s0)
    800011e6:	6c1c                	ld	a5,24(s0)
    800011e8:	ef89                	bnez	a5,80001202 <__swsetup_r+0x94>
    800011ea:	01045783          	lhu	a5,16(s0)
    800011ee:	20000713          	li	a4,512
    800011f2:	2807f793          	andi	a5,a5,640
    800011f6:	00e78663          	beq	a5,a4,80001202 <__swsetup_r+0x94>
    800011fa:	85a2                	mv	a1,s0
    800011fc:	8526                	mv	a0,s1
    800011fe:	6ca000ef          	jal	800018c8 <__smakebuf_r>
    80001202:	01041783          	lh	a5,16(s0)
    80001206:	0017f713          	andi	a4,a5,1
    8000120a:	c315                	beqz	a4,8000122e <__swsetup_r+0xc0>
    8000120c:	5018                	lw	a4,32(s0)
    8000120e:	00042623          	sw	zero,12(s0)
    80001212:	40e0073b          	negw	a4,a4
    80001216:	d418                	sw	a4,40(s0)
    80001218:	6c18                	ld	a4,24(s0)
    8000121a:	4501                	li	a0,0
    8000121c:	e701                	bnez	a4,80001224 <__swsetup_r+0xb6>
    8000121e:	0807f713          	andi	a4,a5,128
    80001222:	ff3d                	bnez	a4,800011a0 <__swsetup_r+0x32>
    80001224:	60e2                	ld	ra,24(sp)
    80001226:	6442                	ld	s0,16(sp)
    80001228:	64a2                	ld	s1,8(sp)
    8000122a:	6105                	addi	sp,sp,32
    8000122c:	8082                	ret
    8000122e:	0027f713          	andi	a4,a5,2
    80001232:	4681                	li	a3,0
    80001234:	e311                	bnez	a4,80001238 <__swsetup_r+0xca>
    80001236:	5014                	lw	a3,32(s0)
    80001238:	c454                	sw	a3,12(s0)
    8000123a:	bff9                	j	80001218 <__swsetup_r+0xaa>

000000008000123c <memchr>:
    8000123c:	0ff5f593          	zext.b	a1,a1
    80001240:	962a                	add	a2,a2,a0
    80001242:	00c51463          	bne	a0,a2,8000124a <memchr+0xe>
    80001246:	4501                	li	a0,0
    80001248:	8082                	ret
    8000124a:	00054783          	lbu	a5,0(a0)
    8000124e:	feb78de3          	beq	a5,a1,80001248 <memchr+0xc>
    80001252:	0505                	addi	a0,a0,1
    80001254:	b7fd                	j	80001242 <memchr+0x6>

0000000080001256 <_close_r>:
    80001256:	1141                	addi	sp,sp,-16
    80001258:	e022                	sd	s0,0(sp)
    8000125a:	842a                	mv	s0,a0
    8000125c:	852e                	mv	a0,a1
    8000125e:	8201a823          	sw	zero,-2000(gp) # 80001fa8 <errno>
    80001262:	e406                	sd	ra,8(sp)
    80001264:	794000ef          	jal	800019f8 <_close>
    80001268:	57fd                	li	a5,-1
    8000126a:	00f51663          	bne	a0,a5,80001276 <_close_r+0x20>
    8000126e:	8301a783          	lw	a5,-2000(gp) # 80001fa8 <errno>
    80001272:	c391                	beqz	a5,80001276 <_close_r+0x20>
    80001274:	c01c                	sw	a5,0(s0)
    80001276:	60a2                	ld	ra,8(sp)
    80001278:	6402                	ld	s0,0(sp)
    8000127a:	0141                	addi	sp,sp,16
    8000127c:	8082                	ret

000000008000127e <_reclaim_reent>:
    8000127e:	00001797          	auipc	a5,0x1
    80001282:	cfa7b783          	ld	a5,-774(a5) # 80001f78 <_impure_ptr>
    80001286:	0ca78363          	beq	a5,a0,8000134c <_reclaim_reent+0xce>
    8000128a:	7d1c                	ld	a5,56(a0)
    8000128c:	7179                	addi	sp,sp,-48
    8000128e:	f022                	sd	s0,32(sp)
    80001290:	f406                	sd	ra,40(sp)
    80001292:	ec26                	sd	s1,24(sp)
    80001294:	e84a                	sd	s2,16(sp)
    80001296:	e44e                	sd	s3,8(sp)
    80001298:	842a                	mv	s0,a0
    8000129a:	cb8d                	beqz	a5,800012cc <_reclaim_reent+0x4e>
    8000129c:	6f9c                	ld	a5,24(a5)
    8000129e:	c38d                	beqz	a5,800012c0 <_reclaim_reent+0x42>
    800012a0:	4481                	li	s1,0
    800012a2:	20000913          	li	s2,512
    800012a6:	7c1c                	ld	a5,56(s0)
    800012a8:	6f9c                	ld	a5,24(a5)
    800012aa:	97a6                	add	a5,a5,s1
    800012ac:	638c                	ld	a1,0(a5)
    800012ae:	e1c9                	bnez	a1,80001330 <_reclaim_reent+0xb2>
    800012b0:	04a1                	addi	s1,s1,8
    800012b2:	ff249ae3          	bne	s1,s2,800012a6 <_reclaim_reent+0x28>
    800012b6:	7c1c                	ld	a5,56(s0)
    800012b8:	8522                	mv	a0,s0
    800012ba:	6f8c                	ld	a1,24(a5)
    800012bc:	162000ef          	jal	8000141e <_free_r>
    800012c0:	7c1c                	ld	a5,56(s0)
    800012c2:	638c                	ld	a1,0(a5)
    800012c4:	c581                	beqz	a1,800012cc <_reclaim_reent+0x4e>
    800012c6:	8522                	mv	a0,s0
    800012c8:	156000ef          	jal	8000141e <_free_r>
    800012cc:	740c                	ld	a1,40(s0)
    800012ce:	c581                	beqz	a1,800012d6 <_reclaim_reent+0x58>
    800012d0:	8522                	mv	a0,s0
    800012d2:	14c000ef          	jal	8000141e <_free_r>
    800012d6:	7c0c                	ld	a1,56(s0)
    800012d8:	c581                	beqz	a1,800012e0 <_reclaim_reent+0x62>
    800012da:	8522                	mv	a0,s0
    800012dc:	142000ef          	jal	8000141e <_free_r>
    800012e0:	6c2c                	ld	a1,88(s0)
    800012e2:	c581                	beqz	a1,800012ea <_reclaim_reent+0x6c>
    800012e4:	8522                	mv	a0,s0
    800012e6:	138000ef          	jal	8000141e <_free_r>
    800012ea:	702c                	ld	a1,96(s0)
    800012ec:	c581                	beqz	a1,800012f4 <_reclaim_reent+0x76>
    800012ee:	8522                	mv	a0,s0
    800012f0:	12e000ef          	jal	8000141e <_free_r>
    800012f4:	742c                	ld	a1,104(s0)
    800012f6:	c581                	beqz	a1,800012fe <_reclaim_reent+0x80>
    800012f8:	8522                	mv	a0,s0
    800012fa:	124000ef          	jal	8000141e <_free_r>
    800012fe:	644c                	ld	a1,136(s0)
    80001300:	c581                	beqz	a1,80001308 <_reclaim_reent+0x8a>
    80001302:	8522                	mv	a0,s0
    80001304:	11a000ef          	jal	8000141e <_free_r>
    80001308:	604c                	ld	a1,128(s0)
    8000130a:	c581                	beqz	a1,80001312 <_reclaim_reent+0x94>
    8000130c:	8522                	mv	a0,s0
    8000130e:	110000ef          	jal	8000141e <_free_r>
    80001312:	682c                	ld	a1,80(s0)
    80001314:	c581                	beqz	a1,8000131c <_reclaim_reent+0x9e>
    80001316:	8522                	mv	a0,s0
    80001318:	106000ef          	jal	8000141e <_free_r>
    8000131c:	603c                	ld	a5,64(s0)
    8000131e:	c385                	beqz	a5,8000133e <_reclaim_reent+0xc0>
    80001320:	8522                	mv	a0,s0
    80001322:	7402                	ld	s0,32(sp)
    80001324:	70a2                	ld	ra,40(sp)
    80001326:	64e2                	ld	s1,24(sp)
    80001328:	6942                	ld	s2,16(sp)
    8000132a:	69a2                	ld	s3,8(sp)
    8000132c:	6145                	addi	sp,sp,48
    8000132e:	8782                	jr	a5
    80001330:	0005b983          	ld	s3,0(a1)
    80001334:	8522                	mv	a0,s0
    80001336:	0e8000ef          	jal	8000141e <_free_r>
    8000133a:	85ce                	mv	a1,s3
    8000133c:	bf8d                	j	800012ae <_reclaim_reent+0x30>
    8000133e:	70a2                	ld	ra,40(sp)
    80001340:	7402                	ld	s0,32(sp)
    80001342:	64e2                	ld	s1,24(sp)
    80001344:	6942                	ld	s2,16(sp)
    80001346:	69a2                	ld	s3,8(sp)
    80001348:	6145                	addi	sp,sp,48
    8000134a:	8082                	ret
    8000134c:	8082                	ret

000000008000134e <_lseek_r>:
    8000134e:	1141                	addi	sp,sp,-16
    80001350:	e022                	sd	s0,0(sp)
    80001352:	842a                	mv	s0,a0
    80001354:	852e                	mv	a0,a1
    80001356:	85b2                	mv	a1,a2
    80001358:	8636                	mv	a2,a3
    8000135a:	8201a823          	sw	zero,-2000(gp) # 80001fa8 <errno>
    8000135e:	e406                	sd	ra,8(sp)
    80001360:	6c8000ef          	jal	80001a28 <_lseek>
    80001364:	57fd                	li	a5,-1
    80001366:	00f51663          	bne	a0,a5,80001372 <_lseek_r+0x24>
    8000136a:	8301a783          	lw	a5,-2000(gp) # 80001fa8 <errno>
    8000136e:	c391                	beqz	a5,80001372 <_lseek_r+0x24>
    80001370:	c01c                	sw	a5,0(s0)
    80001372:	60a2                	ld	ra,8(sp)
    80001374:	6402                	ld	s0,0(sp)
    80001376:	0141                	addi	sp,sp,16
    80001378:	8082                	ret

000000008000137a <_read_r>:
    8000137a:	1141                	addi	sp,sp,-16
    8000137c:	e022                	sd	s0,0(sp)
    8000137e:	842a                	mv	s0,a0
    80001380:	852e                	mv	a0,a1
    80001382:	85b2                	mv	a1,a2
    80001384:	8636                	mv	a2,a3
    80001386:	8201a823          	sw	zero,-2000(gp) # 80001fa8 <errno>
    8000138a:	e406                	sd	ra,8(sp)
    8000138c:	6b0000ef          	jal	80001a3c <_read>
    80001390:	57fd                	li	a5,-1
    80001392:	00f51663          	bne	a0,a5,8000139e <_read_r+0x24>
    80001396:	8301a783          	lw	a5,-2000(gp) # 80001fa8 <errno>
    8000139a:	c391                	beqz	a5,8000139e <_read_r+0x24>
    8000139c:	c01c                	sw	a5,0(s0)
    8000139e:	60a2                	ld	ra,8(sp)
    800013a0:	6402                	ld	s0,0(sp)
    800013a2:	0141                	addi	sp,sp,16
    800013a4:	8082                	ret

00000000800013a6 <_write_r>:
    800013a6:	1141                	addi	sp,sp,-16
    800013a8:	e022                	sd	s0,0(sp)
    800013aa:	842a                	mv	s0,a0
    800013ac:	852e                	mv	a0,a1
    800013ae:	85b2                	mv	a1,a2
    800013b0:	8636                	mv	a2,a3
    800013b2:	8201a823          	sw	zero,-2000(gp) # 80001fa8 <errno>
    800013b6:	e406                	sd	ra,8(sp)
    800013b8:	6d6000ef          	jal	80001a8e <_write>
    800013bc:	57fd                	li	a5,-1
    800013be:	00f51663          	bne	a0,a5,800013ca <_write_r+0x24>
    800013c2:	8301a783          	lw	a5,-2000(gp) # 80001fa8 <errno>
    800013c6:	c391                	beqz	a5,800013ca <_write_r+0x24>
    800013c8:	c01c                	sw	a5,0(s0)
    800013ca:	60a2                	ld	ra,8(sp)
    800013cc:	6402                	ld	s0,0(sp)
    800013ce:	0141                	addi	sp,sp,16
    800013d0:	8082                	ret

00000000800013d2 <memmove>:
    800013d2:	c215                	beqz	a2,800013f6 <memmove+0x24>
    800013d4:	832a                	mv	t1,a0
    800013d6:	4685                	li	a3,1
    800013d8:	00b56763          	bltu	a0,a1,800013e6 <memmove+0x14>
    800013dc:	56fd                	li	a3,-1
    800013de:	fff60713          	addi	a4,a2,-1
    800013e2:	933a                	add	t1,t1,a4
    800013e4:	95ba                	add	a1,a1,a4
    800013e6:	00058383          	lb	t2,0(a1)
    800013ea:	00730023          	sb	t2,0(t1)
    800013ee:	167d                	addi	a2,a2,-1
    800013f0:	9336                	add	t1,t1,a3
    800013f2:	95b6                	add	a1,a1,a3
    800013f4:	fa6d                	bnez	a2,800013e6 <memmove+0x14>
    800013f6:	8082                	ret

00000000800013f8 <memset>:
    800013f8:	832a                	mv	t1,a0
    800013fa:	c611                	beqz	a2,80001406 <memset+0xe>
    800013fc:	00b30023          	sb	a1,0(t1)
    80001400:	167d                	addi	a2,a2,-1
    80001402:	0305                	addi	t1,t1,1
    80001404:	fe65                	bnez	a2,800013fc <memset+0x4>
    80001406:	8082                	ret

0000000080001408 <memcpy>:
    80001408:	832a                	mv	t1,a0
    8000140a:	ca09                	beqz	a2,8000141c <memcpy+0x14>
    8000140c:	00058383          	lb	t2,0(a1)
    80001410:	00730023          	sb	t2,0(t1)
    80001414:	167d                	addi	a2,a2,-1
    80001416:	0305                	addi	t1,t1,1
    80001418:	0585                	addi	a1,a1,1
    8000141a:	fa6d                	bnez	a2,8000140c <memcpy+0x4>
    8000141c:	8082                	ret

000000008000141e <_free_r>:
    8000141e:	cdd9                	beqz	a1,800014bc <_free_r+0x9e>
    80001420:	ff85b783          	ld	a5,-8(a1)
    80001424:	1101                	addi	sp,sp,-32
    80001426:	e822                	sd	s0,16(sp)
    80001428:	ec06                	sd	ra,24(sp)
    8000142a:	ff858413          	addi	s0,a1,-8
    8000142e:	0007d363          	bgez	a5,80001434 <_free_r+0x16>
    80001432:	943e                	add	s0,s0,a5
    80001434:	e42a                	sd	a0,8(sp)
    80001436:	212000ef          	jal	80001648 <__malloc_lock>
    8000143a:	84018713          	addi	a4,gp,-1984 # 80001fb8 <__malloc_free_list>
    8000143e:	631c                	ld	a5,0(a4)
    80001440:	6522                	ld	a0,8(sp)
    80001442:	eb81                	bnez	a5,80001452 <_free_r+0x34>
    80001444:	00043423          	sd	zero,8(s0)
    80001448:	e300                	sd	s0,0(a4)
    8000144a:	6442                	ld	s0,16(sp)
    8000144c:	60e2                	ld	ra,24(sp)
    8000144e:	6105                	addi	sp,sp,32
    80001450:	aaed                	j	8000164a <__malloc_unlock>
    80001452:	00f47d63          	bgeu	s0,a5,8000146c <_free_r+0x4e>
    80001456:	6010                	ld	a2,0(s0)
    80001458:	00c406b3          	add	a3,s0,a2
    8000145c:	00d79663          	bne	a5,a3,80001468 <_free_r+0x4a>
    80001460:	6394                	ld	a3,0(a5)
    80001462:	679c                	ld	a5,8(a5)
    80001464:	96b2                	add	a3,a3,a2
    80001466:	e014                	sd	a3,0(s0)
    80001468:	e41c                	sd	a5,8(s0)
    8000146a:	bff9                	j	80001448 <_free_r+0x2a>
    8000146c:	873e                	mv	a4,a5
    8000146e:	679c                	ld	a5,8(a5)
    80001470:	c399                	beqz	a5,80001476 <_free_r+0x58>
    80001472:	fef47de3          	bgeu	s0,a5,8000146c <_free_r+0x4e>
    80001476:	6314                	ld	a3,0(a4)
    80001478:	00d70633          	add	a2,a4,a3
    8000147c:	00861f63          	bne	a2,s0,8000149a <_free_r+0x7c>
    80001480:	6010                	ld	a2,0(s0)
    80001482:	96b2                	add	a3,a3,a2
    80001484:	e314                	sd	a3,0(a4)
    80001486:	00d70633          	add	a2,a4,a3
    8000148a:	fcc790e3          	bne	a5,a2,8000144a <_free_r+0x2c>
    8000148e:	6390                	ld	a2,0(a5)
    80001490:	679c                	ld	a5,8(a5)
    80001492:	96b2                	add	a3,a3,a2
    80001494:	e314                	sd	a3,0(a4)
    80001496:	e71c                	sd	a5,8(a4)
    80001498:	bf4d                	j	8000144a <_free_r+0x2c>
    8000149a:	00c47563          	bgeu	s0,a2,800014a4 <_free_r+0x86>
    8000149e:	47b1                	li	a5,12
    800014a0:	c11c                	sw	a5,0(a0)
    800014a2:	b765                	j	8000144a <_free_r+0x2c>
    800014a4:	6010                	ld	a2,0(s0)
    800014a6:	00c406b3          	add	a3,s0,a2
    800014aa:	00d79663          	bne	a5,a3,800014b6 <_free_r+0x98>
    800014ae:	6394                	ld	a3,0(a5)
    800014b0:	679c                	ld	a5,8(a5)
    800014b2:	96b2                	add	a3,a3,a2
    800014b4:	e014                	sd	a3,0(s0)
    800014b6:	e41c                	sd	a5,8(s0)
    800014b8:	e700                	sd	s0,8(a4)
    800014ba:	bf41                	j	8000144a <_free_r+0x2c>
    800014bc:	8082                	ret

00000000800014be <sbrk_aligned>:
    800014be:	1101                	addi	sp,sp,-32
    800014c0:	e04a                	sd	s2,0(sp)
    800014c2:	83818913          	addi	s2,gp,-1992 # 80001fb0 <__malloc_sbrk_start>
    800014c6:	00093783          	ld	a5,0(s2)
    800014ca:	e822                	sd	s0,16(sp)
    800014cc:	e426                	sd	s1,8(sp)
    800014ce:	ec06                	sd	ra,24(sp)
    800014d0:	84aa                	mv	s1,a0
    800014d2:	842e                	mv	s0,a1
    800014d4:	e791                	bnez	a5,800014e0 <sbrk_aligned+0x22>
    800014d6:	4581                	li	a1,0
    800014d8:	4e0000ef          	jal	800019b8 <_sbrk_r>
    800014dc:	00a93023          	sd	a0,0(s2)
    800014e0:	85a2                	mv	a1,s0
    800014e2:	8526                	mv	a0,s1
    800014e4:	4d4000ef          	jal	800019b8 <_sbrk_r>
    800014e8:	597d                	li	s2,-1
    800014ea:	01251a63          	bne	a0,s2,800014fe <sbrk_aligned+0x40>
    800014ee:	547d                	li	s0,-1
    800014f0:	60e2                	ld	ra,24(sp)
    800014f2:	8522                	mv	a0,s0
    800014f4:	6442                	ld	s0,16(sp)
    800014f6:	64a2                	ld	s1,8(sp)
    800014f8:	6902                	ld	s2,0(sp)
    800014fa:	6105                	addi	sp,sp,32
    800014fc:	8082                	ret
    800014fe:	00750413          	addi	s0,a0,7
    80001502:	9861                	andi	s0,s0,-8
    80001504:	fe8506e3          	beq	a0,s0,800014f0 <sbrk_aligned+0x32>
    80001508:	40a405b3          	sub	a1,s0,a0
    8000150c:	8526                	mv	a0,s1
    8000150e:	4aa000ef          	jal	800019b8 <_sbrk_r>
    80001512:	fd251fe3          	bne	a0,s2,800014f0 <sbrk_aligned+0x32>
    80001516:	bfe1                	j	800014ee <sbrk_aligned+0x30>

0000000080001518 <_malloc_r>:
    80001518:	00758793          	addi	a5,a1,7
    8000151c:	7179                	addi	sp,sp,-48
    8000151e:	9be1                	andi	a5,a5,-8
    80001520:	ec26                	sd	s1,24(sp)
    80001522:	e84a                	sd	s2,16(sp)
    80001524:	f406                	sd	ra,40(sp)
    80001526:	f022                	sd	s0,32(sp)
    80001528:	e44e                	sd	s3,8(sp)
    8000152a:	e052                	sd	s4,0(sp)
    8000152c:	07a1                	addi	a5,a5,8
    8000152e:	4741                	li	a4,16
    80001530:	892a                	mv	s2,a0
    80001532:	44c1                	li	s1,16
    80001534:	00e7e363          	bltu	a5,a4,8000153a <_malloc_r+0x22>
    80001538:	84be                	mv	s1,a5
    8000153a:	80000737          	lui	a4,0x80000
    8000153e:	fff74713          	not	a4,a4
    80001542:	00f76463          	bltu	a4,a5,8000154a <_malloc_r+0x32>
    80001546:	00b4fe63          	bgeu	s1,a1,80001562 <_malloc_r+0x4a>
    8000154a:	47b1                	li	a5,12
    8000154c:	00f92023          	sw	a5,0(s2)
    80001550:	4501                	li	a0,0
    80001552:	70a2                	ld	ra,40(sp)
    80001554:	7402                	ld	s0,32(sp)
    80001556:	64e2                	ld	s1,24(sp)
    80001558:	6942                	ld	s2,16(sp)
    8000155a:	69a2                	ld	s3,8(sp)
    8000155c:	6a02                	ld	s4,0(sp)
    8000155e:	6145                	addi	sp,sp,48
    80001560:	8082                	ret
    80001562:	854a                	mv	a0,s2
    80001564:	0e4000ef          	jal	80001648 <__malloc_lock>
    80001568:	84018993          	addi	s3,gp,-1984 # 80001fb8 <__malloc_free_list>
    8000156c:	0009b783          	ld	a5,0(s3)
    80001570:	843e                	mv	s0,a5
    80001572:	ec21                	bnez	s0,800015ca <_malloc_r+0xb2>
    80001574:	85a6                	mv	a1,s1
    80001576:	854a                	mv	a0,s2
    80001578:	f47ff0ef          	jal	800014be <sbrk_aligned>
    8000157c:	57fd                	li	a5,-1
    8000157e:	842a                	mv	s0,a0
    80001580:	0af51f63          	bne	a0,a5,8000163e <_malloc_r+0x126>
    80001584:	0009b403          	ld	s0,0(s3)
    80001588:	87a2                	mv	a5,s0
    8000158a:	efd1                	bnez	a5,80001626 <_malloc_r+0x10e>
    8000158c:	c055                	beqz	s0,80001630 <_malloc_r+0x118>
    8000158e:	00043a03          	ld	s4,0(s0)
    80001592:	4581                	li	a1,0
    80001594:	854a                	mv	a0,s2
    80001596:	9a22                	add	s4,s4,s0
    80001598:	420000ef          	jal	800019b8 <_sbrk_r>
    8000159c:	08aa1a63          	bne	s4,a0,80001630 <_malloc_r+0x118>
    800015a0:	601c                	ld	a5,0(s0)
    800015a2:	854a                	mv	a0,s2
    800015a4:	8c9d                	sub	s1,s1,a5
    800015a6:	85a6                	mv	a1,s1
    800015a8:	f17ff0ef          	jal	800014be <sbrk_aligned>
    800015ac:	57fd                	li	a5,-1
    800015ae:	08f50163          	beq	a0,a5,80001630 <_malloc_r+0x118>
    800015b2:	601c                	ld	a5,0(s0)
    800015b4:	97a6                	add	a5,a5,s1
    800015b6:	e01c                	sd	a5,0(s0)
    800015b8:	0009b783          	ld	a5,0(s3)
    800015bc:	c3d9                	beqz	a5,80001642 <_malloc_r+0x12a>
    800015be:	6798                	ld	a4,8(a5)
    800015c0:	06871663          	bne	a4,s0,8000162c <_malloc_r+0x114>
    800015c4:	0007b423          	sd	zero,8(a5)
    800015c8:	a015                	j	800015ec <_malloc_r+0xd4>
    800015ca:	6014                	ld	a3,0(s0)
    800015cc:	9e85                	subw	a3,a3,s1
    800015ce:	0406c963          	bltz	a3,80001620 <_malloc_r+0x108>
    800015d2:	473d                	li	a4,15
    800015d4:	02d75e63          	bge	a4,a3,80001610 <_malloc_r+0xf8>
    800015d8:	e004                	sd	s1,0(s0)
    800015da:	00940733          	add	a4,s0,s1
    800015de:	02879763          	bne	a5,s0,8000160c <_malloc_r+0xf4>
    800015e2:	00e9b023          	sd	a4,0(s3)
    800015e6:	641c                	ld	a5,8(s0)
    800015e8:	e314                	sd	a3,0(a4)
    800015ea:	e71c                	sd	a5,8(a4)
    800015ec:	854a                	mv	a0,s2
    800015ee:	05c000ef          	jal	8000164a <__malloc_unlock>
    800015f2:	00f40513          	addi	a0,s0,15
    800015f6:	00840793          	addi	a5,s0,8
    800015fa:	9961                	andi	a0,a0,-8
    800015fc:	40f507bb          	subw	a5,a0,a5
    80001600:	dba9                	beqz	a5,80001552 <_malloc_r+0x3a>
    80001602:	943e                	add	s0,s0,a5
    80001604:	40f007bb          	negw	a5,a5
    80001608:	e01c                	sd	a5,0(s0)
    8000160a:	b7a1                	j	80001552 <_malloc_r+0x3a>
    8000160c:	e798                	sd	a4,8(a5)
    8000160e:	bfe1                	j	800015e6 <_malloc_r+0xce>
    80001610:	6418                	ld	a4,8(s0)
    80001612:	00879563          	bne	a5,s0,8000161c <_malloc_r+0x104>
    80001616:	00e9b023          	sd	a4,0(s3)
    8000161a:	bfc9                	j	800015ec <_malloc_r+0xd4>
    8000161c:	e798                	sd	a4,8(a5)
    8000161e:	b7f9                	j	800015ec <_malloc_r+0xd4>
    80001620:	87a2                	mv	a5,s0
    80001622:	6400                	ld	s0,8(s0)
    80001624:	b7b9                	j	80001572 <_malloc_r+0x5a>
    80001626:	843e                	mv	s0,a5
    80001628:	679c                	ld	a5,8(a5)
    8000162a:	b785                	j	8000158a <_malloc_r+0x72>
    8000162c:	87ba                	mv	a5,a4
    8000162e:	b779                	j	800015bc <_malloc_r+0xa4>
    80001630:	47b1                	li	a5,12
    80001632:	00f92023          	sw	a5,0(s2)
    80001636:	854a                	mv	a0,s2
    80001638:	012000ef          	jal	8000164a <__malloc_unlock>
    8000163c:	bf11                	j	80001550 <_malloc_r+0x38>
    8000163e:	e104                	sd	s1,0(a0)
    80001640:	b775                	j	800015ec <_malloc_r+0xd4>
    80001642:	00003423          	sd	zero,8(zero) # 8 <__tbss_size+0x4>
    80001646:	9002                	ebreak

0000000080001648 <__malloc_lock>:
    80001648:	8082                	ret

000000008000164a <__malloc_unlock>:
    8000164a:	8082                	ret

000000008000164c <_realloc_r>:
    8000164c:	7179                	addi	sp,sp,-48
    8000164e:	f022                	sd	s0,32(sp)
    80001650:	f406                	sd	ra,40(sp)
    80001652:	ec26                	sd	s1,24(sp)
    80001654:	e84a                	sd	s2,16(sp)
    80001656:	e44e                	sd	s3,8(sp)
    80001658:	e052                	sd	s4,0(sp)
    8000165a:	8432                	mv	s0,a2
    8000165c:	e991                	bnez	a1,80001670 <_realloc_r+0x24>
    8000165e:	7402                	ld	s0,32(sp)
    80001660:	70a2                	ld	ra,40(sp)
    80001662:	64e2                	ld	s1,24(sp)
    80001664:	6942                	ld	s2,16(sp)
    80001666:	69a2                	ld	s3,8(sp)
    80001668:	6a02                	ld	s4,0(sp)
    8000166a:	85b2                	mv	a1,a2
    8000166c:	6145                	addi	sp,sp,48
    8000166e:	b56d                	j	80001518 <_malloc_r>
    80001670:	ee09                	bnez	a2,8000168a <_realloc_r+0x3e>
    80001672:	dadff0ef          	jal	8000141e <_free_r>
    80001676:	4481                	li	s1,0
    80001678:	70a2                	ld	ra,40(sp)
    8000167a:	7402                	ld	s0,32(sp)
    8000167c:	6942                	ld	s2,16(sp)
    8000167e:	69a2                	ld	s3,8(sp)
    80001680:	6a02                	ld	s4,0(sp)
    80001682:	8526                	mv	a0,s1
    80001684:	64e2                	ld	s1,24(sp)
    80001686:	6145                	addi	sp,sp,48
    80001688:	8082                	ret
    8000168a:	8a2a                	mv	s4,a0
    8000168c:	84ae                	mv	s1,a1
    8000168e:	352000ef          	jal	800019e0 <_malloc_usable_size_r>
    80001692:	892a                	mv	s2,a0
    80001694:	00856663          	bltu	a0,s0,800016a0 <_realloc_r+0x54>
    80001698:	00155793          	srli	a5,a0,0x1
    8000169c:	fc87eee3          	bltu	a5,s0,80001678 <_realloc_r+0x2c>
    800016a0:	85a2                	mv	a1,s0
    800016a2:	8552                	mv	a0,s4
    800016a4:	e75ff0ef          	jal	80001518 <_malloc_r>
    800016a8:	89aa                	mv	s3,a0
    800016aa:	e119                	bnez	a0,800016b0 <_realloc_r+0x64>
    800016ac:	84ce                	mv	s1,s3
    800016ae:	b7e9                	j	80001678 <_realloc_r+0x2c>
    800016b0:	8622                	mv	a2,s0
    800016b2:	00897363          	bgeu	s2,s0,800016b8 <_realloc_r+0x6c>
    800016b6:	864a                	mv	a2,s2
    800016b8:	85a6                	mv	a1,s1
    800016ba:	854e                	mv	a0,s3
    800016bc:	d4dff0ef          	jal	80001408 <memcpy>
    800016c0:	85a6                	mv	a1,s1
    800016c2:	8552                	mv	a0,s4
    800016c4:	d5bff0ef          	jal	8000141e <_free_r>
    800016c8:	b7d5                	j	800016ac <_realloc_r+0x60>

00000000800016ca <__sflush_r>:
    800016ca:	01059783          	lh	a5,16(a1)
    800016ce:	7179                	addi	sp,sp,-48
    800016d0:	f022                	sd	s0,32(sp)
    800016d2:	ec26                	sd	s1,24(sp)
    800016d4:	f406                	sd	ra,40(sp)
    800016d6:	e84a                	sd	s2,16(sp)
    800016d8:	e44e                	sd	s3,8(sp)
    800016da:	0087f713          	andi	a4,a5,8
    800016de:	84aa                	mv	s1,a0
    800016e0:	842e                	mv	s0,a1
    800016e2:	eb69                	bnez	a4,800017b4 <__sflush_r+0xea>
    800016e4:	4598                	lw	a4,8(a1)
    800016e6:	00e04563          	bgtz	a4,800016f0 <__sflush_r+0x26>
    800016ea:	5db8                	lw	a4,120(a1)
    800016ec:	0ae05b63          	blez	a4,800017a2 <__sflush_r+0xd8>
    800016f0:	6838                	ld	a4,80(s0)
    800016f2:	cb45                	beqz	a4,800017a2 <__sflush_r+0xd8>
    800016f4:	0004a903          	lw	s2,0(s1)
    800016f8:	03379693          	slli	a3,a5,0x33
    800016fc:	0004a023          	sw	zero,0(s1)
    80001700:	7c0c                	ld	a1,56(s0)
    80001702:	0606de63          	bgez	a3,8000177e <__sflush_r+0xb4>
    80001706:	6c50                	ld	a2,152(s0)
    80001708:	01045783          	lhu	a5,16(s0)
    8000170c:	8b91                	andi	a5,a5,4
    8000170e:	c799                	beqz	a5,8000171c <__sflush_r+0x52>
    80001710:	441c                	lw	a5,8(s0)
    80001712:	8e1d                	sub	a2,a2,a5
    80001714:	703c                	ld	a5,96(s0)
    80001716:	c399                	beqz	a5,8000171c <__sflush_r+0x52>
    80001718:	5c3c                	lw	a5,120(s0)
    8000171a:	8e1d                	sub	a2,a2,a5
    8000171c:	683c                	ld	a5,80(s0)
    8000171e:	7c0c                	ld	a1,56(s0)
    80001720:	4681                	li	a3,0
    80001722:	8526                	mv	a0,s1
    80001724:	9782                	jalr	a5
    80001726:	577d                	li	a4,-1
    80001728:	01045783          	lhu	a5,16(s0)
    8000172c:	00e51d63          	bne	a0,a4,80001746 <__sflush_r+0x7c>
    80001730:	4094                	lw	a3,0(s1)
    80001732:	4775                	li	a4,29
    80001734:	06d76963          	bltu	a4,a3,800017a6 <__sflush_r+0xdc>
    80001738:	20400737          	lui	a4,0x20400
    8000173c:	0705                	addi	a4,a4,1 # 20400001 <__heap_size+0x203e0001>
    8000173e:	00d75733          	srl	a4,a4,a3
    80001742:	8b05                	andi	a4,a4,1
    80001744:	c32d                	beqz	a4,800017a6 <__sflush_r+0xdc>
    80001746:	6c18                	ld	a4,24(s0)
    80001748:	00042423          	sw	zero,8(s0)
    8000174c:	e018                	sd	a4,0(s0)
    8000174e:	03379713          	slli	a4,a5,0x33
    80001752:	00075863          	bgez	a4,80001762 <__sflush_r+0x98>
    80001756:	57fd                	li	a5,-1
    80001758:	00f51463          	bne	a0,a5,80001760 <__sflush_r+0x96>
    8000175c:	409c                	lw	a5,0(s1)
    8000175e:	e391                	bnez	a5,80001762 <__sflush_r+0x98>
    80001760:	ec48                	sd	a0,152(s0)
    80001762:	702c                	ld	a1,96(s0)
    80001764:	0124a023          	sw	s2,0(s1)
    80001768:	cd8d                	beqz	a1,800017a2 <__sflush_r+0xd8>
    8000176a:	07c40793          	addi	a5,s0,124
    8000176e:	00f58563          	beq	a1,a5,80001778 <__sflush_r+0xae>
    80001772:	8526                	mv	a0,s1
    80001774:	cabff0ef          	jal	8000141e <_free_r>
    80001778:	06043023          	sd	zero,96(s0)
    8000177c:	a01d                	j	800017a2 <__sflush_r+0xd8>
    8000177e:	4601                	li	a2,0
    80001780:	4685                	li	a3,1
    80001782:	8526                	mv	a0,s1
    80001784:	9702                	jalr	a4
    80001786:	57fd                	li	a5,-1
    80001788:	862a                	mv	a2,a0
    8000178a:	f6f51fe3          	bne	a0,a5,80001708 <__sflush_r+0x3e>
    8000178e:	409c                	lw	a5,0(s1)
    80001790:	dfa5                	beqz	a5,80001708 <__sflush_r+0x3e>
    80001792:	4775                	li	a4,29
    80001794:	00e78563          	beq	a5,a4,8000179e <__sflush_r+0xd4>
    80001798:	4759                	li	a4,22
    8000179a:	04e79663          	bne	a5,a4,800017e6 <__sflush_r+0x11c>
    8000179e:	0124a023          	sw	s2,0(s1)
    800017a2:	4501                	li	a0,0
    800017a4:	a881                	j	800017f4 <__sflush_r+0x12a>
    800017a6:	0407e793          	ori	a5,a5,64
    800017aa:	0107979b          	slliw	a5,a5,0x10
    800017ae:	4107d79b          	sraiw	a5,a5,0x10
    800017b2:	a835                	j	800017ee <__sflush_r+0x124>
    800017b4:	0185b983          	ld	s3,24(a1)
    800017b8:	fe0985e3          	beqz	s3,800017a2 <__sflush_r+0xd8>
    800017bc:	0005b903          	ld	s2,0(a1)
    800017c0:	8b8d                	andi	a5,a5,3
    800017c2:	0135b023          	sd	s3,0(a1)
    800017c6:	4139093b          	subw	s2,s2,s3
    800017ca:	4701                	li	a4,0
    800017cc:	e391                	bnez	a5,800017d0 <__sflush_r+0x106>
    800017ce:	5198                	lw	a4,32(a1)
    800017d0:	c458                	sw	a4,12(s0)
    800017d2:	fd2058e3          	blez	s2,800017a2 <__sflush_r+0xd8>
    800017d6:	643c                	ld	a5,72(s0)
    800017d8:	7c0c                	ld	a1,56(s0)
    800017da:	86ca                	mv	a3,s2
    800017dc:	864e                	mv	a2,s3
    800017de:	8526                	mv	a0,s1
    800017e0:	9782                	jalr	a5
    800017e2:	02a04063          	bgtz	a0,80001802 <__sflush_r+0x138>
    800017e6:	01041783          	lh	a5,16(s0)
    800017ea:	0407e793          	ori	a5,a5,64
    800017ee:	00f41823          	sh	a5,16(s0)
    800017f2:	557d                	li	a0,-1
    800017f4:	70a2                	ld	ra,40(sp)
    800017f6:	7402                	ld	s0,32(sp)
    800017f8:	64e2                	ld	s1,24(sp)
    800017fa:	6942                	ld	s2,16(sp)
    800017fc:	69a2                	ld	s3,8(sp)
    800017fe:	6145                	addi	sp,sp,48
    80001800:	8082                	ret
    80001802:	99aa                	add	s3,s3,a0
    80001804:	40a9093b          	subw	s2,s2,a0
    80001808:	b7e9                	j	800017d2 <__sflush_r+0x108>

000000008000180a <_fflush_r>:
    8000180a:	6d9c                	ld	a5,24(a1)
    8000180c:	cb8d                	beqz	a5,8000183e <_fflush_r+0x34>
    8000180e:	1101                	addi	sp,sp,-32
    80001810:	e822                	sd	s0,16(sp)
    80001812:	ec06                	sd	ra,24(sp)
    80001814:	842a                	mv	s0,a0
    80001816:	c519                	beqz	a0,80001824 <_fflush_r+0x1a>
    80001818:	613c                	ld	a5,64(a0)
    8000181a:	e789                	bnez	a5,80001824 <_fflush_r+0x1a>
    8000181c:	e42e                	sd	a1,8(sp)
    8000181e:	c5eff0ef          	jal	80000c7c <__sinit>
    80001822:	65a2                	ld	a1,8(sp)
    80001824:	01059783          	lh	a5,16(a1)
    80001828:	c791                	beqz	a5,80001834 <_fflush_r+0x2a>
    8000182a:	8522                	mv	a0,s0
    8000182c:	6442                	ld	s0,16(sp)
    8000182e:	60e2                	ld	ra,24(sp)
    80001830:	6105                	addi	sp,sp,32
    80001832:	bd61                	j	800016ca <__sflush_r>
    80001834:	60e2                	ld	ra,24(sp)
    80001836:	6442                	ld	s0,16(sp)
    80001838:	4501                	li	a0,0
    8000183a:	6105                	addi	sp,sp,32
    8000183c:	8082                	ret
    8000183e:	4501                	li	a0,0
    80001840:	8082                	ret

0000000080001842 <fflush>:
    80001842:	85aa                	mv	a1,a0
    80001844:	ed19                	bnez	a0,80001862 <fflush+0x20>
    80001846:	00000617          	auipc	a2,0x0
    8000184a:	71a60613          	addi	a2,a2,1818 # 80001f60 <__sglue>
    8000184e:	00000597          	auipc	a1,0x0
    80001852:	fbc58593          	addi	a1,a1,-68 # 8000180a <_fflush_r>
    80001856:	00000517          	auipc	a0,0x0
    8000185a:	67a50513          	addi	a0,a0,1658 # 80001ed0 <_impure_data>
    8000185e:	f38ff06f          	j	80000f96 <_fwalk_sglue>
    80001862:	00000517          	auipc	a0,0x0
    80001866:	71653503          	ld	a0,1814(a0) # 80001f78 <_impure_ptr>
    8000186a:	b745                	j	8000180a <_fflush_r>

000000008000186c <__swhatbuf_r>:
    8000186c:	7175                	addi	sp,sp,-144
    8000186e:	e122                	sd	s0,128(sp)
    80001870:	842e                	mv	s0,a1
    80001872:	01259583          	lh	a1,18(a1)
    80001876:	fca6                	sd	s1,120(sp)
    80001878:	f8ca                	sd	s2,112(sp)
    8000187a:	e506                	sd	ra,136(sp)
    8000187c:	84b2                	mv	s1,a2
    8000187e:	8936                	mv	s2,a3
    80001880:	0205d363          	bgez	a1,800018a6 <__swhatbuf_r+0x3a>
    80001884:	01045783          	lhu	a5,16(s0)
    80001888:	0807f793          	andi	a5,a5,128
    8000188c:	eb95                	bnez	a5,800018c0 <__swhatbuf_r+0x54>
    8000188e:	40000713          	li	a4,1024
    80001892:	60aa                	ld	ra,136(sp)
    80001894:	640a                	ld	s0,128(sp)
    80001896:	00f92023          	sw	a5,0(s2)
    8000189a:	e098                	sd	a4,0(s1)
    8000189c:	7946                	ld	s2,112(sp)
    8000189e:	74e6                	ld	s1,120(sp)
    800018a0:	4501                	li	a0,0
    800018a2:	6149                	addi	sp,sp,144
    800018a4:	8082                	ret
    800018a6:	0030                	addi	a2,sp,8
    800018a8:	0be000ef          	jal	80001966 <_fstat_r>
    800018ac:	fc054ce3          	bltz	a0,80001884 <__swhatbuf_r+0x18>
    800018b0:	47b2                	lw	a5,12(sp)
    800018b2:	673d                	lui	a4,0xf
    800018b4:	8ff9                	and	a5,a5,a4
    800018b6:	6709                	lui	a4,0x2
    800018b8:	8f99                	sub	a5,a5,a4
    800018ba:	0017b793          	seqz	a5,a5
    800018be:	bfc1                	j	8000188e <__swhatbuf_r+0x22>
    800018c0:	4781                	li	a5,0
    800018c2:	04000713          	li	a4,64
    800018c6:	b7f1                	j	80001892 <__swhatbuf_r+0x26>

00000000800018c8 <__smakebuf_r>:
    800018c8:	0105d783          	lhu	a5,16(a1)
    800018cc:	7139                	addi	sp,sp,-64
    800018ce:	f822                	sd	s0,48(sp)
    800018d0:	fc06                	sd	ra,56(sp)
    800018d2:	f426                	sd	s1,40(sp)
    800018d4:	f04a                	sd	s2,32(sp)
    800018d6:	ec4e                	sd	s3,24(sp)
    800018d8:	8b89                	andi	a5,a5,2
    800018da:	842e                	mv	s0,a1
    800018dc:	cf91                	beqz	a5,800018f8 <__smakebuf_r+0x30>
    800018de:	07f40793          	addi	a5,s0,127
    800018e2:	e01c                	sd	a5,0(s0)
    800018e4:	ec1c                	sd	a5,24(s0)
    800018e6:	4785                	li	a5,1
    800018e8:	d01c                	sw	a5,32(s0)
    800018ea:	70e2                	ld	ra,56(sp)
    800018ec:	7442                	ld	s0,48(sp)
    800018ee:	74a2                	ld	s1,40(sp)
    800018f0:	7902                	ld	s2,32(sp)
    800018f2:	69e2                	ld	s3,24(sp)
    800018f4:	6121                	addi	sp,sp,64
    800018f6:	8082                	ret
    800018f8:	0054                	addi	a3,sp,4
    800018fa:	0030                	addi	a2,sp,8
    800018fc:	84aa                	mv	s1,a0
    800018fe:	f6fff0ef          	jal	8000186c <__swhatbuf_r>
    80001902:	69a2                	ld	s3,8(sp)
    80001904:	892a                	mv	s2,a0
    80001906:	8526                	mv	a0,s1
    80001908:	85ce                	mv	a1,s3
    8000190a:	c0fff0ef          	jal	80001518 <_malloc_r>
    8000190e:	ed01                	bnez	a0,80001926 <__smakebuf_r+0x5e>
    80001910:	01041783          	lh	a5,16(s0)
    80001914:	2007f713          	andi	a4,a5,512
    80001918:	fb69                	bnez	a4,800018ea <__smakebuf_r+0x22>
    8000191a:	9bf1                	andi	a5,a5,-4
    8000191c:	0027e793          	ori	a5,a5,2
    80001920:	00f41823          	sh	a5,16(s0)
    80001924:	bf6d                	j	800018de <__smakebuf_r+0x16>
    80001926:	01045783          	lhu	a5,16(s0)
    8000192a:	e008                	sd	a0,0(s0)
    8000192c:	ec08                	sd	a0,24(s0)
    8000192e:	0807e793          	ori	a5,a5,128
    80001932:	00f41823          	sh	a5,16(s0)
    80001936:	4792                	lw	a5,4(sp)
    80001938:	03342023          	sw	s3,32(s0)
    8000193c:	cf91                	beqz	a5,80001958 <__smakebuf_r+0x90>
    8000193e:	01241583          	lh	a1,18(s0)
    80001942:	8526                	mv	a0,s1
    80001944:	04c000ef          	jal	80001990 <_isatty_r>
    80001948:	c901                	beqz	a0,80001958 <__smakebuf_r+0x90>
    8000194a:	01045783          	lhu	a5,16(s0)
    8000194e:	9bf1                	andi	a5,a5,-4
    80001950:	0017e793          	ori	a5,a5,1
    80001954:	00f41823          	sh	a5,16(s0)
    80001958:	01045783          	lhu	a5,16(s0)
    8000195c:	0127e533          	or	a0,a5,s2
    80001960:	00a41823          	sh	a0,16(s0)
    80001964:	b759                	j	800018ea <__smakebuf_r+0x22>

0000000080001966 <_fstat_r>:
    80001966:	1141                	addi	sp,sp,-16
    80001968:	e022                	sd	s0,0(sp)
    8000196a:	842a                	mv	s0,a0
    8000196c:	852e                	mv	a0,a1
    8000196e:	85b2                	mv	a1,a2
    80001970:	8201a823          	sw	zero,-2000(gp) # 80001fa8 <errno>
    80001974:	e406                	sd	ra,8(sp)
    80001976:	096000ef          	jal	80001a0c <_fstat>
    8000197a:	57fd                	li	a5,-1
    8000197c:	00f51663          	bne	a0,a5,80001988 <_fstat_r+0x22>
    80001980:	8301a783          	lw	a5,-2000(gp) # 80001fa8 <errno>
    80001984:	c391                	beqz	a5,80001988 <_fstat_r+0x22>
    80001986:	c01c                	sw	a5,0(s0)
    80001988:	60a2                	ld	ra,8(sp)
    8000198a:	6402                	ld	s0,0(sp)
    8000198c:	0141                	addi	sp,sp,16
    8000198e:	8082                	ret

0000000080001990 <_isatty_r>:
    80001990:	1141                	addi	sp,sp,-16
    80001992:	e022                	sd	s0,0(sp)
    80001994:	842a                	mv	s0,a0
    80001996:	852e                	mv	a0,a1
    80001998:	8201a823          	sw	zero,-2000(gp) # 80001fa8 <errno>
    8000199c:	e406                	sd	ra,8(sp)
    8000199e:	082000ef          	jal	80001a20 <_isatty>
    800019a2:	57fd                	li	a5,-1
    800019a4:	00f51663          	bne	a0,a5,800019b0 <_isatty_r+0x20>
    800019a8:	8301a783          	lw	a5,-2000(gp) # 80001fa8 <errno>
    800019ac:	c391                	beqz	a5,800019b0 <_isatty_r+0x20>
    800019ae:	c01c                	sw	a5,0(s0)
    800019b0:	60a2                	ld	ra,8(sp)
    800019b2:	6402                	ld	s0,0(sp)
    800019b4:	0141                	addi	sp,sp,16
    800019b6:	8082                	ret

00000000800019b8 <_sbrk_r>:
    800019b8:	1141                	addi	sp,sp,-16
    800019ba:	e022                	sd	s0,0(sp)
    800019bc:	842a                	mv	s0,a0
    800019be:	852e                	mv	a0,a1
    800019c0:	8201a823          	sw	zero,-2000(gp) # 80001fa8 <errno>
    800019c4:	e406                	sd	ra,8(sp)
    800019c6:	08c000ef          	jal	80001a52 <_sbrk>
    800019ca:	57fd                	li	a5,-1
    800019cc:	00f51663          	bne	a0,a5,800019d8 <_sbrk_r+0x20>
    800019d0:	8301a783          	lw	a5,-2000(gp) # 80001fa8 <errno>
    800019d4:	c391                	beqz	a5,800019d8 <_sbrk_r+0x20>
    800019d6:	c01c                	sw	a5,0(s0)
    800019d8:	60a2                	ld	ra,8(sp)
    800019da:	6402                	ld	s0,0(sp)
    800019dc:	0141                	addi	sp,sp,16
    800019de:	8082                	ret

00000000800019e0 <_malloc_usable_size_r>:
    800019e0:	ff85b503          	ld	a0,-8(a1)
    800019e4:	0005079b          	sext.w	a5,a0
    800019e8:	1561                	addi	a0,a0,-8
    800019ea:	0007d663          	bgez	a5,800019f6 <_malloc_usable_size_r+0x16>
    800019ee:	95aa                	add	a1,a1,a0
    800019f0:	6188                	ld	a0,0(a1)
    800019f2:	17e1                	addi	a5,a5,-8
    800019f4:	953e                	add	a0,a0,a5
    800019f6:	8082                	ret

00000000800019f8 <_close>:
    800019f8:	1141                	addi	sp,sp,-16
    800019fa:	e406                	sd	ra,8(sp)
    800019fc:	17c000ef          	jal	80001b78 <__errno>
    80001a00:	60a2                	ld	ra,8(sp)
    80001a02:	47a5                	li	a5,9
    80001a04:	c11c                	sw	a5,0(a0)
    80001a06:	557d                	li	a0,-1
    80001a08:	0141                	addi	sp,sp,16
    80001a0a:	8082                	ret

0000000080001a0c <_fstat>:
    80001a0c:	1141                	addi	sp,sp,-16
    80001a0e:	e406                	sd	ra,8(sp)
    80001a10:	168000ef          	jal	80001b78 <__errno>
    80001a14:	60a2                	ld	ra,8(sp)
    80001a16:	47a5                	li	a5,9
    80001a18:	c11c                	sw	a5,0(a0)
    80001a1a:	557d                	li	a0,-1
    80001a1c:	0141                	addi	sp,sp,16
    80001a1e:	8082                	ret

0000000080001a20 <_isatty>:
    80001a20:	357d                	addiw	a0,a0,-1
    80001a22:	00253513          	sltiu	a0,a0,2
    80001a26:	8082                	ret

0000000080001a28 <_lseek>:
    80001a28:	1141                	addi	sp,sp,-16
    80001a2a:	e406                	sd	ra,8(sp)
    80001a2c:	14c000ef          	jal	80001b78 <__errno>
    80001a30:	60a2                	ld	ra,8(sp)
    80001a32:	47a5                	li	a5,9
    80001a34:	c11c                	sw	a5,0(a0)
    80001a36:	557d                	li	a0,-1
    80001a38:	0141                	addi	sp,sp,16
    80001a3a:	8082                	ret

0000000080001a3c <_read>:
    80001a3c:	1141                	addi	sp,sp,-16
    80001a3e:	e406                	sd	ra,8(sp)
    80001a40:	138000ef          	jal	80001b78 <__errno>
    80001a44:	60a2                	ld	ra,8(sp)
    80001a46:	05800793          	li	a5,88
    80001a4a:	c11c                	sw	a5,0(a0)
    80001a4c:	557d                	li	a0,-1
    80001a4e:	0141                	addi	sp,sp,16
    80001a50:	8082                	ret

0000000080001a52 <_sbrk>:
    80001a52:	00000717          	auipc	a4,0x0
    80001a56:	52e70713          	addi	a4,a4,1326 # 80001f80 <curbrk>
    80001a5a:	631c                	ld	a5,0(a4)
    80001a5c:	b9018693          	addi	a3,gp,-1136 # 80002308 <_end>
    80001a60:	953e                	add	a0,a0,a5
    80001a62:	00d56b63          	bltu	a0,a3,80001a78 <_sbrk+0x26>
    80001a66:	00021697          	auipc	a3,0x21
    80001a6a:	59a68693          	addi	a3,a3,1434 # 80023000 <__heap_end>
    80001a6e:	00d57563          	bgeu	a0,a3,80001a78 <_sbrk+0x26>
    80001a72:	e308                	sd	a0,0(a4)
    80001a74:	853e                	mv	a0,a5
    80001a76:	8082                	ret
    80001a78:	1141                	addi	sp,sp,-16
    80001a7a:	e406                	sd	ra,8(sp)
    80001a7c:	0fc000ef          	jal	80001b78 <__errno>
    80001a80:	60a2                	ld	ra,8(sp)
    80001a82:	47b1                	li	a5,12
    80001a84:	c11c                	sw	a5,0(a0)
    80001a86:	57fd                	li	a5,-1
    80001a88:	853e                	mv	a0,a5
    80001a8a:	0141                	addi	sp,sp,16
    80001a8c:	8082                	ret

0000000080001a8e <_write>:
    80001a8e:	04000693          	li	a3,64
    80001a92:	a0a1                	j	80001ada <htif_syscall>

0000000080001a94 <handle_trap>:
    80001a94:	1141                	addi	sp,sp,-16
    80001a96:	02159513          	slli	a0,a1,0x21
    80001a9a:	e406                	sd	ra,8(sp)
    80001a9c:	9105                	srli	a0,a0,0x21
    80001a9e:	0005d463          	bgez	a1,80001aa6 <handle_trap+0x12>
    80001aa2:	40a0053b          	negw	a0,a0
    80001aa6:	080000ef          	jal	80001b26 <_exit>

0000000080001aaa <__init_tls>:
    80001aaa:	1141                	addi	sp,sp,-16
    80001aac:	00000613          	li	a2,0
    80001ab0:	00000597          	auipc	a1,0x0
    80001ab4:	2a458593          	addi	a1,a1,676 # 80001d54 <__tdata_start>
    80001ab8:	8512                	mv	a0,tp
    80001aba:	e022                	sd	s0,0(sp)
    80001abc:	e406                	sd	ra,8(sp)
    80001abe:	8412                	mv	s0,tp
    80001ac0:	949ff0ef          	jal	80001408 <memcpy>
    80001ac4:	00000513          	li	a0,0
    80001ac8:	9522                	add	a0,a0,s0
    80001aca:	6402                	ld	s0,0(sp)
    80001acc:	60a2                	ld	ra,8(sp)
    80001ace:	00400613          	li	a2,4
    80001ad2:	4581                	li	a1,0
    80001ad4:	0141                	addi	sp,sp,16
    80001ad6:	923ff06f          	j	800013f8 <memset>

0000000080001ada <htif_syscall>:
    80001ada:	7139                	addi	sp,sp,-64
    80001adc:	e036                	sd	a3,0(sp)
    80001ade:	e42a                	sd	a0,8(sp)
    80001ae0:	fff007b7          	lui	a5,0xfff00
    80001ae4:	e82e                	sd	a1,16(sp)
    80001ae6:	83c1                	srli	a5,a5,0x10
    80001ae8:	ec32                	sd	a2,24(sp)
    80001aea:	860a                	mv	a2,sp
    80001aec:	8e7d                	and	a2,a2,a5
    80001aee:	84818713          	addi	a4,gp,-1976 # 80001fc0 <htif_lock>
    80001af2:	56fd                	li	a3,-1
    80001af4:	431c                	lw	a5,0(a4)
    80001af6:	fffd                	bnez	a5,80001af4 <htif_syscall+0x1a>
    80001af8:	0cd727af          	amoswap.w.aq	a5,a3,(a4)
    80001afc:	ffe5                	bnez	a5,80001af4 <htif_syscall+0x1a>
    80001afe:	0110000f          	fence	w,w
    80001b02:	00000697          	auipc	a3,0x0
    80001b06:	3be68693          	addi	a3,a3,958 # 80001ec0 <tohost>
    80001b0a:	e290                	sd	a2,0(a3)
    80001b0c:	669c                	ld	a5,8(a3)
    80001b0e:	dffd                	beqz	a5,80001b0c <htif_syscall+0x32>
    80001b10:	00000797          	auipc	a5,0x0
    80001b14:	3a07bc23          	sd	zero,952(a5) # 80001ec8 <fromhost>
    80001b18:	0a07202f          	amoswap.w.rl	zero,zero,(a4)
    80001b1c:	0220000f          	fence	r,r
    80001b20:	6502                	ld	a0,0(sp)
    80001b22:	6121                	addi	sp,sp,64
    80001b24:	8082                	ret

0000000080001b26 <_exit>:
    80001b26:	0015179b          	slliw	a5,a0,0x1
    80001b2a:	0017e793          	ori	a5,a5,1
    80001b2e:	2781                	sext.w	a5,a5
    80001b30:	07c2                	slli	a5,a5,0x10
    80001b32:	83c1                	srli	a5,a5,0x10
    80001b34:	00000717          	auipc	a4,0x0
    80001b38:	38c70713          	addi	a4,a4,908 # 80001ec0 <tohost>
    80001b3c:	00000697          	auipc	a3,0x0
    80001b40:	3806b623          	sd	zero,908(a3) # 80001ec8 <fromhost>
    80001b44:	e31c                	sd	a5,0(a4)
    80001b46:	bfdd                	j	80001b3c <_exit+0x16>

0000000080001b48 <atexit>:
    80001b48:	85aa                	mv	a1,a0
    80001b4a:	4681                	li	a3,0
    80001b4c:	4601                	li	a2,0
    80001b4e:	4501                	li	a0,0
    80001b50:	a0d9                	j	80001c16 <__register_exitproc>

0000000080001b52 <exit>:
    80001b52:	1141                	addi	sp,sp,-16
    80001b54:	e022                	sd	s0,0(sp)
    80001b56:	e406                	sd	ra,8(sp)
    80001b58:	00000797          	auipc	a5,0x0
    80001b5c:	13478793          	addi	a5,a5,308 # 80001c8c <__call_exitprocs>
    80001b60:	842a                	mv	s0,a0
    80001b62:	c781                	beqz	a5,80001b6a <exit+0x18>
    80001b64:	4581                	li	a1,0
    80001b66:	126000ef          	jal	80001c8c <__call_exitprocs>
    80001b6a:	8281b783          	ld	a5,-2008(gp) # 80001fa0 <__stdio_exit_handler>
    80001b6e:	c391                	beqz	a5,80001b72 <exit+0x20>
    80001b70:	9782                	jalr	a5
    80001b72:	8522                	mv	a0,s0
    80001b74:	fb3ff0ef          	jal	80001b26 <_exit>

0000000080001b78 <__errno>:
    80001b78:	00000517          	auipc	a0,0x0
    80001b7c:	40053503          	ld	a0,1024(a0) # 80001f78 <_impure_ptr>
    80001b80:	8082                	ret

0000000080001b82 <__libc_init_array>:
    80001b82:	1101                	addi	sp,sp,-32
    80001b84:	e822                	sd	s0,16(sp)
    80001b86:	e426                	sd	s1,8(sp)
    80001b88:	00000417          	auipc	s0,0x0
    80001b8c:	33040413          	addi	s0,s0,816 # 80001eb8 <__fini_array_end>
    80001b90:	00000497          	auipc	s1,0x0
    80001b94:	32848493          	addi	s1,s1,808 # 80001eb8 <__fini_array_end>
    80001b98:	8c81                	sub	s1,s1,s0
    80001b9a:	e04a                	sd	s2,0(sp)
    80001b9c:	ec06                	sd	ra,24(sp)
    80001b9e:	848d                	srai	s1,s1,0x3
    80001ba0:	4901                	li	s2,0
    80001ba2:	02991563          	bne	s2,s1,80001bcc <__libc_init_array+0x4a>
    80001ba6:	00000417          	auipc	s0,0x0
    80001baa:	31240413          	addi	s0,s0,786 # 80001eb8 <__fini_array_end>
    80001bae:	00000497          	auipc	s1,0x0
    80001bb2:	30a48493          	addi	s1,s1,778 # 80001eb8 <__fini_array_end>
    80001bb6:	8c81                	sub	s1,s1,s0
    80001bb8:	848d                	srai	s1,s1,0x3
    80001bba:	4901                	li	s2,0
    80001bbc:	00991d63          	bne	s2,s1,80001bd6 <__libc_init_array+0x54>
    80001bc0:	60e2                	ld	ra,24(sp)
    80001bc2:	6442                	ld	s0,16(sp)
    80001bc4:	64a2                	ld	s1,8(sp)
    80001bc6:	6902                	ld	s2,0(sp)
    80001bc8:	6105                	addi	sp,sp,32
    80001bca:	8082                	ret
    80001bcc:	601c                	ld	a5,0(s0)
    80001bce:	0905                	addi	s2,s2,1
    80001bd0:	0421                	addi	s0,s0,8
    80001bd2:	9782                	jalr	a5
    80001bd4:	b7f9                	j	80001ba2 <__libc_init_array+0x20>
    80001bd6:	601c                	ld	a5,0(s0)
    80001bd8:	0905                	addi	s2,s2,1
    80001bda:	0421                	addi	s0,s0,8
    80001bdc:	9782                	jalr	a5
    80001bde:	bff9                	j	80001bbc <__libc_init_array+0x3a>

0000000080001be0 <__libc_fini_array>:
    80001be0:	1101                	addi	sp,sp,-32
    80001be2:	e822                	sd	s0,16(sp)
    80001be4:	e426                	sd	s1,8(sp)
    80001be6:	00000417          	auipc	s0,0x0
    80001bea:	2d240413          	addi	s0,s0,722 # 80001eb8 <__fini_array_end>
    80001bee:	00000497          	auipc	s1,0x0
    80001bf2:	2ca48493          	addi	s1,s1,714 # 80001eb8 <__fini_array_end>
    80001bf6:	8c05                	sub	s0,s0,s1
    80001bf8:	ec06                	sd	ra,24(sp)
    80001bfa:	840d                	srai	s0,s0,0x3
    80001bfc:	e411                	bnez	s0,80001c08 <__libc_fini_array+0x28>
    80001bfe:	60e2                	ld	ra,24(sp)
    80001c00:	6442                	ld	s0,16(sp)
    80001c02:	64a2                	ld	s1,8(sp)
    80001c04:	6105                	addi	sp,sp,32
    80001c06:	8082                	ret
    80001c08:	147d                	addi	s0,s0,-1
    80001c0a:	00341793          	slli	a5,s0,0x3
    80001c0e:	97a6                	add	a5,a5,s1
    80001c10:	639c                	ld	a5,0(a5)
    80001c12:	9782                	jalr	a5
    80001c14:	b7e5                	j	80001bfc <__libc_fini_array+0x1c>

0000000080001c16 <__register_exitproc>:
    80001c16:	88aa                	mv	a7,a0
    80001c18:	85818513          	addi	a0,gp,-1960 # 80001fd0 <__atexit>
    80001c1c:	6118                	ld	a4,0(a0)
    80001c1e:	ef01                	bnez	a4,80001c36 <__register_exitproc+0x20>
    80001c20:	a7818793          	addi	a5,gp,-1416 # 800021f0 <__atexit0>
    80001c24:	e11c                	sd	a5,0(a0)
    80001c26:	00000713          	li	a4,0
    80001c2a:	c701                	beqz	a4,80001c32 <__register_exitproc+0x1c>
    80001c2c:	6318                	ld	a4,0(a4)
    80001c2e:	10e7b823          	sd	a4,272(a5)
    80001c32:	a7818713          	addi	a4,gp,-1416 # 800021f0 <__atexit0>
    80001c36:	471c                	lw	a5,8(a4)
    80001c38:	487d                	li	a6,31
    80001c3a:	557d                	li	a0,-1
    80001c3c:	04f84763          	blt	a6,a5,80001c8a <__register_exitproc+0x74>
    80001c40:	02088d63          	beqz	a7,80001c7a <__register_exitproc+0x64>
    80001c44:	11073803          	ld	a6,272(a4)
    80001c48:	04080163          	beqz	a6,80001c8a <__register_exitproc+0x74>
    80001c4c:	00379513          	slli	a0,a5,0x3
    80001c50:	9542                	add	a0,a0,a6
    80001c52:	e110                	sd	a2,0(a0)
    80001c54:	20082303          	lw	t1,512(a6)
    80001c58:	4605                	li	a2,1
    80001c5a:	00f6163b          	sllw	a2,a2,a5
    80001c5e:	00c36333          	or	t1,t1,a2
    80001c62:	20682023          	sw	t1,512(a6)
    80001c66:	10d53023          	sd	a3,256(a0)
    80001c6a:	4689                	li	a3,2
    80001c6c:	00d89763          	bne	a7,a3,80001c7a <__register_exitproc+0x64>
    80001c70:	20482683          	lw	a3,516(a6)
    80001c74:	8ed1                	or	a3,a3,a2
    80001c76:	20d82223          	sw	a3,516(a6)
    80001c7a:	0017869b          	addiw	a3,a5,1
    80001c7e:	0789                	addi	a5,a5,2
    80001c80:	078e                	slli	a5,a5,0x3
    80001c82:	c714                	sw	a3,8(a4)
    80001c84:	973e                	add	a4,a4,a5
    80001c86:	e30c                	sd	a1,0(a4)
    80001c88:	4501                	li	a0,0
    80001c8a:	8082                	ret

0000000080001c8c <__call_exitprocs>:
    80001c8c:	711d                	addi	sp,sp,-96
    80001c8e:	f852                	sd	s4,48(sp)
    80001c90:	f456                	sd	s5,40(sp)
    80001c92:	f05a                	sd	s6,32(sp)
    80001c94:	ec5e                	sd	s7,24(sp)
    80001c96:	ec86                	sd	ra,88(sp)
    80001c98:	e8a2                	sd	s0,80(sp)
    80001c9a:	e4a6                	sd	s1,72(sp)
    80001c9c:	e0ca                	sd	s2,64(sp)
    80001c9e:	fc4e                	sd	s3,56(sp)
    80001ca0:	e862                	sd	s8,16(sp)
    80001ca2:	e466                	sd	s9,8(sp)
    80001ca4:	8aaa                	mv	s5,a0
    80001ca6:	8a2e                	mv	s4,a1
    80001ca8:	85818b13          	addi	s6,gp,-1960 # 80001fd0 <__atexit>
    80001cac:	4b85                	li	s7,1
    80001cae:	000b3483          	ld	s1,0(s6)
    80001cb2:	cc81                	beqz	s1,80001cca <__call_exitprocs+0x3e>
    80001cb4:	4480                	lw	s0,8(s1)
    80001cb6:	1104b983          	ld	s3,272(s1)
    80001cba:	fff4091b          	addiw	s2,s0,-1
    80001cbe:	040e                	slli	s0,s0,0x3
    80001cc0:	00898cb3          	add	s9,s3,s0
    80001cc4:	9426                	add	s0,s0,s1
    80001cc6:	00095f63          	bgez	s2,80001ce4 <__call_exitprocs+0x58>
    80001cca:	60e6                	ld	ra,88(sp)
    80001ccc:	6446                	ld	s0,80(sp)
    80001cce:	64a6                	ld	s1,72(sp)
    80001cd0:	6906                	ld	s2,64(sp)
    80001cd2:	79e2                	ld	s3,56(sp)
    80001cd4:	7a42                	ld	s4,48(sp)
    80001cd6:	7aa2                	ld	s5,40(sp)
    80001cd8:	7b02                	ld	s6,32(sp)
    80001cda:	6be2                	ld	s7,24(sp)
    80001cdc:	6c42                	ld	s8,16(sp)
    80001cde:	6ca2                	ld	s9,8(sp)
    80001ce0:	6125                	addi	sp,sp,96
    80001ce2:	8082                	ret
    80001ce4:	000a0c63          	beqz	s4,80001cfc <__call_exitprocs+0x70>
    80001ce8:	00099663          	bnez	s3,80001cf4 <__call_exitprocs+0x68>
    80001cec:	397d                	addiw	s2,s2,-1
    80001cee:	1ce1                	addi	s9,s9,-8
    80001cf0:	1461                	addi	s0,s0,-8
    80001cf2:	bfd1                	j	80001cc6 <__call_exitprocs+0x3a>
    80001cf4:	0f8cb783          	ld	a5,248(s9)
    80001cf8:	ff479ae3          	bne	a5,s4,80001cec <__call_exitprocs+0x60>
    80001cfc:	449c                	lw	a5,8(s1)
    80001cfe:	6418                	ld	a4,8(s0)
    80001d00:	37fd                	addiw	a5,a5,-1
    80001d02:	03279963          	bne	a5,s2,80001d34 <__call_exitprocs+0xa8>
    80001d06:	0124a423          	sw	s2,8(s1)
    80001d0a:	d36d                	beqz	a4,80001cec <__call_exitprocs+0x60>
    80001d0c:	0084ac03          	lw	s8,8(s1)
    80001d10:	00098963          	beqz	s3,80001d22 <__call_exitprocs+0x96>
    80001d14:	2009a783          	lw	a5,512(s3)
    80001d18:	012b96bb          	sllw	a3,s7,s2
    80001d1c:	8ff5                	and	a5,a5,a3
    80001d1e:	2781                	sext.w	a5,a5
    80001d20:	ef89                	bnez	a5,80001d3a <__call_exitprocs+0xae>
    80001d22:	9702                	jalr	a4
    80001d24:	4498                	lw	a4,8(s1)
    80001d26:	000b3783          	ld	a5,0(s6)
    80001d2a:	f98712e3          	bne	a4,s8,80001cae <__call_exitprocs+0x22>
    80001d2e:	faf48fe3          	beq	s1,a5,80001cec <__call_exitprocs+0x60>
    80001d32:	bfb5                	j	80001cae <__call_exitprocs+0x22>
    80001d34:	00043423          	sd	zero,8(s0)
    80001d38:	bfc9                	j	80001d0a <__call_exitprocs+0x7e>
    80001d3a:	2049a783          	lw	a5,516(s3)
    80001d3e:	ff8cb583          	ld	a1,-8(s9)
    80001d42:	8ff5                	and	a5,a5,a3
    80001d44:	2781                	sext.w	a5,a5
    80001d46:	e781                	bnez	a5,80001d4e <__call_exitprocs+0xc2>
    80001d48:	8556                	mv	a0,s5
    80001d4a:	9702                	jalr	a4
    80001d4c:	bfe1                	j	80001d24 <__call_exitprocs+0x98>
    80001d4e:	852e                	mv	a0,a1
    80001d50:	9702                	jalr	a4
    80001d52:	bfc9                	j	80001d24 <__call_exitprocs+0x98>

Disassembly of section .rodata:

0000000080001d58 <CSWTCH.9-0x98>:
    80001d58:	6e75                	lui	t3,0x1d
    80001d5a:	776f6e6b          	.insn	4, 0x776f6e6b
    80001d5e:	006e                	c.slli	zero,0x1b
    80001d60:	6548                	ld	a0,136(a0)
    80001d62:	6c6c                	ld	a1,216(s0)
    80001d64:	6f77206f          	j	80074c5a <__heap_end+0x51c5a>
    80001d68:	6c72                	ld	s8,280(sp)
    80001d6a:	2064                	fld	fs1,192(s0)
    80001d6c:	7266                	ld	tp,120(sp)
    80001d6e:	63206d6f          	jal	s10,800083a0 <__global_pointer$+0x5c28>
    80001d72:	2065726f          	jal	tp,80058f78 <__heap_end+0x35f78>
    80001d76:	6c25                	lui	s8,0x9
    80001d78:	2c75                	addiw	s8,s8,29 # 901d <__stack_size+0x101d>
    80001d7a:	6120                	ld	s0,64(a0)
    80001d7c:	2520                	fld	fs0,72(a0)
    80001d7e:	00000a73          	.insn	4, 0x0a73
    80001d82:	0000                	unimp
    80001d84:	0000                	unimp
    80001d86:	0000                	unimp
    80001d88:	6f72                	ld	t5,280(sp)
    80001d8a:	74656b63          	bltu	a0,t1,800024e0 <_end+0x1d8>
    80001d8e:	0000                	unimp
    80001d90:	696e6f73          	csrrsi	t5,0x696,28
    80001d94:	6f6f6263          	bltu	t5,s6,80002478 <_end+0x170>
    80001d98:	006d                	c.nop	27
    80001d9a:	0000                	unimp
    80001d9c:	0000                	unimp
    80001d9e:	0000                	unimp
    80001da0:	6b697073          	csrci	0x6b6,18
    80001da4:	0065                	c.nop	25
    80001da6:	0000                	unimp
    80001da8:	2b302d23          	sw	s3,698(zero) # 2ba <__stack_align+0x2aa>
    80001dac:	0020                	addi	s0,sp,8
    80001dae:	0000                	unimp
    80001db0:	6c68                	ld	a0,216(s0)
    80001db2:	004c                	addi	a1,sp,4
    80001db4:	0000                	unimp
    80001db6:	0000                	unimp
    80001db8:	6665                	lui	a2,0x19
    80001dba:	47464567          	.insn	4, 0x47464567
    80001dbe:	0000                	unimp
    80001dc0:	3130                	fld	fa2,96(a0)
    80001dc2:	3332                	fld	ft6,296(sp)
    80001dc4:	3534                	fld	fa3,104(a0)
    80001dc6:	3736                	fld	fa4,360(sp)
    80001dc8:	3938                	fld	fa4,112(a0)
    80001dca:	4241                	li	tp,16
    80001dcc:	46454443          	.insn	4, 0x46454443
	...
    80001dd8:	3130                	fld	fa2,96(a0)
    80001dda:	3332                	fld	ft6,296(sp)
    80001ddc:	3534                	fld	fa3,104(a0)
    80001dde:	3736                	fld	fa4,360(sp)
    80001de0:	3938                	fld	fa4,112(a0)
    80001de2:	6261                	lui	tp,0x18
    80001de4:	66656463          	bltu	a0,t1,8000244c <_end+0x144>
	...

0000000080001df0 <CSWTCH.9>:
    80001df0:	1d88                	addi	a0,sp,752
    80001df2:	8000                	.insn	2, 0x8000
    80001df4:	0000                	unimp
    80001df6:	0000                	unimp
    80001df8:	1d90                	addi	a2,sp,752
    80001dfa:	8000                	.insn	2, 0x8000
    80001dfc:	0000                	unimp
    80001dfe:	0000                	unimp
    80001e00:	1d58                	addi	a4,sp,692
    80001e02:	8000                	.insn	2, 0x8000
    80001e04:	0000                	unimp
    80001e06:	0000                	unimp
    80001e08:	1d58                	addi	a4,sp,692
    80001e0a:	8000                	.insn	2, 0x8000
    80001e0c:	0000                	unimp
    80001e0e:	0000                	unimp
    80001e10:	1da0                	addi	s0,sp,760
    80001e12:	8000                	.insn	2, 0x8000
    80001e14:	0000                	unimp
    80001e16:	0000                	unimp
    80001e18:	ea82                	sd	zero,336(sp)
    80001e1a:	ffff                	.insn	2, 0xffff
    80001e1c:	ea98                	sd	a4,16(a3)
    80001e1e:	ffff                	.insn	2, 0xffff
    80001e20:	ea58                	sd	a4,144(a2)
    80001e22:	ffff                	.insn	2, 0xffff
    80001e24:	ea58                	sd	a4,144(a2)
    80001e26:	ffff                	.insn	2, 0xffff
    80001e28:	ea58                	sd	a4,144(a2)
    80001e2a:	ffff                	.insn	2, 0xffff
    80001e2c:	ea58                	sd	a4,144(a2)
    80001e2e:	ffff                	.insn	2, 0xffff
    80001e30:	ea98                	sd	a4,16(a3)
    80001e32:	ffff                	.insn	2, 0xffff
    80001e34:	ea58                	sd	a4,144(a2)
    80001e36:	ffff                	.insn	2, 0xffff
    80001e38:	ea58                	sd	a4,144(a2)
    80001e3a:	ffff                	.insn	2, 0xffff
    80001e3c:	ea58                	sd	a4,144(a2)
    80001e3e:	ffff                	.insn	2, 0xffff
    80001e40:	ea58                	sd	a4,144(a2)
    80001e42:	ffff                	.insn	2, 0xffff
    80001e44:	ebf8                	sd	a4,208(a5)
    80001e46:	ffff                	.insn	2, 0xffff
    80001e48:	eada                	sd	s6,336(sp)
    80001e4a:	ffff                	.insn	2, 0xffff
    80001e4c:	eb94                	sd	a3,16(a5)
    80001e4e:	ffff                	.insn	2, 0xffff
    80001e50:	ea58                	sd	a4,144(a2)
    80001e52:	ffff                	.insn	2, 0xffff
    80001e54:	ea58                	sd	a4,144(a2)
    80001e56:	ffff                	.insn	2, 0xffff
    80001e58:	ec2c                	sd	a1,88(s0)
    80001e5a:	ffff                	.insn	2, 0xffff
    80001e5c:	ea58                	sd	a4,144(a2)
    80001e5e:	ffff                	.insn	2, 0xffff
    80001e60:	eada                	sd	s6,336(sp)
    80001e62:	ffff                	.insn	2, 0xffff
    80001e64:	ea58                	sd	a4,144(a2)
    80001e66:	ffff                	.insn	2, 0xffff
    80001e68:	ea58                	sd	a4,144(a2)
    80001e6a:	ffff                	.insn	2, 0xffff
    80001e6c:	eb9c                	sd	a5,16(a5)
    80001e6e:	ffff                	.insn	2, 0xffff

0000000080001e70 <argv>:
    80001e70:	1e80                	addi	s0,sp,880
    80001e72:	8000                	.insn	2, 0x8000
	...

0000000080001e80 <name>:
    80001e80:	70696863          	bltu	s2,t1,80002590 <_end+0x288>
    80001e84:	6179                	addi	sp,sp,464
    80001e86:	6472                	ld	s0,280(sp)
	...

Disassembly of section .eh_frame:

0000000080001e90 <.eh_frame>:
    80001e90:	0010                	.insn	2, 0x0010
    80001e92:	0000                	unimp
    80001e94:	0000                	unimp
    80001e96:	0000                	unimp
    80001e98:	00527a03          	.insn	4, 0x00527a03
    80001e9c:	7c01                	lui	s8,0xfffe0
    80001e9e:	0101                	addi	sp,sp,0
    80001ea0:	00020d1b          	sext.w	s10,tp
    80001ea4:	0010                	.insn	2, 0x0010
    80001ea6:	0000                	unimp
    80001ea8:	0018                	.insn	2, 0x0018
    80001eaa:	0000                	unimp
    80001eac:	e154                	sd	a3,128(a0)
    80001eae:	ffff                	.insn	2, 0xffff
    80001eb0:	0144                	addi	s1,sp,132
    80001eb2:	0000                	unimp
    80001eb4:	0000                	unimp
	...

Disassembly of section .htif:

0000000080001ec0 <tohost>:
	...

0000000080001ec8 <fromhost>:
	...

Disassembly of section .data._impure_data:

0000000080001ed0 <_impure_data>:
	...
    80001ed8:	1fd8                	addi	a4,sp,1012
    80001eda:	8000                	.insn	2, 0x8000
    80001edc:	0000                	unimp
    80001ede:	0000                	unimp
    80001ee0:	2088                	fld	fa0,0(s1)
    80001ee2:	8000                	.insn	2, 0x8000
    80001ee4:	0000                	unimp
    80001ee6:	0000                	unimp
    80001ee8:	2138                	fld	fa4,64(a0)
    80001eea:	8000                	.insn	2, 0x8000
	...

Disassembly of section .data.__sglue:

0000000080001f60 <__sglue>:
	...
    80001f68:	00000003          	lb	zero,0(zero) # 0 <__boot_hart>
    80001f6c:	0000                	unimp
    80001f6e:	0000                	unimp
    80001f70:	1fd8                	addi	a4,sp,1012
    80001f72:	8000                	.insn	2, 0x8000
    80001f74:	0000                	unimp
	...

Disassembly of section .sdata:

0000000080001f78 <_impure_ptr>:
    80001f78:	1ed0                	addi	a2,sp,884
    80001f7a:	8000                	.insn	2, 0x8000
    80001f7c:	0000                	unimp
	...

0000000080001f80 <curbrk>:
    80001f80:	2308                	fld	fa0,0(a4)
    80001f82:	8000                	.insn	2, 0x8000
    80001f84:	0000                	unimp
	...

0000000080001f88 <environ>:
    80001f88:	1fc8                	addi	a0,sp,1012
    80001f8a:	8000                	.insn	2, 0x8000
    80001f8c:	0000                	unimp
	...

0000000080001f90 <__atexit_dummy>:
    80001f90:	1c8c                	addi	a1,sp,624
    80001f92:	8000                	.insn	2, 0x8000
    80001f94:	0000                	unimp
	...

Disassembly of section .debug_info:

0000000000000000 <.debug_info>:
       0:	024e                	slli	tp,tp,0x13
       2:	0000                	unimp
       4:	0005                	c.nop	1
       6:	0801                	addi	a6,a6,0
       8:	0000                	unimp
       a:	0000                	unimp
       c:	6a09                	lui	s4,0x2
       e:	0000                	unimp
      10:	0c00                	addi	s0,sp,528
      12:	0000                	unimp
      14:	0000                	unimp
      16:	0000003f 00000040 	.insn	8, 0x00400000003f
	...
      2a:	0101                	addi	sp,sp,0
      2c:	1c06                	slli	s8,s8,0x21
      2e:	0000                	unimp
      30:	0100                	addi	s0,sp,128
      32:	0801                	addi	a6,a6,0
      34:	001a                	c.slli	zero,0x6
      36:	0000                	unimp
      38:	0201                	addi	tp,tp,0 # 18000 <__stack_size+0x10000>
      3a:	2d05                	addiw	s10,s10,1
      3c:	0001                	nop
      3e:	0100                	addi	s0,sp,128
      40:	0702                	c.slli64	a4
      42:	0110                	addi	a2,sp,128
      44:	0000                	unimp
      46:	040a                	slli	s0,s0,0x2
      48:	6905                	lui	s2,0x1
      4a:	746e                	ld	s0,248(sp)
      4c:	0b00                	addi	s0,sp,400
      4e:	0046                	c.slli	zero,0x11
      50:	0000                	unimp
      52:	0401                	addi	s0,s0,0
      54:	00004707          	.insn	4, 0x4707
      58:	0100                	addi	s0,sp,128
      5a:	0508                	addi	a0,sp,640
      5c:	0005                	c.nop	1
      5e:	0000                	unimp
      60:	0801                	addi	a6,a6,0
      62:	00004207          	.insn	4, 0x4207
      66:	0c00                	addi	s0,sp,528
      68:	027d                	addi	tp,tp,31 # 1f <__stack_align+0xf>
      6a:	0000                	unimp
      6c:	d604                	sw	s1,40(a2)
      6e:	00006017          	auipc	zero,0x6
      72:	0100                	addi	s0,sp,128
      74:	0508                	addi	a0,sp,640
      76:	0000                	unimp
      78:	0000                	unimp
      7a:	0101                	addi	sp,sp,0
      7c:	2308                	fld	fa0,0(a4)
      7e:	0000                	unimp
      80:	0d00                	addi	s0,sp,656
      82:	007a                	c.slli	zero,0x1e
      84:	0000                	unimp
      86:	080e                	slli	a6,a6,0x3
      88:	0081                	addi	ra,ra,0 # 800006c8 <_vfiprintf_r+0x248>
      8a:	0000                	unimp
      8c:	0000860f          	.insn	4, 0x860f
      90:	0100                	addi	s0,sp,128
      92:	0708                	addi	a0,sp,896
      94:	003d                	c.nop	15
      96:	0000                	unimp
      98:	3505                	addiw	a0,a0,-31
      9a:	0000                	unimp
      9c:	0600                	addi	s0,sp,768
      9e:	0000670f          	.insn	4, 0x670f
      a2:	1000                	addi	s0,sp,32
      a4:	0109                	addi	sp,sp,2
      a6:	0000                	unimp
      a8:	4605ce03          	lbu	t3,1120(a1)
      ac:	0000                	unimp
      ae:	ba00                	fsd	fs0,48(a2)
      b0:	0000                	unimp
      b2:	1100                	addi	s0,sp,160
      b4:	008c                	addi	a1,sp,64
      b6:	0000                	unimp
      b8:	0012                	c.slli	zero,0x4
      ba:	00003013          	sltiu	zero,zero,0
      be:	0100                	addi	s0,sp,128
      c0:	052d                	addi	a0,a0,11
      c2:	0046                	c.slli	zero,0x11
      c4:	0000                	unimp
      c6:	0230                	addi	a2,sp,264
      c8:	8000                	.insn	2, 0x8000
      ca:	0000                	unimp
      cc:	0000                	unimp
      ce:	001c                	.insn	2, 0x001c
      d0:	0000                	unimp
      d2:	0000                	unimp
      d4:	0000                	unimp
      d6:	9c01                	subw	s0,s0,s0
      d8:	00ea                	slli	ra,ra,0x1a
      da:	0000                	unimp
      dc:	3c06                	fld	fs8,96(sp)
      de:	0002                	c.slli64	zero
      e0:	0080                	addi	s0,sp,64
      e2:	0000                	unimp
      e4:	ea00                	sd	s0,16(a2)
      e6:	0000                	unimp
      e8:	0000                	unimp
      ea:	2e14                	fld	fa3,24(a2)
      ec:	0000                	unimp
      ee:	0100                	addi	s0,sp,128
      f0:	061c                	addi	a5,sp,768
      f2:	02d4                	addi	a3,sp,324
      f4:	8000                	.insn	2, 0x8000
      f6:	0000                	unimp
      f8:	0000                	unimp
      fa:	00c8                	addi	a0,sp,68
      fc:	0000                	unimp
      fe:	0000                	unimp
     100:	0000                	unimp
     102:	9c01                	subw	s0,s0,s0
     104:	01c0                	addi	s0,sp,196
     106:	0000                	unimp
     108:	3702                	fld	fa4,32(sp)
     10a:	0001                	nop
     10c:	1d00                	addi	s0,sp,688
     10e:	670a                	ld	a4,128(sp)
     110:	0000                	unimp
     112:	0c00                	addi	s0,sp,528
     114:	0000                	unimp
     116:	0200                	addi	s0,sp,256
     118:	00000127          	.insn	4, 0x0127
     11c:	0f21                	addi	t5,t5,8
     11e:	0086                	slli	ra,ra,0x1
     120:	0000                	unimp
     122:	0022                	c.slli	zero,0x8
     124:	0000                	unimp
     126:	00000c03          	lb	s8,0(zero) # 0 <__boot_hart>
     12a:	3f00                	fld	fs0,56(a4)
     12c:	0001                	nop
     12e:	0200                	addi	s0,sp,256
     130:	0028                	addi	a0,sp,8
     132:	0000                	unimp
     134:	141d                	addi	s0,s0,-25
     136:	0060                	addi	s0,sp,12
     138:	0000                	unimp
     13a:	000c                	.insn	2, 0x000c
     13c:	0000                	unimp
     13e:	0300                	addi	s0,sp,384
     140:	001c                	.insn	2, 0x001c
     142:	0000                	unimp
     144:	0158                	addi	a4,sp,132
     146:	0000                	unimp
     148:	2802                	fld	fa6,0(sp)
     14a:	0000                	unimp
     14c:	2100                	fld	fs0,0(a0)
     14e:	6021                	c.lui	zero,0x8
     150:	0000                	unimp
     152:	3c00                	fld	fs0,56(s0)
     154:	0000                	unimp
     156:	0000                	unimp
     158:	00002c03          	lw	s8,0(zero) # 0 <__boot_hart>
     15c:	9d00                	.insn	2, 0x9d00
     15e:	0001                	nop
     160:	1500                	addi	s0,sp,672
     162:	0069                	c.nop	26
     164:	2201                	sext.w	tp,tp
     166:	0000670f          	.insn	4, 0x670f
     16a:	5a00                	lw	s0,48(a2)
     16c:	0000                	unimp
     16e:	0600                	addi	s0,sp,768
     170:	0330                	addi	a2,sp,392
     172:	8000                	.insn	2, 0x8000
     174:	0000                	unimp
     176:	0000                	unimp
     178:	01c0                	addi	s0,sp,196
     17a:	0000                	unimp
     17c:	5016                	.insn	2, 0x5016
     17e:	00800003          	lb	zero,8(zero) # 8 <__tbss_size+0x4>
     182:	0000                	unimp
     184:	a300                	fsd	fs0,0(a4)
     186:	0000                	unimp
     188:	0400                	addi	s0,sp,512
     18a:	5a01                	li	s4,-32
     18c:	8402                	jr	s0
     18e:	0400                	addi	s0,sp,512
     190:	5b01                	li	s6,-32
     192:	7902                	ld	s2,32(sp)
     194:	0400                	addi	s0,sp,512
     196:	5c01                	li	s8,-32
     198:	8302                	jr	t1
     19a:	0000                	unimp
     19c:	1700                	addi	s0,sp,928
     19e:	0212                	slli	tp,tp,0x4
     1a0:	0000                	unimp
     1a2:	0300                	addi	s0,sp,384
     1a4:	8000                	.insn	2, 0x8000
     1a6:	0000                	unimp
     1a8:	0000                	unimp
     1aa:	0008                	.insn	2, 0x0008
     1ac:	0000                	unimp
     1ae:	0000                	unimp
     1b0:	0000                	unimp
     1b2:	2101                	sext.w	sp,sp
     1b4:	02230717          	auipc	a4,0x2230
     1b8:	0000                	unimp
     1ba:	00000087          	.insn	4, 0x0087
     1be:	0000                	unimp
     1c0:	5c18                	lw	a4,56(s0)
     1c2:	0000                	unimp
     1c4:	0100                	addi	s0,sp,128
     1c6:	2708                	fld	fa0,8(a4)
     1c8:	024c                	addi	a1,sp,260
     1ca:	8000                	.insn	2, 0x8000
     1cc:	0000                	unimp
     1ce:	0000                	unimp
     1d0:	0058                	addi	a4,sp,4
     1d2:	0000                	unimp
     1d4:	0000                	unimp
     1d6:	0000                	unimp
     1d8:	9c01                	subw	s0,s0,s0
     1da:	0212                	slli	tp,tp,0x4
     1dc:	0000                	unimp
     1de:	1408                	addi	a0,sp,544
     1e0:	0000                	unimp
     1e2:	0a00                	addi	s0,sp,272
     1e4:	004d                	c.nop	19
     1e6:	0000                	unimp
     1e8:	0309                	addi	t1,t1,2
     1ea:	1f98                	addi	a4,sp,1008
     1ec:	8000                	.insn	2, 0x8000
     1ee:	0000                	unimp
     1f0:	0000                	unimp
     1f2:	6408                	ld	a0,8(s0)
     1f4:	0000                	unimp
     1f6:	0b00                	addi	s0,sp,400
     1f8:	004d                	c.nop	19
     1fa:	0000                	unimp
     1fc:	0309                	addi	t1,t1,2
     1fe:	1f9c                	addi	a5,sp,1008
     200:	8000                	.insn	2, 0x8000
     202:	0000                	unimp
     204:	0000                	unimp
     206:	0e05                	addi	t3,t3,1 # 1d001 <__stack_size+0x15001>
     208:	0000                	unimp
     20a:	0c00                	addi	s0,sp,528
     20c:	00004617          	auipc	a2,0x4
     210:	0000                	unimp
     212:	2319                	addiw	t1,t1,6
     214:	0001                	nop
     216:	0200                	addi	s0,sp,256
     218:	0d04                	addi	s1,sp,656
     21a:	0086                	slli	ra,ra,0x1
     21c:	0000                	unimp
     21e:	3001                	.insn	2, 0x3001
     220:	0002                	c.slli64	zero
     222:	1a00                	addi	s0,sp,304
     224:	0054                	addi	a3,sp,4
     226:	0000                	unimp
     228:	0402                	c.slli64	s0
     22a:	671e                	ld	a4,448(sp)
     22c:	0000                	unimp
     22e:	0000                	unimp
     230:	0002121b          	slliw	tp,tp,0x0
     234:	a400                	fsd	fs0,8(s0)
     236:	0002                	c.slli64	zero
     238:	0080                	addi	s0,sp,64
     23a:	0000                	unimp
     23c:	3000                	fld	fs0,32(s0)
     23e:	0000                	unimp
     240:	0000                	unimp
     242:	0000                	unimp
     244:	0100                	addi	s0,sp,128
     246:	079c                	addi	a5,sp,960
     248:	00000223          	sb	zero,4(zero) # 4 <__tbss_size>
     24c:	00a5                	addi	ra,ra,9
     24e:	0000                	unimp
     250:	0000                	unimp
     252:	00cd                	addi	ra,ra,19
     254:	0000                	unimp
     256:	0005                	c.nop	1
     258:	0801                	addi	a6,a6,0
     25a:	0182                	c.slli64	gp
     25c:	0000                	unimp
     25e:	4b02                	lw	s6,0(sp)
     260:	0001                	nop
     262:	1d00                	addi	s0,sp,688
     264:	000001db          	.insn	4, 0x01db
     268:	00000193          	li	gp,0
     26c:	19f8                	addi	a4,sp,252
     26e:	8000                	.insn	2, 0x8000
     270:	0000                	unimp
     272:	0000                	unimp
     274:	0014                	.insn	2, 0x0014
     276:	0000                	unimp
     278:	0000                	unimp
     27a:	0000                	unimp
     27c:	00000363          	beqz	zero,282 <__stack_align+0x272>
     280:	69050403          	lb	s0,1680(a0)
     284:	746e                	ld	s0,248(sp)
     286:	0100                	addi	s0,sp,128
     288:	0508                	addi	a0,sp,640
     28a:	0005                	c.nop	1
     28c:	0000                	unimp
     28e:	0801                	addi	a6,a6,0
     290:	00004207          	.insn	4, 0x4207
     294:	0100                	addi	s0,sp,128
     296:	0508                	addi	a0,sp,640
     298:	0000                	unimp
     29a:	0000                	unimp
     29c:	1001                	c.nop	-32
     29e:	e104                	sd	s1,0(a0)
     2a0:	0001                	nop
     2a2:	0100                	addi	s0,sp,128
     2a4:	0704                	addi	s1,sp,896
     2a6:	00000047          	fmsub.s	ft0,ft0,ft0,ft0,rne
     2aa:	0101                	addi	sp,sp,0
     2ac:	1c06                	slli	s8,s8,0x21
     2ae:	0000                	unimp
     2b0:	0100                	addi	s0,sp,128
     2b2:	0801                	addi	a6,a6,0
     2b4:	001a                	c.slli	zero,0x6
     2b6:	0000                	unimp
     2b8:	0201                	addi	tp,tp,0 # 0 <__boot_hart>
     2ba:	2d05                	addiw	s10,s10,1
     2bc:	0001                	nop
     2be:	0100                	addi	s0,sp,128
     2c0:	0702                	c.slli64	a4
     2c2:	0110                	addi	a2,sp,128
     2c4:	0000                	unimp
     2c6:	0101                	addi	sp,sp,0
     2c8:	2308                	fld	fa0,0(a4)
     2ca:	0000                	unimp
     2cc:	0100                	addi	s0,sp,128
     2ce:	0708                	addi	a0,sp,896
     2d0:	003d                	c.nop	15
     2d2:	0000                	unimp
     2d4:	d904                	sw	s1,48(a0)
     2d6:	0001                	nop
     2d8:	0200                	addi	s0,sp,256
     2da:	008e0d13          	addi	s10,t3,8
     2de:	0000                	unimp
     2e0:	0805                	addi	a6,a6,1
     2e2:	002e                	c.slli	zero,0xb
     2e4:	0000                	unimp
     2e6:	3f06                	fld	ft10,96(sp)
     2e8:	0001                	nop
     2ea:	0100                	addi	s0,sp,128
     2ec:	0504                	addi	s1,sp,640
     2ee:	002e                	c.slli	zero,0xb
     2f0:	0000                	unimp
     2f2:	19f8                	addi	a4,sp,252
     2f4:	8000                	.insn	2, 0x8000
     2f6:	0000                	unimp
     2f8:	0000                	unimp
     2fa:	0014                	.insn	2, 0x0014
     2fc:	0000                	unimp
     2fe:	0000                	unimp
     300:	0000                	unimp
     302:	9c01                	subw	s0,s0,s0
     304:	00014607          	.insn	4, 0x00014607
     308:	0100                	addi	s0,sp,128
     30a:	1004                	addi	s1,sp,32
     30c:	002e                	c.slli	zero,0xb
     30e:	0000                	unimp
     310:	000000cf          	fnmadd.s	ft1,ft0,ft0,ft0,rne
     314:	0008                	.insn	2, 0x0008
     316:	001a                	c.slli	zero,0x6
     318:	0080                	addi	s0,sp,64
     31a:	0000                	unimp
     31c:	8200                	.insn	2, 0x8200
     31e:	0000                	unimp
     320:	0000                	unimp
     322:	da00                	sw	s0,48(a2)
     324:	0002                	c.slli64	zero
     326:	0500                	addi	s0,sp,640
     328:	0100                	addi	s0,sp,128
     32a:	ff08                	sd	a0,56(a4)
     32c:	0001                	nop
     32e:	0600                	addi	s0,sp,768
     330:	0000014b          	fnmsub.s	ft2,ft0,ft0,ft0,rne
     334:	5e1d                	li	t3,-25
     336:	0002                	c.slli64	zero
     338:	9300                	.insn	2, 0x9300
     33a:	0001                	nop
     33c:	0c00                	addi	s0,sp,528
     33e:	001a                	c.slli	zero,0x6
     340:	0080                	addi	s0,sp,64
     342:	0000                	unimp
     344:	1400                	addi	s0,sp,544
     346:	0000                	unimp
     348:	0000                	unimp
     34a:	0000                	unimp
     34c:	f900                	sd	s0,48(a0)
     34e:	07000003          	lb	zero,112(zero) # 70 <__stack_align+0x60>
     352:	0504                	addi	s1,sp,640
     354:	6e69                	lui	t3,0x1a
     356:	0074                	addi	a3,sp,12
     358:	05050803          	lb	a6,80(a0)
     35c:	0000                	unimp
     35e:	0300                	addi	s0,sp,384
     360:	0708                	addi	a0,sp,896
     362:	0042                	c.slli	zero,0x10
     364:	0000                	unimp
     366:	00050803          	lb	a6,0(a0)
     36a:	0000                	unimp
     36c:	0300                	addi	s0,sp,384
     36e:	0410                	addi	a2,sp,512
     370:	01e1                	addi	gp,gp,24 # 80002790 <__global_pointer$+0x18>
     372:	0000                	unimp
     374:	47070403          	lb	s0,1136(a4) # 2230624 <__heap_size+0x2210624>
     378:	0000                	unimp
     37a:	0300                	addi	s0,sp,384
     37c:	0601                	addi	a2,a2,0 # 420c <__stack_align+0x41fc>
     37e:	001c                	.insn	2, 0x001c
     380:	0000                	unimp
     382:	1a080103          	lb	sp,416(a6)
     386:	0000                	unimp
     388:	0300                	addi	s0,sp,384
     38a:	0502                	c.slli64	a0
     38c:	012d                	addi	sp,sp,11
     38e:	0000                	unimp
     390:	10070203          	lb	tp,256(a4)
     394:	0001                	nop
     396:	0100                	addi	s0,sp,128
     398:	0265                	addi	tp,tp,25 # 19 <__stack_align+0x9>
     39a:	0000                	unimp
     39c:	4f02                	lw	t5,0(sp)
     39e:	5119                	li	sp,-26
     3a0:	0000                	unimp
     3a2:	0100                	addi	s0,sp,128
     3a4:	0284                	addi	s1,sp,320
     3a6:	0000                	unimp
     3a8:	350e1e03          	lh	t3,848(t3) # 1a350 <__stack_size+0x12350>
     3ac:	0000                	unimp
     3ae:	0100                	addi	s0,sp,128
     3b0:	0278                	addi	a4,sp,268
     3b2:	0000                	unimp
     3b4:	350e2203          	lw	tp,848(t3)
     3b8:	0000                	unimp
     3ba:	0100                	addi	s0,sp,128
     3bc:	000002a7          	.insn	4, 0x02a7
     3c0:	350e2e03          	lw	t3,848(t3)
     3c4:	0000                	unimp
     3c6:	0100                	addi	s0,sp,128
     3c8:	0232                	slli	tp,tp,0xc
     3ca:	0000                	unimp
     3cc:	660f3803          	ld	a6,1632(t5)
     3d0:	0000                	unimp
     3d2:	0100                	addi	s0,sp,128
     3d4:	01ed                	addi	gp,gp,27 # 80002793 <__global_pointer$+0x1b>
     3d6:	0000                	unimp
     3d8:	6d183c03          	ld	s8,1745(a6)
     3dc:	0000                	unimp
     3de:	0100                	addi	s0,sp,128
     3e0:	029e                	slli	t0,t0,0x7
     3e2:	0000                	unimp
     3e4:	6d183f03          	ld	t5,1745(a6)
     3e8:	0000                	unimp
     3ea:	0100                	addi	s0,sp,128
     3ec:	02ce                	slli	t0,t0,0x13
     3ee:	0000                	unimp
     3f0:	6d184b03          	lbu	s6,1745(a6)
     3f4:	0000                	unimp
     3f6:	0100                	addi	s0,sp,128
     3f8:	02c5                	addi	t0,t0,17
     3fa:	0000                	unimp
     3fc:	74145a03          	lhu	s4,1857(s0)
     400:	0000                	unimp
     402:	0100                	addi	s0,sp,128
     404:	02a6                	slli	t0,t0,0x9
     406:	0000                	unimp
     408:	98106603          	lwu	a2,-1663(zero) # fffffffffffff981 <__heap_end+0xffffffff7ffdc981>
     40c:	0000                	unimp
     40e:	0100                	addi	s0,sp,128
     410:	0000025b          	.insn	4, 0x025b
     414:	6d18d503          	lhu	a0,1745(a7)
     418:	0000                	unimp
     41a:	0300                	addi	s0,sp,384
     41c:	0801                	addi	a6,a6,0
     41e:	00000023          	sb	zero,0(zero) # 0 <__boot_hart>
     422:	3d070803          	lb	a6,976(a4)
     426:	0000                	unimp
     428:	0100                	addi	s0,sp,128
     42a:	0286                	slli	t0,t0,0x1
     42c:	0000                	unimp
     42e:	6104                	ld	s1,0(a0)
     430:	8014                	.insn	2, 0x8014
     432:	0000                	unimp
     434:	0100                	addi	s0,sp,128
     436:	027a                	slli	tp,tp,0x1e
     438:	0000                	unimp
     43a:	6604                	ld	s1,8(a2)
     43c:	8c15                	sub	s0,s0,a3
     43e:	0000                	unimp
     440:	0100                	addi	s0,sp,128
     442:	0254                	addi	a3,sp,260
     444:	0000                	unimp
     446:	7104                	ld	s1,32(a0)
     448:	3512                	fld	fa0,288(sp)
     44a:	0000                	unimp
     44c:	0100                	addi	s0,sp,128
     44e:	02d0                	addi	a2,sp,324
     450:	0000                	unimp
     452:	8904                	.insn	2, 0x8904
     454:	c812                	sw	tp,16(sp)
     456:	0000                	unimp
     458:	0100                	addi	s0,sp,128
     45a:	02a8                	addi	a0,sp,328
     45c:	0000                	unimp
     45e:	9b04                	.insn	2, 0x9b04
     460:	e012                	sd	tp,0(sp)
     462:	0000                	unimp
     464:	0100                	addi	s0,sp,128
     466:	0234                	addi	a3,sp,264
     468:	0000                	unimp
     46a:	9f04                	.insn	2, 0x9f04
     46c:	a412                	fsd	ft4,8(sp)
     46e:	0000                	unimp
     470:	0100                	addi	s0,sp,128
     472:	000001ef          	jal	gp,472 <__stack_align+0x462>
     476:	a304                	fsd	fs1,0(a4)
     478:	b012                	fsd	ft4,32(sp)
     47a:	0000                	unimp
     47c:	0100                	addi	s0,sp,128
     47e:	02a0                	addi	s0,sp,328
     480:	0000                	unimp
     482:	a704                	fsd	fs1,8(a4)
     484:	bc12                	fsd	ft4,56(sp)
     486:	0000                	unimp
     488:	0100                	addi	s0,sp,128
     48a:	000002c7          	fmsub.s	ft5,ft0,ft0,ft0,rne
     48e:	bb04                	fsd	fs1,48(a4)
     490:	d412                	sw	tp,40(sp)
     492:	0000                	unimp
     494:	0100                	addi	s0,sp,128
     496:	025d                	addi	tp,tp,23 # 17 <__stack_align+0x7>
     498:	0000                	unimp
     49a:	c004                	sw	s1,0(s0)
     49c:	0000ec13          	ori	s8,ra,0
     4a0:	0400                	addi	s0,sp,512
     4a2:	02b5                	addi	t0,t0,13
     4a4:	0000                	unimp
     4a6:	0510                	addi	a2,sp,640
     4a8:	0001a52f          	amoadd.w	a0,zero,(gp)
     4ac:	0200                	addi	s0,sp,256
     4ae:	02ae                	slli	t0,t0,0xb
     4b0:	0000                	unimp
     4b2:	3005                	.insn	2, 0x3005
     4b4:	1e09                	addi	t3,t3,-30
     4b6:	0001                	nop
     4b8:	0000                	unimp
     4ba:	fe02                	sd	zero,312(sp)
     4bc:	0001                	nop
     4be:	0500                	addi	s0,sp,640
     4c0:	0731                	addi	a4,a4,12
     4c2:	0035                	c.nop	13
     4c4:	0000                	unimp
     4c6:	0008                	.insn	2, 0x0008
     4c8:	c004                	sw	s1,0(s0)
     4ca:	0002                	c.slli64	zero
     4cc:	6800                	ld	s0,16(s0)
     4ce:	1b06                	slli	s6,s6,0x21
     4d0:	0268                	addi	a0,sp,268
     4d2:	0000                	unimp
     4d4:	d602                	sw	zero,44(sp)
     4d6:	0002                	c.slli64	zero
     4d8:	0600                	addi	s0,sp,768
     4da:	0a1d                	addi	s4,s4,7 # 2007 <__stack_align+0x1ff7>
     4dc:	0142                	slli	sp,sp,0x10
     4de:	0000                	unimp
     4e0:	0200                	addi	s0,sp,256
     4e2:	0216                	slli	tp,tp,0x5
     4e4:	0000                	unimp
     4e6:	1e06                	slli	t3,t3,0x21
     4e8:	2a0a                	fld	fs4,128(sp)
     4ea:	0001                	nop
     4ec:	0200                	addi	s0,sp,256
     4ee:	4402                	lw	s0,0(sp)
     4f0:	0002                	c.slli64	zero
     4f2:	0600                	addi	s0,sp,768
     4f4:	0a1f 0166 0000      	.insn	6, 0x01660a1f
     4fa:	0204                	addi	s1,sp,256
     4fc:	01f5                	addi	gp,gp,29 # 80002795 <__global_pointer$+0x1d>
     4fe:	0000                	unimp
     500:	2006                	fld	ft0,64(sp)
     502:	0001720b          	.insn	4, 0x0001720b
     506:	0800                	addi	s0,sp,16
     508:	9702                	jalr	a4
     50a:	0002                	c.slli64	zero
     50c:	0600                	addi	s0,sp,768
     50e:	0a21                	addi	s4,s4,8
     510:	014e                	slli	sp,sp,0x13
     512:	0000                	unimp
     514:	020a                	slli	tp,tp,0x2
     516:	02dd                	addi	t0,t0,23
     518:	0000                	unimp
     51a:	2206                	fld	ft4,64(sp)
     51c:	5a0a                	lw	s4,160(sp)
     51e:	0001                	nop
     520:	0c00                	addi	s0,sp,528
     522:	7002                	.insn	2, 0x7002
     524:	0002                	c.slli64	zero
     526:	0600                	addi	s0,sp,768
     528:	01420a23          	sb	s4,20(tp) # 14 <__stack_align+0x4>
     52c:	0000                	unimp
     52e:	020e                	slli	tp,tp,0x3
     530:	0206                	slli	tp,tp,0x1
     532:	0000                	unimp
     534:	2406                	fld	fs0,64(sp)
     536:	360a                	fld	fa2,160(sp)
     538:	0001                	nop
     53a:	1000                	addi	s0,sp,32
     53c:	4c02                	lw	s8,0(sp)
     53e:	0002                	c.slli64	zero
     540:	0600                	addi	s0,sp,768
     542:	132a                	slli	t1,t1,0x2a
     544:	017e                	slli	sp,sp,0x1f
     546:	0000                	unimp
     548:	0218                	addi	a4,sp,256
     54a:	020e                	slli	tp,tp,0x3
     54c:	0000                	unimp
     54e:	2b06                	fld	fs6,64(sp)
     550:	00017e13          	andi	t3,sp,0
     554:	2800                	fld	fs0,16(s0)
     556:	8f02                	jr	t5
     558:	0002                	c.slli64	zero
     55a:	0600                	addi	s0,sp,768
     55c:	132c                	addi	a1,sp,424
     55e:	017e                	slli	sp,sp,0x1f
     560:	0000                	unimp
     562:	0238                	addi	a4,sp,264
     564:	021d                	addi	tp,tp,7 # 7 <__tbss_size+0x3>
     566:	0000                	unimp
     568:	2d06                	fld	fs10,64(sp)
     56a:	1211                	addi	tp,tp,-28 # ffffffffffffffe4 <__heap_end+0xffffffff7ffdcfe4>
     56c:	0001                	nop
     56e:	4800                	lw	s0,16(s0)
     570:	3a02                	fld	fs4,32(sp)
     572:	0002                	c.slli64	zero
     574:	0600                	addi	s0,sp,768
     576:	0c2e                	slli	s8,s8,0xb
     578:	0106                	slli	sp,sp,0x1
     57a:	0000                	unimp
     57c:	0250                	addi	a2,sp,260
     57e:	0228                	addi	a0,sp,264
     580:	0000                	unimp
     582:	3006                	fld	ft0,96(sp)
     584:	6809                	lui	a6,0x2
     586:	0002                	c.slli64	zero
     588:	5800                	lw	s0,48(s0)
     58a:	0800                	addi	s0,sp,16
     58c:	0035                	c.nop	13
     58e:	0000                	unimp
     590:	0278                	addi	a4,sp,268
     592:	0000                	unimp
     594:	3c09                	addiw	s8,s8,-30 # fffffffffffdffe2 <__heap_end+0xffffffff7ffbcfe2>
     596:	0000                	unimp
     598:	0100                	addi	s0,sp,128
     59a:	0a00                	addi	s0,sp,272
     59c:	01d9                	addi	gp,gp,22 # 8000278e <__global_pointer$+0x16>
     59e:	0000                	unimp
     5a0:	840d1307          	.insn	4, 0x840d1307
     5a4:	0002                	c.slli64	zero
     5a6:	0500                	addi	s0,sp,640
     5a8:	002e                	c.slli	zero,0xb
     5aa:	0000                	unimp
     5ac:	0002be0b          	.insn	4, 0x0002be0b
     5b0:	0100                	addi	s0,sp,128
     5b2:	0505                	addi	a0,a0,1
     5b4:	002e                	c.slli	zero,0xb
     5b6:	0000                	unimp
     5b8:	1a0c                	addi	a1,sp,304
     5ba:	8000                	.insn	2, 0x8000
     5bc:	0000                	unimp
     5be:	0000                	unimp
     5c0:	0014                	.insn	2, 0x0014
     5c2:	0000                	unimp
     5c4:	0000                	unimp
     5c6:	0000                	unimp
     5c8:	9c01                	subw	s0,s0,s0
     5ca:	02d8                	addi	a4,sp,324
     5cc:	0000                	unimp
     5ce:	460c                	lw	a1,8(a2)
     5d0:	0001                	nop
     5d2:	0100                	addi	s0,sp,128
     5d4:	1005                	c.nop	-31
     5d6:	002e                	c.slli	zero,0xb
     5d8:	0000                	unimp
     5da:	00e9                	addi	ra,ra,26
     5dc:	0000                	unimp
     5de:	730d                	lui	t1,0xfffe3
     5e0:	0074                	addi	a3,sp,12
     5e2:	0501                	addi	a0,a0,0
     5e4:	0002d823          	.insn	4, 0x0002d823
     5e8:	f700                	sd	s0,40(a4)
     5ea:	0000                	unimp
     5ec:	0e00                	addi	s0,sp,784
     5ee:	1a14                	addi	a3,sp,304
     5f0:	8000                	.insn	2, 0x8000
     5f2:	0000                	unimp
     5f4:	0000                	unimp
     5f6:	0278                	addi	a4,sp,268
     5f8:	0000                	unimp
     5fa:	0500                	addi	s0,sp,640
     5fc:	01a5                	addi	gp,gp,9 # 80002781 <__global_pointer$+0x9>
     5fe:	0000                	unimp
     600:	a700                	fsd	fs0,8(a4)
     602:	0000                	unimp
     604:	0500                	addi	s0,sp,640
     606:	0100                	addi	s0,sp,128
     608:	d408                	sw	a0,40(s0)
     60a:	0002                	c.slli64	zero
     60c:	0200                	addi	s0,sp,256
     60e:	0000014b          	fnmsub.s	ft2,ft0,ft0,ft0,rne
     612:	fa1d                	bnez	a2,548 <__stack_align+0x538>
     614:	0002                	c.slli64	zero
     616:	9300                	.insn	2, 0x9300
     618:	0001                	nop
     61a:	2000                	fld	fs0,0(s0)
     61c:	001a                	c.slli	zero,0x6
     61e:	0080                	addi	s0,sp,64
     620:	0000                	unimp
     622:	0800                	addi	s0,sp,16
     624:	0000                	unimp
     626:	0000                	unimp
     628:	0000                	unimp
     62a:	ac00                	fsd	fs0,24(s0)
     62c:	0004                	.insn	2, 0x0004
     62e:	0100                	addi	s0,sp,128
     630:	0601                	addi	a2,a2,0
     632:	001c                	.insn	2, 0x001c
     634:	0000                	unimp
     636:	0101                	addi	sp,sp,0
     638:	1a08                	addi	a0,sp,304
     63a:	0000                	unimp
     63c:	0100                	addi	s0,sp,128
     63e:	0502                	c.slli64	a0
     640:	012d                	addi	sp,sp,11
     642:	0000                	unimp
     644:	0201                	addi	tp,tp,0 # 0 <__boot_hart>
     646:	00011007          	.insn	4, 0x00011007
     64a:	0300                	addi	s0,sp,384
     64c:	0504                	addi	s1,sp,640
     64e:	6e69                	lui	t3,0x1a
     650:	0074                	addi	a3,sp,12
     652:	0401                	addi	s0,s0,0
     654:	00004707          	.insn	4, 0x4707
     658:	0100                	addi	s0,sp,128
     65a:	0508                	addi	a0,sp,640
     65c:	0005                	c.nop	1
     65e:	0000                	unimp
     660:	0801                	addi	a6,a6,0 # 2000 <__stack_align+0x1ff0>
     662:	00004207          	.insn	4, 0x4207
     666:	0100                	addi	s0,sp,128
     668:	0508                	addi	a0,sp,640
     66a:	0000                	unimp
     66c:	0000                	unimp
     66e:	0101                	addi	sp,sp,0
     670:	2308                	fld	fa0,0(a4)
     672:	0000                	unimp
     674:	0100                	addi	s0,sp,128
     676:	0410                	addi	a2,sp,512
     678:	01e1                	addi	gp,gp,24 # 80002790 <__global_pointer$+0x18>
     67a:	0000                	unimp
     67c:	e404                	sd	s1,8(s0)
     67e:	0002                	c.slli64	zero
     680:	0100                	addi	s0,sp,128
     682:	0504                	addi	s1,sp,640
     684:	004a                	c.slli	zero,0x12
     686:	0000                	unimp
     688:	1a20                	addi	s0,sp,312
     68a:	8000                	.insn	2, 0x8000
     68c:	0000                	unimp
     68e:	0000                	unimp
     690:	0008                	.insn	2, 0x0008
     692:	0000                	unimp
     694:	0000                	unimp
     696:	0000                	unimp
     698:	9c01                	subw	s0,s0,s0
     69a:	4605                	li	a2,1
     69c:	0001                	nop
     69e:	0100                	addi	s0,sp,128
     6a0:	1104                	addi	s1,sp,160
     6a2:	004a                	c.slli	zero,0x12
     6a4:	0000                	unimp
     6a6:	0111                	addi	sp,sp,4
     6a8:	0000                	unimp
     6aa:	0000                	unimp
     6ac:	010d                	addi	sp,sp,3
     6ae:	0000                	unimp
     6b0:	0005                	c.nop	1
     6b2:	0801                	addi	a6,a6,0
     6b4:	032a                	slli	t1,t1,0xa
     6b6:	0000                	unimp
     6b8:	4b04                	lw	s1,16(a4)
     6ba:	0001                	nop
     6bc:	1d00                	addi	s0,sp,688
     6be:	030a                	slli	t1,t1,0x2
     6c0:	0000                	unimp
     6c2:	00000193          	li	gp,0
     6c6:	1a28                	addi	a0,sp,312
     6c8:	8000                	.insn	2, 0x8000
     6ca:	0000                	unimp
     6cc:	0000                	unimp
     6ce:	0014                	.insn	2, 0x0014
     6d0:	0000                	unimp
     6d2:	0000                	unimp
     6d4:	0000                	unimp
     6d6:	00000513          	li	a0,0
     6da:	0405                	addi	s0,s0,1
     6dc:	6905                	lui	s2,0x1
     6de:	746e                	ld	s0,248(sp)
     6e0:	0100                	addi	s0,sp,128
     6e2:	0508                	addi	a0,sp,640
     6e4:	0005                	c.nop	1
     6e6:	0000                	unimp
     6e8:	0801                	addi	a6,a6,0
     6ea:	00004207          	.insn	4, 0x4207
     6ee:	0100                	addi	s0,sp,128
     6f0:	0508                	addi	a0,sp,640
     6f2:	0000                	unimp
     6f4:	0000                	unimp
     6f6:	1001                	c.nop	-32
     6f8:	e104                	sd	s1,0(a0)
     6fa:	0001                	nop
     6fc:	0100                	addi	s0,sp,128
     6fe:	0704                	addi	s1,sp,896
     700:	00000047          	fmsub.s	ft0,ft0,ft0,ft0,rne
     704:	0101                	addi	sp,sp,0
     706:	1c06                	slli	s8,s8,0x21
     708:	0000                	unimp
     70a:	0100                	addi	s0,sp,128
     70c:	0801                	addi	a6,a6,0
     70e:	001a                	c.slli	zero,0x6
     710:	0000                	unimp
     712:	0201                	addi	tp,tp,0 # 0 <__boot_hart>
     714:	2d05                	addiw	s10,s10,1
     716:	0001                	nop
     718:	0100                	addi	s0,sp,128
     71a:	0702                	c.slli64	a4
     71c:	0110                	addi	a2,sp,128
     71e:	0000                	unimp
     720:	a702                	fsd	ft0,392(sp)
     722:	0002                	c.slli64	zero
     724:	0200                	addi	s0,sp,256
     726:	0e2e                	slli	t3,t3,0xb
     728:	0035                	c.nop	13
     72a:	0000                	unimp
     72c:	a602                	fsd	ft0,264(sp)
     72e:	0002                	c.slli64	zero
     730:	0200                	addi	s0,sp,256
     732:	1066                	c.slli	zero,0x39
     734:	0074                	addi	a3,sp,12
     736:	0000                	unimp
     738:	0101                	addi	sp,sp,0
     73a:	2308                	fld	fa0,0(a4)
     73c:	0000                	unimp
     73e:	0100                	addi	s0,sp,128
     740:	0708                	addi	a0,sp,896
     742:	003d                	c.nop	15
     744:	0000                	unimp
     746:	a802                	fsd	ft0,16(sp)
     748:	0002                	c.slli64	zero
     74a:	0300                	addi	s0,sp,384
     74c:	0080129b          	slliw	t0,zero,0x8
     750:	0000                	unimp
     752:	d906                	sw	ra,176(sp)
     754:	0001                	nop
     756:	0400                	addi	s0,sp,512
     758:	00b20d13          	addi	s10,tp,11 # b <__tbss_size+0x7>
     75c:	0000                	unimp
     75e:	002e0807          	.insn	4, 0x002e0807
     762:	0000                	unimp
     764:	ec08                	sd	a0,24(s0)
     766:	0002                	c.slli64	zero
     768:	0100                	addi	s0,sp,128
     76a:	0705                	addi	a4,a4,1
     76c:	009a                	slli	ra,ra,0x6
     76e:	0000                	unimp
     770:	1a28                	addi	a0,sp,312
     772:	8000                	.insn	2, 0x8000
     774:	0000                	unimp
     776:	0000                	unimp
     778:	0014                	.insn	2, 0x0014
     77a:	0000                	unimp
     77c:	0000                	unimp
     77e:	0000                	unimp
     780:	9c01                	subw	s0,s0,s0
     782:	4609                	li	a2,2
     784:	0001                	nop
     786:	0100                	addi	s0,sp,128
     788:	1205                	addi	tp,tp,-31 # ffffffffffffffe1 <__heap_end+0xffffffff7ffdcfe1>
     78a:	002e                	c.slli	zero,0xb
     78c:	0000                	unimp
     78e:	0000012b          	.insn	4, 0x012b
     792:	72747003          	.insn	4, 0x72747003
     796:	1e00                	addi	s0,sp,816
     798:	009a                	slli	ra,ra,0x6
     79a:	0000                	unimp
     79c:	0139                	addi	sp,sp,14
     79e:	0000                	unimp
     7a0:	72696403          	lwu	s0,1830(s2) # 1726 <__stack_align+0x1716>
     7a4:	2700                	fld	fs0,8(a4)
     7a6:	002e                	c.slli	zero,0xb
     7a8:	0000                	unimp
     7aa:	00000147          	fmsub.s	ft2,ft0,ft0,ft0,rne
     7ae:	300a                	fld	ft0,160(sp)
     7b0:	001a                	c.slli	zero,0x6
     7b2:	0080                	addi	s0,sp,64
     7b4:	0000                	unimp
     7b6:	a600                	fsd	fs0,8(a2)
     7b8:	0000                	unimp
     7ba:	0000                	unimp
     7bc:	0f00                	addi	s0,sp,912
     7be:	0001                	nop
     7c0:	0500                	addi	s0,sp,640
     7c2:	0100                	addi	s0,sp,128
     7c4:	c908                	sw	a0,16(a0)
     7c6:	04000003          	lb	zero,64(zero) # 40 <__stack_align+0x30>
     7ca:	0000014b          	fnmsub.s	ft2,ft0,ft0,ft0,rne
     7ce:	191d                	addi	s2,s2,-25
     7d0:	93000003          	lb	zero,-1744(zero) # fffffffffffff930 <__heap_end+0xffffffff7ffdc930>
     7d4:	0001                	nop
     7d6:	3c00                	fld	fs0,56(s0)
     7d8:	001a                	c.slli	zero,0x6
     7da:	0080                	addi	s0,sp,64
     7dc:	0000                	unimp
     7de:	1600                	addi	s0,sp,800
     7e0:	0000                	unimp
     7e2:	0000                	unimp
     7e4:	0000                	unimp
     7e6:	b300                	fsd	fs0,32(a4)
     7e8:	0005                	c.nop	1
     7ea:	0500                	addi	s0,sp,640
     7ec:	0504                	addi	s1,sp,640
     7ee:	6e69                	lui	t3,0x1a
     7f0:	0074                	addi	a3,sp,12
     7f2:	0801                	addi	a6,a6,0
     7f4:	0505                	addi	a0,a0,1
     7f6:	0000                	unimp
     7f8:	0200                	addi	s0,sp,256
     7fa:	027d                	addi	tp,tp,31 # 1f <__stack_align+0xf>
     7fc:	0000                	unimp
     7fe:	d602                	sw	zero,44(sp)
     800:	00004817          	auipc	a6,0x4
     804:	0100                	addi	s0,sp,128
     806:	0708                	addi	a0,sp,896
     808:	0042                	c.slli	zero,0x10
     80a:	0000                	unimp
     80c:	0801                	addi	a6,a6,0 # 4800 <__stack_align+0x47f0>
     80e:	0005                	c.nop	1
     810:	0000                	unimp
     812:	0100                	addi	s0,sp,128
     814:	0410                	addi	a2,sp,512
     816:	01e1                	addi	gp,gp,24 # 80002790 <__global_pointer$+0x18>
     818:	0000                	unimp
     81a:	0401                	addi	s0,s0,0
     81c:	00004707          	.insn	4, 0x4707
     820:	0100                	addi	s0,sp,128
     822:	0601                	addi	a2,a2,0
     824:	001c                	.insn	2, 0x001c
     826:	0000                	unimp
     828:	0101                	addi	sp,sp,0
     82a:	1a08                	addi	a0,sp,304
     82c:	0000                	unimp
     82e:	0100                	addi	s0,sp,128
     830:	0502                	c.slli64	a0
     832:	012d                	addi	sp,sp,11
     834:	0000                	unimp
     836:	0201                	addi	tp,tp,0 # 0 <__boot_hart>
     838:	00011007          	.insn	4, 0x00011007
     83c:	0200                	addi	s0,sp,256
     83e:	02f9                	addi	t0,t0,30
     840:	0000                	unimp
     842:	35179303          	lh	t1,849(a5)
     846:	0000                	unimp
     848:	0600                	addi	s0,sp,768
     84a:	0108                	addi	a0,sp,128
     84c:	0801                	addi	a6,a6,0
     84e:	00000023          	sb	zero,0(zero) # 0 <__boot_hart>
     852:	0801                	addi	a6,a6,0
     854:	00003d07          	fld	fs10,0(zero) # 0 <__boot_hart>
     858:	0200                	addi	s0,sp,256
     85a:	02fa                	slli	t0,t0,0x1e
     85c:	0000                	unimp
     85e:	b604                	fsd	fs1,40(a2)
     860:	8012                	c.mv	zero,tp
     862:	0000                	unimp
     864:	0700                	addi	s0,sp,896
     866:	01d9                	addi	gp,gp,22 # 8000278e <__global_pointer$+0x16>
     868:	0000                	unimp
     86a:	1305                	addi	t1,t1,-31 # fffffffffffe2fe1 <__heap_end+0xffffffff7ffbffe1>
     86c:	b40d                	j	28e <__stack_align+0x27e>
     86e:	0000                	unimp
     870:	0800                	addi	s0,sp,16
     872:	2e08                	fld	fa0,24(a2)
     874:	0000                	unimp
     876:	0900                	addi	s0,sp,144
     878:	000002f3          	.insn	4, 0x02f3
     87c:	0501                	addi	a0,a0,0
     87e:	9c09                	subw	s0,s0,a0
     880:	0000                	unimp
     882:	3c00                	fld	fs0,56(s0)
     884:	001a                	c.slli	zero,0x6
     886:	0080                	addi	s0,sp,64
     888:	0000                	unimp
     88a:	1600                	addi	s0,sp,800
     88c:	0000                	unimp
     88e:	0000                	unimp
     890:	0000                	unimp
     892:	0100                	addi	s0,sp,128
     894:	0a9c                	addi	a5,sp,336
     896:	0146                	slli	sp,sp,0x11
     898:	0000                	unimp
     89a:	0501                	addi	a0,a0,0
     89c:	00002e13          	slti	t3,zero,0
     8a0:	6100                	ld	s0,0(a0)
     8a2:	0001                	nop
     8a4:	0300                	addi	s0,sp,384
     8a6:	7470                	ld	a2,232(s0)
     8a8:	0072                	c.slli	zero,0x1c
     8aa:	8c1f 0000 6f00      	.insn	6, 0x6f0000008c1f
     8b0:	0001                	nop
     8b2:	0300                	addi	s0,sp,384
     8b4:	656c                	ld	a1,200(a0)
     8b6:	006e                	c.slli	zero,0x1b
     8b8:	00003c2b          	.insn	4, 0x3c2b
     8bc:	7d00                	ld	s0,56(a0)
     8be:	0001                	nop
     8c0:	0b00                	addi	s0,sp,400
     8c2:	1a44                	addi	s1,sp,308
     8c4:	8000                	.insn	2, 0x8000
     8c6:	0000                	unimp
     8c8:	0000                	unimp
     8ca:	00a8                	addi	a0,sp,72
     8cc:	0000                	unimp
     8ce:	0000                	unimp
     8d0:	0132                	slli	sp,sp,0xc
     8d2:	0000                	unimp
     8d4:	0005                	c.nop	1
     8d6:	0801                	addi	a6,a6,0
     8d8:	0000046f          	jal	s0,8d8 <__stack_align+0x8c8>
     8dc:	4b05                	li	s6,1
     8de:	0001                	nop
     8e0:	1d00                	addi	s0,sp,688
     8e2:	00000327          	.insn	4, 0x0327
     8e6:	00000193          	li	gp,0
     8ea:	1a52                	slli	s4,s4,0x34
     8ec:	8000                	.insn	2, 0x8000
     8ee:	0000                	unimp
     8f0:	0000                	unimp
     8f2:	003c                	addi	a5,sp,8
     8f4:	0000                	unimp
     8f6:	0000                	unimp
     8f8:	0000                	unimp
     8fa:	065c                	addi	a5,sp,772
     8fc:	0000                	unimp
     8fe:	0206                	slli	tp,tp,0x1
     900:	02000003          	lb	zero,32(zero) # 20 <__stack_align+0x10>
     904:	1a91                	addi	s5,s5,-28
     906:	003a                	c.slli	zero,0xe
     908:	0000                	unimp
     90a:	0801                	addi	a6,a6,0
     90c:	0505                	addi	a0,a0,1
     90e:	0000                	unimp
     910:	0100                	addi	s0,sp,128
     912:	0708                	addi	a0,sp,896
     914:	0042                	c.slli	zero,0x10
     916:	0000                	unimp
     918:	69050407          	.insn	4, 0x69050407
     91c:	746e                	ld	s0,248(sp)
     91e:	0100                	addi	s0,sp,128
     920:	0508                	addi	a0,sp,640
     922:	0000                	unimp
     924:	0000                	unimp
     926:	1001                	c.nop	-32
     928:	e104                	sd	s1,0(a0)
     92a:	0001                	nop
     92c:	0100                	addi	s0,sp,128
     92e:	0704                	addi	s1,sp,896
     930:	00000047          	fmsub.s	ft0,ft0,ft0,ft0,rne
     934:	0101                	addi	sp,sp,0
     936:	1c06                	slli	s8,s8,0x21
     938:	0000                	unimp
     93a:	0100                	addi	s0,sp,128
     93c:	0801                	addi	a6,a6,0
     93e:	001a                	c.slli	zero,0x6
     940:	0000                	unimp
     942:	0201                	addi	tp,tp,0 # 0 <__boot_hart>
     944:	2d05                	addiw	s10,s10,1
     946:	0001                	nop
     948:	0100                	addi	s0,sp,128
     94a:	0702                	c.slli64	a4
     94c:	0110                	addi	a2,sp,128
     94e:	0000                	unimp
     950:	0808                	addi	a0,sp,16
     952:	8702                	jr	a4
     954:	0000                	unimp
     956:	0100                	addi	s0,sp,128
     958:	0801                	addi	a6,a6,0
     95a:	00000023          	sb	zero,0(zero) # 0 <__boot_hart>
     95e:	0801                	addi	a6,a6,0
     960:	00003d07          	fld	fs10,0(zero) # 0 <__boot_hart>
     964:	0900                	addi	s0,sp,144
     966:	00000087          	.insn	4, 0x0087
     96a:	00a0                	addi	s0,sp,72
     96c:	0000                	unimp
     96e:	000a                	c.slli	zero,0x2
     970:	00031203          	lh	tp,0(t1)
     974:	0600                	addi	s0,sp,768
     976:	950d                	srai	a0,a0,0x23
     978:	0000                	unimp
     97a:	0b00                	addi	s0,sp,400
     97c:	00000317          	auipc	t1,0x0
     980:	0701                	addi	a4,a4,0
     982:	820e                	mv	tp,gp
     984:	0000                	unimp
     986:	0900                	addi	s0,sp,144
     988:	001f8003          	lb	zero,1(t6)
     98c:	0080                	addi	s0,sp,64
     98e:	0000                	unimp
     990:	0c00                	addi	s0,sp,528
     992:	01d9                	addi	gp,gp,22 # 8000278e <__global_pointer$+0x16>
     994:	0000                	unimp
     996:	cd0d1303          	lh	t1,-816(s10)
     99a:	0000                	unimp
     99c:	0200                	addi	s0,sp,256
     99e:	0048                	addi	a0,sp,4
     9a0:	0000                	unimp
     9a2:	1e0d                	addi	t3,t3,-29 # 19fe3 <__stack_size+0x11fe3>
     9a4:	01000003          	lb	zero,16(zero) # 10 <__stack_align>
     9a8:	0709                	addi	a4,a4,2
     9aa:	0080                	addi	s0,sp,64
     9ac:	0000                	unimp
     9ae:	1a52                	slli	s4,s4,0x34
     9b0:	8000                	.insn	2, 0x8000
     9b2:	0000                	unimp
     9b4:	0000                	unimp
     9b6:	003c                	addi	a5,sp,8
     9b8:	0000                	unimp
     9ba:	0000                	unimp
     9bc:	0000                	unimp
     9be:	9c01                	subw	s0,s0,s0
     9c0:	240e                	fld	fs0,192(sp)
     9c2:	01000003          	lb	zero,16(zero) # 10 <__stack_align>
     9c6:	1709                	addi	a4,a4,-30
     9c8:	002e                	c.slli	zero,0xb
     9ca:	0000                	unimp
     9cc:	00000197          	auipc	gp,0x0
     9d0:	00030c03          	lb	s8,0(t1) # 97c <__stack_align+0x96c>
     9d4:	0b00                	addi	s0,sp,400
     9d6:	9511                	srai	a0,a0,0x24
     9d8:	0000                	unimp
     9da:	0400                	addi	s0,sp,512
     9dc:	0330                	addi	a2,sp,392
     9de:	0000                	unimp
     9e0:	820c                	.insn	2, 0x820c
     9e2:	0000                	unimp
     9e4:	a500                	fsd	fs0,8(a0)
     9e6:	0001                	nop
     9e8:	0400                	addi	s0,sp,512
     9ea:	0329                	addi	t1,t1,10
     9ec:	0000                	unimp
     9ee:	820d                	srli	a2,a2,0x3
     9f0:	0000                	unimp
     9f2:	bd00                	fsd	fs0,56(a0)
     9f4:	0001                	nop
     9f6:	0f00                	addi	s0,sp,912
     9f8:	1a80                	addi	s0,sp,368
     9fa:	8000                	.insn	2, 0x8000
     9fc:	0000                	unimp
     9fe:	0000                	unimp
     a00:	00c1                	addi	ra,ra,16
     a02:	0000                	unimp
     a04:	0000                	unimp
     a06:	0174                	addi	a3,sp,140
     a08:	0000                	unimp
     a0a:	0005                	c.nop	1
     a0c:	0801                	addi	a6,a6,0
     a0e:	0549                	addi	a0,a0,18
     a10:	0000                	unimp
     a12:	4b06                	lw	s6,64(sp)
     a14:	0001                	nop
     a16:	1d00                	addi	s0,sp,688
     a18:	0335                	addi	t1,t1,13
     a1a:	0000                	unimp
     a1c:	00000193          	li	gp,0
     a20:	1a8e                	slli	s5,s5,0x23
     a22:	8000                	.insn	2, 0x8000
     a24:	0000                	unimp
     a26:	0000                	unimp
     a28:	0006                	c.slli	zero,0x1
     a2a:	0000                	unimp
     a2c:	0000                	unimp
     a2e:	0000                	unimp
     a30:	0781                	addi	a5,a5,0
     a32:	0000                	unimp
     a34:	69050407          	.insn	4, 0x69050407
     a38:	746e                	ld	s0,248(sp)
     a3a:	0100                	addi	s0,sp,128
     a3c:	0508                	addi	a0,sp,640
     a3e:	0005                	c.nop	1
     a40:	0000                	unimp
     a42:	7d02                	ld	s10,32(sp)
     a44:	0002                	c.slli64	zero
     a46:	0200                	addi	s0,sp,256
     a48:	17d6                	slli	a5,a5,0x35
     a4a:	0048                	addi	a0,sp,4
     a4c:	0000                	unimp
     a4e:	0801                	addi	a6,a6,0
     a50:	00004207          	.insn	4, 0x4207
     a54:	0100                	addi	s0,sp,128
     a56:	0508                	addi	a0,sp,640
     a58:	0000                	unimp
     a5a:	0000                	unimp
     a5c:	1001                	c.nop	-32
     a5e:	e104                	sd	s1,0(a0)
     a60:	0001                	nop
     a62:	0100                	addi	s0,sp,128
     a64:	0704                	addi	s1,sp,896
     a66:	00000047          	fmsub.s	ft0,ft0,ft0,ft0,rne
     a6a:	0101                	addi	sp,sp,0
     a6c:	1c06                	slli	s8,s8,0x21
     a6e:	0000                	unimp
     a70:	0100                	addi	s0,sp,128
     a72:	0801                	addi	a6,a6,0
     a74:	001a                	c.slli	zero,0x6
     a76:	0000                	unimp
     a78:	0201                	addi	tp,tp,0 # 0 <__boot_hart>
     a7a:	2d05                	addiw	s10,s10,1
     a7c:	0001                	nop
     a7e:	0100                	addi	s0,sp,128
     a80:	0702                	c.slli64	a4
     a82:	0110                	addi	a2,sp,128
     a84:	0000                	unimp
     a86:	5702                	lw	a4,32(sp)
     a88:	03000003          	lb	zero,48(zero) # 30 <__stack_align+0x20>
     a8c:	1969                	addi	s2,s2,-6
     a8e:	0048                	addi	a0,sp,4
     a90:	0000                	unimp
     a92:	4402                	lw	s0,0(sp)
     a94:	03000003          	lb	zero,48(zero) # 30 <__stack_align+0x20>
     a98:	1ae8                	addi	a0,sp,380
     a9a:	0048                	addi	a0,sp,4
     a9c:	0000                	unimp
     a9e:	f902                	sd	zero,176(sp)
     aa0:	0002                	c.slli64	zero
     aa2:	0400                	addi	s0,sp,512
     aa4:	00351793          	slli	a5,a0,0x3
     aa8:	0000                	unimp
     aaa:	0101                	addi	sp,sp,0
     aac:	2308                	fld	fa0,0(a4)
     aae:	0000                	unimp
     ab0:	0100                	addi	s0,sp,128
     ab2:	0708                	addi	a0,sp,896
     ab4:	003d                	c.nop	15
     ab6:	0000                	unimp
     ab8:	5902                	lw	s2,32(sp)
     aba:	05000003          	lb	zero,80(zero) # 50 <__stack_align+0x40>
     abe:	143c                	addi	a5,sp,552
     ac0:	0080                	addi	s0,sp,64
     ac2:	0000                	unimp
     ac4:	4602                	lw	a2,0(sp)
     ac6:	05000003          	lb	zero,80(zero) # 50 <__stack_align+0x40>
     aca:	1552                	slli	a0,a0,0x34
     acc:	008c                	addi	a1,sp,64
     ace:	0000                	unimp
     ad0:	fa02                	sd	zero,304(sp)
     ad2:	0002                	c.slli64	zero
     ad4:	0600                	addi	s0,sp,768
     ad6:	12b6                	slli	t0,t0,0x2d
     ad8:	0098                	addi	a4,sp,64
     ada:	0000                	unimp
     adc:	3708                	fld	fa0,40(a4)
     ade:	07000003          	lb	zero,112(zero) # 70 <__stack_align+0x60>
     ae2:	0d1a                	slli	s10,s10,0x6
     ae4:	0035                	c.nop	13
     ae6:	0000                	unimp
     ae8:	000000fb          	.insn	4, 0x00fb
     aec:	0000b203          	ld	tp,0(ra)
     af0:	0300                	addi	s0,sp,384
     af2:	00b2                	slli	ra,ra,0xc
     af4:	0000                	unimp
     af6:	0000b203          	ld	tp,0(ra)
     afa:	0300                	addi	s0,sp,384
     afc:	0048                	addi	a0,sp,4
     afe:	0000                	unimp
     b00:	0900                	addi	s0,sp,144
     b02:	0350                	addi	a2,sp,388
     b04:	0000                	unimp
     b06:	0601                	addi	a2,a2,0
     b08:	ca09                	beqz	a2,b1a <__stack_align+0xb0a>
     b0a:	0000                	unimp
     b0c:	8e00                	.insn	2, 0x8e00
     b0e:	001a                	c.slli	zero,0x6
     b10:	0080                	addi	s0,sp,64
     b12:	0000                	unimp
     b14:	0600                	addi	s0,sp,768
     b16:	0000                	unimp
     b18:	0000                	unimp
     b1a:	0000                	unimp
     b1c:	0100                	addi	s0,sp,128
     b1e:	709c                	ld	a5,32(s1)
     b20:	0001                	nop
     b22:	0500                	addi	s0,sp,640
     b24:	6466                	ld	s0,88(sp)
     b26:	1400                	addi	s0,sp,544
     b28:	002e                	c.slli	zero,0xb
     b2a:	0000                	unimp
     b2c:	000001cf          	fnmadd.s	ft3,ft0,ft0,ft0,rne
     b30:	7005                	c.lui	zero,0xfffe1
     b32:	7274                	ld	a3,224(a2)
     b34:	2400                	fld	fs0,8(s0)
     b36:	0170                	addi	a2,sp,140
     b38:	0000                	unimp
     b3a:	01dd                	addi	gp,gp,23 # 9e3 <__stack_align+0x9d3>
     b3c:	0000                	unimp
     b3e:	6c05                	lui	s8,0x1
     b40:	6e65                	lui	t3,0x19
     b42:	3000                	fld	fs0,32(s0)
     b44:	003c                	addi	a5,sp,8
     b46:	0000                	unimp
     b48:	000001eb          	.insn	4, 0x01eb
     b4c:	940a                	add	s0,s0,sp
     b4e:	001a                	c.slli	zero,0x6
     b50:	0080                	addi	s0,sp,64
     b52:	0000                	unimp
     b54:	d600                	sw	s0,40(a2)
     b56:	0000                	unimp
     b58:	0400                	addi	s0,sp,512
     b5a:	5a01                	li	s4,-32
     b5c:	5a01a303          	lw	t1,1440(gp) # 80002d18 <__global_pointer$+0x5a0>
     b60:	0104                	addi	s1,sp,128
     b62:	01a3035b          	.insn	4, 0x01a3035b
     b66:	5c01045b          	.insn	4, 0x5c01045b
     b6a:	5c01a303          	lw	t1,1472(gp) # 80002d38 <__global_pointer$+0x5c0>
     b6e:	0104                	addi	s1,sp,128
     b70:	025d                	addi	tp,tp,23 # 17 <__stack_align+0x7>
     b72:	4008                	lw	a0,0(s0)
     b74:	0000                	unimp
     b76:	0176080b          	.insn	4, 0x0176080b
     b7a:	0000                	unimp
     b7c:	000c                	.insn	2, 0x000c
     b7e:	0025                	c.nop	9
     b80:	0000                	unimp
     b82:	0005                	c.nop	1
     b84:	0801                	addi	a6,a6,0
     b86:	000005f3          	.insn	4, 0x05f3
     b8a:	0e01                	addi	t3,t3,0 # 19000 <__stack_size+0x11000>
     b8c:	0008                	.insn	2, 0x0008
     b8e:	0000                	unimp
     b90:	0000                	unimp
     b92:	0080                	addi	s0,sp,64
     b94:	0000                	unimp
     b96:	9800                	.insn	2, 0x9800
     b98:	6204                	ld	s1,0(a2)
     b9a:	71000003          	lb	zero,1808(zero) # 710 <__stack_align+0x700>
     b9e:	b9000003          	lb	zero,-1136(zero) # fffffffffffffb90 <__heap_end+0xffffffff7ffdcb90>
     ba2:	01000003          	lb	zero,16(zero) # 10 <__stack_align>
     ba6:	2480                	fld	fs0,8(s1)
     ba8:	0000                	unimp
     baa:	0500                	addi	s0,sp,640
     bac:	0100                	addi	s0,sp,128
     bae:	0708                	addi	a0,sp,896
     bb0:	0006                	c.slli	zero,0x1
     bb2:	0100                	addi	s0,sp,128
     bb4:	0c40                	addi	s0,sp,532
     bb6:	0000                	unimp
     bb8:	01ee                	slli	gp,gp,0x1b
     bba:	8000                	.insn	2, 0x8000
     bbc:	0000                	unimp
     bbe:	0000                	unimp
     bc0:	c562                	sw	s8,136(sp)
     bc2:	71000003          	lb	zero,1808(zero) # 710 <__stack_align+0x700>
     bc6:	b9000003          	lb	zero,-1136(zero) # fffffffffffffb90 <__heap_end+0xffffffff7ffdcb90>
     bca:	01000003          	lb	zero,16(zero) # 10 <__stack_align>
     bce:	3680                	fld	fs0,40(a3)
     bd0:	0001                	nop
     bd2:	0500                	addi	s0,sp,640
     bd4:	0100                	addi	s0,sp,128
     bd6:	1b08                	addi	a0,sp,432
     bd8:	0006                	c.slli	zero,0x1
     bda:	0400                	addi	s0,sp,512
     bdc:	0000014b          	fnmsub.s	ft2,ft0,ft0,ft0,rne
     be0:	791d                	lui	s2,0xfffe7
     be2:	93000003          	lb	zero,-1744(zero) # fffffffffffff930 <__heap_end+0xffffffff7ffdc930>
     be6:	0001                	nop
     be8:	9400                	.insn	2, 0x9400
     bea:	001a                	c.slli	zero,0x6
     bec:	0080                	addi	s0,sp,64
     bee:	0000                	unimp
     bf0:	1600                	addi	s0,sp,800
     bf2:	0000                	unimp
     bf4:	0000                	unimp
     bf6:	0000                	unimp
     bf8:	a000                	fsd	fs0,0(s0)
     bfa:	000c                	.insn	2, 0x000c
     bfc:	0100                	addi	s0,sp,128
     bfe:	0601                	addi	a2,a2,0
     c00:	001c                	.insn	2, 0x001c
     c02:	0000                	unimp
     c04:	0101                	addi	sp,sp,0
     c06:	1a08                	addi	a0,sp,304
     c08:	0000                	unimp
     c0a:	0100                	addi	s0,sp,128
     c0c:	0502                	c.slli64	a0
     c0e:	012d                	addi	sp,sp,11
     c10:	0000                	unimp
     c12:	0201                	addi	tp,tp,0 # 0 <__boot_hart>
     c14:	00011007          	.insn	4, 0x00011007
     c18:	0500                	addi	s0,sp,640
     c1a:	0504                	addi	s1,sp,640
     c1c:	6e69                	lui	t3,0x1a
     c1e:	0074                	addi	a3,sp,12
     c20:	0401                	addi	s0,s0,0
     c22:	00004707          	.insn	4, 0x4707
     c26:	0100                	addi	s0,sp,128
     c28:	0508                	addi	a0,sp,640
     c2a:	0005                	c.nop	1
     c2c:	0000                	unimp
     c2e:	0801                	addi	a6,a6,0
     c30:	00004207          	.insn	4, 0x4207
     c34:	0200                	addi	s0,sp,256
     c36:	000003ef          	jal	t2,c36 <__stack_align+0xc26>
     c3a:	e602                	sd	zero,264(sp)
     c3c:	5819                	li	a6,-26
     c3e:	0000                	unimp
     c40:	0200                	addi	s0,sp,256
     c42:	0344                	addi	s1,sp,388
     c44:	0000                	unimp
     c46:	e802                	sd	zero,16(sp)
     c48:	5f1a                	lw	t5,164(sp)
     c4a:	0000                	unimp
     c4c:	0200                	addi	s0,sp,256
     c4e:	03f1                	addi	t2,t2,28
     c50:	0000                	unimp
     c52:	66144d03          	lbu	s10,1633(s0)
     c56:	0000                	unimp
     c58:	0200                	addi	s0,sp,256
     c5a:	0346                	slli	t1,t1,0x11
     c5c:	0000                	unimp
     c5e:	72155203          	lhu	tp,1825(a0)
     c62:	0000                	unimp
     c64:	0100                	addi	s0,sp,128
     c66:	0508                	addi	a0,sp,640
     c68:	0000                	unimp
     c6a:	0000                	unimp
     c6c:	1001                	c.nop	-32
     c6e:	e104                	sd	s1,0(a0)
     c70:	0001                	nop
     c72:	0100                	addi	s0,sp,128
     c74:	0801                	addi	a6,a6,0
     c76:	00000023          	sb	zero,0(zero) # 0 <__boot_hart>
     c7a:	e906                	sd	ra,144(sp)
     c7c:	04000003          	lb	zero,64(zero) # 40 <__stack_align+0x30>
     c80:	0d41                	addi	s10,s10,16
     c82:	00bd                	addi	ra,ra,15
     c84:	0000                	unimp
     c86:	00004a07          	.insn	4, 0x4a07
     c8a:	0000                	unimp
     c8c:	d708                	sw	a0,40(a4)
     c8e:	01000003          	lb	zero,16(zero) # 10 <__stack_align>
     c92:	1c04                	addi	s1,sp,560
     c94:	1a94                	addi	a3,sp,368
     c96:	8000                	.insn	2, 0x8000
     c98:	0000                	unimp
     c9a:	0000                	unimp
     c9c:	0016                	c.slli	zero,0x5
     c9e:	0000                	unimp
     ca0:	0000                	unimp
     ca2:	0000                	unimp
     ca4:	9c01                	subw	s0,s0,s0
     ca6:	00000133          	add	sp,zero,zero
     caa:	6509                	lui	a0,0x2
     cac:	6370                	ld	a2,192(a4)
     cae:	0100                	addi	s0,sp,128
     cb0:	3204                	fld	fs1,32(a2)
     cb2:	008a                	slli	ra,ra,0x2
     cb4:	0000                	unimp
     cb6:	0205                	addi	tp,tp,1 # 1 <__boot_hart+0x1>
     cb8:	0000                	unimp
     cba:	0003e303          	lwu	t1,0(t2)
     cbe:	4100                	lw	s0,0(a0)
     cc0:	008a                	slli	ra,ra,0x2
     cc2:	0000                	unimp
     cc4:	00000213          	li	tp,0
     cc8:	00040403          	lb	s0,0(s0)
     ccc:	5200                	lw	s0,32(a2)
     cce:	008a                	slli	ra,ra,0x2
     cd0:	0000                	unimp
     cd2:	0221                	addi	tp,tp,8 # 8 <__tbss_size+0x4>
     cd4:	0000                	unimp
     cd6:	0003fa03          	.insn	4, 0x0003fa03
     cda:	6200                	ld	s0,0(a2)
     cdc:	00000133          	add	sp,zero,zero
     ce0:	0000022f          	.insn	4, 0x022f
     ce4:	ff0a                	sd	sp,440(sp)
     ce6:	01000003          	lb	zero,16(zero) # 10 <__stack_align>
     cea:	004a0907          	.insn	4, 0x004a0907
     cee:	0000                	unimp
     cf0:	023d                	addi	tp,tp,15 # f <__stack_shift>
     cf2:	0000                	unimp
     cf4:	001aaa0b          	.insn	4, 0x001aaa0b
     cf8:	0080                	addi	s0,sp,64
     cfa:	0000                	unimp
     cfc:	ab00                	fsd	fs0,16(a4)
     cfe:	0000                	unimp
     d00:	0000                	unimp
     d02:	080c                	addi	a1,sp,16
     d04:	008a                	slli	ra,ra,0x2
     d06:	0000                	unimp
     d08:	6500                	ld	s0,8(a0)
     d0a:	0001                	nop
     d0c:	0500                	addi	s0,sp,640
     d0e:	0100                	addi	s0,sp,128
     d10:	d508                	sw	a0,40(a0)
     d12:	0006                	c.slli	zero,0x1
     d14:	0800                	addi	s0,sp,16
     d16:	0000014b          	fnmsub.s	ft2,ft0,ft0,ft0,rne
     d1a:	931d                	srli	a4,a4,0x27
     d1c:	93000003          	lb	zero,-1744(zero) # fffffffffffff930 <__heap_end+0xffffffff7ffdc930>
     d20:	0001                	nop
     d22:	aa00                	fsd	fs0,16(a2)
     d24:	001a                	c.slli	zero,0x6
     d26:	0080                	addi	s0,sp,64
     d28:	0000                	unimp
     d2a:	3000                	fld	fs0,32(s0)
     d2c:	0000                	unimp
     d2e:	0000                	unimp
     d30:	0000                	unimp
     d32:	5700                	lw	s0,40(a4)
     d34:	000d                	c.nop	3
     d36:	0100                	addi	s0,sp,128
     d38:	0508                	addi	a0,sp,640
     d3a:	0005                	c.nop	1
     d3c:	0000                	unimp
     d3e:	7d09                	lui	s10,0xfffe2
     d40:	0002                	c.slli64	zero
     d42:	0300                	addi	s0,sp,384
     d44:	17d6                	slli	a5,a5,0x35
     d46:	0041                	c.nop	16
     d48:	0000                	unimp
     d4a:	0801                	addi	a6,a6,0
     d4c:	00004207          	.insn	4, 0x4207
     d50:	0a00                	addi	s0,sp,272
     d52:	0504                	addi	s1,sp,640
     d54:	6e69                	lui	t3,0x1a
     d56:	0074                	addi	a3,sp,12
     d58:	0801                	addi	a6,a6,0
     d5a:	0005                	c.nop	1
     d5c:	0000                	unimp
     d5e:	0100                	addi	s0,sp,128
     d60:	0410                	addi	a2,sp,512
     d62:	01e1                	addi	gp,gp,24 # 80002790 <__global_pointer$+0x18>
     d64:	0000                	unimp
     d66:	0401                	addi	s0,s0,0
     d68:	00004707          	.insn	4, 0x4707
     d6c:	0100                	addi	s0,sp,128
     d6e:	0601                	addi	a2,a2,0
     d70:	001c                	.insn	2, 0x001c
     d72:	0000                	unimp
     d74:	0101                	addi	sp,sp,0
     d76:	1a08                	addi	a0,sp,304
     d78:	0000                	unimp
     d7a:	0100                	addi	s0,sp,128
     d7c:	0502                	c.slli64	a0
     d7e:	012d                	addi	sp,sp,11
     d80:	0000                	unimp
     d82:	0201                	addi	tp,tp,0 # 0 <__boot_hart>
     d84:	00011007          	.insn	4, 0x00011007
     d88:	0b00                	addi	s0,sp,400
     d8a:	0408                	addi	a0,sp,512
     d8c:	0080                	addi	s0,sp,64
     d8e:	0000                	unimp
     d90:	8c05                	sub	s0,s0,s1
     d92:	0000                	unimp
     d94:	0100                	addi	s0,sp,128
     d96:	0801                	addi	a6,a6,0
     d98:	00000023          	sb	zero,0(zero) # 0 <__boot_hart>
     d9c:	0801                	addi	a6,a6,0
     d9e:	00003d07          	fld	fs10,0(zero) # 0 <__boot_hart>
     da2:	0600                	addi	s0,sp,768
     da4:	045e                	slli	s0,s0,0x17
     da6:	0000                	unimp
     da8:	8021                	srli	s0,s0,0x8
     daa:	0000                	unimp
     dac:	b800                	fsd	fs0,48(s0)
     dae:	0000                	unimp
     db0:	0200                	addi	s0,sp,256
     db2:	0080                	addi	s0,sp,64
     db4:	0000                	unimp
     db6:	4802                	lw	a6,0(sp)
     db8:	0000                	unimp
     dba:	0200                	addi	s0,sp,256
     dbc:	0035                	c.nop	13
     dbe:	0000                	unimp
     dc0:	0600                	addi	s0,sp,768
     dc2:	0449                	addi	s0,s0,18
     dc4:	0000                	unimp
     dc6:	801f 0000 d600      	.insn	6, 0xd6000000801f
     dcc:	0000                	unimp
     dce:	0200                	addi	s0,sp,256
     dd0:	0082                	c.slli64	ra
     dd2:	0000                	unimp
     dd4:	db02                	sw	zero,180(sp)
     dd6:	0000                	unimp
     dd8:	0200                	addi	s0,sp,256
     dda:	0035                	c.nop	13
     ddc:	0000                	unimp
     dde:	0500                	addi	s0,sp,640
     de0:	00e0                	addi	s0,sp,76
     de2:	0000                	unimp
     de4:	d604                	sw	s1,40(a2)
     de6:	0000                	unimp
     de8:	0c00                	addi	s0,sp,528
     dea:	090d                	addi	s2,s2,3 # fffffffffffe7003 <__heap_end+0xffffffff7ffc4003>
     dec:	0004                	.insn	2, 0x0004
     dee:	0100                	addi	s0,sp,128
     df0:	1aaa0603          	lb	a2,426(s4)
     df4:	8000                	.insn	2, 0x8000
     df6:	0000                	unimp
     df8:	0000                	unimp
     dfa:	0030                	addi	a2,sp,8
     dfc:	0000                	unimp
     dfe:	0000                	unimp
     e00:	0000                	unimp
     e02:	9c01                	subw	s0,s0,s0
     e04:	0161                	addi	sp,sp,24
     e06:	0000                	unimp
     e08:	2f0e                	fld	ft10,192(sp)
     e0a:	0004                	.insn	2, 0x0004
     e0c:	0100                	addi	s0,sp,128
     e0e:	1405                	addi	s0,s0,-31
     e10:	00000087          	.insn	4, 0x0087
     e14:	5401                	li	s0,-32
     e16:	00045003          	lhu	zero,0(s0)
     e1a:	0600                	addi	s0,sp,768
     e1c:	0161                	addi	sp,sp,24
     e1e:	0000                	unimp
     e20:	00042103          	lw	sp,0(s0)
     e24:	0700                	addi	s0,sp,896
     e26:	0161                	addi	sp,sp,24
     e28:	0000                	unimp
     e2a:	00041403          	lh	s0,0(s0)
     e2e:	0800                	addi	s0,sp,16
     e30:	0161                	addi	sp,sp,24
     e32:	0000                	unimp
     e34:	00043d03          	ld	s10,0(s0)
     e38:	0900                	addi	s0,sp,144
     e3a:	0161                	addi	sp,sp,24
     e3c:	0000                	unimp
     e3e:	001ac40f          	.insn	4, 0x001ac40f
     e42:	0080                	addi	s0,sp,64
     e44:	0000                	unimp
     e46:	b800                	fsd	fs0,48(s0)
     e48:	0000                	unimp
     e4a:	4d00                	lw	s0,24(a0)
     e4c:	0001                	nop
     e4e:	0700                	addi	s0,sp,896
     e50:	5a01                	li	s4,-32
     e52:	7802                	ld	a6,32(sp)
     e54:	0000                	unimp
     e56:	da10                	sw	a2,48(a2)
     e58:	001a                	c.slli	zero,0x6
     e5a:	0080                	addi	s0,sp,64
     e5c:	0000                	unimp
     e5e:	9a00                	.insn	2, 0x9a00
     e60:	0000                	unimp
     e62:	0700                	addi	s0,sp,896
     e64:	5b01                	li	s6,-32
     e66:	3001                	.insn	2, 0x3001
     e68:	0000                	unimp
     e6a:	8c11                	sub	s0,s0,a2
     e6c:	0000                	unimp
     e6e:	1200                	addi	s0,sp,288
     e70:	0000                	unimp
     e72:	033c                	addi	a5,sp,392
     e74:	0000                	unimp
     e76:	0005                	c.nop	1
     e78:	0801                	addi	a6,a6,0
     e7a:	07b8                	addi	a4,sp,968
     e7c:	0000                	unimp
     e7e:	4b12                	lw	s6,4(sp)
     e80:	0001                	nop
     e82:	1d00                	addi	s0,sp,688
     e84:	03aa                	slli	t2,t2,0xa
     e86:	0000                	unimp
     e88:	00000193          	li	gp,0
     e8c:	1ada                	slli	s5,s5,0x36
     e8e:	8000                	.insn	2, 0x8000
     e90:	0000                	unimp
     e92:	0000                	unimp
     e94:	004c                	addi	a1,sp,4
     e96:	0000                	unimp
     e98:	0000                	unimp
     e9a:	0000                	unimp
     e9c:	0e36                	slli	t3,t3,0xd
     e9e:	0000                	unimp
     ea0:	0102                	c.slli64	sp
     ea2:	1c06                	slli	s8,s8,0x21
     ea4:	0000                	unimp
     ea6:	0200                	addi	s0,sp,256
     ea8:	0801                	addi	a6,a6,0
     eaa:	001a                	c.slli	zero,0x6
     eac:	0000                	unimp
     eae:	0202                	c.slli64	tp
     eb0:	2d05                	addiw	s10,s10,1 # fffffffffffe2001 <__heap_end+0xffffffff7ffbf001>
     eb2:	0001                	nop
     eb4:	0200                	addi	s0,sp,256
     eb6:	0702                	c.slli64	a4
     eb8:	0110                	addi	a2,sp,128
     eba:	0000                	unimp
     ebc:	8001                	c.srli64	s0
     ebe:	0004                	.insn	2, 0x0004
     ec0:	0400                	addi	s0,sp,512
     ec2:	184d                	addi	a6,a6,-13
     ec4:	0056                	c.slli	zero,0x15
     ec6:	0000                	unimp
     ec8:	69050413          	addi	s0,a0,1680 # 2690 <__stack_align+0x2680>
     ecc:	746e                	ld	s0,248(sp)
     ece:	0200                	addi	s0,sp,256
     ed0:	0704                	addi	s1,sp,896
     ed2:	00000047          	fmsub.s	ft0,ft0,ft0,ft0,rne
     ed6:	0802                	c.slli64	a6
     ed8:	0505                	addi	a0,a0,1
     eda:	0000                	unimp
     edc:	0100                	addi	s0,sp,128
     ede:	00000357          	.insn	4, 0x0357
     ee2:	6904                	ld	s1,16(a0)
     ee4:	7719                	lui	a4,0xfffe6
     ee6:	0000                	unimp
     ee8:	0200                	addi	s0,sp,256
     eea:	0708                	addi	a0,sp,896
     eec:	0042                	c.slli	zero,0x10
     eee:	0000                	unimp
     ef0:	4401                	li	s0,0
     ef2:	04000003          	lb	zero,64(zero) # 40 <__stack_align+0x30>
     ef6:	1ae8                	addi	a0,sp,380
     ef8:	00000077          	.insn	4, 0x0077
     efc:	8201                	c.srli64	a2
     efe:	0004                	.insn	2, 0x0004
     f00:	0500                	addi	s0,sp,640
     f02:	132c                	addi	a1,sp,424
     f04:	004a                	c.slli	zero,0x12
     f06:	0000                	unimp
     f08:	5901                	li	s2,-32
     f0a:	05000003          	lb	zero,80(zero) # 50 <__stack_align+0x40>
     f0e:	143c                	addi	a5,sp,552
     f10:	0000006b          	.insn	4, 0x006b
     f14:	9608                	.insn	2, 0x9608
     f16:	0000                	unimp
     f18:	0100                	addi	s0,sp,128
     f1a:	0346                	slli	t1,t1,0x11
     f1c:	0000                	unimp
     f1e:	5205                	li	tp,-31
     f20:	7e15                	lui	t3,0xfffe5
     f22:	0000                	unimp
     f24:	0100                	addi	s0,sp,128
     f26:	04a8                	addi	a0,sp,584
     f28:	0000                	unimp
     f2a:	1b02                	slli	s6,s6,0x20
     f2c:	8a11                	andi	a2,a2,4
     f2e:	0000                	unimp
     f30:	1400                	addi	s0,sp,544
     f32:	000000b3          	add	ra,zero,zero
     f36:	0415                	addi	s0,s0,5
     f38:	db090603          	lb	a2,-592(s2)
     f3c:	0000                	unimp
     f3e:	1600                	addi	s0,sp,800
     f40:	0000048f          	.insn	4, 0x048f
     f44:	b30e0703          	lb	a4,-1232(t3) # fffffffffffe4b30 <__heap_end+0xffffffff7ffc1b30>
     f48:	0000                	unimp
     f4a:	0000                	unimp
     f4c:	0100                	addi	s0,sp,128
     f4e:	0465                	addi	s0,s0,25
     f50:	0000                	unimp
     f52:	c4030803          	lb	a6,-960(t1)
     f56:	0000                	unimp
     f58:	0900                	addi	s0,sp,144
     f5a:	0479                	addi	s0,s0,30
     f5c:	0000                	unimp
     f5e:	a206                	fsd	ft1,256(sp)
     f60:	0000                	unimp
     f62:	0900                	addi	s0,sp,144
     f64:	0470                	addi	a2,sp,524
     f66:	0000                	unimp
     f68:	0000a207          	flw	ft4,0(ra)
     f6c:	0a00                	addi	s0,sp,272
     f6e:	000000e7          	jalr	zero # 0 <__boot_hart>
     f72:	c0030907          	.insn	4, 0xc0030907
     f76:	001e                	c.slli	zero,0x7
     f78:	0080                	addi	s0,sp,64
     f7a:	0000                	unimp
     f7c:	0a00                	addi	s0,sp,272
     f7e:	00f1                	addi	ra,ra,28
     f80:	0000                	unimp
     f82:	0908                	addi	a0,sp,144
     f84:	001ec803          	lbu	a6,1(t4)
     f88:	0080                	addi	s0,sp,64
     f8a:	0000                	unimp
     f8c:	1700                	addi	s0,sp,928
     f8e:	048a                	slli	s1,s1,0x2
     f90:	0000                	unimp
     f92:	0a01                	addi	s4,s4,0
     f94:	0000db13          	srli	s6,ra,0x0
     f98:	0900                	addi	s0,sp,144
     f9a:	001fc003          	lbu	zero,1(t6)
     f9e:	0080                	addi	s0,sp,64
     fa0:	0000                	unimp
     fa2:	1800                	addi	s0,sp,48
     fa4:	00000337          	lui	t1,0x0
     fa8:	0c01                	addi	s8,s8,0 # 1000 <__stack_align+0xff0>
     faa:	6406                	ld	s0,64(sp)
     fac:	0000                	unimp
     fae:	da00                	sw	s0,48(a2)
     fb0:	001a                	c.slli	zero,0x6
     fb2:	0080                	addi	s0,sp,64
     fb4:	0000                	unimp
     fb6:	4c00                	lw	s0,24(s0)
     fb8:	0000                	unimp
     fba:	0000                	unimp
     fbc:	0000                	unimp
     fbe:	0100                	addi	s0,sp,128
     fc0:	899c                	.insn	2, 0x899c
     fc2:	0002                	c.slli64	zero
     fc4:	0500                	addi	s0,sp,640
     fc6:	3061                	.insn	2, 0x3061
     fc8:	1c00                	addi	s0,sp,560
     fca:	0096                	slli	ra,ra,0x5
     fcc:	0000                	unimp
     fce:	0000024f          	fnmadd.s	ft4,ft0,ft0,ft0,rne
     fd2:	6119                	addi	sp,sp,384
     fd4:	0031                	c.nop	12
     fd6:	0c01                	addi	s8,s8,0
     fd8:	9629                	srai	a2,a2,0x2a
     fda:	0000                	unimp
     fdc:	0100                	addi	s0,sp,128
     fde:	3261055b          	.insn	4, 0x3261055b
     fe2:	3600                	fld	fs0,40(a2)
     fe4:	0096                	slli	ra,ra,0x5
     fe6:	0000                	unimp
     fe8:	025d                	addi	tp,tp,23 # 17 <__stack_align+0x7>
     fea:	0000                	unimp
     fec:	6e05                	lui	t3,0x1
     fee:	4800                	lw	s0,16(s0)
     ff0:	00000077          	.insn	4, 0x0077
     ff4:	0271                	addi	tp,tp,28 # 1c <__stack_align+0xc>
     ff6:	0000                	unimp
     ff8:	6675620b          	.insn	4, 0x6675620b
     ffc:	0e00                	addi	s0,sp,784
     ffe:	00029917          	auipc	s2,0x29
    1002:	0200                	addi	s0,sp,256
    1004:	4091                	li	ra,4
    1006:	0063730b          	.insn	4, 0x0063730b
    100a:	00960e0f          	.insn	4, 0x00960e0f
    100e:	0000                	unimp
    1010:	5c01                	li	s8,-32
    1012:	ba0c                	fsd	fa1,48(a2)
    1014:	0002                	c.slli64	zero
    1016:	f200                	sd	s0,32(a2)
    1018:	001a                	c.slli	zero,0x6
    101a:	0080                	addi	s0,sp,64
    101c:	0000                	unimp
    101e:	0c00                	addi	s0,sp,528
    1020:	0000                	unimp
    1022:	0000                	unimp
    1024:	0000                	unimp
    1026:	1700                	addi	s0,sp,928
    1028:	00000217          	auipc	tp,0x0
    102c:	0002c503          	lbu	a0,0(t0)
    1030:	7f00                	ld	s0,56(a4)
    1032:	0002                	c.slli64	zero
    1034:	1a00                	addi	s0,sp,304
    1036:	000002eb          	.insn	4, 0x02eb
    103a:	1af2                	slli	s5,s5,0x3c
    103c:	8000                	.insn	2, 0x8000
    103e:	0000                	unimp
    1040:	0000                	unimp
    1042:	0062                	c.slli	zero,0x18
    1044:	0000                	unimp
    1046:	f90e1203          	lh	tp,-112(t3) # f90 <__stack_align+0xf80>
    104a:	0001                	nop
    104c:	0300                	addi	s0,sp,384
    104e:	0302                	c.slli64	t1
    1050:	0000                	unimp
    1052:	028e                	slli	t0,t0,0x3
    1054:	0000                	unimp
    1056:	0002f903          	.insn	4, 0x0002f903
    105a:	9600                	.insn	2, 0x9600
    105c:	0002                	c.slli64	zero
    105e:	1b00                	addi	s0,sp,432
    1060:	0062                	c.slli	zero,0x18
    1062:	0000                	unimp
    1064:	0b1c                	addi	a5,sp,400
    1066:	00000003          	lb	zero,0(zero) # 0 <__boot_hart>
    106a:	0d00                	addi	s0,sp,656
    106c:	0316                	slli	t1,t1,0x5
    106e:	0000                	unimp
    1070:	1af4                	addi	a3,sp,380
    1072:	8000                	.insn	2, 0x8000
    1074:	0000                	unimp
    1076:	0000                	unimp
    1078:	0002                	c.slli64	zero
    107a:	0000                	unimp
    107c:	0000                	unimp
    107e:	0000                	unimp
    1080:	1010                	addi	a2,sp,32
    1082:	241d                	addiw	s0,s0,7
    1084:	00000003          	lb	zero,0(zero) # 0 <__boot_hart>
    1088:	0e00                	addi	s0,sp,784
    108a:	00000333          	add	t1,zero,zero
    108e:	1afe                	slli	s5,s5,0x3f
    1090:	8000                	.insn	2, 0x8000
    1092:	0000                	unimp
    1094:	0000                	unimp
    1096:	0004                	.insn	2, 0x0004
    1098:	0000                	unimp
    109a:	0000                	unimp
    109c:	0000                	unimp
    109e:	0c18                	addi	a4,sp,528
    10a0:	029e                	slli	t0,t0,0x7
    10a2:	0000                	unimp
    10a4:	1b18                	addi	a4,sp,432
    10a6:	8000                	.insn	2, 0x8000
    10a8:	0000                	unimp
    10aa:	0000                	unimp
    10ac:	0004                	.insn	2, 0x0004
    10ae:	0000                	unimp
    10b0:	0000                	unimp
    10b2:	0000                	unimp
    10b4:	721c                	ld	a5,32(a2)
    10b6:	0002                	c.slli64	zero
    10b8:	0300                	addi	s0,sp,384
    10ba:	02a9                	addi	t0,t0,10
    10bc:	0000                	unimp
    10be:	02a5                	addi	t0,t0,9
    10c0:	0000                	unimp
    10c2:	d10d                	beqz	a0,fe4 <__stack_align+0xfd4>
    10c4:	0002                	c.slli64	zero
    10c6:	1800                	addi	s0,sp,48
    10c8:	0080001b          	addiw	zero,zero,8
    10cc:	0000                	unimp
    10ce:	0400                	addi	s0,sp,512
    10d0:	0000                	unimp
    10d2:	0000                	unimp
    10d4:	0000                	unimp
    10d6:	1700                	addi	s0,sp,928
    10d8:	0305                	addi	t1,t1,1 # 1 <__boot_hart+0x1>
    10da:	02dc                	addi	a5,sp,324
    10dc:	0000                	unimp
    10de:	02a5                	addi	t0,t0,9
    10e0:	0000                	unimp
    10e2:	0000                	unimp
    10e4:	390e                	fld	fs2,224(sp)
    10e6:	1c000003          	lb	zero,448(zero) # 1c0 <__stack_align+0x1b0>
    10ea:	0080001b          	addiw	zero,zero,8
    10ee:	0000                	unimp
    10f0:	0400                	addi	s0,sp,512
    10f2:	0000                	unimp
    10f4:	0000                	unimp
    10f6:	0000                	unimp
    10f8:	1e00                	addi	s0,sp,816
    10fa:	1e00                	addi	s0,sp,816
    10fc:	00a2                	slli	ra,ra,0x8
    10fe:	0000                	unimp
    1100:	0299                	addi	t0,t0,6
    1102:	0000                	unimp
    1104:	771f 0000 0700      	.insn	6, 0x07000000771f
    110a:	0800                	addi	s0,sp,16
    110c:	0289                	addi	t0,t0,2
    110e:	0000                	unimp
    1110:	c706                	sw	ra,140(sp)
    1112:	0004                	.insn	2, 0x0004
    1114:	0300                	addi	s0,sp,384
    1116:	b515                	j	f3a <__stack_align+0xf2a>
    1118:	0002                	c.slli64	zero
    111a:	0f00                	addi	s0,sp,912
    111c:	0000048f          	.insn	4, 0x048f
    1120:	2c15                	addiw	s8,s8,5
    1122:	02b5                	addi	t0,t0,13
    1124:	0000                	unimp
    1126:	0700                	addi	s0,sp,896
    1128:	000000db          	.insn	4, 0x00db
    112c:	bd06                	fsd	ft1,184(sp)
    112e:	0004                	.insn	2, 0x0004
    1130:	0300                	addi	s0,sp,384
    1132:	d10c                	sw	a1,32(a0)
    1134:	0002                	c.slli64	zero
    1136:	0f00                	addi	s0,sp,912
    1138:	0000048f          	.insn	4, 0x048f
    113c:	2a0c                	fld	fa1,16(a2)
    113e:	02b5                	addi	t0,t0,13
    1140:	0000                	unimp
    1142:	0600                	addi	s0,sp,768
    1144:	000004d3          	fadd.s	fs1,ft0,ft0,rne
    1148:	3c02                	fld	fs8,32(sp)
    114a:	02e6                	slli	t0,t0,0x19
    114c:	0000                	unimp
    114e:	7004                	ld	s1,32(s0)
    1150:	3c00                	fld	fs0,56(s0)
    1152:	0002e633          	or	a2,t0,zero
    1156:	0000                	unimp
    1158:	0000b307          	fld	ft6,0(ra)
    115c:	1000                	addi	s0,sp,32
    115e:	0494                	addi	a3,sp,576
    1160:	0000                	unimp
    1162:	6428                	ld	a0,72(s0)
    1164:	0000                	unimp
    1166:	1600                	addi	s0,sp,800
    1168:	04000003          	lb	zero,64(zero) # 40 <__stack_align+0x30>
    116c:	0070                	addi	a2,sp,12
    116e:	3228                	fld	fa0,96(a2)
    1170:	02e6                	slli	t0,t0,0x19
    1172:	0000                	unimp
    1174:	7604                	ld	s1,40(a2)
    1176:	2800                	fld	fs0,16(s0)
    1178:	b33e                	fsd	fa5,416(sp)
    117a:	0000                	unimp
    117c:	2000                	fld	fs0,0(s0)
    117e:	006e                	c.slli	zero,0x1b
    1180:	2a02                	fld	fs4,0(sp)
    1182:	640a                	ld	s0,128(sp)
    1184:	0000                	unimp
    1186:	0000                	unimp
    1188:	b110                	fsd	fa2,32(a0)
    118a:	0004                	.insn	2, 0x0004
    118c:	1d00                	addi	s0,sp,688
    118e:	0064                	addi	s1,sp,12
    1190:	0000                	unimp
    1192:	032e                	slli	t1,t1,0xb
    1194:	0000                	unimp
    1196:	7004                	ld	s1,32(s0)
    1198:	1d00                	addi	s0,sp,688
    119a:	2e30                	fld	fa2,88(a2)
    119c:	00000003          	lb	zero,0(zero) # 0 <__boot_hart>
    11a0:	0000bf07          	fld	ft10,0(ra)
    11a4:	1100                	addi	s0,sp,160
    11a6:	00626d77          	.insn	4, 0x00626d77
    11aa:	1116                	slli	sp,sp,0x25
    11ac:	6d72                	ld	s10,280(sp)
    11ae:	0062                	c.slli	zero,0x18
    11b0:	0015                	c.nop	5
    11b2:	00e0                	addi	s0,sp,76
    11b4:	0000                	unimp
    11b6:	0005                	c.nop	1
    11b8:	0801                	addi	a6,a6,0
    11ba:	09a0                	addi	s0,sp,216
    11bc:	0000                	unimp
    11be:	4b04                	lw	s1,16(a4)
    11c0:	0001                	nop
    11c2:	1d00                	addi	s0,sp,688
    11c4:	03cd                	addi	t2,t2,19
    11c6:	0000                	unimp
    11c8:	00000193          	li	gp,0
    11cc:	1b26                	slli	s6,s6,0x29
    11ce:	8000                	.insn	2, 0x8000
    11d0:	0000                	unimp
    11d2:	0000                	unimp
    11d4:	0022                	c.slli	zero,0x8
    11d6:	0000                	unimp
    11d8:	0000                	unimp
    11da:	0000                	unimp
    11dc:	102c                	addi	a1,sp,40
    11de:	0000                	unimp
    11e0:	0801                	addi	a6,a6,0
    11e2:	0505                	addi	a0,a0,1
    11e4:	0000                	unimp
    11e6:	0100                	addi	s0,sp,128
    11e8:	0708                	addi	a0,sp,896
    11ea:	0042                	c.slli	zero,0x10
    11ec:	0000                	unimp
    11ee:	0405                	addi	s0,s0,1
    11f0:	6905                	lui	s2,0x1
    11f2:	746e                	ld	s0,248(sp)
    11f4:	0100                	addi	s0,sp,128
    11f6:	0508                	addi	a0,sp,640
    11f8:	0000                	unimp
    11fa:	0000                	unimp
    11fc:	1001                	c.nop	-32
    11fe:	e104                	sd	s1,0(a0)
    1200:	0001                	nop
    1202:	0100                	addi	s0,sp,128
    1204:	0601                	addi	a2,a2,0
    1206:	001c                	.insn	2, 0x001c
    1208:	0000                	unimp
    120a:	0101                	addi	sp,sp,0
    120c:	1a08                	addi	a0,sp,304
    120e:	0000                	unimp
    1210:	0100                	addi	s0,sp,128
    1212:	0502                	c.slli64	a0
    1214:	012d                	addi	sp,sp,11
    1216:	0000                	unimp
    1218:	0201                	addi	tp,tp,0 # 1028 <__stack_align+0x1018>
    121a:	00011007          	.insn	4, 0x00011007
    121e:	0100                	addi	s0,sp,128
    1220:	0704                	addi	s1,sp,896
    1222:	00000047          	fmsub.s	ft0,ft0,ft0,ft0,rne
    1226:	5702                	lw	a4,32(sp)
    1228:	02000003          	lb	zero,32(zero) # 20 <__stack_align+0x10>
    122c:	1969                	addi	s2,s2,-6 # ffa <__stack_align+0xfea>
    122e:	0035                	c.nop	13
    1230:	0000                	unimp
    1232:	5902                	lw	s2,32(sp)
    1234:	03000003          	lb	zero,48(zero) # 30 <__stack_align+0x20>
    1238:	143c                	addi	a5,sp,552
    123a:	0074                	addi	a3,sp,12
    123c:	0000                	unimp
    123e:	8006                	c.mv	zero,ra
    1240:	0000                	unimp
    1242:	0100                	addi	s0,sp,128
    1244:	0801                	addi	a6,a6,0
    1246:	00000023          	sb	zero,0(zero) # 0 <__boot_hart>
    124a:	00047903          	.insn	4, 0x00047903
    124e:	0600                	addi	s0,sp,768
    1250:	008c                	addi	a1,sp,64
    1252:	0000                	unimp
    1254:	00047003          	.insn	4, 0x00047003
    1258:	0700                	addi	s0,sp,896
    125a:	008c                	addi	a1,sp,64
    125c:	0000                	unimp
    125e:	0003e907          	.insn	4, 0x0003e907
    1262:	0100                	addi	s0,sp,128
    1264:	2104                	fld	fs1,0(a0)
    1266:	1b26                	slli	s6,s6,0x29
    1268:	8000                	.insn	2, 0x8000
    126a:	0000                	unimp
    126c:	0000                	unimp
    126e:	0022                	c.slli	zero,0x8
    1270:	0000                	unimp
    1272:	0000                	unimp
    1274:	0000                	unimp
    1276:	9c01                	subw	s0,s0,s0
    1278:	ff08                	sd	a0,56(a4)
    127a:	01000003          	lb	zero,16(zero) # 10 <__stack_align>
    127e:	2b04                	fld	fs1,16(a4)
    1280:	003c                	addi	a5,sp,8
    1282:	0000                	unimp
    1284:	5a01                	li	s4,-32
    1286:	6309                	lui	t1,0x2
    1288:	646d                	lui	s0,0x1b
    128a:	0100                	addi	s0,sp,128
    128c:	0e06                	slli	t3,t3,0x1
    128e:	0080                	addi	s0,sp,64
    1290:	0000                	unimp
    1292:	5f01                	li	t5,-32
	...

Disassembly of section .debug_abbrev:

0000000000000000 <.debug_abbrev>:
   0:	2401                	sext.w	s0,s0
   2:	0b00                	addi	s0,sp,400
   4:	030b3e0b          	.insn	4, 0x030b3e0b
   8:	000e                	c.slli	zero,0x3
   a:	0200                	addi	s0,sp,256
   c:	0034                	addi	a3,sp,8
   e:	213a0e03          	lb	t3,531(s4)
  12:	3b01                	addiw	s6,s6,-32
  14:	490b390b          	.insn	4, 0x490b390b
  18:	00170213          	addi	tp,a4,1 # fffffffffffe6001 <__heap_end+0xffffffff7ffc3001>
  1c:	0300                	addi	s0,sp,384
  1e:	1755010b          	.insn	4, 0x1755010b
  22:	1301                	addi	t1,t1,-32 # 1fe0 <__stack_align+0x1fd0>
  24:	0000                	unimp
  26:	4904                	lw	s1,16(a0)
  28:	0200                	addi	s0,sp,256
  2a:	7e18                	ld	a4,56(a2)
  2c:	0018                	.insn	2, 0x0018
  2e:	0500                	addi	s0,sp,640
  30:	0034                	addi	a3,sp,8
  32:	213a0e03          	lb	t3,531(s4)
  36:	3b01                	addiw	s6,s6,-32
  38:	490b390b          	.insn	4, 0x490b390b
  3c:	06000013          	li	zero,96
  40:	0048                	addi	a0,sp,4
  42:	017d                	addi	sp,sp,31
  44:	0000137f 31000507 	.insn	12, 0x00170213310005070000137f
  4c:	00170213 
  50:	0800                	addi	s0,sp,16
  52:	0034                	addi	a3,sp,8
  54:	213a0e03          	lb	t3,531(s4)
  58:	3b01                	addiw	s6,s6,-32
  5a:	1721390b          	.insn	4, 0x1721390b
  5e:	1349                	addi	t1,t1,-14
  60:	1802                	slli	a6,a6,0x20
  62:	0000                	unimp
  64:	1109                	addi	sp,sp,-30
  66:	2501                	sext.w	a0,a0
  68:	130e                	slli	t1,t1,0x23
  6a:	1b1f030b          	.insn	4, 0x1b1f030b
  6e:	551f 1117 1001      	.insn	6, 0x10011117551f
  74:	0a000017          	auipc	zero,0xa000
  78:	0024                	addi	s1,sp,8
  7a:	0b3e0b0b          	.insn	4, 0x0b3e0b0b
  7e:	00000803          	lb	a6,0(zero) # 0 <__boot_hart>
  82:	4900350b          	.insn	4, 0x4900350b
  86:	0c000013          	li	zero,192
  8a:	0016                	c.slli	zero,0x5
  8c:	0b3a0e03          	lb	t3,179(s4)
  90:	0b390b3b          	.insn	4, 0x0b390b3b
  94:	1349                	addi	t1,t1,-14
  96:	0000                	unimp
  98:	260d                	addiw	a2,a2,3
  9a:	4900                	lw	s0,16(a0)
  9c:	0e000013          	li	zero,224
  a0:	0b0b000f          	.insn	4, 0x0b0b000f
  a4:	1349                	addi	t1,t1,-14
  a6:	0000                	unimp
  a8:	4900370f          	.insn	4, 0x4900370f
  ac:	10000013          	li	zero,256
  b0:	012e                	slli	sp,sp,0xb
  b2:	0e03193f 0b3b0b3a 	.insn	8, 0x0b3b0b3a0e03193f
  ba:	0b39                	addi	s6,s6,14
  bc:	13491927          	.insn	4, 0x13491927
  c0:	193c                	addi	a5,sp,184
  c2:	1301                	addi	t1,t1,-32
  c4:	0000                	unimp
  c6:	0511                	addi	a0,a0,4
  c8:	4900                	lw	s0,16(a0)
  ca:	12000013          	li	zero,288
  ce:	0018                	.insn	2, 0x0018
  d0:	0000                	unimp
  d2:	3f012e13          	slti	t3,sp,1008
  d6:	0319                	addi	t1,t1,6
  d8:	3a0e                	fld	fs4,224(sp)
  da:	390b3b0b          	.insn	4, 0x390b3b0b
  de:	4919270b          	.insn	4, 0x4919270b
  e2:	12011113          	.insn	4, 0x12011113
  e6:	7a184007          	.insn	4, 0x7a184007
  ea:	0119                	addi	sp,sp,6
  ec:	14000013          	li	zero,320
  f0:	012e                	slli	sp,sp,0xb
  f2:	0e03193f 0b3b0b3a 	.insn	8, 0x0b3b0b3a0e03193f
  fa:	0b39                	addi	s6,s6,14
  fc:	01111927          	.insn	4, 0x01111927
 100:	0712                	slli	a4,a4,0x4
 102:	1840                	addi	s0,sp,52
 104:	197a                	slli	s2,s2,0x3e
 106:	1301                	addi	t1,t1,-32
 108:	0000                	unimp
 10a:	3415                	addiw	s0,s0,-27 # 1afe5 <__stack_size+0x12fe5>
 10c:	0300                	addi	s0,sp,384
 10e:	3a08                	fld	fa0,48(a2)
 110:	390b3b0b          	.insn	4, 0x390b3b0b
 114:	0213490b          	.insn	4, 0x0213490b
 118:	16000017          	auipc	zero,0x16000
 11c:	0148                	addi	a0,sp,132
 11e:	017d                	addi	sp,sp,31
 120:	0000137f 31011d17 	.insn	12, 0x1201111331011d170000137f
 128:	12011113 
 12c:	590b5807          	.insn	4, 0x590b5807
 130:	000b570b          	.insn	4, 0x000b570b
 134:	1800                	addi	s0,sp,48
 136:	012e                	slli	sp,sp,0xb
 138:	0b3a0e03          	lb	t3,179(s4)
 13c:	0b390b3b          	.insn	4, 0x0b390b3b
 140:	0111                	addi	sp,sp,4
 142:	0712                	slli	a4,a4,0x4
 144:	1840                	addi	s0,sp,52
 146:	197a                	slli	s2,s2,0x3e
 148:	1301                	addi	t1,t1,-32
 14a:	0000                	unimp
 14c:	2e19                	addiw	t3,t3,6
 14e:	3f01                	addiw	t5,t5,-32
 150:	0319                	addi	t1,t1,6
 152:	3a0e                	fld	fs4,224(sp)
 154:	390b3b0b          	.insn	4, 0x390b3b0b
 158:	4919270b          	.insn	4, 0x4919270b
 15c:	010b2013          	slti	zero,s6,16
 160:	1a000013          	li	zero,416
 164:	0005                	c.nop	1
 166:	0b3a0e03          	lb	t3,179(s4)
 16a:	0b390b3b          	.insn	4, 0x0b390b3b
 16e:	1349                	addi	t1,t1,-14
 170:	0000                	unimp
 172:	31012e1b          	.insn	4, 0x31012e1b
 176:	12011113          	.insn	4, 0x12011113
 17a:	7a184007          	.insn	4, 0x7a184007
 17e:	0019                	c.nop	6
 180:	0000                	unimp
 182:	2401                	sext.w	s0,s0
 184:	0b00                	addi	s0,sp,400
 186:	030b3e0b          	.insn	4, 0x030b3e0b
 18a:	000e                	c.slli	zero,0x3
 18c:	0200                	addi	s0,sp,256
 18e:	0111                	addi	sp,sp,4
 190:	0e25                	addi	t3,t3,9
 192:	1f030b13          	addi	s6,t1,496
 196:	01111f1b          	slliw	t5,sp,0x11
 19a:	0712                	slli	a4,a4,0x4
 19c:	1710                	addi	a2,sp,928
 19e:	0000                	unimp
 1a0:	0b002403          	lw	s0,176(zero) # b0 <__stack_align+0xa0>
 1a4:	030b3e0b          	.insn	4, 0x030b3e0b
 1a8:	0008                	.insn	2, 0x0008
 1aa:	0400                	addi	s0,sp,512
 1ac:	002e                	c.slli	zero,0xb
 1ae:	0e03193f 0b3b0b3a 	.insn	8, 0x0b3b0b3a0e03193f
 1b6:	0b39                	addi	s6,s6,14
 1b8:	13491927          	.insn	4, 0x13491927
 1bc:	193c                	addi	a5,sp,184
 1be:	0000                	unimp
 1c0:	0f05                	addi	t5,t5,1
 1c2:	0b00                	addi	s0,sp,400
 1c4:	0013490b          	.insn	4, 0x0013490b
 1c8:	0600                	addi	s0,sp,768
 1ca:	012e                	slli	sp,sp,0xb
 1cc:	0e03193f 0b3b0b3a 	.insn	8, 0x0b3b0b3a0e03193f
 1d4:	0b39                	addi	s6,s6,14
 1d6:	13491927          	.insn	4, 0x13491927
 1da:	0111                	addi	sp,sp,4
 1dc:	0712                	slli	a4,a4,0x4
 1de:	1840                	addi	s0,sp,52
 1e0:	197a                	slli	s2,s2,0x3e
 1e2:	0000                	unimp
 1e4:	03000507          	.insn	4, 0x03000507
 1e8:	3a0e                	fld	fs4,224(sp)
 1ea:	390b3b0b          	.insn	4, 0x390b3b0b
 1ee:	0213490b          	.insn	4, 0x0213490b
 1f2:	08000017          	auipc	zero,0x8000
 1f6:	0048                	addi	a0,sp,4
 1f8:	017d                	addi	sp,sp,31
 1fa:	0000137f 00160100 	.insn	12, 0x0b3a0e03001601000000137f
 202:	0b3a0e03 
 206:	0b390b3b          	.insn	4, 0x0b390b3b
 20a:	1349                	addi	t1,t1,-14
 20c:	0000                	unimp
 20e:	0d02                	c.slli64	s10
 210:	0300                	addi	s0,sp,384
 212:	3a0e                	fld	fs4,224(sp)
 214:	390b3b0b          	.insn	4, 0x390b3b0b
 218:	3813490b          	.insn	4, 0x3813490b
 21c:	0300000b          	.insn	4, 0x0300000b
 220:	0024                	addi	s1,sp,8
 222:	0b3e0b0b          	.insn	4, 0x0b3e0b0b
 226:	00000e03          	lb	t3,0(zero) # 0 <__boot_hart>
 22a:	1304                	addi	s1,sp,416
 22c:	0301                	addi	t1,t1,0
 22e:	0b0e                	slli	s6,s6,0x3
 230:	3b0b3a0b          	.insn	4, 0x3b0b3a0b
 234:	0821390b          	.insn	4, 0x0821390b
 238:	1301                	addi	t1,t1,-32
 23a:	0000                	unimp
 23c:	0f05                	addi	t5,t5,1
 23e:	0b00                	addi	s0,sp,400
 240:	0821                	addi	a6,a6,8
 242:	1349                	addi	t1,t1,-14
 244:	0000                	unimp
 246:	1106                	slli	sp,sp,0x21
 248:	2501                	sext.w	a0,a0
 24a:	130e                	slli	t1,t1,0x23
 24c:	1b1f030b          	.insn	4, 0x1b1f030b
 250:	111f 1201 1007      	.insn	6, 0x10071201111f
 256:	07000017          	auipc	zero,0x7000
 25a:	0024                	addi	s1,sp,8
 25c:	0b3e0b0b          	.insn	4, 0x0b3e0b0b
 260:	00000803          	lb	a6,0(zero) # 0 <__boot_hart>
 264:	0108                	addi	a0,sp,128
 266:	4901                	li	s2,0
 268:	00130113          	addi	sp,t1,1
 26c:	0900                	addi	s0,sp,144
 26e:	0021                	c.nop	8
 270:	1349                	addi	t1,t1,-14
 272:	00000b2f          	.insn	4, 0x0b2f
 276:	2e0a                	fld	ft8,128(sp)
 278:	3f00                	fld	fs0,56(a4)
 27a:	0319                	addi	t1,t1,6
 27c:	3a0e                	fld	fs4,224(sp)
 27e:	390b3b0b          	.insn	4, 0x390b3b0b
 282:	4919270b          	.insn	4, 0x4919270b
 286:	00193c13          	seqz	s8,s2
 28a:	0b00                	addi	s0,sp,400
 28c:	012e                	slli	sp,sp,0xb
 28e:	0e03193f 0b3b0b3a 	.insn	8, 0x0b3b0b3a0e03193f
 296:	0b39                	addi	s6,s6,14
 298:	13491927          	.insn	4, 0x13491927
 29c:	0111                	addi	sp,sp,4
 29e:	0712                	slli	a4,a4,0x4
 2a0:	1840                	addi	s0,sp,52
 2a2:	197a                	slli	s2,s2,0x3e
 2a4:	1301                	addi	t1,t1,-32
 2a6:	0000                	unimp
 2a8:	050c                	addi	a1,sp,640
 2aa:	0300                	addi	s0,sp,384
 2ac:	3a0e                	fld	fs4,224(sp)
 2ae:	390b3b0b          	.insn	4, 0x390b3b0b
 2b2:	0213490b          	.insn	4, 0x0213490b
 2b6:	0d000017          	auipc	zero,0xd000
 2ba:	0005                	c.nop	1
 2bc:	0b3a0803          	lb	a6,179(s4)
 2c0:	0b390b3b          	.insn	4, 0x0b390b3b
 2c4:	1349                	addi	t1,t1,-14
 2c6:	1702                	slli	a4,a4,0x20
 2c8:	0000                	unimp
 2ca:	480e                	lw	a6,192(sp)
 2cc:	7d00                	ld	s0,56(a0)
 2ce:	7f01                	lui	t5,0xfffe0
 2d0:	00000013          	nop
 2d4:	2401                	sext.w	s0,s0
 2d6:	0b00                	addi	s0,sp,400
 2d8:	030b3e0b          	.insn	4, 0x030b3e0b
 2dc:	000e                	c.slli	zero,0x3
 2de:	0200                	addi	s0,sp,256
 2e0:	0111                	addi	sp,sp,4
 2e2:	0e25                	addi	t3,t3,9
 2e4:	1f030b13          	addi	s6,t1,496
 2e8:	01111f1b          	slliw	t5,sp,0x11
 2ec:	0712                	slli	a4,a4,0x4
 2ee:	1710                	addi	a2,sp,928
 2f0:	0000                	unimp
 2f2:	0b002403          	lw	s0,176(zero) # b0 <__stack_align+0xa0>
 2f6:	030b3e0b          	.insn	4, 0x030b3e0b
 2fa:	0008                	.insn	2, 0x0008
 2fc:	0400                	addi	s0,sp,512
 2fe:	012e                	slli	sp,sp,0xb
 300:	0e03193f 0b3b0b3a 	.insn	8, 0x0b3b0b3a0e03193f
 308:	0b39                	addi	s6,s6,14
 30a:	13491927          	.insn	4, 0x13491927
 30e:	0111                	addi	sp,sp,4
 310:	0712                	slli	a4,a4,0x4
 312:	1840                	addi	s0,sp,52
 314:	197a                	slli	s2,s2,0x3e
 316:	0000                	unimp
 318:	0505                	addi	a0,a0,1
 31a:	0300                	addi	s0,sp,384
 31c:	3a0e                	fld	fs4,224(sp)
 31e:	390b3b0b          	.insn	4, 0x390b3b0b
 322:	0213490b          	.insn	4, 0x0213490b
 326:	00000017          	auipc	zero,0x0
 32a:	2401                	sext.w	s0,s0
 32c:	0b00                	addi	s0,sp,400
 32e:	030b3e0b          	.insn	4, 0x030b3e0b
 332:	000e                	c.slli	zero,0x3
 334:	0200                	addi	s0,sp,256
 336:	0016                	c.slli	zero,0x5
 338:	0b3a0e03          	lb	t3,179(s4)
 33c:	0b390b3b          	.insn	4, 0x0b390b3b
 340:	1349                	addi	t1,t1,-14
 342:	0000                	unimp
 344:	03000503          	lb	a0,48(zero) # 30 <__stack_align+0x20>
 348:	3a08                	fld	fa0,48(a2)
 34a:	0121                	addi	sp,sp,8
 34c:	3905213b          	.insn	4, 0x3905213b
 350:	0213490b          	.insn	4, 0x0213490b
 354:	04000017          	auipc	zero,0x4000
 358:	0111                	addi	sp,sp,4
 35a:	0e25                	addi	t3,t3,9
 35c:	1f030b13          	addi	s6,t1,496
 360:	01111f1b          	slliw	t5,sp,0x11
 364:	0712                	slli	a4,a4,0x4
 366:	1710                	addi	a2,sp,928
 368:	0000                	unimp
 36a:	2405                	addiw	s0,s0,1
 36c:	0b00                	addi	s0,sp,400
 36e:	030b3e0b          	.insn	4, 0x030b3e0b
 372:	0008                	.insn	2, 0x0008
 374:	0600                	addi	s0,sp,768
 376:	002e                	c.slli	zero,0xb
 378:	0e03193f 0b3b0b3a 	.insn	8, 0x0b3b0b3a0e03193f
 380:	0b39                	addi	s6,s6,14
 382:	13491927          	.insn	4, 0x13491927
 386:	193c                	addi	a5,sp,184
 388:	0000                	unimp
 38a:	0b000f07          	.insn	4, 0x0b000f07
 38e:	0013490b          	.insn	4, 0x0013490b
 392:	0800                	addi	s0,sp,16
 394:	012e                	slli	sp,sp,0xb
 396:	0e03193f 0b3b0b3a 	.insn	8, 0x0b3b0b3a0e03193f
 39e:	0b39                	addi	s6,s6,14
 3a0:	13491927          	.insn	4, 0x13491927
 3a4:	0111                	addi	sp,sp,4
 3a6:	0712                	slli	a4,a4,0x4
 3a8:	1840                	addi	s0,sp,52
 3aa:	197a                	slli	s2,s2,0x3e
 3ac:	0000                	unimp
 3ae:	0509                	addi	a0,a0,2
 3b0:	0300                	addi	s0,sp,384
 3b2:	3a0e                	fld	fs4,224(sp)
 3b4:	390b3b0b          	.insn	4, 0x390b3b0b
 3b8:	0213490b          	.insn	4, 0x0213490b
 3bc:	0a000017          	auipc	zero,0xa000
 3c0:	0048                	addi	a0,sp,4
 3c2:	017d                	addi	sp,sp,31
 3c4:	0000137f 00240100 	.insn	12, 0x0b3e0b0b002401000000137f
 3cc:	0b3e0b0b 
 3d0:	00000e03          	lb	t3,0(zero) # 0 <__boot_hart>
 3d4:	1602                	slli	a2,a2,0x20
 3d6:	0300                	addi	s0,sp,384
 3d8:	3a0e                	fld	fs4,224(sp)
 3da:	390b3b0b          	.insn	4, 0x390b3b0b
 3de:	0013490b          	.insn	4, 0x0013490b
 3e2:	0300                	addi	s0,sp,384
 3e4:	0005                	c.nop	1
 3e6:	213a0803          	lb	a6,531(s4)
 3ea:	3b01                	addiw	s6,s6,-32
 3ec:	0521                	addi	a0,a0,8
 3ee:	0b39                	addi	s6,s6,14
 3f0:	1349                	addi	t1,t1,-14
 3f2:	1702                	slli	a4,a4,0x20
 3f4:	0000                	unimp
 3f6:	1104                	addi	s1,sp,160
 3f8:	2501                	sext.w	a0,a0
 3fa:	130e                	slli	t1,t1,0x23
 3fc:	1b1f030b          	.insn	4, 0x1b1f030b
 400:	111f 1201 1007      	.insn	6, 0x10071201111f
 406:	05000017          	auipc	zero,0x5000
 40a:	0024                	addi	s1,sp,8
 40c:	0b3e0b0b          	.insn	4, 0x0b3e0b0b
 410:	00000803          	lb	a6,0(zero) # 0 <__boot_hart>
 414:	0f06                	slli	t5,t5,0x1
 416:	0b00                	addi	s0,sp,400
 418:	0700000b          	.insn	4, 0x0700000b
 41c:	002e                	c.slli	zero,0xb
 41e:	0e03193f 0b3b0b3a 	.insn	8, 0x0b3b0b3a0e03193f
 426:	0b39                	addi	s6,s6,14
 428:	13491927          	.insn	4, 0x13491927
 42c:	193c                	addi	a5,sp,184
 42e:	0000                	unimp
 430:	0f08                	addi	a0,sp,912
 432:	0b00                	addi	s0,sp,400
 434:	0013490b          	.insn	4, 0x0013490b
 438:	0900                	addi	s0,sp,144
 43a:	012e                	slli	sp,sp,0xb
 43c:	0e03193f 0b3b0b3a 	.insn	8, 0x0b3b0b3a0e03193f
 444:	0b39                	addi	s6,s6,14
 446:	13491927          	.insn	4, 0x13491927
 44a:	0111                	addi	sp,sp,4
 44c:	0712                	slli	a4,a4,0x4
 44e:	1840                	addi	s0,sp,52
 450:	197a                	slli	s2,s2,0x3e
 452:	0000                	unimp
 454:	050a                	slli	a0,a0,0x2
 456:	0300                	addi	s0,sp,384
 458:	3a0e                	fld	fs4,224(sp)
 45a:	390b3b0b          	.insn	4, 0x390b3b0b
 45e:	0213490b          	.insn	4, 0x0213490b
 462:	0b000017          	auipc	zero,0xb000
 466:	0048                	addi	a0,sp,4
 468:	017d                	addi	sp,sp,31
 46a:	0000137f 00240100 	.insn	12, 0x0b3e0b0b002401000000137f
 472:	0b3e0b0b 
 476:	00000e03          	lb	t3,0(zero) # 0 <__boot_hart>
 47a:	0f02                	c.slli64	t5
 47c:	0b00                	addi	s0,sp,400
 47e:	0821                	addi	a6,a6,8
 480:	1349                	addi	t1,t1,-14
 482:	0000                	unimp
 484:	03003403          	ld	s0,48(zero) # 30 <__stack_align+0x20>
 488:	3a0e                	fld	fs4,224(sp)
 48a:	0121                	addi	sp,sp,8
 48c:	0b390b3b          	.insn	4, 0x0b390b3b
 490:	1349                	addi	t1,t1,-14
 492:	193c193f 34040000 	.insn	8, 0x34040000193c193f
 49a:	0300                	addi	s0,sp,384
 49c:	3a0e                	fld	fs4,224(sp)
 49e:	0121                	addi	sp,sp,8
 4a0:	21390b3b          	.insn	4, 0x21390b3b
 4a4:	0213490b          	.insn	4, 0x0213490b
 4a8:	05000017          	auipc	zero,0x5000
 4ac:	0111                	addi	sp,sp,4
 4ae:	0e25                	addi	t3,t3,9
 4b0:	1f030b13          	addi	s6,t1,496
 4b4:	01111f1b          	slliw	t5,sp,0x11
 4b8:	0712                	slli	a4,a4,0x4
 4ba:	1710                	addi	a2,sp,928
 4bc:	0000                	unimp
 4be:	1606                	slli	a2,a2,0x21
 4c0:	0300                	addi	s0,sp,384
 4c2:	3a0e                	fld	fs4,224(sp)
 4c4:	390b3b0b          	.insn	4, 0x390b3b0b
 4c8:	0013490b          	.insn	4, 0x0013490b
 4cc:	0700                	addi	s0,sp,896
 4ce:	0024                	addi	s1,sp,8
 4d0:	0b3e0b0b          	.insn	4, 0x0b3e0b0b
 4d4:	00000803          	lb	a6,0(zero) # 0 <__boot_hart>
 4d8:	0f08                	addi	a0,sp,912
 4da:	0b00                	addi	s0,sp,400
 4dc:	0900000b          	.insn	4, 0x0900000b
 4e0:	0101                	addi	sp,sp,0
 4e2:	1349                	addi	t1,t1,-14
 4e4:	1301                	addi	t1,t1,-32
 4e6:	0000                	unimp
 4e8:	210a                	fld	ft2,128(sp)
 4ea:	0000                	unimp
 4ec:	0b00                	addi	s0,sp,400
 4ee:	0034                	addi	a3,sp,8
 4f0:	0b3a0e03          	lb	t3,179(s4)
 4f4:	0b390b3b          	.insn	4, 0x0b390b3b
 4f8:	1349                	addi	t1,t1,-14
 4fa:	1802                	slli	a6,a6,0x20
 4fc:	0000                	unimp
 4fe:	2e0c                	fld	fa1,24(a2)
 500:	3f00                	fld	fs0,56(a4)
 502:	0319                	addi	t1,t1,6
 504:	3a0e                	fld	fs4,224(sp)
 506:	390b3b0b          	.insn	4, 0x390b3b0b
 50a:	4919270b          	.insn	4, 0x4919270b
 50e:	00193c13          	seqz	s8,s2
 512:	0d00                	addi	s0,sp,656
 514:	012e                	slli	sp,sp,0xb
 516:	0e03193f 0b3b0b3a 	.insn	8, 0x0b3b0b3a0e03193f
 51e:	0b39                	addi	s6,s6,14
 520:	13491927          	.insn	4, 0x13491927
 524:	0111                	addi	sp,sp,4
 526:	0712                	slli	a4,a4,0x4
 528:	1840                	addi	s0,sp,52
 52a:	197a                	slli	s2,s2,0x3e
 52c:	0000                	unimp
 52e:	050e                	slli	a0,a0,0x3
 530:	0300                	addi	s0,sp,384
 532:	3a0e                	fld	fs4,224(sp)
 534:	390b3b0b          	.insn	4, 0x390b3b0b
 538:	0213490b          	.insn	4, 0x0213490b
 53c:	0f000017          	auipc	zero,0xf000
 540:	0048                	addi	a0,sp,4
 542:	017d                	addi	sp,sp,31
 544:	0000137f 00240100 	.insn	12, 0x0b3e0b0b002401000000137f
 54c:	0b3e0b0b 
 550:	00000e03          	lb	t3,0(zero) # 0 <__boot_hart>
 554:	1602                	slli	a2,a2,0x20
 556:	0300                	addi	s0,sp,384
 558:	3a0e                	fld	fs4,224(sp)
 55a:	390b3b0b          	.insn	4, 0x390b3b0b
 55e:	0013490b          	.insn	4, 0x0013490b
 562:	0300                	addi	s0,sp,384
 564:	0005                	c.nop	1
 566:	1349                	addi	t1,t1,-14
 568:	0000                	unimp
 56a:	4904                	lw	s1,16(a0)
 56c:	0200                	addi	s0,sp,256
 56e:	7e18                	ld	a4,56(a2)
 570:	0018                	.insn	2, 0x0018
 572:	0500                	addi	s0,sp,640
 574:	0005                	c.nop	1
 576:	213a0803          	lb	a6,531(s4)
 57a:	3b01                	addiw	s6,s6,-32
 57c:	0621                	addi	a2,a2,8
 57e:	0b39                	addi	s6,s6,14
 580:	1349                	addi	t1,t1,-14
 582:	1702                	slli	a4,a4,0x20
 584:	0000                	unimp
 586:	1106                	slli	sp,sp,0x21
 588:	2501                	sext.w	a0,a0
 58a:	130e                	slli	t1,t1,0x23
 58c:	1b1f030b          	.insn	4, 0x1b1f030b
 590:	111f 1201 1007      	.insn	6, 0x10071201111f
 596:	07000017          	auipc	zero,0x7000
 59a:	0024                	addi	s1,sp,8
 59c:	0b3e0b0b          	.insn	4, 0x0b3e0b0b
 5a0:	00000803          	lb	a6,0(zero) # 0 <__boot_hart>
 5a4:	2e08                	fld	fa0,24(a2)
 5a6:	3f01                	addiw	t5,t5,-32 # fffffffffffdffe0 <__heap_end+0xffffffff7ffbcfe0>
 5a8:	0319                	addi	t1,t1,6
 5aa:	3a0e                	fld	fs4,224(sp)
 5ac:	390b3b0b          	.insn	4, 0x390b3b0b
 5b0:	4919270b          	.insn	4, 0x4919270b
 5b4:	01193c13          	sltiu	s8,s2,17
 5b8:	09000013          	li	zero,144
 5bc:	012e                	slli	sp,sp,0xb
 5be:	0e03193f 0b3b0b3a 	.insn	8, 0x0b3b0b3a0e03193f
 5c6:	0b39                	addi	s6,s6,14
 5c8:	13491927          	.insn	4, 0x13491927
 5cc:	0111                	addi	sp,sp,4
 5ce:	0712                	slli	a4,a4,0x4
 5d0:	1840                	addi	s0,sp,52
 5d2:	197a                	slli	s2,s2,0x3e
 5d4:	1301                	addi	t1,t1,-32
 5d6:	0000                	unimp
 5d8:	480a                	lw	a6,128(sp)
 5da:	7d01                	lui	s10,0xfffe0
 5dc:	8201                	c.srli64	a2
 5de:	1901                	addi	s2,s2,-32
 5e0:	0000137f 0b000f0b 	.insn	12, 0x0013490b0b000f0b0000137f
 5e8:	0013490b 
 5ec:	0c00                	addi	s0,sp,528
 5ee:	0026                	c.slli	zero,0x9
 5f0:	0000                	unimp
 5f2:	0100                	addi	s0,sp,128
 5f4:	0011                	c.nop	4
 5f6:	1710                	addi	a2,sp,928
 5f8:	0111                	addi	sp,sp,4
 5fa:	0f12                	slli	t5,t5,0x4
 5fc:	0e1b0e03          	lb	t3,225(s6)
 600:	0e25                	addi	t3,t3,9
 602:	00000513          	li	a0,0
 606:	0100                	addi	s0,sp,128
 608:	0011                	c.nop	4
 60a:	1710                	addi	a2,sp,928
 60c:	0111                	addi	sp,sp,4
 60e:	0f12                	slli	t5,t5,0x4
 610:	0e1b0e03          	lb	t3,225(s6)
 614:	0e25                	addi	t3,t3,9
 616:	00000513          	li	a0,0
 61a:	0100                	addi	s0,sp,128
 61c:	0024                	addi	s1,sp,8
 61e:	0b3e0b0b          	.insn	4, 0x0b3e0b0b
 622:	00000e03          	lb	t3,0(zero) # 0 <__boot_hart>
 626:	1602                	slli	a2,a2,0x20
 628:	0300                	addi	s0,sp,384
 62a:	3a0e                	fld	fs4,224(sp)
 62c:	390b3b0b          	.insn	4, 0x390b3b0b
 630:	0013490b          	.insn	4, 0x0013490b
 634:	0300                	addi	s0,sp,384
 636:	0005                	c.nop	1
 638:	213a0e03          	lb	t3,531(s4)
 63c:	3b01                	addiw	s6,s6,-32
 63e:	0421                	addi	s0,s0,8
 640:	0b39                	addi	s6,s6,14
 642:	1349                	addi	t1,t1,-14
 644:	1702                	slli	a4,a4,0x20
 646:	0000                	unimp
 648:	1104                	addi	s1,sp,160
 64a:	2501                	sext.w	a0,a0
 64c:	130e                	slli	t1,t1,0x23
 64e:	1b1f030b          	.insn	4, 0x1b1f030b
 652:	111f 1201 1007      	.insn	6, 0x10071201111f
 658:	05000017          	auipc	zero,0x5000
 65c:	0024                	addi	s1,sp,8
 65e:	0b3e0b0b          	.insn	4, 0x0b3e0b0b
 662:	00000803          	lb	a6,0(zero) # 0 <__boot_hart>
 666:	2e06                	fld	ft8,64(sp)
 668:	3f01                	addiw	t5,t5,-32
 66a:	0319                	addi	t1,t1,6
 66c:	3a0e                	fld	fs4,224(sp)
 66e:	390b3b0b          	.insn	4, 0x390b3b0b
 672:	8719270b          	.insn	4, 0x8719270b
 676:	1901                	addi	s2,s2,-32
 678:	193c                	addi	a5,sp,184
 67a:	1301                	addi	t1,t1,-32
 67c:	0000                	unimp
 67e:	49000507          	.insn	4, 0x49000507
 682:	08000013          	li	zero,128
 686:	012e                	slli	sp,sp,0xb
 688:	0e03193f 0b3b0b3a 	.insn	8, 0x0b3b0b3a0e03193f
 690:	0b39                	addi	s6,s6,14
 692:	01111927          	.insn	4, 0x01111927
 696:	0712                	slli	a4,a4,0x4
 698:	1840                	addi	s0,sp,52
 69a:	197a                	slli	s2,s2,0x3e
 69c:	1301                	addi	t1,t1,-32
 69e:	0000                	unimp
 6a0:	0509                	addi	a0,a0,2
 6a2:	0300                	addi	s0,sp,384
 6a4:	3a08                	fld	fa0,48(a2)
 6a6:	390b3b0b          	.insn	4, 0x390b3b0b
 6aa:	0213490b          	.insn	4, 0x0213490b
 6ae:	0a000017          	auipc	zero,0xa000
 6b2:	0034                	addi	a3,sp,8
 6b4:	0b3a0e03          	lb	t3,179(s4)
 6b8:	0b390b3b          	.insn	4, 0x0b390b3b
 6bc:	1349                	addi	t1,t1,-14
 6be:	1702                	slli	a4,a4,0x20
 6c0:	0000                	unimp
 6c2:	7d00480b          	.insn	4, 0x7d00480b
 6c6:	7f01                	lui	t5,0xfffe0
 6c8:	0c000013          	li	zero,192
 6cc:	0b0b000f          	.insn	4, 0x0b0b000f
 6d0:	1349                	addi	t1,t1,-14
 6d2:	0000                	unimp
 6d4:	0100                	addi	s0,sp,128
 6d6:	0024                	addi	s1,sp,8
 6d8:	0b3e0b0b          	.insn	4, 0x0b3e0b0b
 6dc:	00000e03          	lb	t3,0(zero) # 0 <__boot_hart>
 6e0:	0502                	c.slli64	a0
 6e2:	4900                	lw	s0,16(a0)
 6e4:	03000013          	li	zero,48
 6e8:	0034                	addi	a3,sp,8
 6ea:	213a0e03          	lb	t3,531(s4)
 6ee:	3b01                	addiw	s6,s6,-32
 6f0:	1121390b          	.insn	4, 0x1121390b
 6f4:	1349                	addi	t1,t1,-14
 6f6:	193c193f 37040000 	.insn	8, 0x37040000193c193f
 6fe:	4900                	lw	s0,16(a0)
 700:	05000013          	li	zero,80
 704:	210b000f          	.insn	4, 0x210b000f
 708:	4908                	lw	a0,16(a0)
 70a:	06000013          	li	zero,96
 70e:	012e                	slli	sp,sp,0xb
 710:	0e03193f 3b02213a 	.insn	8, 0x3b02213a0e03193f
 718:	0921390b          	.insn	4, 0x0921390b
 71c:	13491927          	.insn	4, 0x13491927
 720:	193c                	addi	a5,sp,184
 722:	1301                	addi	t1,t1,-32
 724:	0000                	unimp
 726:	02004907          	.insn	4, 0x02004907
 72a:	7e18                	ld	a4,56(a2)
 72c:	0018                	.insn	2, 0x0018
 72e:	0800                	addi	s0,sp,16
 730:	0111                	addi	sp,sp,4
 732:	0e25                	addi	t3,t3,9
 734:	1f030b13          	addi	s6,t1,496
 738:	01111f1b          	slliw	t5,sp,0x11
 73c:	0712                	slli	a4,a4,0x4
 73e:	1710                	addi	a2,sp,928
 740:	0000                	unimp
 742:	1609                	addi	a2,a2,-30
 744:	0300                	addi	s0,sp,384
 746:	3a0e                	fld	fs4,224(sp)
 748:	390b3b0b          	.insn	4, 0x390b3b0b
 74c:	0013490b          	.insn	4, 0x0013490b
 750:	0a00                	addi	s0,sp,272
 752:	0024                	addi	s1,sp,8
 754:	0b3e0b0b          	.insn	4, 0x0b3e0b0b
 758:	00000803          	lb	a6,0(zero) # 0 <__boot_hart>
 75c:	0b000f0b          	.insn	4, 0x0b000f0b
 760:	0c00000b          	.insn	4, 0x0c00000b
 764:	0026                	c.slli	zero,0x9
 766:	0000                	unimp
 768:	2e0d                	addiw	t3,t3,3
 76a:	3f01                	addiw	t5,t5,-32 # fffffffffffdffe0 <__heap_end+0xffffffff7ffbcfe0>
 76c:	0319                	addi	t1,t1,6
 76e:	3a0e                	fld	fs4,224(sp)
 770:	390b3b0b          	.insn	4, 0x390b3b0b
 774:	1119270b          	.insn	4, 0x1119270b
 778:	1201                	addi	tp,tp,-32 # ffffffffffffffe0 <__heap_end+0xffffffff7ffdcfe0>
 77a:	7a184007          	.insn	4, 0x7a184007
 77e:	0119                	addi	sp,sp,6
 780:	0e000013          	li	zero,224
 784:	0034                	addi	a3,sp,8
 786:	0b3a0e03          	lb	t3,179(s4)
 78a:	0b390b3b          	.insn	4, 0x0b390b3b
 78e:	1349                	addi	t1,t1,-14
 790:	1802                	slli	a6,a6,0x20
 792:	0000                	unimp
 794:	7d01480f          	.insn	4, 0x7d01480f
 798:	7f01                	lui	t5,0xfffe0
 79a:	00130113          	addi	sp,t1,1
 79e:	1000                	addi	s0,sp,32
 7a0:	0148                	addi	a0,sp,132
 7a2:	017d                	addi	sp,sp,31
 7a4:	0182                	c.slli64	gp
 7a6:	7f19                	lui	t5,0xfffe6
 7a8:	11000013          	li	zero,272
 7ac:	0101                	addi	sp,sp,0
 7ae:	1349                	addi	t1,t1,-14
 7b0:	0000                	unimp
 7b2:	2112                	fld	ft2,256(sp)
 7b4:	0000                	unimp
 7b6:	0000                	unimp
 7b8:	1601                	addi	a2,a2,-32
 7ba:	0300                	addi	s0,sp,384
 7bc:	3a0e                	fld	fs4,224(sp)
 7be:	390b3b0b          	.insn	4, 0x390b3b0b
 7c2:	0013490b          	.insn	4, 0x0013490b
 7c6:	0200                	addi	s0,sp,256
 7c8:	0024                	addi	s1,sp,8
 7ca:	0b3e0b0b          	.insn	4, 0x0b3e0b0b
 7ce:	00000e03          	lb	t3,0(zero) # 0 <__boot_hart>
 7d2:	31000503          	lb	a0,784(zero) # 310 <__stack_align+0x300>
 7d6:	00170213          	addi	tp,a4,1
 7da:	0400                	addi	s0,sp,512
 7dc:	0005                	c.nop	1
 7de:	213a0803          	lb	a6,531(s4)
 7e2:	3b02                	fld	fs6,32(sp)
 7e4:	490b390b          	.insn	4, 0x490b390b
 7e8:	05000013          	li	zero,80
 7ec:	0005                	c.nop	1
 7ee:	213a0803          	lb	a6,531(s4)
 7f2:	3b01                	addiw	s6,s6,-32
 7f4:	0c21                	addi	s8,s8,8
 7f6:	0b39                	addi	s6,s6,14
 7f8:	1349                	addi	t1,t1,-14
 7fa:	1702                	slli	a4,a4,0x20
 7fc:	0000                	unimp
 7fe:	2e06                	fld	ft8,64(sp)
 800:	0301                	addi	t1,t1,0
 802:	3a0e                	fld	fs4,224(sp)
 804:	390b3b0b          	.insn	4, 0x390b3b0b
 808:	1421                	addi	s0,s0,-24
 80a:	21201927          	.insn	4, 0x21201927
 80e:	00130103          	lb	sp,1(t1)
 812:	0700                	addi	s0,sp,896
 814:	210b000f          	.insn	4, 0x210b000f
 818:	4908                	lw	a0,16(a0)
 81a:	08000013          	li	zero,128
 81e:	0035                	c.nop	13
 820:	1349                	addi	t1,t1,-14
 822:	0000                	unimp
 824:	3409                	addiw	s0,s0,-30
 826:	0300                	addi	s0,sp,384
 828:	3a0e                	fld	fs4,224(sp)
 82a:	0621                	addi	a2,a2,8
 82c:	21390b3b          	.insn	4, 0x21390b3b
 830:	491a                	lw	s2,132(sp)
 832:	3c193f13          	sltiu	t5,s2,961
 836:	0019                	c.nop	6
 838:	0a00                	addi	s0,sp,272
 83a:	0034                	addi	a3,sp,8
 83c:	213a1347          	fmsub.s	ft6,fs4,fs3,ft4,rtz
 840:	3b01                	addiw	s6,s6,-32
 842:	1321390b          	.insn	4, 0x1321390b
 846:	1802                	slli	a6,a6,0x20
 848:	0000                	unimp
 84a:	0300340b          	.insn	4, 0x0300340b
 84e:	3a08                	fld	fa0,48(a2)
 850:	0121                	addi	sp,sp,8
 852:	0b390b3b          	.insn	4, 0x0b390b3b
 856:	1349                	addi	t1,t1,-14
 858:	1802                	slli	a6,a6,0x20
 85a:	0000                	unimp
 85c:	1d0c                	addi	a1,sp,688
 85e:	3101                	addiw	sp,sp,-32
 860:	12011113          	.insn	4, 0x12011113
 864:	01215807          	.insn	4, 0x01215807
 868:	0b59                	addi	s6,s6,22
 86a:	01052157          	.insn	4, 0x01052157
 86e:	0d000013          	li	zero,208
 872:	011d                	addi	sp,sp,7
 874:	1331                	addi	t1,t1,-20
 876:	0111                	addi	sp,sp,4
 878:	0712                	slli	a4,a4,0x4
 87a:	2158                	fld	fa4,128(a0)
 87c:	570b5903          	lhu	s2,1392(s6)
 880:	0e00000b          	.insn	4, 0x0e00000b
 884:	001d                	c.nop	7
 886:	1331                	addi	t1,t1,-20
 888:	0111                	addi	sp,sp,4
 88a:	0712                	slli	a4,a4,0x4
 88c:	2158                	fld	fa4,128(a0)
 88e:	5901                	li	s2,-32
 890:	0521570b          	.insn	4, 0x0521570b
 894:	0000                	unimp
 896:	0300050f          	.insn	4, 0x0300050f
 89a:	3a0e                	fld	fs4,224(sp)
 89c:	0321                	addi	t1,t1,8
 89e:	0b390b3b          	.insn	4, 0x0b390b3b
 8a2:	1349                	addi	t1,t1,-14
 8a4:	0000                	unimp
 8a6:	2e10                	fld	fa2,24(a2)
 8a8:	0301                	addi	t1,t1,0
 8aa:	3a0e                	fld	fs4,224(sp)
 8ac:	0221                	addi	tp,tp,8 # 8 <__tbss_size+0x4>
 8ae:	21390b3b          	.insn	4, 0x21390b3b
 8b2:	2714                	fld	fa3,8(a4)
 8b4:	4919                	li	s2,6
 8b6:	03212013          	slti	zero,sp,50
 8ba:	1301                	addi	t1,t1,-32
 8bc:	0000                	unimp
 8be:	2e11                	addiw	t3,t3,4
 8c0:	0300                	addi	s0,sp,384
 8c2:	3a08                	fld	fa0,48(a2)
 8c4:	0221                	addi	tp,tp,8 # 8 <__tbss_size+0x4>
 8c6:	21390b3b          	.insn	4, 0x21390b3b
 8ca:	2714                	fld	fa3,8(a4)
 8cc:	2019                	.insn	2, 0x2019
 8ce:	0321                	addi	t1,t1,8
 8d0:	0000                	unimp
 8d2:	1112                	slli	sp,sp,0x24
 8d4:	2501                	sext.w	a0,a0
 8d6:	130e                	slli	t1,t1,0x23
 8d8:	1b1f030b          	.insn	4, 0x1b1f030b
 8dc:	111f 1201 1007      	.insn	6, 0x10071201111f
 8e2:	13000017          	auipc	zero,0x13000
 8e6:	0024                	addi	s1,sp,8
 8e8:	0b3e0b0b          	.insn	4, 0x0b3e0b0b
 8ec:	00000803          	lb	a6,0(zero) # 0 <__boot_hart>
 8f0:	2614                	fld	fa3,8(a2)
 8f2:	4900                	lw	s0,16(a0)
 8f4:	15000013          	li	zero,336
 8f8:	0b0b0113          	addi	sp,s6,176
 8fc:	0b3a                	slli	s6,s6,0xe
 8fe:	0b390b3b          	.insn	4, 0x0b390b3b
 902:	1301                	addi	t1,t1,-32
 904:	0000                	unimp
 906:	0d16                	slli	s10,s10,0x5
 908:	0300                	addi	s0,sp,384
 90a:	3a0e                	fld	fs4,224(sp)
 90c:	390b3b0b          	.insn	4, 0x390b3b0b
 910:	3813490b          	.insn	4, 0x3813490b
 914:	1700000b          	.insn	4, 0x1700000b
 918:	0034                	addi	a3,sp,8
 91a:	0b3a0e03          	lb	t3,179(s4)
 91e:	0b390b3b          	.insn	4, 0x0b390b3b
 922:	1349                	addi	t1,t1,-14
 924:	1802                	slli	a6,a6,0x20
 926:	0000                	unimp
 928:	2e18                	fld	fa4,24(a2)
 92a:	3f01                	addiw	t5,t5,-32 # fffffffffffe5fe0 <__heap_end+0xffffffff7ffc2fe0>
 92c:	0319                	addi	t1,t1,6
 92e:	3a0e                	fld	fs4,224(sp)
 930:	390b3b0b          	.insn	4, 0x390b3b0b
 934:	4919270b          	.insn	4, 0x4919270b
 938:	12011113          	.insn	4, 0x12011113
 93c:	7a184007          	.insn	4, 0x7a184007
 940:	0119                	addi	sp,sp,6
 942:	19000013          	li	zero,400
 946:	0005                	c.nop	1
 948:	0b3a0803          	lb	a6,179(s4)
 94c:	0b390b3b          	.insn	4, 0x0b390b3b
 950:	1349                	addi	t1,t1,-14
 952:	1802                	slli	a6,a6,0x20
 954:	0000                	unimp
 956:	1d1a                	slli	s10,s10,0x26
 958:	3101                	addiw	sp,sp,-32
 95a:	55015213          	.insn	4, 0x55015213
 95e:	590b5817          	auipc	a6,0x590b5
 962:	010b570b          	.insn	4, 0x010b570b
 966:	1b000013          	li	zero,432
 96a:	1755010b          	.insn	4, 0x1755010b
 96e:	0000                	unimp
 970:	341c                	fld	fa5,40(s0)
 972:	3100                	fld	fs0,32(a0)
 974:	1d000013          	li	zero,464
 978:	0005                	c.nop	1
 97a:	1331                	addi	t1,t1,-20
 97c:	0000                	unimp
 97e:	011e                	slli	sp,sp,0x7
 980:	4901                	li	s2,0
 982:	00130113          	addi	sp,t1,1
 986:	1f00                	addi	s0,sp,944
 988:	0021                	c.nop	8
 98a:	1349                	addi	t1,t1,-14
 98c:	00000b2f          	.insn	4, 0x0b2f
 990:	3420                	fld	fs0,104(s0)
 992:	0300                	addi	s0,sp,384
 994:	3a08                	fld	fa0,48(a2)
 996:	390b3b0b          	.insn	4, 0x390b3b0b
 99a:	0013490b          	.insn	4, 0x0013490b
 99e:	0000                	unimp
 9a0:	2401                	sext.w	s0,s0
 9a2:	0b00                	addi	s0,sp,400
 9a4:	030b3e0b          	.insn	4, 0x030b3e0b
 9a8:	000e                	c.slli	zero,0x3
 9aa:	0200                	addi	s0,sp,256
 9ac:	0016                	c.slli	zero,0x5
 9ae:	0b3a0e03          	lb	t3,179(s4)
 9b2:	0b390b3b          	.insn	4, 0x0b390b3b
 9b6:	1349                	addi	t1,t1,-14
 9b8:	0000                	unimp
 9ba:	03003403          	ld	s0,48(zero) # 30 <__stack_align+0x20>
 9be:	3a0e                	fld	fs4,224(sp)
 9c0:	0421                	addi	s0,s0,8
 9c2:	21390b3b          	.insn	4, 0x21390b3b
 9c6:	491a                	lw	s2,132(sp)
 9c8:	3c193f13          	sltiu	t5,s2,961
 9cc:	0019                	c.nop	6
 9ce:	0400                	addi	s0,sp,512
 9d0:	0111                	addi	sp,sp,4
 9d2:	0e25                	addi	t3,t3,9
 9d4:	1f030b13          	addi	s6,t1,496
 9d8:	01111f1b          	slliw	t5,sp,0x11
 9dc:	0712                	slli	a4,a4,0x4
 9de:	1710                	addi	a2,sp,928
 9e0:	0000                	unimp
 9e2:	2405                	addiw	s0,s0,1
 9e4:	0b00                	addi	s0,sp,400
 9e6:	030b3e0b          	.insn	4, 0x030b3e0b
 9ea:	0008                	.insn	2, 0x0008
 9ec:	0600                	addi	s0,sp,768
 9ee:	0035                	c.nop	13
 9f0:	1349                	addi	t1,t1,-14
 9f2:	0000                	unimp
 9f4:	3f012e07          	flw	ft8,1008(sp)
 9f8:	0319                	addi	t1,t1,6
 9fa:	3a0e                	fld	fs4,224(sp)
 9fc:	390b3b0b          	.insn	4, 0x390b3b0b
 a00:	8719270b          	.insn	4, 0x8719270b
 a04:	1901                	addi	s2,s2,-32
 a06:	0111                	addi	sp,sp,4
 a08:	0712                	slli	a4,a4,0x4
 a0a:	1840                	addi	s0,sp,52
 a0c:	197a                	slli	s2,s2,0x3e
 a0e:	0000                	unimp
 a10:	0508                	addi	a0,sp,640
 a12:	0300                	addi	s0,sp,384
 a14:	3a0e                	fld	fs4,224(sp)
 a16:	390b3b0b          	.insn	4, 0x390b3b0b
 a1a:	0213490b          	.insn	4, 0x0213490b
 a1e:	0018                	.insn	2, 0x0018
 a20:	0900                	addi	s0,sp,144
 a22:	0034                	addi	a3,sp,8
 a24:	0b3a0803          	lb	a6,179(s4)
 a28:	0b390b3b          	.insn	4, 0x0b390b3b
 a2c:	1349                	addi	t1,t1,-14
 a2e:	1802                	slli	a6,a6,0x20
 a30:	0000                	unimp
	...

Disassembly of section .debug_loclists:

0000000000000000 <.debug_loclists>:
   0:	000000bf 00080005 	.insn	8, 0x00080005000000bf
   8:	0000                	unimp
   a:	0000                	unimp
   c:	f406                	sd	ra,40(sp)
   e:	0002                	c.slli64	zero
  10:	0080                	addi	s0,sp,64
  12:	0000                	unimp
  14:	0400                	addi	s0,sp,512
  16:	6c00                	ld	s0,24(s0)
  18:	5901                	li	s2,-32
  1a:	8004                	.insn	2, 0x8004
  1c:	a801                	j	2c <__stack_align+0x1c>
  1e:	0101                	addi	sp,sp,0
  20:	0059                	c.nop	22
  22:	1406                	slli	s0,s0,0x21
  24:	00800003          	lb	zero,8(zero) # 8 <__tbss_size+0x4>
  28:	0000                	unimp
  2a:	0400                	addi	s0,sp,512
  2c:	2800                	fld	fs0,16(s0)
  2e:	6301                	.insn	2, 0x6301
  30:	2c04                	fld	fs1,24(s0)
  32:	0154                	addi	a3,sp,132
  34:	88740463          	beq	s0,t2,fffffffffffff0bc <__heap_end+0xffffffff7ffdc0bc>
  38:	0101                	addi	sp,sp,0
  3a:	00060063          	beqz	a2,3a <__stack_align+0x2a>
  3e:	00800003          	lb	zero,8(zero) # 8 <__tbss_size+0x4>
  42:	0000                	unimp
  44:	0400                	addi	s0,sp,512
  46:	0800                	addi	s0,sp,16
  48:	5f01                	li	t5,-32
  4a:	0804                	addi	s1,sp,16
  4c:	0324                	addi	s1,sp,392
  4e:	017f 049f f874 0300 	.insn	10, 0x017f0300f874049f017f
  56:	017f 
  58:	009f 1406 0003      	.insn	6, 0x00031406009f
  5e:	0080                	addi	s0,sp,64
  60:	0000                	unimp
  62:	0400                	addi	s0,sp,512
  64:	1000                	addi	s0,sp,32
  66:	3002                	fld	ft0,32(sp)
  68:	049f 1810 5801      	.insn	6, 0x58011810049f
  6e:	1804                	addi	s1,sp,48
  70:	031c                	addi	a5,sp,384
  72:	7f78                	ld	a4,248(a4)
  74:	049f 281c 5801      	.insn	6, 0x5801281c049f
  7a:	2c04                	fld	fs1,24(s0)
  7c:	0148                	addi	a0,sp,132
  7e:	0458                	addi	a4,sp,516
  80:	8874                	.insn	2, 0x8874
  82:	0201                	addi	tp,tp,0 # 0 <__boot_hart>
  84:	9f30                	.insn	2, 0x9f30
  86:	0600                	addi	s0,sp,768
  88:	0300                	addi	s0,sp,384
  8a:	8000                	.insn	2, 0x8000
  8c:	0000                	unimp
  8e:	0000                	unimp
  90:	0004                	.insn	2, 0x0004
  92:	0108                	addi	a0,sp,128
  94:	045f 1408 7f03      	.insn	6, 0x7f031408045f
  9a:	9f01                	subw	a4,a4,s0
  9c:	7404                	ld	s1,40(s0)
  9e:	00f8                	addi	a4,sp,76
  a0:	9f017f03          	.insn	4, 0x9f017f03
  a4:	0600                	addi	s0,sp,768
  a6:	02a4                	addi	s1,sp,328
  a8:	8000                	.insn	2, 0x8000
  aa:	0000                	unimp
  ac:	0000                	unimp
  ae:	0004                	.insn	2, 0x0004
  b0:	0104                	addi	s1,sp,128
  b2:	045a                	slli	s0,s0,0x16
  b4:	1004                	addi	s1,sp,32
  b6:	9f017a03          	.insn	4, 0x9f017a03
  ba:	1004                	addi	s1,sp,32
  bc:	0430                	addi	a2,sp,520
  be:	9f5a01a3          	sb	s5,-1565(s4)
  c2:	1600                	addi	s0,sp,800
  c4:	0000                	unimp
  c6:	0500                	addi	s0,sp,640
  c8:	0800                	addi	s0,sp,16
  ca:	0000                	unimp
  cc:	0000                	unimp
  ce:	0400                	addi	s0,sp,512
  d0:	0700                	addi	s0,sp,896
  d2:	5a01                	li	s4,-32
  d4:	0704                	addi	s1,sp,896
  d6:	0414                	addi	a3,sp,512
  d8:	9f5a01a3          	sb	s5,-1565(s4)
  dc:	2400                	fld	fs0,8(s0)
  de:	0000                	unimp
  e0:	0500                	addi	s0,sp,640
  e2:	0800                	addi	s0,sp,16
  e4:	0000                	unimp
  e6:	0000                	unimp
  e8:	0400                	addi	s0,sp,512
  ea:	0700                	addi	s0,sp,896
  ec:	5a01                	li	s4,-32
  ee:	0704                	addi	s1,sp,896
  f0:	0414                	addi	a3,sp,512
  f2:	9f5a01a3          	sb	s5,-1565(s4)
  f6:	0400                	addi	s0,sp,512
  f8:	0700                	addi	s0,sp,896
  fa:	5b01                	li	s6,-32
  fc:	0704                	addi	s1,sp,896
  fe:	0414                	addi	a3,sp,512
 100:	9f5b01a3          	sb	s5,-1565(s6)
 104:	1600                	addi	s0,sp,800
 106:	0000                	unimp
 108:	0500                	addi	s0,sp,640
 10a:	0800                	addi	s0,sp,16
 10c:	0000                	unimp
 10e:	0000                	unimp
 110:	0400                	addi	s0,sp,512
 112:	0200                	addi	s0,sp,256
 114:	5a01                	li	s4,-32
 116:	0204                	addi	s1,sp,256
 118:	0408                	addi	a0,sp,512
 11a:	9f5a01a3          	sb	s5,-1565(s4)
 11e:	3200                	fld	fs0,32(a2)
 120:	0000                	unimp
 122:	0500                	addi	s0,sp,640
 124:	0800                	addi	s0,sp,16
 126:	0000                	unimp
 128:	0000                	unimp
 12a:	0400                	addi	s0,sp,512
 12c:	0700                	addi	s0,sp,896
 12e:	5a01                	li	s4,-32
 130:	0704                	addi	s1,sp,896
 132:	0414                	addi	a3,sp,512
 134:	9f5a01a3          	sb	s5,-1565(s4)
 138:	0400                	addi	s0,sp,512
 13a:	0700                	addi	s0,sp,896
 13c:	5b01                	li	s6,-32
 13e:	0704                	addi	s1,sp,896
 140:	0414                	addi	a3,sp,512
 142:	9f5b01a3          	sb	s5,-1565(s6)
 146:	0400                	addi	s0,sp,512
 148:	0700                	addi	s0,sp,896
 14a:	5c01                	li	s8,-32
 14c:	0704                	addi	s1,sp,896
 14e:	0414                	addi	a3,sp,512
 150:	9f5c01a3          	sb	s5,-1565(s8)
 154:	3200                	fld	fs0,32(a2)
 156:	0000                	unimp
 158:	0500                	addi	s0,sp,640
 15a:	0800                	addi	s0,sp,16
 15c:	0000                	unimp
 15e:	0000                	unimp
 160:	0400                	addi	s0,sp,512
 162:	0700                	addi	s0,sp,896
 164:	5a01                	li	s4,-32
 166:	0704                	addi	s1,sp,896
 168:	0416                	slli	s0,s0,0x5
 16a:	9f5a01a3          	sb	s5,-1565(s4)
 16e:	0400                	addi	s0,sp,512
 170:	0700                	addi	s0,sp,896
 172:	5b01                	li	s6,-32
 174:	0704                	addi	s1,sp,896
 176:	0416                	slli	s0,s0,0x5
 178:	9f5b01a3          	sb	s5,-1565(s6)
 17c:	0400                	addi	s0,sp,512
 17e:	0700                	addi	s0,sp,896
 180:	5c01                	li	s8,-32
 182:	0704                	addi	s1,sp,896
 184:	0416                	slli	s0,s0,0x5
 186:	9f5c01a3          	sb	s5,-1565(s8)
 18a:	3400                	fld	fs0,40(s0)
 18c:	0000                	unimp
 18e:	0500                	addi	s0,sp,640
 190:	0800                	addi	s0,sp,16
 192:	0000                	unimp
 194:	0000                	unimp
 196:	0400                	addi	s0,sp,512
 198:	1000                	addi	s0,sp,32
 19a:	5a01                	li	s4,-32
 19c:	1004                	addi	s1,sp,32
 19e:	043c                	addi	a5,sp,520
 1a0:	9f5a01a3          	sb	s5,-1565(s4)
 1a4:	0400                	addi	s0,sp,512
 1a6:	2410                	fld	fa2,8(s0)
 1a8:	5a01                	li	s4,-32
 1aa:	2404                	fld	fs1,8(s0)
 1ac:	0926                	slli	s2,s2,0x9
 1ae:	001f8003          	lb	zero,1(t6)
 1b2:	0080                	addi	s0,sp,64
 1b4:	0000                	unimp
 1b6:	0400                	addi	s0,sp,512
 1b8:	2d26                	fld	fs10,72(sp)
 1ba:	5a01                	li	s4,-32
 1bc:	0400                	addi	s0,sp,512
 1be:	2d0a                	fld	fs10,128(sp)
 1c0:	5f01                	li	t5,-32
 1c2:	3200                	fld	fs0,32(a2)
 1c4:	0000                	unimp
 1c6:	0500                	addi	s0,sp,640
 1c8:	0800                	addi	s0,sp,16
 1ca:	0000                	unimp
 1cc:	0000                	unimp
 1ce:	0400                	addi	s0,sp,512
 1d0:	0500                	addi	s0,sp,640
 1d2:	5a01                	li	s4,-32
 1d4:	0504                	addi	s1,sp,640
 1d6:	0406                	slli	s0,s0,0x1
 1d8:	9f5a01a3          	sb	s5,-1565(s4)
 1dc:	0400                	addi	s0,sp,512
 1de:	0500                	addi	s0,sp,640
 1e0:	5b01                	li	s6,-32
 1e2:	0504                	addi	s1,sp,640
 1e4:	0406                	slli	s0,s0,0x1
 1e6:	9f5b01a3          	sb	s5,-1565(s6)
 1ea:	0400                	addi	s0,sp,512
 1ec:	0500                	addi	s0,sp,640
 1ee:	5c01                	li	s8,-32
 1f0:	0504                	addi	s1,sp,640
 1f2:	0406                	slli	s0,s0,0x1
 1f4:	9f5c01a3          	sb	s5,-1565(s8)
 1f8:	4600                	lw	s0,8(a2)
 1fa:	0000                	unimp
 1fc:	0500                	addi	s0,sp,640
 1fe:	0800                	addi	s0,sp,16
 200:	0000                	unimp
 202:	0000                	unimp
 204:	0400                	addi	s0,sp,512
 206:	0600                	addi	s0,sp,768
 208:	5a01                	li	s4,-32
 20a:	0604                	addi	s1,sp,768
 20c:	0416                	slli	s0,s0,0x5
 20e:	9f5a01a3          	sb	s5,-1565(s4)
 212:	0400                	addi	s0,sp,512
 214:	1500                	addi	s0,sp,672
 216:	5b01                	li	s6,-32
 218:	1504                	addi	s1,sp,672
 21a:	0416                	slli	s0,s0,0x5
 21c:	9f5b01a3          	sb	s5,-1565(s6)
 220:	0400                	addi	s0,sp,512
 222:	1500                	addi	s0,sp,672
 224:	5c01                	li	s8,-32
 226:	1504                	addi	s1,sp,672
 228:	0416                	slli	s0,s0,0x5
 22a:	9f5c01a3          	sb	s5,-1565(s8)
 22e:	0400                	addi	s0,sp,512
 230:	1500                	addi	s0,sp,672
 232:	5d01                	li	s10,-32
 234:	1504                	addi	s1,sp,672
 236:	0416                	slli	s0,s0,0x5
 238:	9f5d01a3          	sb	s5,-1565(s10) # fffffffffffdf9e3 <__heap_end+0xffffffff7ffbc9e3>
 23c:	0400                	addi	s0,sp,512
 23e:	150a                	slli	a0,a0,0x22
 240:	5a01                	li	s4,-32
 242:	6d00                	ld	s0,24(a0)
 244:	0000                	unimp
 246:	0500                	addi	s0,sp,640
 248:	0800                	addi	s0,sp,16
 24a:	0000                	unimp
 24c:	0000                	unimp
 24e:	0400                	addi	s0,sp,512
 250:	4800                	lw	s0,16(s0)
 252:	5a01                	li	s4,-32
 254:	4804                	lw	s1,16(s0)
 256:	044c                	addi	a1,sp,516
 258:	9f5a01a3          	sb	s5,-1565(s4)
 25c:	0400                	addi	s0,sp,512
 25e:	1200                	addi	s0,sp,288
 260:	5c01                	li	s8,-32
 262:	1204                	addi	s1,sp,288
 264:	0232                	slli	tp,tp,0xc
 266:	5891                	li	a7,-28
 268:	3204                	fld	fs1,32(a2)
 26a:	044c                	addi	a1,sp,516
 26c:	9f5c01a3          	sb	s5,-1565(s8)
 270:	0400                	addi	s0,sp,512
 272:	1a00                	addi	s0,sp,304
 274:	5d01                	li	s10,-32
 276:	1a04                	addi	s1,sp,304
 278:	044c                	addi	a1,sp,516
 27a:	9f5d01a3          	sb	s5,-1565(s10)
 27e:	0400                	addi	s0,sp,512
 280:	2414                	fld	fa3,8(s0)
 282:	030a                	slli	t1,t1,0x2
 284:	1fc0                	addi	s0,sp,1012
 286:	8000                	.insn	2, 0x8000
 288:	0000                	unimp
 28a:	0000                	unimp
 28c:	009f 1e04 0322      	.insn	6, 0x03221e04009f
 292:	ff09                	bnez	a4,1ac <__stack_align+0x19c>
 294:	009f 1e04 0a22      	.insn	6, 0x0a221e04009f
 29a:	001fc003          	lbu	zero,1(t6)
 29e:	0080                	addi	s0,sp,64
 2a0:	0000                	unimp
 2a2:	9f00                	.insn	2, 0x9f00
 2a4:	0400                	addi	s0,sp,512
 2a6:	423e                	lw	tp,204(sp)
 2a8:	030a                	slli	t1,t1,0x2
 2aa:	1fc0                	addi	s0,sp,1012
 2ac:	8000                	.insn	2, 0x8000
 2ae:	0000                	unimp
 2b0:	0000                	unimp
 2b2:	Address 0x2b2 is out of bounds.


Disassembly of section .debug_aranges:

0000000000000000 <.debug_aranges>:
   0:	003c                	addi	a5,sp,8
   2:	0000                	unimp
   4:	0002                	c.slli64	zero
   6:	0000                	unimp
   8:	0000                	unimp
   a:	0008                	.insn	2, 0x0008
   c:	0000                	unimp
   e:	0000                	unimp
  10:	024c                	addi	a1,sp,260
  12:	8000                	.insn	2, 0x8000
  14:	0000                	unimp
  16:	0000                	unimp
  18:	0150                	addi	a2,sp,132
  1a:	0000                	unimp
  1c:	0000                	unimp
  1e:	0000                	unimp
  20:	0230                	addi	a2,sp,264
  22:	8000                	.insn	2, 0x8000
  24:	0000                	unimp
  26:	0000                	unimp
  28:	001c                	.insn	2, 0x001c
	...
  3e:	0000                	unimp
  40:	002c                	addi	a1,sp,8
  42:	0000                	unimp
  44:	0002                	c.slli64	zero
  46:	0252                	slli	tp,tp,0x14
  48:	0000                	unimp
  4a:	0008                	.insn	2, 0x0008
  4c:	0000                	unimp
  4e:	0000                	unimp
  50:	19f8                	addi	a4,sp,252
  52:	8000                	.insn	2, 0x8000
  54:	0000                	unimp
  56:	0000                	unimp
  58:	0014                	.insn	2, 0x0014
	...
  6e:	0000                	unimp
  70:	002c                	addi	a1,sp,8
  72:	0000                	unimp
  74:	0002                	c.slli64	zero
  76:	00000323          	sb	zero,6(zero) # 6 <__tbss_size+0x2>
  7a:	0008                	.insn	2, 0x0008
  7c:	0000                	unimp
  7e:	0000                	unimp
  80:	1a0c                	addi	a1,sp,304
  82:	8000                	.insn	2, 0x8000
  84:	0000                	unimp
  86:	0000                	unimp
  88:	0014                	.insn	2, 0x0014
	...
  9e:	0000                	unimp
  a0:	002c                	addi	a1,sp,8
  a2:	0000                	unimp
  a4:	0002                	c.slli64	zero
  a6:	0601                	addi	a2,a2,0
  a8:	0000                	unimp
  aa:	0008                	.insn	2, 0x0008
  ac:	0000                	unimp
  ae:	0000                	unimp
  b0:	1a20                	addi	s0,sp,312
  b2:	8000                	.insn	2, 0x8000
  b4:	0000                	unimp
  b6:	0000                	unimp
  b8:	0008                	.insn	2, 0x0008
	...
  ce:	0000                	unimp
  d0:	002c                	addi	a1,sp,8
  d2:	0000                	unimp
  d4:	0002                	c.slli64	zero
  d6:	06ac                	addi	a1,sp,840
  d8:	0000                	unimp
  da:	0008                	.insn	2, 0x0008
  dc:	0000                	unimp
  de:	0000                	unimp
  e0:	1a28                	addi	a0,sp,312
  e2:	8000                	.insn	2, 0x8000
  e4:	0000                	unimp
  e6:	0000                	unimp
  e8:	0014                	.insn	2, 0x0014
	...
  fe:	0000                	unimp
 100:	002c                	addi	a1,sp,8
 102:	0000                	unimp
 104:	0002                	c.slli64	zero
 106:	07bd                	addi	a5,a5,15
 108:	0000                	unimp
 10a:	0008                	.insn	2, 0x0008
 10c:	0000                	unimp
 10e:	0000                	unimp
 110:	1a3c                	addi	a5,sp,312
 112:	8000                	.insn	2, 0x8000
 114:	0000                	unimp
 116:	0000                	unimp
 118:	0016                	c.slli	zero,0x5
	...
 12e:	0000                	unimp
 130:	002c                	addi	a1,sp,8
 132:	0000                	unimp
 134:	0002                	c.slli64	zero
 136:	08d0                	addi	a2,sp,84
 138:	0000                	unimp
 13a:	0008                	.insn	2, 0x0008
 13c:	0000                	unimp
 13e:	0000                	unimp
 140:	1a52                	slli	s4,s4,0x34
 142:	8000                	.insn	2, 0x8000
 144:	0000                	unimp
 146:	0000                	unimp
 148:	003c                	addi	a5,sp,8
	...
 15e:	0000                	unimp
 160:	002c                	addi	a1,sp,8
 162:	0000                	unimp
 164:	0002                	c.slli64	zero
 166:	0a06                	slli	s4,s4,0x1
 168:	0000                	unimp
 16a:	0008                	.insn	2, 0x0008
 16c:	0000                	unimp
 16e:	0000                	unimp
 170:	1a8e                	slli	s5,s5,0x23
 172:	8000                	.insn	2, 0x8000
 174:	0000                	unimp
 176:	0000                	unimp
 178:	0006                	c.slli	zero,0x1
	...
 18e:	0000                	unimp
 190:	002c                	addi	a1,sp,8
 192:	0000                	unimp
 194:	0002                	c.slli64	zero
 196:	0b7e                	slli	s6,s6,0x1f
 198:	0000                	unimp
 19a:	0008                	.insn	2, 0x0008
 19c:	0000                	unimp
 19e:	0000                	unimp
 1a0:	0000                	unimp
 1a2:	8000                	.insn	2, 0x8000
 1a4:	0000                	unimp
 1a6:	0000                	unimp
 1a8:	01ee                	slli	gp,gp,0x1b
	...
 1be:	0000                	unimp
 1c0:	002c                	addi	a1,sp,8
 1c2:	0000                	unimp
 1c4:	0002                	c.slli64	zero
 1c6:	00000ba7          	.insn	4, 0x0ba7
 1ca:	0008                	.insn	2, 0x0008
 1cc:	0000                	unimp
 1ce:	0000                	unimp
 1d0:	01ee                	slli	gp,gp,0x1b
 1d2:	8000                	.insn	2, 0x8000
 1d4:	0000                	unimp
 1d6:	0000                	unimp
 1d8:	0042                	c.slli	zero,0x10
	...
 1ee:	0000                	unimp
 1f0:	002c                	addi	a1,sp,8
 1f2:	0000                	unimp
 1f4:	0002                	c.slli64	zero
 1f6:	00000bcf          	fnmadd.s	fs7,ft0,ft0,ft0,rne
 1fa:	0008                	.insn	2, 0x0008
 1fc:	0000                	unimp
 1fe:	0000                	unimp
 200:	1a94                	addi	a3,sp,368
 202:	8000                	.insn	2, 0x8000
 204:	0000                	unimp
 206:	0000                	unimp
 208:	0016                	c.slli	zero,0x5
	...
 21e:	0000                	unimp
 220:	002c                	addi	a1,sp,8
 222:	0000                	unimp
 224:	0002                	c.slli64	zero
 226:	0d09                	addi	s10,s10,2
 228:	0000                	unimp
 22a:	0008                	.insn	2, 0x0008
 22c:	0000                	unimp
 22e:	0000                	unimp
 230:	1aaa                	slli	s5,s5,0x2a
 232:	8000                	.insn	2, 0x8000
 234:	0000                	unimp
 236:	0000                	unimp
 238:	0030                	addi	a2,sp,8
	...
 24e:	0000                	unimp
 250:	002c                	addi	a1,sp,8
 252:	0000                	unimp
 254:	0002                	c.slli64	zero
 256:	0e72                	slli	t3,t3,0x1c
 258:	0000                	unimp
 25a:	0008                	.insn	2, 0x0008
 25c:	0000                	unimp
 25e:	0000                	unimp
 260:	1ada                	slli	s5,s5,0x36
 262:	8000                	.insn	2, 0x8000
 264:	0000                	unimp
 266:	0000                	unimp
 268:	004c                	addi	a1,sp,4
	...
 27e:	0000                	unimp
 280:	002c                	addi	a1,sp,8
 282:	0000                	unimp
 284:	0002                	c.slli64	zero
 286:	11b2                	slli	gp,gp,0x2c
 288:	0000                	unimp
 28a:	0008                	.insn	2, 0x0008
 28c:	0000                	unimp
 28e:	0000                	unimp
 290:	1b26                	slli	s6,s6,0x29
 292:	8000                	.insn	2, 0x8000
 294:	0000                	unimp
 296:	0000                	unimp
 298:	0022                	c.slli	zero,0x8
	...

Disassembly of section .debug_rnglists:

0000000000000000 <.debug_rnglists>:
   0:	0052                	c.slli	zero,0x14
   2:	0000                	unimp
   4:	0005                	c.nop	1
   6:	0008                	.insn	2, 0x0008
   8:	0000                	unimp
   a:	0000                	unimp
   c:	d405                	beqz	s0,ffffffffffffff34 <__heap_end+0xffffffff7ffdcf34>
   e:	0002                	c.slli64	zero
  10:	0080                	addi	s0,sp,64
  12:	0000                	unimp
  14:	0400                	addi	s0,sp,512
  16:	0000                	unimp
  18:	1c04                	addi	s1,sp,560
  1a:	0020                	addi	s0,sp,8
  1c:	fc05                	bnez	s0,ffffffffffffff54 <__heap_end+0xffffffff7ffdcf54>
  1e:	0002                	c.slli64	zero
  20:	0080                	addi	s0,sp,64
  22:	0000                	unimp
  24:	0400                	addi	s0,sp,512
  26:	0400                	addi	s0,sp,512
  28:	0c04                	addi	s1,sp,528
  2a:	0018                	.insn	2, 0x0018
  2c:	1405                	addi	s0,s0,-31
  2e:	00800003          	lb	zero,8(zero) # 8 <__tbss_size+0x4>
  32:	0000                	unimp
  34:	0400                	addi	s0,sp,512
  36:	2000                	fld	fs0,0(s0)
  38:	2c04                	fld	fs1,24(s0)
  3a:	0440                	addi	s0,sp,516
  3c:	8874                	.insn	2, 0x8874
  3e:	0001                	nop
  40:	00024c07          	.insn	4, 0x00024c07
  44:	0080                	addi	s0,sp,64
  46:	0000                	unimp
  48:	d000                	sw	s0,32(s0)
  4a:	0702                	c.slli64	a4
  4c:	0230                	addi	a2,sp,264
  4e:	8000                	.insn	2, 0x8000
  50:	0000                	unimp
  52:	0000                	unimp
  54:	001c                	.insn	2, 0x001c
  56:	0000000f          	fence	unknown,unknown
  5a:	0005                	c.nop	1
  5c:	0008                	.insn	2, 0x0008
  5e:	0000                	unimp
  60:	0000                	unimp
  62:	1804                	addi	s1,sp,48
  64:	041a                	slli	s0,s0,0x6
  66:	221e                	fld	ft4,448(sp)
	...

Disassembly of section .debug_line:

0000000000000000 <.debug_line>:
       0:	035f 0000 0005      	.insn	6, 0x00050000035f
       6:	0008                	.insn	2, 0x0008
       8:	0045                	c.nop	17
       a:	0000                	unimp
       c:	0101                	addi	sp,sp,0
       e:	fb01                	bnez	a4,ffffffffffffff1e <__heap_end+0xffffffff7ffdcf1e>
      10:	0d0e                	slli	s10,s10,0x3
      12:	0100                	addi	s0,sp,128
      14:	0101                	addi	sp,sp,0
      16:	0001                	nop
      18:	0000                	unimp
      1a:	0001                	nop
      1c:	0100                	addi	s0,sp,128
      1e:	0101                	addi	sp,sp,0
      20:	041f 003f 0000      	.insn	6, 0x003f041f
      26:	00000073          	ecall
      2a:	000000a7          	.insn	4, 0x00a7
      2e:	0108                	addi	a0,sp,128
      30:	0000                	unimp
      32:	0102                	c.slli64	sp
      34:	021f 050f 0034      	.insn	6, 0x0034050f021f
      3a:	0000                	unimp
      3c:	3401                	addiw	s0,s0,-32
      3e:	0000                	unimp
      40:	0100                	addi	s0,sp,128
      42:	0178                	addi	a4,sp,140
      44:	0000                	unimp
      46:	8201                	c.srli64	a2
      48:	0001                	nop
      4a:	0200                	addi	s0,sp,256
      4c:	018a                	slli	gp,gp,0x2
      4e:	0000                	unimp
      50:	00010503          	lb	a0,0(sp)
      54:	0209                	addi	tp,tp,2 # 2 <__boot_hart+0x2>
      56:	024c                	addi	a1,sp,260
      58:	8000                	.insn	2, 0x8000
      5a:	0000                	unimp
      5c:	0000                	unimp
      5e:	051a                	slli	a0,a0,0x6
      60:	09010303          	lb	t1,144(sp)
      64:	0000                	unimp
      66:	0301                	addi	t1,t1,0
      68:	0901                	addi	s2,s2,0
      6a:	0000                	unimp
      6c:	0301                	addi	t1,t1,0
      6e:	0901                	addi	s2,s2,0
      70:	0000                	unimp
      72:	0301                	addi	t1,t1,0
      74:	0902                	c.slli64	s2
      76:	0000                	unimp
      78:	0301                	addi	t1,t1,0
      7a:	0902                	c.slli64	s2
      7c:	0004                	.insn	2, 0x0004
      7e:	0501                	addi	a0,a0,0
      80:	0003060f          	.insn	4, 0x0003060f
      84:	0009                	c.nop	2
      86:	0100                	addi	s0,sp,128
      88:	1105                	addi	sp,sp,-31
      8a:	00090003          	lb	zero,0(s2)
      8e:	0100                	addi	s0,sp,128
      90:	0705                	addi	a4,a4,1
      92:	04090103          	lb	sp,64(s2)
      96:	0100                	addi	s0,sp,128
      98:	1105                	addi	sp,sp,-31
      9a:	08097f03          	.insn	4, 0x08097f03
      9e:	0100                	addi	s0,sp,128
      a0:	0f05                	addi	t5,t5,1
      a2:	04090003          	lb	zero,64(s2)
      a6:	0100                	addi	s0,sp,128
      a8:	0305                	addi	t1,t1,1
      aa:	0306                	slli	t1,t1,0x1
      ac:	0901                	addi	s2,s2,0
      ae:	0004                	.insn	2, 0x0004
      b0:	0501                	addi	a0,a0,0
      b2:	00030607          	.insn	4, 0x00030607
      b6:	0009                	c.nop	2
      b8:	0100                	addi	s0,sp,128
      ba:	0605                	addi	a2,a2,1
      bc:	0200                	addi	s0,sp,256
      be:	0104                	addi	s1,sp,128
      c0:	08090003          	lb	zero,128(s2)
      c4:	0100                	addi	s0,sp,128
      c6:	0705                	addi	a4,a4,1
      c8:	04090003          	lb	zero,64(s2)
      cc:	0100                	addi	s0,sp,128
      ce:	0605                	addi	a2,a2,1
      d0:	0200                	addi	s0,sp,256
      d2:	0104                	addi	s1,sp,128
      d4:	04090003          	lb	zero,64(s2)
      d8:	0100                	addi	s0,sp,128
      da:	1405                	addi	s0,s0,-31
      dc:	0200                	addi	s0,sp,256
      de:	0104                	addi	s1,sp,128
      e0:	04090503          	lb	a0,64(s2)
      e4:	0100                	addi	s0,sp,128
      e6:	0200                	addi	s0,sp,256
      e8:	0104                	addi	s1,sp,128
      ea:	0306                	slli	t1,t1,0x1
      ec:	0900                	addi	s0,sp,144
      ee:	0008                	.insn	2, 0x0008
      f0:	0501                	addi	a0,a0,0
      f2:	09030303          	lb	t1,144(t1)
      f6:	0008                	.insn	2, 0x0008
      f8:	0501                	addi	a0,a0,0
      fa:	0601                	addi	a2,a2,0
      fc:	04090103          	lb	sp,64(s2)
     100:	0100                	addi	s0,sp,128
     102:	0505                	addi	a0,a0,1
     104:	0306                	slli	t1,t1,0x1
     106:	0979                	addi	s2,s2,30
     108:	0004                	.insn	2, 0x0004
     10a:	0501                	addi	a0,a0,0
     10c:	0103060b          	.insn	4, 0x0103060b
     110:	0009                	c.nop	2
     112:	0100                	addi	s0,sp,128
     114:	04097f03          	.insn	4, 0x04097f03
     118:	0100                	addi	s0,sp,128
     11a:	0505                	addi	a0,a0,1
     11c:	0306                	slli	t1,t1,0x1
     11e:	0901                	addi	s2,s2,0
     120:	0004                	.insn	2, 0x0004
     122:	0501                	addi	a0,a0,0
     124:	0003060b          	.insn	4, 0x0003060b
     128:	0009                	c.nop	2
     12a:	0100                	addi	s0,sp,128
     12c:	0305                	addi	t1,t1,1
     12e:	0306                	slli	t1,t1,0x1
     130:	0905                	addi	s2,s2,1
     132:	0004                	.insn	2, 0x0004
     134:	0501                	addi	a0,a0,0
     136:	0601                	addi	a2,a2,0
     138:	04090103          	lb	sp,64(s2)
     13c:	0100                	addi	s0,sp,128
     13e:	0204                	addi	s1,sp,256
     140:	2705                	addiw	a4,a4,1
     142:	0306                	slli	t1,t1,0x1
     144:	096a                	slli	s2,s2,0x1a
     146:	0004                	.insn	2, 0x0004
     148:	0501                	addi	a0,a0,0
     14a:	09010303          	lb	t1,144(sp)
     14e:	0000                	unimp
     150:	0501                	addi	a0,a0,0
     152:	7f030627          	.insn	4, 0x7f030627
     156:	2409                	addiw	s0,s0,2
     158:	0100                	addi	s0,sp,128
     15a:	0105                	addi	sp,sp,1
     15c:	08090b03          	lb	s6,128(s2)
     160:	0100                	addi	s0,sp,128
     162:	0104                	addi	s1,sp,128
     164:	1305                	addi	t1,t1,-31
     166:	0306                	slli	t1,t1,0x1
     168:	090d                	addi	s2,s2,3
     16a:	0004                	.insn	2, 0x0004
     16c:	0501                	addi	a0,a0,0
     16e:	09010303          	lb	t1,144(sp)
     172:	0000                	unimp
     174:	0501                	addi	a0,a0,0
     176:	0314                	addi	a3,sp,384
     178:	0900                	addi	s0,sp,144
     17a:	0000                	unimp
     17c:	0301                	addi	t1,t1,0
     17e:	0900                	addi	s0,sp,144
     180:	0000                	unimp
     182:	0501                	addi	a0,a0,0
     184:	7f030613          	addi	a2,t1,2032
     188:	0009                	c.nop	2
     18a:	0100                	addi	s0,sp,128
     18c:	1405                	addi	s0,s0,-31
     18e:	1c090103          	lb	sp,448(s2)
     192:	0100                	addi	s0,sp,128
     194:	0306                	slli	t1,t1,0x1
     196:	0900                	addi	s0,sp,144
     198:	0004                	.insn	2, 0x0004
     19a:	0501                	addi	a0,a0,0
     19c:	09020303          	lb	t1,144(tp) # 90 <__stack_align+0x80>
     1a0:	0000                	unimp
     1a2:	0501                	addi	a0,a0,0
     1a4:	0606                	slli	a2,a2,0x1
     1a6:	00090003          	lb	zero,0(s2)
     1aa:	0100                	addi	s0,sp,128
     1ac:	0305                	addi	t1,t1,1
     1ae:	0306                	slli	t1,t1,0x1
     1b0:	0902                	c.slli64	s2
     1b2:	0008                	.insn	2, 0x0008
     1b4:	0501                	addi	a0,a0,0
     1b6:	0321                	addi	t1,t1,8
     1b8:	0900                	addi	s0,sp,144
     1ba:	0000                	unimp
     1bc:	0301                	addi	t1,t1,0
     1be:	0900                	addi	s0,sp,144
     1c0:	0000                	unimp
     1c2:	0301                	addi	t1,t1,0
     1c4:	0900                	addi	s0,sp,144
     1c6:	0004                	.insn	2, 0x0004
     1c8:	0401                	addi	s0,s0,0
     1ca:	0502                	c.slli64	a0
     1cc:	09640303          	lb	t1,150(s0)
     1d0:	0000                	unimp
     1d2:	0401                	addi	s0,s0,0
     1d4:	0501                	addi	a0,a0,0
     1d6:	0621                	addi	a2,a2,8
     1d8:	08091c03          	lh	s8,128(s2)
     1dc:	0100                	addi	s0,sp,128
     1de:	0305                	addi	t1,t1,1
     1e0:	0306                	slli	t1,t1,0x1
     1e2:	0901                	addi	s2,s2,0
     1e4:	000c                	.insn	2, 0x000c
     1e6:	0501                	addi	a0,a0,0
     1e8:	0308                	addi	a0,sp,384
     1ea:	0900                	addi	s0,sp,144
     1ec:	0000                	unimp
     1ee:	0501                	addi	a0,a0,0
     1f0:	0018                	.insn	2, 0x0018
     1f2:	0402                	c.slli64	s0
     1f4:	0301                	addi	t1,t1,0
     1f6:	0900                	addi	s0,sp,144
     1f8:	0000                	unimp
     1fa:	0501                	addi	a0,a0,0
     1fc:	0003060f          	.insn	4, 0x0003060f
     200:	0009                	c.nop	2
     202:	0100                	addi	s0,sp,128
     204:	0705                	addi	a4,a4,1
     206:	04090203          	lb	tp,64(s2)
     20a:	0100                	addi	s0,sp,128
     20c:	1805                	addi	a6,a6,-31 # 590b593f <__heap_size+0x5909593f>
     20e:	0200                	addi	s0,sp,256
     210:	0104                	addi	s1,sp,128
     212:	08097e03          	.insn	4, 0x08097e03
     216:	0100                	addi	s0,sp,128
     218:	0505                	addi	a0,a0,1
     21a:	0306                	slli	t1,t1,0x1
     21c:	0901                	addi	s2,s2,0
     21e:	0004                	.insn	2, 0x0004
     220:	0501                	addi	a0,a0,0
     222:	0608                	addi	a0,sp,768
     224:	00090003          	lb	zero,0(s2)
     228:	0100                	addi	s0,sp,128
     22a:	0505                	addi	a0,a0,1
     22c:	0306                	slli	t1,t1,0x1
     22e:	00040903          	lb	s2,0(s0)
     232:	0501                	addi	a0,a0,0
     234:	0024                	addi	s1,sp,8
     236:	0402                	c.slli64	s0
     238:	0602                	c.slli64	a2
     23a:	00097c03          	.insn	4, 0x00097c03
     23e:	0100                	addi	s0,sp,128
     240:	0505                	addi	a0,a0,1
     242:	04090403          	lb	s0,64(s2)
     246:	0100                	addi	s0,sp,128
     248:	2405                	addiw	s0,s0,1
     24a:	0200                	addi	s0,sp,256
     24c:	0204                	addi	s1,sp,256
     24e:	0306                	slli	t1,t1,0x1
     250:	097c                	addi	a5,sp,156
     252:	0004                	.insn	2, 0x0004
     254:	0501                	addi	a0,a0,0
     256:	0018                	.insn	2, 0x0018
     258:	0402                	c.slli64	s0
     25a:	0301                	addi	t1,t1,0
     25c:	0900                	addi	s0,sp,144
     25e:	0000                	unimp
     260:	0501                	addi	a0,a0,0
     262:	09080303          	lb	t1,144(a6)
     266:	0004                	.insn	2, 0x0004
     268:	0501                	addi	a0,a0,0
     26a:	0606                	slli	a2,a2,0x1
     26c:	00090003          	lb	zero,0(s2)
     270:	0100                	addi	s0,sp,128
     272:	1405                	addi	s0,s0,-31
     274:	0200                	addi	s0,sp,256
     276:	0104                	addi	s1,sp,128
     278:	0306                	slli	t1,t1,0x1
     27a:	0900                	addi	s0,sp,144
     27c:	0004                	.insn	2, 0x0004
     27e:	0501                	addi	a0,a0,0
     280:	001a                	c.slli	zero,0x6
     282:	0402                	c.slli64	s0
     284:	0301                	addi	t1,t1,0
     286:	0900                	addi	s0,sp,144
     288:	0000                	unimp
     28a:	0501                	addi	a0,a0,0
     28c:	0014                	.insn	2, 0x0014
     28e:	0402                	c.slli64	s0
     290:	0301                	addi	t1,t1,0
     292:	0900                	addi	s0,sp,144
     294:	0000                	unimp
     296:	0501                	addi	a0,a0,0
     298:	001a                	c.slli	zero,0x6
     29a:	0402                	c.slli64	s0
     29c:	0301                	addi	t1,t1,0
     29e:	0900                	addi	s0,sp,144
     2a0:	0000                	unimp
     2a2:	0501                	addi	a0,a0,0
     2a4:	0402001b          	addiw	zero,tp,64 # 40 <__stack_align+0x30>
     2a8:	0301                	addi	t1,t1,0
     2aa:	0975                	addi	s2,s2,29
     2ac:	0004                	.insn	2, 0x0004
     2ae:	0501                	addi	a0,a0,0
     2b0:	0021                	c.nop	8
     2b2:	0402                	c.slli64	s0
     2b4:	0301                	addi	t1,t1,0
     2b6:	0900                	addi	s0,sp,144
     2b8:	0000                	unimp
     2ba:	0501                	addi	a0,a0,0
     2bc:	0402001b          	addiw	zero,tp,64 # 40 <__stack_align+0x30>
     2c0:	0301                	addi	t1,t1,0
     2c2:	0900                	addi	s0,sp,144
     2c4:	0000                	unimp
     2c6:	0501                	addi	a0,a0,0
     2c8:	0021                	c.nop	8
     2ca:	0402                	c.slli64	s0
     2cc:	0301                	addi	t1,t1,0
     2ce:	0900                	addi	s0,sp,144
     2d0:	0000                	unimp
     2d2:	0501                	addi	a0,a0,0
     2d4:	09050307          	.insn	4, 0x09050307
     2d8:	0004                	.insn	2, 0x0004
     2da:	0501                	addi	a0,a0,0
     2dc:	0601                	addi	a2,a2,0
     2de:	14090703          	lb	a4,320(s2)
     2e2:	0100                	addi	s0,sp,128
     2e4:	0305                	addi	t1,t1,1
     2e6:	0306                	slli	t1,t1,0x1
     2e8:	00340977          	.insn	4, 0x00340977
     2ec:	0501                	addi	a0,a0,0
     2ee:	0308                	addi	a0,sp,384
     2f0:	0900                	addi	s0,sp,144
     2f2:	0000                	unimp
     2f4:	0501                	addi	a0,a0,0
     2f6:	0018                	.insn	2, 0x0018
     2f8:	0402                	c.slli64	s0
     2fa:	0301                	addi	t1,t1,0
     2fc:	0900                	addi	s0,sp,144
     2fe:	0000                	unimp
     300:	0501                	addi	a0,a0,0
     302:	0003060f          	.insn	4, 0x0003060f
     306:	0009                	c.nop	2
     308:	0100                	addi	s0,sp,128
     30a:	0705                	addi	a4,a4,1
     30c:	04090203          	lb	tp,64(s2)
     310:	0100                	addi	s0,sp,128
     312:	1805                	addi	a6,a6,-31
     314:	0200                	addi	s0,sp,256
     316:	0104                	addi	s1,sp,128
     318:	08097e03          	.insn	4, 0x08097e03
     31c:	0100                	addi	s0,sp,128
     31e:	0809                	addi	a6,a6,2
     320:	0000                	unimp
     322:	0101                	addi	sp,sp,0
     324:	1005                	c.nop	-31
     326:	0900                	addi	s0,sp,144
     328:	3002                	fld	ft0,32(sp)
     32a:	0002                	c.slli64	zero
     32c:	0080                	addi	s0,sp,64
     32e:	0000                	unimp
     330:	0300                	addi	s0,sp,384
     332:	012c                	addi	a1,sp,136
     334:	0305                	addi	t1,t1,1
     336:	00090103          	lb	sp,0(s2)
     33a:	0100                	addi	s0,sp,128
     33c:	1005                	c.nop	-31
     33e:	0306                	slli	t1,t1,0x1
     340:	097f 0000 0501 0303 	.insn	10, 0x0901030305010000097f
     348:	0901 
     34a:	0008                	.insn	2, 0x0008
     34c:	0601                	addi	a2,a2,0
     34e:	04090103          	lb	sp,64(s2)
     352:	0100                	addi	s0,sp,128
     354:	0105                	addi	sp,sp,1
     356:	0306                	slli	t1,t1,0x1
     358:	0901                	addi	s2,s2,0
     35a:	0000                	unimp
     35c:	0901                	addi	s2,s2,0
     35e:	0010                	.insn	2, 0x0010
     360:	0100                	addi	s0,sp,128
     362:	9201                	srli	a2,a2,0x20
     364:	0000                	unimp
     366:	0500                	addi	s0,sp,640
     368:	0800                	addi	s0,sp,16
     36a:	3700                	fld	fs0,40(a4)
     36c:	0000                	unimp
     36e:	0100                	addi	s0,sp,128
     370:	0101                	addi	sp,sp,0
     372:	000d0efb          	.insn	4, 0x000d0efb
     376:	0101                	addi	sp,sp,0
     378:	0101                	addi	sp,sp,0
     37a:	0000                	unimp
     37c:	0100                	addi	s0,sp,128
     37e:	0000                	unimp
     380:	0101                	addi	sp,sp,0
     382:	1f01                	addi	t5,t5,-32
     384:	00019303          	lh	t1,0(gp) # 80002778 <__global_pointer$>
     388:	ea00                	sd	s0,16(a2)
     38a:	0001                	nop
     38c:	f100                	sd	s0,32(a0)
     38e:	0001                	nop
     390:	0200                	addi	s0,sp,256
     392:	1f01                	addi	t5,t5,-32
     394:	0f02                	c.slli64	t5
     396:	0001e203          	lwu	tp,0(gp) # 80002778 <__global_pointer$>
     39a:	0100                	addi	s0,sp,128
     39c:	01e2                	slli	gp,gp,0x18
     39e:	0000                	unimp
     3a0:	5601                	li	a2,-32
     3a2:	0002                	c.slli64	zero
     3a4:	0200                	addi	s0,sp,256
     3a6:	0105                	addi	sp,sp,1
     3a8:	0900                	addi	s0,sp,144
     3aa:	f802                	sd	zero,48(sp)
     3ac:	0019                	c.nop	6
     3ae:	0080                	addi	s0,sp,64
     3b0:	0000                	unimp
     3b2:	1600                	addi	s0,sp,800
     3b4:	0505                	addi	a0,a0,1
     3b6:	00090103          	lb	sp,0(s2)
     3ba:	0100                	addi	s0,sp,128
     3bc:	0105                	addi	sp,sp,1
     3be:	0306                	slli	t1,t1,0x1
     3c0:	097f 0000 0501 0305 	.insn	10, 0x0901030505010000097f
     3c8:	0901 
     3ca:	0004                	.insn	2, 0x0004
     3cc:	0501                	addi	a0,a0,0
     3ce:	0301                	addi	t1,t1,0
     3d0:	0902                	c.slli64	s2
     3d2:	0004                	.insn	2, 0x0004
     3d4:	0501                	addi	a0,a0,0
     3d6:	0402000b          	.insn	4, 0x0402000b
     3da:	0301                	addi	t1,t1,0
     3dc:	097e                	slli	s2,s2,0x1f
     3de:	0002                	c.slli64	zero
     3e0:	0501                	addi	a0,a0,0
     3e2:	0605                	addi	a2,a2,1
     3e4:	04090103          	lb	sp,64(s2)
     3e8:	0100                	addi	s0,sp,128
     3ea:	0105                	addi	sp,sp,1
     3ec:	0306                	slli	t1,t1,0x1
     3ee:	0901                	addi	s2,s2,0
     3f0:	0000                	unimp
     3f2:	0901                	addi	s2,s2,0
     3f4:	0006                	c.slli	zero,0x1
     3f6:	0100                	addi	s0,sp,128
     3f8:	af01                	j	b08 <__stack_align+0xaf8>
     3fa:	0000                	unimp
     3fc:	0500                	addi	s0,sp,640
     3fe:	0800                	addi	s0,sp,16
     400:	5400                	lw	s0,40(s0)
     402:	0000                	unimp
     404:	0100                	addi	s0,sp,128
     406:	0101                	addi	sp,sp,0
     408:	000d0efb          	.insn	4, 0x000d0efb
     40c:	0101                	addi	sp,sp,0
     40e:	0101                	addi	sp,sp,0
     410:	0000                	unimp
     412:	0100                	addi	s0,sp,128
     414:	0000                	unimp
     416:	0101                	addi	sp,sp,0
     418:	1f01                	addi	t5,t5,-32
     41a:	9304                	.insn	2, 0x9304
     41c:	0001                	nop
     41e:	ea00                	sd	s0,16(a2)
     420:	0001                	nop
     422:	6d00                	ld	s0,24(a0)
     424:	0002                	c.slli64	zero
     426:	f100                	sd	s0,32(a0)
     428:	0001                	nop
     42a:	0200                	addi	s0,sp,256
     42c:	1f01                	addi	t5,t5,-32
     42e:	0f02                	c.slli64	t5
     430:	6508                	ld	a0,8(a0)
     432:	0002                	c.slli64	zero
     434:	0100                	addi	s0,sp,128
     436:	0265                	addi	tp,tp,25 # 19 <__stack_align+0x9>
     438:	0000                	unimp
     43a:	d601                	beqz	a2,342 <__stack_align+0x332>
     43c:	0002                	c.slli64	zero
     43e:	0200                	addi	s0,sp,256
     440:	02de                	slli	t0,t0,0x17
     442:	0000                	unimp
     444:	0002df03          	lhu	t5,0(t0)
     448:	0300                	addi	s0,sp,384
     44a:	000002e7          	jalr	t0,zero # 0 <__boot_hart>
     44e:	0002f303          	.insn	4, 0x0002f303
     452:	0300                	addi	s0,sp,384
     454:	0256                	slli	tp,tp,0x15
     456:	0000                	unimp
     458:	00010503          	lb	a0,0(sp)
     45c:	0209                	addi	tp,tp,2 # 2 <__boot_hart+0x2>
     45e:	1a0c                	addi	a1,sp,304
     460:	8000                	.insn	2, 0x8000
     462:	0000                	unimp
     464:	0000                	unimp
     466:	03050517          	auipc	a0,0x3050
     46a:	0901                	addi	s2,s2,0
     46c:	0000                	unimp
     46e:	0501                	addi	a0,a0,0 # 3050466 <__heap_size+0x3030466>
     470:	0601                	addi	a2,a2,0
     472:	00097f03          	.insn	4, 0x00097f03
     476:	0100                	addi	s0,sp,128
     478:	0505                	addi	a0,a0,1
     47a:	04090103          	lb	sp,64(s2)
     47e:	0100                	addi	s0,sp,128
     480:	0105                	addi	sp,sp,1
     482:	04090203          	lb	tp,64(s2)
     486:	0100                	addi	s0,sp,128
     488:	0b05                	addi	s6,s6,1
     48a:	0200                	addi	s0,sp,256
     48c:	0104                	addi	s1,sp,128
     48e:	02097e03          	.insn	4, 0x02097e03
     492:	0100                	addi	s0,sp,128
     494:	0505                	addi	a0,a0,1
     496:	0306                	slli	t1,t1,0x1
     498:	0901                	addi	s2,s2,0
     49a:	0004                	.insn	2, 0x0004
     49c:	0501                	addi	a0,a0,0
     49e:	0601                	addi	a2,a2,0
     4a0:	00090103          	lb	sp,0(s2)
     4a4:	0100                	addi	s0,sp,128
     4a6:	0609                	addi	a2,a2,2
     4a8:	0000                	unimp
     4aa:	0101                	addi	sp,sp,0
     4ac:	00000063          	beqz	zero,4ac <__stack_align+0x49c>
     4b0:	0005                	c.nop	1
     4b2:	0008                	.insn	2, 0x0008
     4b4:	002e                	c.slli	zero,0xb
     4b6:	0000                	unimp
     4b8:	0101                	addi	sp,sp,0
     4ba:	fb01                	bnez	a4,3ca <__stack_align+0x3ba>
     4bc:	0d0e                	slli	s10,s10,0x3
     4be:	0100                	addi	s0,sp,128
     4c0:	0101                	addi	sp,sp,0
     4c2:	0001                	nop
     4c4:	0000                	unimp
     4c6:	0001                	nop
     4c8:	0100                	addi	s0,sp,128
     4ca:	0101                	addi	sp,sp,0
     4cc:	021f 0193 0000      	.insn	6, 0x0193021f
     4d2:	01ea                	slli	gp,gp,0x1a
     4d4:	0000                	unimp
     4d6:	0102                	c.slli64	sp
     4d8:	021f 020f 0301      	.insn	6, 0x0301020f021f
     4de:	0000                	unimp
     4e0:	0101                	addi	sp,sp,0
     4e2:	01000003          	lb	zero,16(zero) # 10 <__stack_align>
     4e6:	0105                	addi	sp,sp,1
     4e8:	0900                	addi	s0,sp,144
     4ea:	2002                	fld	ft0,0(sp)
     4ec:	001a                	c.slli	zero,0x6
     4ee:	0080                	addi	s0,sp,64
     4f0:	0000                	unimp
     4f2:	1600                	addi	s0,sp,800
     4f4:	0505                	addi	a0,a0,1
     4f6:	00090103          	lb	sp,0(s2)
     4fa:	0100                	addi	s0,sp,128
     4fc:	2305                	addiw	t1,t1,1
     4fe:	0306                	slli	t1,t1,0x1
     500:	0900                	addi	s0,sp,144
     502:	0000                	unimp
     504:	0501                	addi	a0,a0,0
     506:	0301                	addi	t1,t1,0
     508:	0901                	addi	s2,s2,0
     50a:	0002                	c.slli64	zero
     50c:	0901                	addi	s2,s2,0
     50e:	0006                	c.slli	zero,0x1
     510:	0100                	addi	s0,sp,128
     512:	9c01                	subw	s0,s0,s0
     514:	0000                	unimp
     516:	0500                	addi	s0,sp,640
     518:	0800                	addi	s0,sp,16
     51a:	4100                	lw	s0,0(a0)
     51c:	0000                	unimp
     51e:	0100                	addi	s0,sp,128
     520:	0101                	addi	sp,sp,0
     522:	000d0efb          	.insn	4, 0x000d0efb
     526:	0101                	addi	sp,sp,0
     528:	0101                	addi	sp,sp,0
     52a:	0000                	unimp
     52c:	0100                	addi	s0,sp,128
     52e:	0000                	unimp
     530:	0101                	addi	sp,sp,0
     532:	1f01                	addi	t5,t5,-32
     534:	00019303          	lh	t1,0(gp) # 80002778 <__global_pointer$>
     538:	ea00                	sd	s0,16(a2)
     53a:	0001                	nop
     53c:	f100                	sd	s0,32(a0)
     53e:	0001                	nop
     540:	0200                	addi	s0,sp,256
     542:	1f01                	addi	t5,t5,-32
     544:	0f02                	c.slli64	t5
     546:	1105                	addi	sp,sp,-31
     548:	01000003          	lb	zero,16(zero) # 10 <__stack_align>
     54c:	0311                	addi	t1,t1,4
     54e:	0000                	unimp
     550:	de01                	beqz	a2,468 <__stack_align+0x458>
     552:	0002                	c.slli64	zero
     554:	0200                	addi	s0,sp,256
     556:	02df 0000 5602      	.insn	6, 0x5602000002df
     55c:	0002                	c.slli64	zero
     55e:	0200                	addi	s0,sp,256
     560:	0105                	addi	sp,sp,1
     562:	0900                	addi	s0,sp,144
     564:	2802                	fld	fa6,0(sp)
     566:	001a                	c.slli	zero,0x6
     568:	0080                	addi	s0,sp,64
     56a:	0000                	unimp
     56c:	1700                	addi	s0,sp,928
     56e:	0505                	addi	a0,a0,1
     570:	00090103          	lb	sp,0(s2)
     574:	0100                	addi	s0,sp,128
     576:	0105                	addi	sp,sp,1
     578:	0306                	slli	t1,t1,0x1
     57a:	097f 0000 0501 0305 	.insn	10, 0x0901030505010000097f
     582:	0901 
     584:	0004                	.insn	2, 0x0004
     586:	0501                	addi	a0,a0,0
     588:	0301                	addi	t1,t1,0
     58a:	0902                	c.slli64	s2
     58c:	0004                	.insn	2, 0x0004
     58e:	0501                	addi	a0,a0,0
     590:	0402000b          	.insn	4, 0x0402000b
     594:	0301                	addi	t1,t1,0
     596:	097e                	slli	s2,s2,0x1f
     598:	0002                	c.slli64	zero
     59a:	0501                	addi	a0,a0,0
     59c:	0605                	addi	a2,a2,1
     59e:	04090103          	lb	sp,64(s2)
     5a2:	0100                	addi	s0,sp,128
     5a4:	0105                	addi	sp,sp,1
     5a6:	0306                	slli	t1,t1,0x1
     5a8:	0901                	addi	s2,s2,0
     5aa:	0000                	unimp
     5ac:	0901                	addi	s2,s2,0
     5ae:	0006                	c.slli	zero,0x1
     5b0:	0100                	addi	s0,sp,128
     5b2:	a501                	j	bb2 <__stack_align+0xba2>
     5b4:	0000                	unimp
     5b6:	0500                	addi	s0,sp,640
     5b8:	0800                	addi	s0,sp,16
     5ba:	4a00                	lw	s0,16(a2)
     5bc:	0000                	unimp
     5be:	0100                	addi	s0,sp,128
     5c0:	0101                	addi	sp,sp,0
     5c2:	000d0efb          	.insn	4, 0x000d0efb
     5c6:	0101                	addi	sp,sp,0
     5c8:	0101                	addi	sp,sp,0
     5ca:	0000                	unimp
     5cc:	0100                	addi	s0,sp,128
     5ce:	0000                	unimp
     5d0:	0101                	addi	sp,sp,0
     5d2:	1f01                	addi	t5,t5,-32
     5d4:	9304                	.insn	2, 0x9304
     5d6:	0001                	nop
     5d8:	ea00                	sd	s0,16(a2)
     5da:	0001                	nop
     5dc:	0800                	addi	s0,sp,16
     5de:	0001                	nop
     5e0:	f100                	sd	s0,32(a0)
     5e2:	0001                	nop
     5e4:	0200                	addi	s0,sp,256
     5e6:	1f01                	addi	t5,t5,-32
     5e8:	0f02                	c.slli64	t5
     5ea:	2006                	fld	ft0,64(sp)
     5ec:	01000003          	lb	zero,16(zero) # 10 <__stack_align>
     5f0:	0320                	addi	s0,sp,392
     5f2:	0000                	unimp
     5f4:	8a01                	andi	a2,a2,0
     5f6:	0001                	nop
     5f8:	0200                	addi	s0,sp,256
     5fa:	02de                	slli	t0,t0,0x17
     5fc:	0000                	unimp
     5fe:	0002df03          	lhu	t5,0(t0)
     602:	0300                	addi	s0,sp,384
     604:	0256                	slli	tp,tp,0x15
     606:	0000                	unimp
     608:	00010503          	lb	a0,0(sp)
     60c:	0209                	addi	tp,tp,2 # 2 <__boot_hart+0x2>
     60e:	1a3c                	addi	a5,sp,312
     610:	8000                	.insn	2, 0x8000
     612:	0000                	unimp
     614:	0000                	unimp
     616:	03050517          	auipc	a0,0x3050
     61a:	0901                	addi	s2,s2,0
     61c:	0000                	unimp
     61e:	0501                	addi	a0,a0,0 # 3050616 <__heap_size+0x3030616>
     620:	0601                	addi	a2,a2,0
     622:	00097f03          	.insn	4, 0x00097f03
     626:	0100                	addi	s0,sp,128
     628:	0505                	addi	a0,a0,1
     62a:	04090103          	lb	sp,64(s2)
     62e:	0100                	addi	s0,sp,128
     630:	0105                	addi	sp,sp,1
     632:	04090203          	lb	tp,64(s2)
     636:	0100                	addi	s0,sp,128
     638:	0b05                	addi	s6,s6,1
     63a:	0200                	addi	s0,sp,256
     63c:	0104                	addi	s1,sp,128
     63e:	02097e03          	.insn	4, 0x02097e03
     642:	0100                	addi	s0,sp,128
     644:	0505                	addi	a0,a0,1
     646:	0306                	slli	t1,t1,0x1
     648:	0901                	addi	s2,s2,0
     64a:	0006                	c.slli	zero,0x1
     64c:	0501                	addi	a0,a0,0
     64e:	0601                	addi	a2,a2,0
     650:	00090103          	lb	sp,0(s2)
     654:	0100                	addi	s0,sp,128
     656:	0609                	addi	a2,a2,2
     658:	0000                	unimp
     65a:	0101                	addi	sp,sp,0
     65c:	0121                	addi	sp,sp,8
     65e:	0000                	unimp
     660:	0005                	c.nop	1
     662:	0008                	.insn	2, 0x0008
     664:	0040                	addi	s0,sp,4
     666:	0000                	unimp
     668:	0101                	addi	sp,sp,0
     66a:	fb01                	bnez	a4,57a <__stack_align+0x56a>
     66c:	0d0e                	slli	s10,s10,0x3
     66e:	0100                	addi	s0,sp,128
     670:	0101                	addi	sp,sp,0
     672:	0001                	nop
     674:	0000                	unimp
     676:	0001                	nop
     678:	0100                	addi	s0,sp,128
     67a:	0101                	addi	sp,sp,0
     67c:	041f 0193 0000      	.insn	6, 0x0193041f
     682:	01ea                	slli	gp,gp,0x1a
     684:	0000                	unimp
     686:	0108                	addi	a0,sp,128
     688:	0000                	unimp
     68a:	01f1                	addi	gp,gp,28 # 80002794 <__global_pointer$+0x1c>
     68c:	0000                	unimp
     68e:	0102                	c.slli64	sp
     690:	021f 040f 032e      	.insn	6, 0x032e040f021f
     696:	0000                	unimp
     698:	2e01                	sext.w	t3,t3
     69a:	01000003          	lb	zero,16(zero) # 10 <__stack_align>
     69e:	018a                	slli	gp,gp,0x2
     6a0:	0000                	unimp
     6a2:	5602                	lw	a2,32(sp)
     6a4:	0002                	c.slli64	zero
     6a6:	0300                	addi	s0,sp,384
     6a8:	0105                	addi	sp,sp,1
     6aa:	0900                	addi	s0,sp,144
     6ac:	5202                	lw	tp,32(sp)
     6ae:	001a                	c.slli	zero,0x6
     6b0:	0080                	addi	s0,sp,64
     6b2:	0000                	unimp
     6b4:	0300                	addi	s0,sp,384
     6b6:	0109                	addi	sp,sp,2
     6b8:	0505                	addi	a0,a0,1
     6ba:	00090103          	lb	sp,0(s2)
     6be:	0100                	addi	s0,sp,128
     6c0:	00090103          	lb	sp,0(s2)
     6c4:	0100                	addi	s0,sp,128
     6c6:	00090103          	lb	sp,0(s2)
     6ca:	0100                	addi	s0,sp,128
     6cc:	00090203          	lb	tp,0(s2)
     6d0:	0100                	addi	s0,sp,128
     6d2:	0c05                	addi	s8,s8,1
     6d4:	0306                	slli	t1,t1,0x1
     6d6:	0900                	addi	s0,sp,144
     6d8:	0000                	unimp
     6da:	0501                	addi	a0,a0,0
     6dc:	0605                	addi	a2,a2,1
     6de:	0a090103          	lb	sp,160(s2)
     6e2:	0100                	addi	s0,sp,128
     6e4:	0805                	addi	a6,a6,1
     6e6:	0200                	addi	s0,sp,256
     6e8:	0104                	addi	s1,sp,128
     6ea:	0306                	slli	t1,t1,0x1
     6ec:	0901                	addi	s2,s2,0
     6ee:	0000                	unimp
     6f0:	0501                	addi	a0,a0,0
     6f2:	030c                	addi	a1,sp,384
     6f4:	097f 0004 0501 0605 	.insn	10, 0x0103060505010004097f
     6fc:	0103 
     6fe:	0209                	addi	tp,tp,2 # 2 <__boot_hart+0x2>
     700:	0100                	addi	s0,sp,128
     702:	0805                	addi	a6,a6,1
     704:	0200                	addi	s0,sp,256
     706:	0104                	addi	s1,sp,128
     708:	0306                	slli	t1,t1,0x1
     70a:	0900                	addi	s0,sp,144
     70c:	0000                	unimp
     70e:	0501                	addi	a0,a0,0
     710:	0605                	addi	a2,a2,1
     712:	10090503          	lb	a0,256(s2)
     716:	0100                	addi	s0,sp,128
     718:	0c05                	addi	s8,s8,1
     71a:	0306                	slli	t1,t1,0x1
     71c:	0900                	addi	s0,sp,144
     71e:	0000                	unimp
     720:	0501                	addi	a0,a0,0
     722:	0605                	addi	a2,a2,1
     724:	02090103          	lb	sp,32(s2)
     728:	0100                	addi	s0,sp,128
     72a:	0105                	addi	sp,sp,1
     72c:	0306                	slli	t1,t1,0x1
     72e:	0901                	addi	s2,s2,0
     730:	0000                	unimp
     732:	0501                	addi	a0,a0,0
     734:	0609                	addi	a2,a2,2
     736:	04097a03          	.insn	4, 0x04097a03
     73a:	0100                	addi	s0,sp,128
     73c:	0105                	addi	sp,sp,1
     73e:	0306                	slli	t1,t1,0x1
     740:	0978                	addi	a4,sp,156
     742:	0000                	unimp
     744:	0501                	addi	a0,a0,0
     746:	0309                	addi	t1,t1,2
     748:	0908                	addi	a0,sp,144
     74a:	0004                	.insn	2, 0x0004
     74c:	0501                	addi	a0,a0,0
     74e:	0301                	addi	t1,t1,0
     750:	0906                	slli	s2,s2,0x1
     752:	0004                	.insn	2, 0x0004
     754:	0501                	addi	a0,a0,0
     756:	0402000f          	.insn	4, 0x0402000f
     75a:	0301                	addi	t1,t1,0
     75c:	097a                	slli	s2,s2,0x1e
     75e:	0002                	c.slli64	zero
     760:	0501                	addi	a0,a0,0
     762:	0609                	addi	a2,a2,2
     764:	04090103          	lb	sp,64(s2)
     768:	0100                	addi	s0,sp,128
     76a:	1005                	c.nop	-31
     76c:	0306                	slli	t1,t1,0x1
     76e:	0900                	addi	s0,sp,144
     770:	0000                	unimp
     772:	0501                	addi	a0,a0,0
     774:	0301                	addi	t1,t1,0
     776:	0905                	addi	s2,s2,1
     778:	0002                	c.slli64	zero
     77a:	0901                	addi	s2,s2,0
     77c:	0006                	c.slli	zero,0x1
     77e:	0100                	addi	s0,sp,128
     780:	8901                	andi	a0,a0,0
     782:	0000                	unimp
     784:	0500                	addi	s0,sp,640
     786:	0800                	addi	s0,sp,16
     788:	5c00                	lw	s0,56(s0)
     78a:	0000                	unimp
     78c:	0100                	addi	s0,sp,128
     78e:	0101                	addi	sp,sp,0
     790:	000d0efb          	.insn	4, 0x000d0efb
     794:	0101                	addi	sp,sp,0
     796:	0101                	addi	sp,sp,0
     798:	0000                	unimp
     79a:	0100                	addi	s0,sp,128
     79c:	0000                	unimp
     79e:	0101                	addi	sp,sp,0
     7a0:	1f01                	addi	t5,t5,-32
     7a2:	9306                	add	t1,t1,ra
     7a4:	0001                	nop
     7a6:	ea00                	sd	s0,16(a2)
     7a8:	0001                	nop
     7aa:	0800                	addi	s0,sp,16
     7ac:	0001                	nop
     7ae:	6d00                	ld	s0,24(a0)
     7b0:	0002                	c.slli64	zero
     7b2:	f100                	sd	s0,32(a0)
     7b4:	0001                	nop
     7b6:	4400                	lw	s0,8(s0)
     7b8:	02000003          	lb	zero,32(zero) # 20 <__stack_align+0x10>
     7bc:	1f01                	addi	t5,t5,-32
     7be:	0f02                	c.slli64	t5
     7c0:	3c08                	fld	fa0,56(s0)
     7c2:	01000003          	lb	zero,16(zero) # 10 <__stack_align>
     7c6:	033c                	addi	a5,sp,392
     7c8:	0000                	unimp
     7ca:	8a01                	andi	a2,a2,0
     7cc:	0001                	nop
     7ce:	0200                	addi	s0,sp,256
     7d0:	02d6                	slli	t0,t0,0x15
     7d2:	0000                	unimp
     7d4:	0002de03          	lhu	t3,0(t0)
     7d8:	0400                	addi	s0,sp,512
     7da:	0000034f          	fnmadd.s	ft6,ft0,ft0,ft0,rne
     7de:	df04                	sw	s1,56(a4)
     7e0:	0002                	c.slli64	zero
     7e2:	0400                	addi	s0,sp,512
     7e4:	0359                	addi	t1,t1,22
     7e6:	0000                	unimp
     7e8:	0505                	addi	a0,a0,1
     7ea:	0001                	nop
     7ec:	0209                	addi	tp,tp,2 # 2 <__boot_hart+0x2>
     7ee:	1a8e                	slli	s5,s5,0x23
     7f0:	8000                	.insn	2, 0x8000
     7f2:	0000                	unimp
     7f4:	0000                	unimp
     7f6:	0518                	addi	a4,sp,640
     7f8:	0305                	addi	t1,t1,1
     7fa:	0901                	addi	s2,s2,0
     7fc:	0000                	unimp
     7fe:	0501                	addi	a0,a0,0
     800:	060c                	addi	a1,sp,768
     802:	00090003          	lb	zero,0(s2)
     806:	0100                	addi	s0,sp,128
     808:	0609                	addi	a2,a2,2
     80a:	0000                	unimp
     80c:	0101                	addi	sp,sp,0
     80e:	042e                	slli	s0,s0,0xb
     810:	0000                	unimp
     812:	0005                	c.nop	1
     814:	0008                	.insn	2, 0x0008
     816:	002e                	c.slli	zero,0xb
     818:	0000                	unimp
     81a:	0101                	addi	sp,sp,0
     81c:	fb01                	bnez	a4,72c <__stack_align+0x71c>
     81e:	0d0e                	slli	s10,s10,0x3
     820:	0100                	addi	s0,sp,128
     822:	0101                	addi	sp,sp,0
     824:	0001                	nop
     826:	0000                	unimp
     828:	0001                	nop
     82a:	0100                	addi	s0,sp,128
     82c:	0101                	addi	sp,sp,0
     82e:	021f 0193 0000      	.insn	6, 0x0193021f
     834:	0360                	addi	s0,sp,396
     836:	0000                	unimp
     838:	0102                	c.slli64	sp
     83a:	021f 020f 0368      	.insn	6, 0x0368020f021f
     840:	0000                	unimp
     842:	6801                	.insn	2, 0x6801
     844:	01000003          	lb	zero,16(zero) # 10 <__stack_align>
     848:	0900                	addi	s0,sp,144
     84a:	0002                	c.slli64	zero
     84c:	0000                	unimp
     84e:	0080                	addi	s0,sp,64
     850:	0000                	unimp
     852:	0300                	addi	s0,sp,384
     854:	0109                	addi	sp,sp,2
     856:	02090103          	lb	sp,32(s2)
     85a:	0100                	addi	s0,sp,128
     85c:	02090103          	lb	sp,32(s2)
     860:	0100                	addi	s0,sp,128
     862:	02090103          	lb	sp,32(s2)
     866:	0100                	addi	s0,sp,128
     868:	02090103          	lb	sp,32(s2)
     86c:	0100                	addi	s0,sp,128
     86e:	02090103          	lb	sp,32(s2)
     872:	0100                	addi	s0,sp,128
     874:	02090103          	lb	sp,32(s2)
     878:	0100                	addi	s0,sp,128
     87a:	02090103          	lb	sp,32(s2)
     87e:	0100                	addi	s0,sp,128
     880:	02090103          	lb	sp,32(s2)
     884:	0100                	addi	s0,sp,128
     886:	02090103          	lb	sp,32(s2)
     88a:	0100                	addi	s0,sp,128
     88c:	02090103          	lb	sp,32(s2)
     890:	0100                	addi	s0,sp,128
     892:	02090103          	lb	sp,32(s2)
     896:	0100                	addi	s0,sp,128
     898:	02090103          	lb	sp,32(s2)
     89c:	0100                	addi	s0,sp,128
     89e:	02090103          	lb	sp,32(s2)
     8a2:	0100                	addi	s0,sp,128
     8a4:	02090103          	lb	sp,32(s2)
     8a8:	0100                	addi	s0,sp,128
     8aa:	02090103          	lb	sp,32(s2)
     8ae:	0100                	addi	s0,sp,128
     8b0:	02090103          	lb	sp,32(s2)
     8b4:	0100                	addi	s0,sp,128
     8b6:	02090103          	lb	sp,32(s2)
     8ba:	0100                	addi	s0,sp,128
     8bc:	02090103          	lb	sp,32(s2)
     8c0:	0100                	addi	s0,sp,128
     8c2:	02090103          	lb	sp,32(s2)
     8c6:	0100                	addi	s0,sp,128
     8c8:	02090103          	lb	sp,32(s2)
     8cc:	0100                	addi	s0,sp,128
     8ce:	02090103          	lb	sp,32(s2)
     8d2:	0100                	addi	s0,sp,128
     8d4:	02090103          	lb	sp,32(s2)
     8d8:	0100                	addi	s0,sp,128
     8da:	02090103          	lb	sp,32(s2)
     8de:	0100                	addi	s0,sp,128
     8e0:	02090103          	lb	sp,32(s2)
     8e4:	0100                	addi	s0,sp,128
     8e6:	02090103          	lb	sp,32(s2)
     8ea:	0100                	addi	s0,sp,128
     8ec:	02090103          	lb	sp,32(s2)
     8f0:	0100                	addi	s0,sp,128
     8f2:	02090103          	lb	sp,32(s2)
     8f6:	0100                	addi	s0,sp,128
     8f8:	02090103          	lb	sp,32(s2)
     8fc:	0100                	addi	s0,sp,128
     8fe:	02090103          	lb	sp,32(s2)
     902:	0100                	addi	s0,sp,128
     904:	02090103          	lb	sp,32(s2)
     908:	0100                	addi	s0,sp,128
     90a:	02090203          	lb	tp,32(s2)
     90e:	0100                	addi	s0,sp,128
     910:	06090103          	lb	sp,96(s2)
     914:	0100                	addi	s0,sp,128
     916:	04090403          	lb	s0,64(s2)
     91a:	0100                	addi	s0,sp,128
     91c:	08090103          	lb	sp,128(s2)
     920:	0100                	addi	s0,sp,128
     922:	04090203          	lb	tp,64(s2)
     926:	0100                	addi	s0,sp,128
     928:	04090103          	lb	sp,64(s2)
     92c:	0100                	addi	s0,sp,128
     92e:	04090103          	lb	sp,64(s2)
     932:	0100                	addi	s0,sp,128
     934:	04090103          	lb	sp,64(s2)
     938:	0100                	addi	s0,sp,128
     93a:	04090103          	lb	sp,64(s2)
     93e:	0100                	addi	s0,sp,128
     940:	04090103          	lb	sp,64(s2)
     944:	0100                	addi	s0,sp,128
     946:	04090103          	lb	sp,64(s2)
     94a:	0100                	addi	s0,sp,128
     94c:	04090103          	lb	sp,64(s2)
     950:	0100                	addi	s0,sp,128
     952:	04090103          	lb	sp,64(s2)
     956:	0100                	addi	s0,sp,128
     958:	04090103          	lb	sp,64(s2)
     95c:	0100                	addi	s0,sp,128
     95e:	04090103          	lb	sp,64(s2)
     962:	0100                	addi	s0,sp,128
     964:	04090103          	lb	sp,64(s2)
     968:	0100                	addi	s0,sp,128
     96a:	04090103          	lb	sp,64(s2)
     96e:	0100                	addi	s0,sp,128
     970:	04090103          	lb	sp,64(s2)
     974:	0100                	addi	s0,sp,128
     976:	04090103          	lb	sp,64(s2)
     97a:	0100                	addi	s0,sp,128
     97c:	04090103          	lb	sp,64(s2)
     980:	0100                	addi	s0,sp,128
     982:	04090103          	lb	sp,64(s2)
     986:	0100                	addi	s0,sp,128
     988:	04090103          	lb	sp,64(s2)
     98c:	0100                	addi	s0,sp,128
     98e:	04090103          	lb	sp,64(s2)
     992:	0100                	addi	s0,sp,128
     994:	04090103          	lb	sp,64(s2)
     998:	0100                	addi	s0,sp,128
     99a:	04090103          	lb	sp,64(s2)
     99e:	0100                	addi	s0,sp,128
     9a0:	04090103          	lb	sp,64(s2)
     9a4:	0100                	addi	s0,sp,128
     9a6:	04090103          	lb	sp,64(s2)
     9aa:	0100                	addi	s0,sp,128
     9ac:	04090103          	lb	sp,64(s2)
     9b0:	0100                	addi	s0,sp,128
     9b2:	04090103          	lb	sp,64(s2)
     9b6:	0100                	addi	s0,sp,128
     9b8:	04090103          	lb	sp,64(s2)
     9bc:	0100                	addi	s0,sp,128
     9be:	04090103          	lb	sp,64(s2)
     9c2:	0100                	addi	s0,sp,128
     9c4:	04090103          	lb	sp,64(s2)
     9c8:	0100                	addi	s0,sp,128
     9ca:	04090103          	lb	sp,64(s2)
     9ce:	0100                	addi	s0,sp,128
     9d0:	04090103          	lb	sp,64(s2)
     9d4:	0100                	addi	s0,sp,128
     9d6:	04090103          	lb	sp,64(s2)
     9da:	0100                	addi	s0,sp,128
     9dc:	04090103          	lb	sp,64(s2)
     9e0:	0100                	addi	s0,sp,128
     9e2:	04090103          	lb	sp,64(s2)
     9e6:	0100                	addi	s0,sp,128
     9e8:	04090803          	lb	a6,64(s2)
     9ec:	0100                	addi	s0,sp,128
     9ee:	08090403          	lb	s0,128(s2)
     9f2:	0100                	addi	s0,sp,128
     9f4:	04090103          	lb	sp,64(s2)
     9f8:	0100                	addi	s0,sp,128
     9fa:	00090103          	lb	sp,0(s2)
     9fe:	0100                	addi	s0,sp,128
     a00:	04090103          	lb	sp,64(s2)
     a04:	0100                	addi	s0,sp,128
     a06:	08090103          	lb	sp,128(s2)
     a0a:	0100                	addi	s0,sp,128
     a0c:	04090103          	lb	sp,64(s2)
     a10:	0100                	addi	s0,sp,128
     a12:	02090303          	lb	t1,32(s2)
     a16:	0100                	addi	s0,sp,128
     a18:	02090103          	lb	sp,32(s2)
     a1c:	0100                	addi	s0,sp,128
     a1e:	04090103          	lb	sp,64(s2)
     a22:	0100                	addi	s0,sp,128
     a24:	04090303          	lb	t1,64(s2)
     a28:	0100                	addi	s0,sp,128
     a2a:	08090103          	lb	sp,128(s2)
     a2e:	0100                	addi	s0,sp,128
     a30:	04090303          	lb	t1,64(s2)
     a34:	0100                	addi	s0,sp,128
     a36:	04090303          	lb	t1,64(s2)
     a3a:	0100                	addi	s0,sp,128
     a3c:	04090103          	lb	sp,64(s2)
     a40:	0100                	addi	s0,sp,128
     a42:	08090303          	lb	t1,128(s2)
     a46:	0100                	addi	s0,sp,128
     a48:	04090103          	lb	sp,64(s2)
     a4c:	0100                	addi	s0,sp,128
     a4e:	04090103          	lb	sp,64(s2)
     a52:	0100                	addi	s0,sp,128
     a54:	04090203          	lb	tp,64(s2)
     a58:	0100                	addi	s0,sp,128
     a5a:	04090103          	lb	sp,64(s2)
     a5e:	0100                	addi	s0,sp,128
     a60:	02090103          	lb	sp,32(s2)
     a64:	0100                	addi	s0,sp,128
     a66:	04090403          	lb	s0,64(s2)
     a6a:	0100                	addi	s0,sp,128
     a6c:	08090103          	lb	sp,128(s2)
     a70:	0100                	addi	s0,sp,128
     a72:	04090103          	lb	sp,64(s2)
     a76:	0100                	addi	s0,sp,128
     a78:	04090303          	lb	t1,64(s2)
     a7c:	0100                	addi	s0,sp,128
     a7e:	02090703          	lb	a4,32(s2)
     a82:	0100                	addi	s0,sp,128
     a84:	04090103          	lb	sp,64(s2)
     a88:	0100                	addi	s0,sp,128
     a8a:	02090303          	lb	t1,32(s2)
     a8e:	0100                	addi	s0,sp,128
     a90:	02090103          	lb	sp,32(s2)
     a94:	0100                	addi	s0,sp,128
     a96:	04090103          	lb	sp,64(s2)
     a9a:	0100                	addi	s0,sp,128
     a9c:	02090103          	lb	sp,32(s2)
     aa0:	0100                	addi	s0,sp,128
     aa2:	02090103          	lb	sp,32(s2)
     aa6:	0100                	addi	s0,sp,128
     aa8:	02090103          	lb	sp,32(s2)
     aac:	0100                	addi	s0,sp,128
     aae:	02090103          	lb	sp,32(s2)
     ab2:	0100                	addi	s0,sp,128
     ab4:	02090103          	lb	sp,32(s2)
     ab8:	0100                	addi	s0,sp,128
     aba:	02090103          	lb	sp,32(s2)
     abe:	0100                	addi	s0,sp,128
     ac0:	02090103          	lb	sp,32(s2)
     ac4:	0100                	addi	s0,sp,128
     ac6:	02090103          	lb	sp,32(s2)
     aca:	0100                	addi	s0,sp,128
     acc:	02090103          	lb	sp,32(s2)
     ad0:	0100                	addi	s0,sp,128
     ad2:	02090103          	lb	sp,32(s2)
     ad6:	0100                	addi	s0,sp,128
     ad8:	02090103          	lb	sp,32(s2)
     adc:	0100                	addi	s0,sp,128
     ade:	02090103          	lb	sp,32(s2)
     ae2:	0100                	addi	s0,sp,128
     ae4:	02090103          	lb	sp,32(s2)
     ae8:	0100                	addi	s0,sp,128
     aea:	02090103          	lb	sp,32(s2)
     aee:	0100                	addi	s0,sp,128
     af0:	02090103          	lb	sp,32(s2)
     af4:	0100                	addi	s0,sp,128
     af6:	02090103          	lb	sp,32(s2)
     afa:	0100                	addi	s0,sp,128
     afc:	02090103          	lb	sp,32(s2)
     b00:	0100                	addi	s0,sp,128
     b02:	02090103          	lb	sp,32(s2)
     b06:	0100                	addi	s0,sp,128
     b08:	02090103          	lb	sp,32(s2)
     b0c:	0100                	addi	s0,sp,128
     b0e:	02090103          	lb	sp,32(s2)
     b12:	0100                	addi	s0,sp,128
     b14:	02090103          	lb	sp,32(s2)
     b18:	0100                	addi	s0,sp,128
     b1a:	02090103          	lb	sp,32(s2)
     b1e:	0100                	addi	s0,sp,128
     b20:	02090103          	lb	sp,32(s2)
     b24:	0100                	addi	s0,sp,128
     b26:	02090103          	lb	sp,32(s2)
     b2a:	0100                	addi	s0,sp,128
     b2c:	02090103          	lb	sp,32(s2)
     b30:	0100                	addi	s0,sp,128
     b32:	02090103          	lb	sp,32(s2)
     b36:	0100                	addi	s0,sp,128
     b38:	02090103          	lb	sp,32(s2)
     b3c:	0100                	addi	s0,sp,128
     b3e:	02090103          	lb	sp,32(s2)
     b42:	0100                	addi	s0,sp,128
     b44:	02090103          	lb	sp,32(s2)
     b48:	0100                	addi	s0,sp,128
     b4a:	02090303          	lb	t1,32(s2)
     b4e:	0100                	addi	s0,sp,128
     b50:	04090103          	lb	sp,64(s2)
     b54:	0100                	addi	s0,sp,128
     b56:	04090103          	lb	sp,64(s2)
     b5a:	0100                	addi	s0,sp,128
     b5c:	04090103          	lb	sp,64(s2)
     b60:	0100                	addi	s0,sp,128
     b62:	02090103          	lb	sp,32(s2)
     b66:	0100                	addi	s0,sp,128
     b68:	04090103          	lb	sp,64(s2)
     b6c:	0100                	addi	s0,sp,128
     b6e:	04090303          	lb	t1,64(s2)
     b72:	0100                	addi	s0,sp,128
     b74:	06090103          	lb	sp,96(s2)
     b78:	0100                	addi	s0,sp,128
     b7a:	04090203          	lb	tp,64(s2)
     b7e:	0100                	addi	s0,sp,128
     b80:	02090103          	lb	sp,32(s2)
     b84:	0100                	addi	s0,sp,128
     b86:	02090103          	lb	sp,32(s2)
     b8a:	0100                	addi	s0,sp,128
     b8c:	02090103          	lb	sp,32(s2)
     b90:	0100                	addi	s0,sp,128
     b92:	02090103          	lb	sp,32(s2)
     b96:	0100                	addi	s0,sp,128
     b98:	02090103          	lb	sp,32(s2)
     b9c:	0100                	addi	s0,sp,128
     b9e:	02090103          	lb	sp,32(s2)
     ba2:	0100                	addi	s0,sp,128
     ba4:	02090103          	lb	sp,32(s2)
     ba8:	0100                	addi	s0,sp,128
     baa:	02090103          	lb	sp,32(s2)
     bae:	0100                	addi	s0,sp,128
     bb0:	02090103          	lb	sp,32(s2)
     bb4:	0100                	addi	s0,sp,128
     bb6:	02090103          	lb	sp,32(s2)
     bba:	0100                	addi	s0,sp,128
     bbc:	02090103          	lb	sp,32(s2)
     bc0:	0100                	addi	s0,sp,128
     bc2:	02090103          	lb	sp,32(s2)
     bc6:	0100                	addi	s0,sp,128
     bc8:	02090103          	lb	sp,32(s2)
     bcc:	0100                	addi	s0,sp,128
     bce:	02090103          	lb	sp,32(s2)
     bd2:	0100                	addi	s0,sp,128
     bd4:	02090103          	lb	sp,32(s2)
     bd8:	0100                	addi	s0,sp,128
     bda:	02090103          	lb	sp,32(s2)
     bde:	0100                	addi	s0,sp,128
     be0:	02090103          	lb	sp,32(s2)
     be4:	0100                	addi	s0,sp,128
     be6:	02090103          	lb	sp,32(s2)
     bea:	0100                	addi	s0,sp,128
     bec:	02090103          	lb	sp,32(s2)
     bf0:	0100                	addi	s0,sp,128
     bf2:	02090103          	lb	sp,32(s2)
     bf6:	0100                	addi	s0,sp,128
     bf8:	02090103          	lb	sp,32(s2)
     bfc:	0100                	addi	s0,sp,128
     bfe:	02090103          	lb	sp,32(s2)
     c02:	0100                	addi	s0,sp,128
     c04:	02090103          	lb	sp,32(s2)
     c08:	0100                	addi	s0,sp,128
     c0a:	02090103          	lb	sp,32(s2)
     c0e:	0100                	addi	s0,sp,128
     c10:	02090103          	lb	sp,32(s2)
     c14:	0100                	addi	s0,sp,128
     c16:	02090103          	lb	sp,32(s2)
     c1a:	0100                	addi	s0,sp,128
     c1c:	02090103          	lb	sp,32(s2)
     c20:	0100                	addi	s0,sp,128
     c22:	02090103          	lb	sp,32(s2)
     c26:	0100                	addi	s0,sp,128
     c28:	02090103          	lb	sp,32(s2)
     c2c:	0100                	addi	s0,sp,128
     c2e:	02090203          	lb	tp,32(s2)
     c32:	0100                	addi	s0,sp,128
     c34:	02090203          	lb	tp,32(s2)
     c38:	0100                	addi	s0,sp,128
     c3a:	0409                	addi	s0,s0,2
     c3c:	0000                	unimp
     c3e:	0101                	addi	sp,sp,0
     c40:	005c                	addi	a5,sp,4
     c42:	0000                	unimp
     c44:	0005                	c.nop	1
     c46:	0008                	.insn	2, 0x0008
     c48:	002e                	c.slli	zero,0xb
     c4a:	0000                	unimp
     c4c:	0101                	addi	sp,sp,0
     c4e:	fb01                	bnez	a4,b5e <__stack_align+0xb4e>
     c50:	0d0e                	slli	s10,s10,0x3
     c52:	0100                	addi	s0,sp,128
     c54:	0101                	addi	sp,sp,0
     c56:	0001                	nop
     c58:	0000                	unimp
     c5a:	0001                	nop
     c5c:	0100                	addi	s0,sp,128
     c5e:	0101                	addi	sp,sp,0
     c60:	021f 0193 0000      	.insn	6, 0x0193021f
     c66:	0360                	addi	s0,sp,396
     c68:	0000                	unimp
     c6a:	0102                	c.slli64	sp
     c6c:	021f 020f 036f      	.insn	6, 0x036f020f021f
     c72:	0000                	unimp
     c74:	6f01                	.insn	2, 0x6f01
     c76:	01000003          	lb	zero,16(zero) # 10 <__stack_align>
     c7a:	0900                	addi	s0,sp,144
     c7c:	ee02                	sd	zero,280(sp)
     c7e:	0001                	nop
     c80:	0080                	addi	s0,sp,64
     c82:	0000                	unimp
     c84:	0300                	addi	s0,sp,384
     c86:	0110                	addi	a2,sp,128
     c88:	0a090103          	lb	sp,160(s2)
     c8c:	0100                	addi	s0,sp,128
     c8e:	16090603          	lb	a2,352(s2)
     c92:	0100                	addi	s0,sp,128
     c94:	0c090103          	lb	sp,192(s2)
     c98:	0100                	addi	s0,sp,128
     c9a:	1609                	addi	a2,a2,-30
     c9c:	0000                	unimp
     c9e:	0101                	addi	sp,sp,0
     ca0:	000000b3          	add	ra,zero,zero
     ca4:	0005                	c.nop	1
     ca6:	0008                	.insn	2, 0x0008
     ca8:	0049                	c.nop	18
     caa:	0000                	unimp
     cac:	0101                	addi	sp,sp,0
     cae:	fb01                	bnez	a4,bbe <__stack_align+0xbae>
     cb0:	0d0e                	slli	s10,s10,0x3
     cb2:	0100                	addi	s0,sp,128
     cb4:	0101                	addi	sp,sp,0
     cb6:	0001                	nop
     cb8:	0000                	unimp
     cba:	0001                	nop
     cbc:	0100                	addi	s0,sp,128
     cbe:	0101                	addi	sp,sp,0
     cc0:	051f 0193 0000      	.insn	6, 0x0193051f
     cc6:	0360                	addi	s0,sp,396
     cc8:	0000                	unimp
     cca:	026d                	addi	tp,tp,27 # 1b <__stack_align+0xb>
     ccc:	0000                	unimp
     cce:	01f1                	addi	gp,gp,28 # 80002794 <__global_pointer$+0x1c>
     cd0:	0000                	unimp
     cd2:	0344                	addi	s1,sp,388
     cd4:	0000                	unimp
     cd6:	0102                	c.slli64	sp
     cd8:	021f 050f 0381      	.insn	6, 0x0381050f021f
     cde:	0000                	unimp
     ce0:	8101                	c.srli64	a0
     ce2:	01000003          	lb	zero,16(zero) # 10 <__stack_align>
     ce6:	02d6                	slli	t0,t0,0x15
     ce8:	0000                	unimp
     cea:	4f02                	lw	t5,0(sp)
     cec:	03000003          	lb	zero,48(zero) # 30 <__stack_align+0x20>
     cf0:	0389                	addi	t2,t2,2
     cf2:	0000                	unimp
     cf4:	0504                	addi	s1,sp,640
     cf6:	0001                	nop
     cf8:	0209                	addi	tp,tp,2 # 2 <__boot_hart+0x2>
     cfa:	1a94                	addi	a3,sp,368
     cfc:	8000                	.insn	2, 0x8000
     cfe:	0000                	unimp
     d00:	0000                	unimp
     d02:	0516                	slli	a0,a0,0x5
     d04:	0305                	addi	t1,t1,1
     d06:	0902                	c.slli64	s2
     d08:	0000                	unimp
     d0a:	0501                	addi	a0,a0,0
     d0c:	0601                	addi	a2,a2,0
     d0e:	00097e03          	.insn	4, 0x00097e03
     d12:	0100                	addi	s0,sp,128
     d14:	0905                	addi	s2,s2,1
     d16:	02090203          	lb	tp,32(s2)
     d1a:	0100                	addi	s0,sp,128
     d1c:	0105                	addi	sp,sp,1
     d1e:	04097e03          	.insn	4, 0x04097e03
     d22:	0100                	addi	s0,sp,128
     d24:	0905                	addi	s2,s2,1
     d26:	02090203          	lb	tp,32(s2)
     d2a:	0100                	addi	s0,sp,128
     d2c:	0505                	addi	a0,a0,1
     d2e:	0306                	slli	t1,t1,0x1
     d30:	0902                	c.slli64	s2
     d32:	0002                	c.slli64	zero
     d34:	0501                	addi	a0,a0,0
     d36:	062a                	slli	a2,a2,0xa
     d38:	00090003          	lb	zero,0(s2)
     d3c:	0100                	addi	s0,sp,128
     d3e:	0200                	addi	s0,sp,256
     d40:	0104                	addi	s1,sp,128
     d42:	04090003          	lb	zero,64(s2)
     d46:	0100                	addi	s0,sp,128
     d48:	0505                	addi	a0,a0,1
     d4a:	0306                	slli	t1,t1,0x1
     d4c:	0901                	addi	s2,s2,0
     d4e:	0004                	.insn	2, 0x0004
     d50:	0901                	addi	s2,s2,0
     d52:	0004                	.insn	2, 0x0004
     d54:	0100                	addi	s0,sp,128
     d56:	db01                	beqz	a4,c66 <__stack_align+0xc56>
     d58:	0000                	unimp
     d5a:	0500                	addi	s0,sp,640
     d5c:	0800                	addi	s0,sp,16
     d5e:	4000                	lw	s0,0(s0)
     d60:	0000                	unimp
     d62:	0100                	addi	s0,sp,128
     d64:	0101                	addi	sp,sp,0
     d66:	000d0efb          	.insn	4, 0x000d0efb
     d6a:	0101                	addi	sp,sp,0
     d6c:	0101                	addi	sp,sp,0
     d6e:	0000                	unimp
     d70:	0100                	addi	s0,sp,128
     d72:	0000                	unimp
     d74:	0101                	addi	sp,sp,0
     d76:	1f01                	addi	t5,t5,-32
     d78:	9304                	.insn	2, 0x9304
     d7a:	0001                	nop
     d7c:	6000                	ld	s0,0(s0)
     d7e:	a7000003          	lb	zero,-1424(zero) # fffffffffffffa70 <__heap_end+0xffffffff7ffdca70>
     d82:	0000                	unimp
     d84:	0800                	addi	s0,sp,16
     d86:	0001                	nop
     d88:	0200                	addi	s0,sp,256
     d8a:	1f01                	addi	t5,t5,-32
     d8c:	0f02                	c.slli64	t5
     d8e:	9b04                	.insn	2, 0x9b04
     d90:	01000003          	lb	zero,16(zero) # 10 <__stack_align>
     d94:	0000039b          	sext.w	t2,zero
     d98:	a101                	j	1198 <__stack_align+0x1188>
     d9a:	02000003          	lb	zero,32(zero) # 20 <__stack_align+0x10>
     d9e:	018a                	slli	gp,gp,0x2
     da0:	0000                	unimp
     da2:	00010503          	lb	a0,0(sp)
     da6:	0209                	addi	tp,tp,2 # 2 <__boot_hart+0x2>
     da8:	1aaa                	slli	s5,s5,0x2a
     daa:	8000                	.insn	2, 0x8000
     dac:	0000                	unimp
     dae:	0000                	unimp
     db0:	0515                	addi	a0,a0,5
     db2:	0305                	addi	t1,t1,1
     db4:	0901                	addi	s2,s2,0
     db6:	0000                	unimp
     db8:	0301                	addi	t1,t1,0
     dba:	0901                	addi	s2,s2,0
     dbc:	0000                	unimp
     dbe:	0301                	addi	t1,t1,0
     dc0:	0901                	addi	s2,s2,0
     dc2:	0000                	unimp
     dc4:	0301                	addi	t1,t1,0
     dc6:	0901                	addi	s2,s2,0
     dc8:	0000                	unimp
     dca:	0301                	addi	t1,t1,0
     dcc:	0901                	addi	s2,s2,0
     dce:	0000                	unimp
     dd0:	0301                	addi	t1,t1,0
     dd2:	0902                	c.slli64	s2
     dd4:	0000                	unimp
     dd6:	0501                	addi	a0,a0,0
     dd8:	0601                	addi	a2,a2,0
     dda:	00097903          	.insn	4, 0x00097903
     dde:	0100                	addi	s0,sp,128
     de0:	0505                	addi	a0,a0,1
     de2:	02090703          	lb	a4,32(s2)
     de6:	0100                	addi	s0,sp,128
     de8:	0105                	addi	sp,sp,1
     dea:	0e097903          	.insn	4, 0x0e097903
     dee:	0100                	addi	s0,sp,128
     df0:	0505                	addi	a0,a0,1
     df2:	04090703          	lb	a4,64(s2)
     df6:	0100                	addi	s0,sp,128
     df8:	0306                	slli	t1,t1,0x1
     dfa:	0901                	addi	s2,s2,0
     dfc:	0006                	c.slli	zero,0x1
     dfe:	0501                	addi	a0,a0,0
     e00:	0601                	addi	a2,a2,0
     e02:	06090103          	lb	sp,96(s2)
     e06:	0100                	addi	s0,sp,128
     e08:	0505                	addi	a0,a0,1
     e0a:	04097f03          	.insn	4, 0x04097f03
     e0e:	0100                	addi	s0,sp,128
     e10:	0105                	addi	sp,sp,1
     e12:	04090103          	lb	sp,64(s2)
     e16:	0100                	addi	s0,sp,128
     e18:	0505                	addi	a0,a0,1
     e1a:	00097f03          	.insn	4, 0x00097f03
     e1e:	0100                	addi	s0,sp,128
     e20:	0105                	addi	sp,sp,1
     e22:	02090103          	lb	sp,32(s2)
     e26:	0100                	addi	s0,sp,128
     e28:	0505                	addi	a0,a0,1
     e2a:	02097f03          	.insn	4, 0x02097f03
     e2e:	0100                	addi	s0,sp,128
     e30:	0409                	addi	s0,s0,2
     e32:	0000                	unimp
     e34:	0101                	addi	sp,sp,0
     e36:	01f2                	slli	gp,gp,0x1c
     e38:	0000                	unimp
     e3a:	0005                	c.nop	1
     e3c:	0008                	.insn	2, 0x0008
     e3e:	00000053          	fadd.s	ft0,ft0,ft0,rne
     e42:	0101                	addi	sp,sp,0
     e44:	fb01                	bnez	a4,d54 <__stack_align+0xd44>
     e46:	0d0e                	slli	s10,s10,0x3
     e48:	0100                	addi	s0,sp,128
     e4a:	0101                	addi	sp,sp,0
     e4c:	0001                	nop
     e4e:	0000                	unimp
     e50:	0001                	nop
     e52:	0100                	addi	s0,sp,128
     e54:	0101                	addi	sp,sp,0
     e56:	051f 0193 0000      	.insn	6, 0x0193051f
     e5c:	0360                	addi	s0,sp,396
     e5e:	0000                	unimp
     e60:	0344                	addi	s1,sp,388
     e62:	0000                	unimp
     e64:	026d                	addi	tp,tp,27 # 1b <__stack_align+0xb>
     e66:	0000                	unimp
     e68:	01f1                	addi	gp,gp,28 # 80002794 <__global_pointer$+0x1c>
     e6a:	0000                	unimp
     e6c:	0102                	c.slli64	sp
     e6e:	021f 070f 03b2      	.insn	6, 0x03b2070f021f
     e74:	0000                	unimp
     e76:	b201                	j	776 <__stack_align+0x766>
     e78:	01000003          	lb	zero,16(zero) # 10 <__stack_align>
     e7c:	03b9                	addi	t2,t2,14
     e7e:	0000                	unimp
     e80:	c202                	sw	zero,4(sp)
     e82:	02000003          	lb	zero,32(zero) # 20 <__stack_align+0x10>
     e86:	02d6                	slli	t0,t0,0x15
     e88:	0000                	unimp
     e8a:	00034f03          	lbu	t5,0(t1)
     e8e:	0400                	addi	s0,sp,512
     e90:	0359                	addi	t1,t1,22
     e92:	0000                	unimp
     e94:	0502                	c.slli64	a0
     e96:	0001                	nop
     e98:	0209                	addi	tp,tp,2 # 2 <__boot_hart+0x2>
     e9a:	1ada                	slli	s5,s5,0x36
     e9c:	8000                	.insn	2, 0x8000
     e9e:	0000                	unimp
     ea0:	0000                	unimp
     ea2:	05010c03          	lb	s8,80(sp)
     ea6:	0305                	addi	t1,t1,1
     ea8:	0901                	addi	s2,s2,0
     eaa:	0000                	unimp
     eac:	0301                	addi	t1,t1,0
     eae:	0901                	addi	s2,s2,0
     eb0:	0000                	unimp
     eb2:	0301                	addi	t1,t1,0
     eb4:	0902                	c.slli64	s2
     eb6:	0000                	unimp
     eb8:	0501                	addi	a0,a0,0
     eba:	0601                	addi	a2,a2,0
     ebc:	00097c03          	.insn	4, 0x00097c03
     ec0:	0100                	addi	s0,sp,128
     ec2:	0c05                	addi	s8,s8,1
     ec4:	02090403          	lb	s0,32(s2)
     ec8:	0100                	addi	s0,sp,128
     eca:	0505                	addi	a0,a0,1
     ecc:	0306                	slli	t1,t1,0x1
     ece:	0901                	addi	s2,s2,0
     ed0:	0002                	c.slli64	zero
     ed2:	0501                	addi	a0,a0,0
     ed4:	060c                	addi	a1,sp,768
     ed6:	00090003          	lb	zero,0(s2)
     eda:	0100                	addi	s0,sp,128
     edc:	0505                	addi	a0,a0,1
     ede:	0306                	slli	t1,t1,0x1
     ee0:	0901                	addi	s2,s2,0
     ee2:	0002                	c.slli64	zero
     ee4:	0501                	addi	a0,a0,0
     ee6:	0608                	addi	a0,sp,768
     ee8:	00090303          	lb	t1,0(s2)
     eec:	0100                	addi	s0,sp,128
     eee:	0c05                	addi	s8,s8,1
     ef0:	04097d03          	.insn	4, 0x04097d03
     ef4:	0100                	addi	s0,sp,128
     ef6:	0505                	addi	a0,a0,1
     ef8:	0306                	slli	t1,t1,0x1
     efa:	0901                	addi	s2,s2,0
     efc:	0002                	c.slli64	zero
     efe:	0501                	addi	a0,a0,0
     f00:	0608                	addi	a0,sp,768
     f02:	00090203          	lb	tp,0(s2)
     f06:	0100                	addi	s0,sp,128
     f08:	0c05                	addi	s8,s8,1
     f0a:	02097e03          	.insn	4, 0x02097e03
     f0e:	0100                	addi	s0,sp,128
     f10:	0505                	addi	a0,a0,1
     f12:	0306                	slli	t1,t1,0x1
     f14:	0902                	c.slli64	s2
     f16:	0002                	c.slli64	zero
     f18:	0501                	addi	a0,a0,0
     f1a:	0608                	addi	a0,sp,768
     f1c:	00090003          	lb	zero,0(s2)
     f20:	0100                	addi	s0,sp,128
     f22:	0505                	addi	a0,a0,1
     f24:	0306                	slli	t1,t1,0x1
     f26:	0901                	addi	s2,s2,0
     f28:	0004                	.insn	2, 0x0004
     f2a:	0401                	addi	s0,s0,0
     f2c:	0602                	c.slli64	a2
     f2e:	04091503          	lh	a0,64(s2)
     f32:	0100                	addi	s0,sp,128
     f34:	0304                	addi	s1,sp,384
     f36:	1005                	c.nop	-31
     f38:	0200                	addi	s0,sp,256
     f3a:	0104                	addi	s1,sp,128
     f3c:	0306                	slli	t1,t1,0x1
     f3e:	0964                	addi	s1,sp,156
     f40:	0002                	c.slli64	zero
     f42:	0401                	addi	s0,s0,0
     f44:	0502                	c.slli64	a0
     f46:	0305                	addi	t1,t1,1
     f48:	0910                	addi	a2,sp,144
     f4a:	0000                	unimp
     f4c:	0501                	addi	a0,a0,0
     f4e:	060c                	addi	a1,sp,768
     f50:	00090003          	lb	zero,0(s2)
     f54:	0100                	addi	s0,sp,128
     f56:	0304                	addi	s1,sp,384
     f58:	1005                	c.nop	-31
     f5a:	0200                	addi	s0,sp,256
     f5c:	0104                	addi	s1,sp,128
     f5e:	02097003          	.insn	4, 0x02097003
     f62:	0100                	addi	s0,sp,128
     f64:	0e05                	addi	t3,t3,1
     f66:	0306                	slli	t1,t1,0x1
     f68:	0902                	c.slli64	s2
     f6a:	0002                	c.slli64	zero
     f6c:	0401                	addi	s0,s0,0
     f6e:	0502                	c.slli64	a0
     f70:	0305                	addi	t1,t1,1
     f72:	0918                	addi	a4,sp,144
     f74:	0000                	unimp
     f76:	0301                	addi	t1,t1,0
     f78:	0902                	c.slli64	s2
     f7a:	0000                	unimp
     f7c:	0301                	addi	t1,t1,0
     f7e:	090d                	addi	s2,s2,3
     f80:	0004                	.insn	2, 0x0004
     f82:	0401                	addi	s0,s0,0
     f84:	000e0503          	lb	a0,0(t3)
     f88:	0402                	c.slli64	s0
     f8a:	0601                	addi	a2,a2,0
     f8c:	00095903          	lhu	s2,0(s2)
     f90:	0100                	addi	s0,sp,128
     f92:	0104                	addi	s1,sp,128
     f94:	0505                	addi	a0,a0,1
     f96:	0306                	slli	t1,t1,0x1
     f98:	0906                	slli	s2,s2,0x1
     f9a:	0002                	c.slli64	zero
     f9c:	0401                	addi	s0,s0,0
     f9e:	0502                	c.slli64	a0
     fa0:	0320                	addi	s0,sp,392
     fa2:	097e                	slli	s2,s2,0x1f
     fa4:	0000                	unimp
     fa6:	0401                	addi	s0,s0,0
     fa8:	0501                	addi	a0,a0,0
     faa:	0305                	addi	t1,t1,1
     fac:	00040903          	lb	s2,0(s0)
     fb0:	0501                	addi	a0,a0,0
     fb2:	060c                	addi	a1,sp,768
     fb4:	00090003          	lb	zero,0(s2)
     fb8:	0100                	addi	s0,sp,128
     fba:	0505                	addi	a0,a0,1
     fbc:	0306                	slli	t1,t1,0x1
     fbe:	0901                	addi	s2,s2,0
     fc0:	000a                	c.slli	zero,0x2
     fc2:	0501                	addi	a0,a0,0
     fc4:	0015                	c.nop	5
     fc6:	0402                	c.slli64	s0
     fc8:	0301                	addi	t1,t1,0
     fca:	0900                	addi	s0,sp,144
     fcc:	0000                	unimp
     fce:	0501                	addi	a0,a0,0
     fd0:	0305                	addi	t1,t1,1
     fd2:	0901                	addi	s2,s2,0
     fd4:	0004                	.insn	2, 0x0004
     fd6:	0501                	addi	a0,a0,0
     fd8:	060e                	slli	a2,a2,0x3
     fda:	00090003          	lb	zero,0(s2)
     fde:	0100                	addi	s0,sp,128
     fe0:	0505                	addi	a0,a0,1
     fe2:	0306                	slli	t1,t1,0x1
     fe4:	0901                	addi	s2,s2,0
     fe6:	0008                	.insn	2, 0x0008
     fe8:	0401                	addi	s0,s0,0
     fea:	097b0303          	lb	t1,151(s6)
     fee:	0000                	unimp
     ff0:	0401                	addi	s0,s0,0
     ff2:	0302                	c.slli64	t1
     ff4:	0928                	addi	a0,sp,152
     ff6:	0000                	unimp
     ff8:	0401                	addi	s0,s0,0
     ffa:	0301                	addi	t1,t1,0
     ffc:	095f 0004 0401      	.insn	6, 0x04010004095f
    1002:	0502                	c.slli64	a0
    1004:	0320                	addi	s0,sp,392
    1006:	00000977          	.insn	4, 0x0977
    100a:	0401                	addi	s0,s0,0
    100c:	0501                	addi	a0,a0,0
    100e:	0305                	addi	t1,t1,1
    1010:	090a                	slli	s2,s2,0x2
    1012:	0004                	.insn	2, 0x0004
    1014:	0501                	addi	a0,a0,0
    1016:	0003060f          	.insn	4, 0x0003060f
    101a:	0009                	c.nop	2
    101c:	0100                	addi	s0,sp,128
    101e:	0105                	addi	sp,sp,1
    1020:	02090103          	lb	sp,32(s2)
    1024:	0100                	addi	s0,sp,128
    1026:	0409                	addi	s0,s0,2
    1028:	0000                	unimp
    102a:	0101                	addi	sp,sp,0
    102c:	000000bb          	addw	ra,zero,zero
    1030:	0005                	c.nop	1
    1032:	0008                	.insn	2, 0x0008
    1034:	0049                	c.nop	18
    1036:	0000                	unimp
    1038:	0101                	addi	sp,sp,0
    103a:	fb01                	bnez	a4,f4a <__stack_align+0xf3a>
    103c:	0d0e                	slli	s10,s10,0x3
    103e:	0100                	addi	s0,sp,128
    1040:	0101                	addi	sp,sp,0
    1042:	0001                	nop
    1044:	0000                	unimp
    1046:	0001                	nop
    1048:	0100                	addi	s0,sp,128
    104a:	0101                	addi	sp,sp,0
    104c:	051f 0193 0000      	.insn	6, 0x0193051f
    1052:	01ea                	slli	gp,gp,0x1a
    1054:	0000                	unimp
    1056:	026d                	addi	tp,tp,27 # 1b <__stack_align+0xb>
    1058:	0000                	unimp
    105a:	01f1                	addi	gp,gp,28 # 80002794 <__global_pointer$+0x1c>
    105c:	0000                	unimp
    105e:	0344                	addi	s1,sp,388
    1060:	0000                	unimp
    1062:	0102                	c.slli64	sp
    1064:	021f 050f 03d4      	.insn	6, 0x03d4050f021f
    106a:	0000                	unimp
    106c:	d401                	beqz	s0,f74 <__stack_align+0xf64>
    106e:	01000003          	lb	zero,16(zero) # 10 <__stack_align>
    1072:	02d6                	slli	t0,t0,0x15
    1074:	0000                	unimp
    1076:	4f02                	lw	t5,0(sp)
    1078:	03000003          	lb	zero,48(zero) # 30 <__stack_align+0x20>
    107c:	0359                	addi	t1,t1,22
    107e:	0000                	unimp
    1080:	0504                	addi	s1,sp,640
    1082:	0001                	nop
    1084:	0209                	addi	tp,tp,2 # 2 <__boot_hart+0x2>
    1086:	1b26                	slli	s6,s6,0x29
    1088:	8000                	.insn	2, 0x8000
    108a:	0000                	unimp
    108c:	0000                	unimp
    108e:	0516                	slli	a0,a0,0x5
    1090:	0305                	addi	t1,t1,1
    1092:	0901                	addi	s2,s2,0
    1094:	0000                	unimp
    1096:	0501                	addi	a0,a0,0
    1098:	0614                	addi	a3,sp,768
    109a:	00090003          	lb	zero,0(s2)
    109e:	0100                	addi	s0,sp,128
    10a0:	0e05                	addi	t3,t3,1
    10a2:	0a090003          	lb	zero,160(s2)
    10a6:	0100                	addi	s0,sp,128
    10a8:	0505                	addi	a0,a0,1
    10aa:	0306                	slli	t1,t1,0x1
    10ac:	0901                	addi	s2,s2,0
    10ae:	000c                	.insn	2, 0x000c
    10b0:	0501                	addi	a0,a0,0
    10b2:	0309                	addi	t1,t1,2
    10b4:	0901                	addi	s2,s2,0
    10b6:	0000                	unimp
    10b8:	0501                	addi	a0,a0,0
    10ba:	0612                	slli	a2,a2,0x4
    10bc:	00090003          	lb	zero,0(s2)
    10c0:	0100                	addi	s0,sp,128
    10c2:	0905                	addi	s2,s2,1
    10c4:	0200                	addi	s0,sp,256
    10c6:	0104                	addi	s1,sp,128
    10c8:	0306                	slli	t1,t1,0x1
    10ca:	0901                	addi	s2,s2,0
    10cc:	0008                	.insn	2, 0x0008
    10ce:	0501                	addi	a0,a0,0
    10d0:	0010                	.insn	2, 0x0010
    10d2:	0402                	c.slli64	s0
    10d4:	0601                	addi	a2,a2,0
    10d6:	00090003          	lb	zero,0(s2)
    10da:	0100                	addi	s0,sp,128
    10dc:	0505                	addi	a0,a0,1
    10de:	0306                	slli	t1,t1,0x1
    10e0:	097e                	slli	s2,s2,0x1f
    10e2:	0002                	c.slli64	zero
    10e4:	0901                	addi	s2,s2,0
    10e6:	0002                	c.slli64	zero
    10e8:	0100                	addi	s0,sp,128
    10ea:	Address 0x10ea is out of bounds.


Disassembly of section .debug_str:

0000000000000000 <.debug_str>:
   0:	6f6c                	ld	a1,216(a4)
   2:	676e                	ld	a4,216(sp)
   4:	6c20                	ld	s0,88(s0)
   6:	20676e6f          	jal	t3,7620c <__heap_size+0x5620c>
   a:	6e69                	lui	t3,0x1a
   c:	0074                	addi	a3,sp,12
   e:	6874                	ld	a3,208(s0)
  10:	6572                	ld	a0,280(sp)
  12:	6461                	lui	s0,0x18
  14:	736e6573          	csrrsi	a0,mhpmevent22h,28
  18:	0065                	c.nop	25
  1a:	6e75                	lui	t3,0x1d
  1c:	6e676973          	csrrsi	s2,0x6e6,14
  20:	6465                	lui	s0,0x19
  22:	6320                	ld	s0,64(a4)
  24:	6168                	ld	a0,192(a0)
  26:	0072                	c.slli	zero,0x1c
  28:	5f5f 6d74 0070      	.insn	6, 0x00706d745f5f
  2e:	5f5f 616d 6e69      	.insn	6, 0x6e69616d5f5f
  34:	6e00                	ld	s0,24(a2)
  36:	635f 726f 7365      	.insn	6, 0x7365726f635f
  3c:	6c00                	ld	s0,24(s0)
  3e:	20676e6f          	jal	t3,76244 <__heap_size+0x56244>
  42:	6f6c                	ld	a1,216(a4)
  44:	676e                	ld	a4,216(sp)
  46:	7520                	ld	s0,104(a0)
  48:	736e                	ld	t1,248(sp)
  4a:	6769                	lui	a4,0x1a
  4c:	656e                	ld	a0,216(sp)
  4e:	2064                	fld	fs1,192(s0)
  50:	6e69                	lui	t3,0x1a
  52:	0074                	addi	a3,sp,12
  54:	616d                	addi	sp,sp,240
  56:	6372                	ld	t1,280(sp)
  58:	6968                	ld	a0,208(a0)
  5a:	0064                	addi	s1,sp,12
  5c:	6162                	ld	sp,24(sp)
  5e:	7272                	ld	tp,312(sp)
  60:	6569                	lui	a0,0x1a
  62:	0072                	c.slli	zero,0x1c
  64:	6e756f63          	bltu	a0,t2,762 <__stack_align+0x752>
  68:	0074                	addi	a3,sp,12
  6a:	20554e47          	fmsub.s	ft8,fa0,ft5,ft4,rmm
  6e:	20393943          	fmadd.s	fs2,fs2,ft3,ft4,rup
  72:	3331                	addiw	t1,t1,-20
  74:	322e                	fld	ft4,232(sp)
  76:	302e                	fld	ft0,232(sp)
  78:	2d20                	fld	fs0,88(a0)
  7a:	636d                	lui	t1,0x1b
  7c:	6f6d                	lui	t5,0x1b
  7e:	6564                	ld	s1,200(a0)
  80:	3d6c                	fld	fa1,248(a0)
  82:	656d                	lui	a0,0x1b
  84:	6164                	ld	s1,192(a0)
  86:	796e                	ld	s2,248(sp)
  88:	2d20                	fld	fs0,88(a0)
  8a:	616d                	addi	sp,sp,240
  8c:	6962                	ld	s2,24(sp)
  8e:	6c3d                	lui	s8,0xf
  90:	3670                	fld	fa2,232(a2)
  92:	6434                	ld	a3,72(s0)
  94:	2d20                	fld	fs0,88(a0)
  96:	636d                	lui	t1,0x1b
  98:	6f6d                	lui	t5,0x1b
  9a:	6564                	ld	s1,200(a0)
  9c:	3d6c                	fld	fa1,248(a0)
  9e:	656d                	lui	a0,0x1b
  a0:	6164                	ld	s1,192(a0)
  a2:	796e                	ld	s2,248(sp)
  a4:	2d20                	fld	fs0,88(a0)
  a6:	746d                	lui	s0,0xffffb
  a8:	6e75                	lui	t3,0x1d
  aa:	3d65                	addiw	s10,s10,-7
  ac:	6f72                	ld	t5,280(sp)
  ae:	74656b63          	bltu	a0,t1,804 <__stack_align+0x7f4>
  b2:	2d20                	fld	fs0,88(a0)
  b4:	696d                	lui	s2,0x1b
  b6:	732d6173          	csrrsi	sp,mhpmevent18h,26
  ba:	6570                	ld	a2,200(a0)
  bc:	30323d63          	.insn	4, 0x30323d63
  c0:	3931                	addiw	s2,s2,-20 # 1afec <__stack_size+0x12fec>
  c2:	3231                	addiw	tp,tp,-20 # ffffffffffffffec <__heap_end+0xffffffff7ffdcfec>
  c4:	3331                	addiw	t1,t1,-20 # 1afec <__stack_size+0x12fec>
  c6:	2d20                	fld	fs0,88(a0)
  c8:	616d                	addi	sp,sp,240
  ca:	6372                	ld	t1,280(sp)
  cc:	3d68                	fld	fa0,248(a0)
  ce:	7672                	ld	a2,312(sp)
  d0:	3436                	fld	fs0,360(sp)
  d2:	6d69                	lui	s10,0x1a
  d4:	6661                	lui	a2,0x18
  d6:	5f64                	lw	s1,124(a4)
  d8:	697a                	ld	s2,408(sp)
  da:	20727363          	bgeu	tp,t2,2e0 <__stack_align+0x2d0>
  de:	672d                	lui	a4,0xb
  e0:	2d20                	fld	fs0,88(a0)
  e2:	2d20324f          	.insn	4, 0x2d20324f
  e6:	3d647473          	csrrci	s0,0x3d6,8
  ea:	39756e67          	.insn	4, 0x39756e67
  ee:	2039                	.insn	2, 0x2039
  f0:	662d                	lui	a2,0xb
  f2:	6f6e                	ld	t5,216(sp)
  f4:	632d                	lui	t1,0xb
  f6:	6f6d6d6f          	jal	s10,d67ec <__heap_size+0xb67ec>
  fa:	206e                	fld	ft0,216(sp)
  fc:	662d                	lui	a2,0xb
  fe:	6f6e                	ld	t5,216(sp)
 100:	622d                	lui	tp,0xb
 102:	6975                	lui	s2,0x1d
 104:	746c                	ld	a1,232(s0)
 106:	6e69                	lui	t3,0x1a
 108:	702d                	c.lui	zero,0xfffeb
 10a:	6972                	ld	s2,280(sp)
 10c:	746e                	ld	s0,248(sp)
 10e:	0066                	c.slli	zero,0x19
 110:	726f6873          	csrrsi	a6,mhpmevent6h,30
 114:	2074                	fld	fa3,192(s0)
 116:	6e75                	lui	t3,0x1d
 118:	6e676973          	csrrsi	s2,0x6e6,14
 11c:	6465                	lui	s0,0x19
 11e:	6920                	ld	s0,80(a0)
 120:	746e                	ld	s0,248(sp)
 122:	6700                	ld	s0,8(a4)
 124:	7465                	lui	s0,0xffff9
 126:	6d5f 7261 6863      	.insn	6, 0x686372616d5f
 12c:	7300                	ld	s0,32(a4)
 12e:	6f68                	ld	a0,216(a4)
 130:	7472                	ld	s0,312(sp)
 132:	6920                	ld	s0,80(a0)
 134:	746e                	ld	s0,248(sp)
 136:	6d00                	ld	s0,24(a0)
 138:	6168                	ld	a0,192(a0)
 13a:	7472                	ld	s0,312(sp)
 13c:	6469                	lui	s0,0x1a
 13e:	5f00                	lw	s0,56(a4)
 140:	736f6c63          	bltu	t5,s6,878 <__stack_align+0x868>
 144:	0065                	c.nop	25
 146:	6966                	ld	s2,88(sp)
 148:	656c                	ld	a1,200(a0)
 14a:	4700                	lw	s0,8(a4)
 14c:	554e                	lw	a0,240(sp)
 14e:	4320                	lw	s0,64(a4)
 150:	3131                	addiw	sp,sp,-20
 152:	3120                	fld	fs0,96(a0)
 154:	2e322e33          	.insn	4, 0x2e322e33
 158:	2030                	fld	fa2,64(s0)
 15a:	6d2d                	lui	s10,0xb
 15c:	646f6d63          	bltu	t5,t1,7b6 <__stack_align+0x7a6>
 160:	6c65                	lui	s8,0x19
 162:	6d3d                	lui	s10,0xf
 164:	6465                	lui	s0,0x19
 166:	6e61                	lui	t3,0x18
 168:	2079                	.insn	2, 0x2079
 16a:	6d2d                	lui	s10,0xb
 16c:	7574                	ld	a3,232(a0)
 16e:	656e                	ld	a0,216(sp)
 170:	723d                	lui	tp,0xfffef
 172:	656b636f          	jal	t1,b67c8 <__heap_size+0x967c8>
 176:	2074                	fld	fa3,192(s0)
 178:	6d2d                	lui	s10,0xb
 17a:	6261                	lui	tp,0x18
 17c:	3d69                	addiw	s10,s10,-6 # affa <__stack_size+0x2ffa>
 17e:	706c                	ld	a1,224(s0)
 180:	3436                	fld	fs0,360(sp)
 182:	2064                	fld	fs1,192(s0)
 184:	6d2d                	lui	s10,0xb
 186:	7369                	lui	t1,0xffffa
 188:	2d61                	addiw	s10,s10,24 # b018 <__stack_size+0x3018>
 18a:	63657073          	csrci	0x636,10
 18e:	323d                	addiw	tp,tp,-17 # 17fef <__stack_size+0xffef>
 190:	3130                	fld	fa2,96(a0)
 192:	3139                	addiw	sp,sp,-18
 194:	3132                	fld	ft2,296(sp)
 196:	6d2d2033          	.insn	4, 0x6d2d2033
 19a:	7261                	lui	tp,0xffff8
 19c:	723d6863          	bltu	s10,gp,8cc <__stack_align+0x8bc>
 1a0:	3676                	fld	fa2,376(sp)
 1a2:	6934                	ld	a3,80(a0)
 1a4:	616d                	addi	sp,sp,240
 1a6:	6466                	ld	s0,88(sp)
 1a8:	697a5f63          	bge	s4,s7,846 <__stack_align+0x836>
 1ac:	20727363          	bgeu	tp,t2,3b2 <__stack_align+0x3a2>
 1b0:	672d                	lui	a4,0xb
 1b2:	2d20                	fld	fs0,88(a0)
 1b4:	2d20324f          	.insn	4, 0x2d20324f
 1b8:	3d647473          	csrrci	s0,0x3d6,8
 1bc:	20313163          	.insn	4, 0x20313163
 1c0:	662d                	lui	a2,0xb
 1c2:	6f6e                	ld	t5,216(sp)
 1c4:	632d                	lui	t1,0xb
 1c6:	6f6d6d6f          	jal	s10,d68bc <__heap_size+0xb68bc>
 1ca:	206e                	fld	ft0,216(sp)
 1cc:	662d                	lui	a2,0xb
 1ce:	6f6e                	ld	t5,216(sp)
 1d0:	622d                	lui	tp,0xb
 1d2:	6975                	lui	s2,0x1d
 1d4:	746c                	ld	a1,232(s0)
 1d6:	6e69                	lui	t3,0x1a
 1d8:	5f00                	lw	s0,56(a4)
 1da:	655f 7272 6f6e      	.insn	6, 0x6f6e7272655f
 1e0:	6c00                	ld	s0,24(s0)
 1e2:	20676e6f          	jal	t3,763e8 <__heap_size+0x563e8>
 1e6:	6f64                	ld	s1,216(a4)
 1e8:	6275                	lui	tp,0x1d
 1ea:	656c                	ld	a1,200(a0)
 1ec:	5f00                	lw	s0,56(a4)
 1ee:	755f 6469 745f      	.insn	6, 0x745f6469755f
 1f4:	7300                	ld	s0,32(a4)
 1f6:	5f74                	lw	a3,124(a4)
 1f8:	6c6e                	ld	s8,216(sp)
 1fa:	6e69                	lui	t3,0x1a
 1fc:	7674006b          	.insn	4, 0x7674006b
 200:	6e5f 6573 0063      	.insn	6, 0x006365736e5f
 206:	735f7473          	csrrci	s0,mhpmevent21h,30
 20a:	7a69                	lui	s4,0xffffa
 20c:	0065                	c.nop	25
 20e:	6d5f7473          	csrrci	s0,0x6d5,30
 212:	6974                	ld	a3,208(a0)
 214:	006d                	c.nop	27
 216:	695f7473          	csrrci	s0,0x695,30
 21a:	6f6e                	ld	t5,216(sp)
 21c:	7300                	ld	s0,32(a4)
 21e:	5f74                	lw	a3,124(a4)
 220:	6c62                	ld	s8,24(sp)
 222:	7a69736b          	.insn	4, 0x7a69736b
 226:	0065                	c.nop	25
 228:	735f7473          	csrrci	s0,mhpmevent21h,30
 22c:	6170                	ld	a2,192(a0)
 22e:	6572                	ld	a0,280(sp)
 230:	0034                	addi	a3,sp,8
 232:	5f5f 6564 5f76      	.insn	6, 0x5f7665645f5f
 238:	0074                	addi	a3,sp,12
 23a:	625f7473          	csrrci	s0,0x625,30
 23e:	6f6c                	ld	a1,216(a4)
 240:	00736b63          	bltu	t1,t2,256 <__stack_align+0x246>
 244:	6d5f7473          	csrrci	s0,0x6d5,30
 248:	0065646f          	jal	s0,5624e <__heap_size+0x3624e>
 24c:	615f7473          	csrrci	s0,htimedeltah,30
 250:	6974                	ld	a3,208(a0)
 252:	006d                	c.nop	27
 254:	6974                	ld	a3,208(a0)
 256:	656d                	lui	a0,0x1b
 258:	745f 5f00 6e5f      	.insn	6, 0x6e5f5f00745f
 25e:	696c                	ld	a1,208(a0)
 260:	6b6e                	ld	s6,216(sp)
 262:	745f 5f00 755f      	.insn	6, 0x755f5f00745f
 268:	6e69                	lui	t3,0x1a
 26a:	3374                	fld	fa3,224(a4)
 26c:	5f32                	lw	t5,44(sp)
 26e:	0074                	addi	a3,sp,12
 270:	725f7473          	csrrci	s0,mhpmevent5h,30
 274:	6564                	ld	s1,200(a0)
 276:	0076                	c.slli	zero,0x1d
 278:	5f5f 6c62 736b      	.insn	6, 0x736b6c625f5f
 27e:	7a69                	lui	s4,0xffffa
 280:	5f65                	li	t5,-7
 282:	0074                	addi	a3,sp,12
 284:	5f5f 6c62 636b      	.insn	6, 0x636b6c625f5f
 28a:	746e                	ld	s0,248(sp)
 28c:	745f 7300 5f74      	.insn	6, 0x5f747300745f
 292:	6d697463          	bgeu	s2,s6,95a <__stack_align+0x94a>
 296:	7300                	ld	s0,32(a4)
 298:	5f74                	lw	a3,124(a4)
 29a:	6975                	lui	s2,0x1d
 29c:	0064                	addi	s1,sp,12
 29e:	5f5f 6967 5f64      	.insn	6, 0x5f6469675f5f
 2a4:	0074                	addi	a3,sp,12
 2a6:	5f5f 666f 5f66      	.insn	6, 0x5f66666f5f5f
 2ac:	0074                	addi	a3,sp,12
 2ae:	7674                	ld	a3,232(a2)
 2b0:	735f 6365 7400      	.insn	6, 0x74006365735f
 2b6:	6d69                	lui	s10,0x1a
 2b8:	7365                	lui	t1,0xffff9
 2ba:	6570                	ld	a2,200(a0)
 2bc:	665f0063          	beq	t5,t0,91c <__stack_align+0x90c>
 2c0:	74617473          	csrrci	s0,0x746,2
 2c4:	5f00                	lw	s0,56(a4)
 2c6:	6d5f 646f 5f65      	.insn	6, 0x5f65646f6d5f
 2cc:	0074                	addi	a3,sp,12
 2ce:	5f5f 6e69 5f6f      	.insn	6, 0x5f6f6e695f5f
 2d4:	0074                	addi	a3,sp,12
 2d6:	645f7473          	csrrci	s0,hvip,30
 2da:	7665                	lui	a2,0xffff9
 2dc:	7300                	ld	s0,32(a4)
 2de:	5f74                	lw	a3,124(a4)
 2e0:	00646967          	.insn	4, 0x00646967
 2e4:	695f 6173 7474      	.insn	6, 0x74746173695f
 2ea:	0079                	c.nop	30
 2ec:	6c5f 6573 6b65      	.insn	6, 0x6b6565736c5f
 2f2:	5f00                	lw	s0,56(a4)
 2f4:	6572                	ld	a0,280(sp)
 2f6:	6461                	lui	s0,0x18
 2f8:	5f00                	lw	s0,56(a4)
 2fa:	7a697373          	csrrci	t1,0x7a6,18
 2fe:	5f65                	li	t5,-7
 300:	0074                	addi	a3,sp,12
 302:	7470                	ld	a2,232(s0)
 304:	6472                	ld	s0,280(sp)
 306:	6669                	lui	a2,0x1a
 308:	5f66                	lw	t5,120(sp)
 30a:	0074                	addi	a3,sp,12
 30c:	5f5f 6568 7061      	.insn	6, 0x706165685f5f
 312:	655f 646e 6300      	.insn	6, 0x6300646e655f
 318:	7275                	lui	tp,0xffffd
 31a:	7262                	ld	tp,56(sp)
 31c:	735f006b          	.insn	4, 0x735f006b
 320:	7262                	ld	tp,56(sp)
 322:	6e69006b          	.insn	4, 0x6e69006b
 326:	6f007263          	bgeu	zero,a6,a0a <__stack_align+0x9fa>
 32a:	646c                	ld	a1,200(s0)
 32c:	7262                	ld	tp,56(sp)
 32e:	656e006b          	.insn	4, 0x656e006b
 332:	6b726277          	.insn	4, 0x6b726277
 336:	6800                	ld	s0,16(s0)
 338:	6974                	ld	a3,208(a0)
 33a:	5f66                	lw	t5,120(sp)
 33c:	63737973          	csrrci	s2,0x637,6
 340:	6c61                	lui	s8,0x18
 342:	006c                	addi	a1,sp,12
 344:	5f5f 6975 746e      	.insn	6, 0x746e69755f5f
 34a:	7470                	ld	a2,232(s0)
 34c:	5f72                	lw	t5,60(sp)
 34e:	0074                	addi	a3,sp,12
 350:	775f 6972 6574      	.insn	6, 0x65746972775f
 356:	5f00                	lw	s0,56(a4)
 358:	755f 6e69 3674      	.insn	6, 0x36746e69755f
 35e:	5f34                	lw	a3,120(a4)
 360:	0074                	addi	a3,sp,12
 362:	2e2e                	fld	ft8,200(sp)
 364:	73696d2f          	.insn	4, 0x73696d2f
 368:	72632f63          	.insn	4, 0x72632f63
 36c:	3074                	fld	fa3,224(s0)
 36e:	532e                	lw	t1,232(sp)
 370:	2f00                	fld	fs0,24(a4)
 372:	6f68                	ld	a0,216(a4)
 374:	656d                	lui	a0,0x1b
 376:	6172662f          	.insn	4, 0x6172662f
 37a:	6b6e                	ld	s6,216(sp)
 37c:	7365682f          	.insn	4, 0x7365682f
 380:	2f6c                	fld	fa1,216(a4)
 382:	6574                	ld	a3,200(a0)
 384:	725f7473          	csrrci	s0,mhpmevent5h,30
 388:	7369                	lui	t1,0xffffa
 38a:	632f7663          	bgeu	t5,s2,9b6 <__stack_align+0x9a6>
 38e:	6968                	ld	a0,208(a0)
 390:	7970                	ld	a2,240(a0)
 392:	7261                	lui	tp,0xffff8
 394:	2f64                	fld	fs1,216(a4)
 396:	70696863          	bltu	s2,t1,aa6 <__stack_align+0xa96>
 39a:	6179                	addi	sp,sp,464
 39c:	6472                	ld	s0,280(sp)
 39e:	6f6f742f          	.insn	4, 0x6f6f742f
 3a2:	636c                	ld	a1,192(a4)
 3a4:	6168                	ld	a0,192(a0)
 3a6:	6e69                	lui	t3,0x1a
 3a8:	696c2f73          	csrrs	t5,0x696,s8
 3ac:	6762                	ld	a4,24(sp)
 3ae:	6f6c                	ld	a1,216(a4)
 3b0:	622f7373          	csrrci	t1,0x622,30
 3b4:	6975                	lui	s2,0x1d
 3b6:	646c                	ld	a1,200(s0)
 3b8:	4700                	lw	s0,8(a4)
 3ba:	554e                	lw	a0,240(sp)
 3bc:	4120                	lw	s0,64(a0)
 3be:	2e322053          	.insn	4, 0x2e322053
 3c2:	3234                	fld	fa3,96(a2)
 3c4:	2e00                	fld	fs0,24(a2)
 3c6:	2f2e                	fld	ft10,200(sp)
 3c8:	696d                	lui	s2,0x1b
 3ca:	632f6373          	csrrsi	t1,0x632,30
 3ce:	7472                	ld	s0,312(sp)
 3d0:	616d                	addi	sp,sp,240
 3d2:	6e69                	lui	t3,0x1a
 3d4:	532e                	lw	t1,232(sp)
 3d6:	6800                	ld	s0,16(s0)
 3d8:	6e61                	lui	t3,0x18
 3da:	6c64                	ld	s1,216(s0)
 3dc:	5f65                	li	t5,-7
 3de:	7274                	ld	a3,224(a2)
 3e0:	7061                	c.lui	zero,0xffff8
 3e2:	6300                	ld	s0,0(a4)
 3e4:	7561                	lui	a0,0xffff8
 3e6:	5f006573          	csrrsi	a0,0x5f0,0
 3ea:	7865                	lui	a6,0xffff9
 3ec:	7469                	lui	s0,0xffffa
 3ee:	5f00                	lw	s0,56(a4)
 3f0:	695f 746e 7470      	.insn	6, 0x7470746e695f
 3f6:	5f72                	lw	t5,60(sp)
 3f8:	0074                	addi	a3,sp,12
 3fa:	6572                	ld	a0,280(sp)
 3fc:	63007367          	.insn	4, 0x63007367
 400:	0065646f          	jal	s0,56406 <__heap_size+0x36406>
 404:	7674                	ld	a3,232(a2)
 406:	6c61                	lui	s8,0x18
 408:	5f00                	lw	s0,56(a4)
 40a:	695f 696e 5f74      	.insn	6, 0x5f74696e695f
 410:	6c74                	ld	a3,216(s0)
 412:	5f5f0073          	.insn	4, 0x5f5f0073
 416:	6474                	ld	a3,200(s0)
 418:	7461                	lui	s0,0xffff8
 41a:	5f61                	li	t5,-8
 41c:	657a6973          	csrrsi	s2,hviprio2h,20
 420:	5f00                	lw	s0,56(a4)
 422:	745f 7362 5f73      	.insn	6, 0x5f737362745f
 428:	7366666f          	jal	a2,66b5e <__heap_size+0x46b5e>
 42c:	7465                	lui	s0,0xffff9
 42e:	5f00                	lw	s0,56(a4)
 430:	745f 7268 6165      	.insn	6, 0x61657268745f
 436:	5f64                	lw	s1,124(a4)
 438:	666c6573          	csrrsi	a0,0x666,24
 43c:	5f00                	lw	s0,56(a4)
 43e:	745f 7362 5f73      	.insn	6, 0x5f737362745f
 444:	657a6973          	csrrsi	s2,hviprio2h,20
 448:	6d00                	ld	s0,24(a0)
 44a:	6d65                	lui	s10,0x19
 44c:	00797063          	bgeu	s2,t2,44c <__stack_align+0x43c>
 450:	5f5f 6474 7461      	.insn	6, 0x746164745f5f
 456:	5f61                	li	t5,-8
 458:	72617473          	csrrci	s0,mhpmevent6h,2
 45c:	0074                	addi	a3,sp,12
 45e:	656d                	lui	a0,0x1b
 460:	736d                	lui	t1,0xffffb
 462:	7465                	lui	s0,0xffff9
 464:	7300                	ld	s0,32(a4)
 466:	6970                	ld	a2,208(a0)
 468:	6c6e                	ld	s8,216(sp)
 46a:	5f6b636f          	jal	t1,b6a60 <__heap_size+0x96a60>
 46e:	0074                	addi	a3,sp,12
 470:	7266                	ld	tp,120(sp)
 472:	6f686d6f          	jal	s10,86b68 <__heap_size+0x66b68>
 476:	74007473          	csrrci	s0,0x740,0
 47a:	736f686f          	jal	a6,f6bb0 <__heap_size+0xd6bb0>
 47e:	0074                	addi	a3,sp,12
 480:	5f5f 6e69 3374      	.insn	6, 0x33746e695f5f
 486:	5f32                	lw	t5,44(sp)
 488:	0074                	addi	a3,sp,12
 48a:	7468                	ld	a0,232(s0)
 48c:	6669                	lui	a2,0x1a
 48e:	6c5f 636f 006b      	.insn	6, 0x006b636f6c5f
 494:	7461                	lui	s0,0xffff8
 496:	63696d6f          	jal	s10,96acc <__heap_size+0x76acc>
 49a:	735f 6177 5f70      	.insn	6, 0x5f706177735f
 4a0:	6361                	lui	t1,0x18
 4a2:	7571                	lui	a0,0xffffc
 4a4:	7269                	lui	tp,0xffffa
 4a6:	0065                	c.nop	25
 4a8:	7461                	lui	s0,0xffff8
 4aa:	63696d6f          	jal	s10,96ae0 <__heap_size+0x76ae0>
 4ae:	745f 6100 6f74      	.insn	6, 0x6f746100745f
 4b4:	696d                	lui	s2,0x1b
 4b6:	6f6c5f63          	bge	s8,s6,bb4 <__stack_align+0xba4>
 4ba:	6461                	lui	s0,0x18
 4bc:	7300                	ld	s0,32(a4)
 4be:	6970                	ld	a2,208(a0)
 4c0:	5f6e                	lw	t5,248(sp)
 4c2:	6f6c                	ld	a1,216(a4)
 4c4:	73006b63          	bltu	zero,a6,bfa <__stack_align+0xbea>
 4c8:	6970                	ld	a2,208(a0)
 4ca:	5f6e                	lw	t5,248(sp)
 4cc:	6e75                	lui	t3,0x1d
 4ce:	6f6c                	ld	a1,216(a4)
 4d0:	61006b63          	bltu	zero,a6,ae6 <__stack_align+0xad6>
 4d4:	6f74                	ld	a3,216(a4)
 4d6:	696d                	lui	s2,0x1b
 4d8:	6c635f63          	bge	t1,t1,bb6 <__stack_align+0xba6>
 4dc:	6165                	addi	sp,sp,112
 4de:	5f72                	lw	t5,60(sp)
 4e0:	6572                	ld	a0,280(sp)
 4e2:	656c                	ld	a1,200(a0)
 4e4:	7361                	lui	t1,0xffff8
 4e6:	0065                	c.nop	25

Disassembly of section .debug_line_str:

0000000000000000 <.debug_line_str>:
   0:	6d6f682f          	.insn	4, 0x6d6f682f
   4:	2f65                	addiw	t5,t5,25 # 1b019 <__stack_size+0x13019>
   6:	7266                	ld	tp,120(sp)
   8:	6e61                	lui	t3,0x18
   a:	65682f6b          	.insn	4, 0x65682f6b
   e:	742f6c73          	csrrsi	s8,0x742,30
  12:	7365                	lui	t1,0xffff9
  14:	5f74                	lw	a3,124(a4)
  16:	6972                	ld	s2,280(sp)
  18:	2f766373          	csrrsi	t1,0x2f7,12
  1c:	70696863          	bltu	s2,t1,72c <__stack_align+0x71c>
  20:	6179                	addi	sp,sp,464
  22:	6472                	ld	s0,280(sp)
  24:	6968632f          	.insn	4, 0x6968632f
  28:	7970                	ld	a2,240(a0)
  2a:	7261                	lui	tp,0xffff8
  2c:	2f64                	fld	fs1,216(a4)
  2e:	6574                	ld	a3,200(a0)
  30:	2f737473          	csrrci	s0,0x2f7,6
  34:	746d                	lui	s0,0xffffb
  36:	682d                	lui	a6,0xb
  38:	6c65                	lui	s8,0x19
  3a:	6f6c                	ld	a1,216(a4)
  3c:	632e                	ld	t1,200(sp)
  3e:	2f00                	fld	fs0,24(a4)
  40:	6f68                	ld	a0,216(a4)
  42:	656d                	lui	a0,0x1b
  44:	6172662f          	.insn	4, 0x6172662f
  48:	6b6e                	ld	s6,216(sp)
  4a:	7365682f          	.insn	4, 0x7365682f
  4e:	2f6c                	fld	fa1,216(a4)
  50:	6574                	ld	a3,200(a0)
  52:	725f7473          	csrrci	s0,mhpmevent5h,30
  56:	7369                	lui	t1,0xffffa
  58:	632f7663          	bgeu	t5,s2,684 <__stack_align+0x674>
  5c:	6968                	ld	a0,208(a0)
  5e:	7970                	ld	a2,240(a0)
  60:	7261                	lui	tp,0xffff8
  62:	2f64                	fld	fs1,216(a4)
  64:	70696863          	bltu	s2,t1,774 <__stack_align+0x764>
  68:	6179                	addi	sp,sp,464
  6a:	6472                	ld	s0,280(sp)
  6c:	6975622f          	.insn	4, 0x6975622f
  70:	646c                	ld	a1,200(s0)
  72:	2f00                	fld	fs0,24(a4)
  74:	6f68                	ld	a0,216(a4)
  76:	656d                	lui	a0,0x1b
  78:	6172662f          	.insn	4, 0x6172662f
  7c:	6b6e                	ld	s6,216(sp)
  7e:	7365682f          	.insn	4, 0x7365682f
  82:	2f6c                	fld	fa1,216(a4)
  84:	6574                	ld	a3,200(a0)
  86:	725f7473          	csrrci	s0,mhpmevent5h,30
  8a:	7369                	lui	t1,0xffffa
  8c:	632f7663          	bgeu	t5,s2,6b8 <__stack_align+0x6a8>
  90:	6968                	ld	a0,208(a0)
  92:	7970                	ld	a2,240(a0)
  94:	7261                	lui	tp,0xffff8
  96:	2f64                	fld	fs1,216(a4)
  98:	70696863          	bltu	s2,t1,7a8 <__stack_align+0x798>
  9c:	6179                	addi	sp,sp,464
  9e:	6472                	ld	s0,280(sp)
  a0:	7365742f          	.insn	4, 0x7365742f
  a4:	7374                	ld	a3,224(a4)
  a6:	2f00                	fld	fs0,24(a4)
  a8:	6f68                	ld	a0,216(a4)
  aa:	656d                	lui	a0,0x1b
  ac:	6172662f          	.insn	4, 0x6172662f
  b0:	6b6e                	ld	s6,216(sp)
  b2:	7365682f          	.insn	4, 0x7365682f
  b6:	2f6c                	fld	fa1,216(a4)
  b8:	6574                	ld	a3,200(a0)
  ba:	725f7473          	csrrci	s0,mhpmevent5h,30
  be:	7369                	lui	t1,0xffffa
  c0:	632f7663          	bgeu	t5,s2,6ec <__stack_align+0x6dc>
  c4:	6968                	ld	a0,208(a0)
  c6:	7970                	ld	a2,240(a0)
  c8:	7261                	lui	tp,0xffff8
  ca:	2f64                	fld	fs1,216(a4)
  cc:	70696863          	bltu	s2,t1,7dc <__stack_align+0x7cc>
  d0:	6179                	addi	sp,sp,464
  d2:	6472                	ld	s0,280(sp)
  d4:	6f632e2f          	.insn	4, 0x6f632e2f
  d8:	646e                	ld	s0,216(sp)
  da:	2d61                	addiw	s10,s10,24 # 19018 <__stack_size+0x11018>
  dc:	6e65                	lui	t3,0x19
  de:	2f76                	fld	ft10,344(sp)
  e0:	6972                	ld	s2,280(sp)
  e2:	2d766373          	csrrsi	t1,0x2d7,12
  e6:	6f74                	ld	a3,216(a4)
  e8:	2f736c6f          	jal	s8,36bde <__heap_size+0x16bde>
  ec:	6972                	ld	s2,280(sp)
  ee:	36766373          	csrrsi	t1,0x367,12
  f2:	2d34                	fld	fa3,88(a0)
  f4:	6e75                	lui	t3,0x1d
  f6:	776f6e6b          	.insn	4, 0x776f6e6b
  fa:	2d6e                	fld	fs10,216(sp)
  fc:	6c65                	lui	s8,0x19
  fe:	2f66                	fld	ft10,88(sp)
 100:	6e69                	lui	t3,0x1a
 102:	64756c63          	bltu	a0,t2,75a <__stack_align+0x74a>
 106:	0065                	c.nop	25
 108:	6d6f682f          	.insn	4, 0x6d6f682f
 10c:	2f65                	addiw	t5,t5,25
 10e:	7266                	ld	tp,120(sp)
 110:	6e61                	lui	t3,0x18
 112:	65682f6b          	.insn	4, 0x65682f6b
 116:	742f6c73          	csrrsi	s8,0x742,30
 11a:	7365                	lui	t1,0xffff9
 11c:	5f74                	lw	a3,124(a4)
 11e:	6972                	ld	s2,280(sp)
 120:	2f766373          	csrrsi	t1,0x2f7,12
 124:	70696863          	bltu	s2,t1,834 <__stack_align+0x824>
 128:	6179                	addi	sp,sp,464
 12a:	6472                	ld	s0,280(sp)
 12c:	6968632f          	.insn	4, 0x6968632f
 130:	7970                	ld	a2,240(a0)
 132:	7261                	lui	tp,0xffff8
 134:	2f64                	fld	fs1,216(a4)
 136:	632e                	ld	t1,200(sp)
 138:	61646e6f          	jal	t3,4674e <__heap_size+0x2674e>
 13c:	652d                	lui	a0,0xb
 13e:	766e                	ld	a2,248(sp)
 140:	7369722f          	.insn	4, 0x7369722f
 144:	742d7663          	bgeu	s10,sp,890 <__stack_align+0x880>
 148:	736c6f6f          	jal	t5,c687e <__heap_size+0xa687e>
 14c:	62696c2f          	.insn	4, 0x62696c2f
 150:	6363672f          	.insn	4, 0x6363672f
 154:	7369722f          	.insn	4, 0x7369722f
 158:	34367663          	bgeu	a2,gp,4a4 <__stack_align+0x494>
 15c:	752d                	lui	a0,0xfffeb
 15e:	6b6e                	ld	s6,216(sp)
 160:	6f6e                	ld	t5,216(sp)
 162:	652d6e77          	.insn	4, 0x652d6e77
 166:	666c                	ld	a1,200(a2)
 168:	2e33312f          	.insn	4, 0x2e33312f
 16c:	2e32                	fld	ft8,264(sp)
 16e:	2f30                	fld	fa2,88(a4)
 170:	6e69                	lui	t3,0x1a
 172:	64756c63          	bltu	a0,t2,7ca <__stack_align+0x7ba>
 176:	0065                	c.nop	25
 178:	616d                	addi	sp,sp,240
 17a:	6372                	ld	t1,280(sp)
 17c:	6968                	ld	a0,208(a0)
 17e:	2e64                	fld	fs1,216(a2)
 180:	0068                	addi	a0,sp,12
 182:	69647473          	csrrci	s0,0x696,8
 186:	00682e6f          	jal	t3,8218c <__heap_size+0x6218c>
 18a:	64647473          	csrrci	s0,hviprio1,8
 18e:	6665                	lui	a2,0x19
 190:	682e                	ld	a6,200(sp)
 192:	2f00                	fld	fs0,24(a4)
 194:	6f68                	ld	a0,216(a4)
 196:	656d                	lui	a0,0x1b
 198:	6172662f          	.insn	4, 0x6172662f
 19c:	6b6e                	ld	s6,216(sp)
 19e:	7365682f          	.insn	4, 0x7365682f
 1a2:	2f6c                	fld	fa1,216(a4)
 1a4:	6574                	ld	a3,200(a0)
 1a6:	725f7473          	csrrci	s0,mhpmevent5h,30
 1aa:	7369                	lui	t1,0xffffa
 1ac:	632f7663          	bgeu	t5,s2,7d8 <__stack_align+0x7c8>
 1b0:	6968                	ld	a0,208(a0)
 1b2:	7970                	ld	a2,240(a0)
 1b4:	7261                	lui	tp,0xffff8
 1b6:	2f64                	fld	fs1,216(a4)
 1b8:	70696863          	bltu	s2,t1,8c8 <__stack_align+0x8b8>
 1bc:	6179                	addi	sp,sp,464
 1be:	6472                	ld	s0,280(sp)
 1c0:	6f6f742f          	.insn	4, 0x6f6f742f
 1c4:	636c                	ld	a1,192(a4)
 1c6:	6168                	ld	a0,192(a0)
 1c8:	6e69                	lui	t3,0x1a
 1ca:	696c2f73          	csrrs	t5,0x696,s8
 1ce:	6762                	ld	a4,24(sp)
 1d0:	6f6c                	ld	a1,216(a4)
 1d2:	622f7373          	csrrci	t1,0x622,30
 1d6:	6975                	lui	s2,0x1d
 1d8:	646c                	ld	a1,200(s0)
 1da:	2e00                	fld	fs0,24(a2)
 1dc:	2f2e                	fld	ft10,200(sp)
 1de:	2f737973          	csrrci	s2,0x2f7,6
 1e2:	736f6c63          	bltu	t5,s6,91a <__stack_align+0x90a>
 1e6:	2e65                	addiw	t3,t3,25 # 1a019 <__stack_size+0x12019>
 1e8:	2e2e0063          	beq	t3,sp,4c8 <__stack_align+0x4b8>
 1ec:	7379732f          	.insn	4, 0x7379732f
 1f0:	2f00                	fld	fs0,24(a4)
 1f2:	6f68                	ld	a0,216(a4)
 1f4:	656d                	lui	a0,0x1b
 1f6:	6172662f          	.insn	4, 0x6172662f
 1fa:	6b6e                	ld	s6,216(sp)
 1fc:	7365682f          	.insn	4, 0x7365682f
 200:	2f6c                	fld	fa1,216(a4)
 202:	6574                	ld	a3,200(a0)
 204:	725f7473          	csrrci	s0,mhpmevent5h,30
 208:	7369                	lui	t1,0xffffa
 20a:	632f7663          	bgeu	t5,s2,836 <__stack_align+0x826>
 20e:	6968                	ld	a0,208(a0)
 210:	7970                	ld	a2,240(a0)
 212:	7261                	lui	tp,0xffff8
 214:	2f64                	fld	fs1,216(a4)
 216:	70696863          	bltu	s2,t1,926 <__stack_align+0x916>
 21a:	6179                	addi	sp,sp,464
 21c:	6472                	ld	s0,280(sp)
 21e:	6f632e2f          	.insn	4, 0x6f632e2f
 222:	646e                	ld	s0,216(sp)
 224:	2d61                	addiw	s10,s10,24
 226:	6e65                	lui	t3,0x19
 228:	2f76                	fld	ft10,344(sp)
 22a:	6972                	ld	s2,280(sp)
 22c:	2d766373          	csrrsi	t1,0x2d7,12
 230:	6f74                	ld	a3,216(a4)
 232:	2f736c6f          	jal	s8,36d28 <__heap_size+0x16d28>
 236:	6972                	ld	s2,280(sp)
 238:	36766373          	csrrsi	t1,0x367,12
 23c:	2d34                	fld	fa3,88(a0)
 23e:	6e75                	lui	t3,0x1d
 240:	776f6e6b          	.insn	4, 0x776f6e6b
 244:	2d6e                	fld	fs10,216(sp)
 246:	6c65                	lui	s8,0x19
 248:	2f66                	fld	ft10,88(sp)
 24a:	6e69                	lui	t3,0x1a
 24c:	64756c63          	bltu	a0,t2,8a4 <__stack_align+0x894>
 250:	2f65                	addiw	t5,t5,25
 252:	00737973          	csrrci	s2,0x7,6
 256:	7265                	lui	tp,0xffff9
 258:	6e72                	ld	t3,280(sp)
 25a:	00682e6f          	jal	t3,82260 <__heap_size+0x62260>
 25e:	2e2e                	fld	ft8,200(sp)
 260:	7379732f          	.insn	4, 0x7379732f
 264:	7473662f          	.insn	4, 0x7473662f
 268:	7461                	lui	s0,0xffff8
 26a:	632e                	ld	t1,200(sp)
 26c:	2f00                	fld	fs0,24(a4)
 26e:	6f68                	ld	a0,216(a4)
 270:	656d                	lui	a0,0x1b
 272:	6172662f          	.insn	4, 0x6172662f
 276:	6b6e                	ld	s6,216(sp)
 278:	7365682f          	.insn	4, 0x7365682f
 27c:	2f6c                	fld	fa1,216(a4)
 27e:	6574                	ld	a3,200(a0)
 280:	725f7473          	csrrci	s0,mhpmevent5h,30
 284:	7369                	lui	t1,0xffffa
 286:	632f7663          	bgeu	t5,s2,8b2 <__stack_align+0x8a2>
 28a:	6968                	ld	a0,208(a0)
 28c:	7970                	ld	a2,240(a0)
 28e:	7261                	lui	tp,0xffff8
 290:	2f64                	fld	fs1,216(a4)
 292:	70696863          	bltu	s2,t1,9a2 <__stack_align+0x992>
 296:	6179                	addi	sp,sp,464
 298:	6472                	ld	s0,280(sp)
 29a:	6f632e2f          	.insn	4, 0x6f632e2f
 29e:	646e                	ld	s0,216(sp)
 2a0:	2d61                	addiw	s10,s10,24
 2a2:	6e65                	lui	t3,0x19
 2a4:	2f76                	fld	ft10,344(sp)
 2a6:	6972                	ld	s2,280(sp)
 2a8:	2d766373          	csrrsi	t1,0x2d7,12
 2ac:	6f74                	ld	a3,216(a4)
 2ae:	2f736c6f          	jal	s8,36da4 <__heap_size+0x16da4>
 2b2:	6972                	ld	s2,280(sp)
 2b4:	36766373          	csrrsi	t1,0x367,12
 2b8:	2d34                	fld	fa3,88(a0)
 2ba:	6e75                	lui	t3,0x1d
 2bc:	776f6e6b          	.insn	4, 0x776f6e6b
 2c0:	2d6e                	fld	fs10,216(sp)
 2c2:	6c65                	lui	s8,0x19
 2c4:	2f66                	fld	ft10,88(sp)
 2c6:	6e69                	lui	t3,0x1a
 2c8:	64756c63          	bltu	a0,t2,920 <__stack_align+0x910>
 2cc:	2f65                	addiw	t5,t5,25
 2ce:	616d                	addi	sp,sp,240
 2d0:	6e696863          	bltu	s2,t1,9c0 <__stack_align+0x9b0>
 2d4:	0065                	c.nop	25
 2d6:	645f 6665 7561      	.insn	6, 0x75616665645f
 2dc:	746c                	ld	a1,232(s0)
 2de:	745f 7079 7365      	.insn	6, 0x73657079745f
 2e4:	682e                	ld	a6,200(sp)
 2e6:	5f00                	lw	s0,56(a4)
 2e8:	6974                	ld	a3,208(a0)
 2ea:	656d                	lui	a0,0x1b
 2ec:	63657073          	csrci	0x636,10
 2f0:	682e                	ld	a6,200(sp)
 2f2:	7300                	ld	s0,32(a4)
 2f4:	6174                	ld	a3,192(a0)
 2f6:	2e74                	fld	fa3,216(a2)
 2f8:	0068                	addi	a0,sp,12
 2fa:	2e2e                	fld	ft8,200(sp)
 2fc:	7379732f          	.insn	4, 0x7379732f
 300:	6173692f          	.insn	4, 0x6173692f
 304:	7474                	ld	a3,232(s0)
 306:	2e79                	addiw	t3,t3,30 # 1a01e <__stack_size+0x1201e>
 308:	2e2e0063          	beq	t3,sp,5e8 <__stack_align+0x5d8>
 30c:	7379732f          	.insn	4, 0x7379732f
 310:	65736c2f          	.insn	4, 0x65736c2f
 314:	6b65                	lui	s6,0x19
 316:	632e                	ld	t1,200(sp)
 318:	2e00                	fld	fs0,24(a2)
 31a:	2f2e                	fld	ft10,200(sp)
 31c:	2f737973          	csrrci	s2,0x2f7,6
 320:	6572                	ld	a0,280(sp)
 322:	6461                	lui	s0,0x18
 324:	632e                	ld	t1,200(sp)
 326:	2e00                	fld	fs0,24(a2)
 328:	2f2e                	fld	ft10,200(sp)
 32a:	2f737973          	csrrci	s2,0x2f7,6
 32e:	6b726273          	csrrsi	tp,0x6b7,4
 332:	632e                	ld	t1,200(sp)
 334:	2e00                	fld	fs0,24(a2)
 336:	2f2e                	fld	ft10,200(sp)
 338:	2f737973          	csrrci	s2,0x2f7,6
 33c:	74697277          	.insn	4, 0x74697277
 340:	2e65                	addiw	t3,t3,25
 342:	2e2e0063          	beq	t3,sp,622 <__stack_align+0x612>
 346:	636e692f          	.insn	4, 0x636e692f
 34a:	756c                	ld	a1,232(a0)
 34c:	6564                	ld	s1,200(a0)
 34e:	5f00                	lw	s0,56(a4)
 350:	69647473          	csrrci	s0,0x696,8
 354:	746e                	ld	s0,248(sp)
 356:	682e                	ld	a6,200(sp)
 358:	6800                	ld	s0,16(s0)
 35a:	6974                	ld	a3,208(a0)
 35c:	2e66                	fld	ft8,88(sp)
 35e:	0068                	addi	a0,sp,12
 360:	2e2e                	fld	ft8,200(sp)
 362:	73696d2f          	.insn	4, 0x73696d2f
 366:	72630063          	beq	t1,t1,a86 <__stack_align+0xa76>
 36a:	3074                	fld	fa3,224(s0)
 36c:	532e                	lw	t1,232(sp)
 36e:	6300                	ld	s0,0(a4)
 370:	7472                	ld	s0,312(sp)
 372:	616d                	addi	sp,sp,240
 374:	6e69                	lui	t3,0x1a
 376:	532e                	lw	t1,232(sp)
 378:	2e00                	fld	fs0,24(a2)
 37a:	2f2e                	fld	ft10,200(sp)
 37c:	696d                	lui	s2,0x1b
 37e:	742f6373          	csrrsi	t1,0x742,30
 382:	6172                	ld	sp,280(sp)
 384:	7370                	ld	a2,224(a4)
 386:	632e                	ld	t1,200(sp)
 388:	7300                	ld	s0,32(a4)
 38a:	7379                	lui	t1,0xffffe
 38c:	6c6c6163          	bltu	s8,t1,a4e <__stack_align+0xa3e>
 390:	682e                	ld	a6,200(sp)
 392:	2e00                	fld	fs0,24(a2)
 394:	2f2e                	fld	ft10,200(sp)
 396:	696d                	lui	s2,0x1b
 398:	742f6373          	csrrsi	t1,0x742,30
 39c:	736c                	ld	a1,224(a4)
 39e:	632e                	ld	t1,200(sp)
 3a0:	7300                	ld	s0,32(a4)
 3a2:	7274                	ld	a3,224(a2)
 3a4:	6e69                	lui	t3,0x1a
 3a6:	00682e67          	.insn	4, 0x00682e67
 3aa:	2e2e                	fld	ft8,200(sp)
 3ac:	73696d2f          	.insn	4, 0x73696d2f
 3b0:	74682f63          	.insn	4, 0x74682f63
 3b4:	6669                	lui	a2,0x1a
 3b6:	632e                	ld	t1,200(sp)
 3b8:	6100                	ld	s0,0(a0)
 3ba:	6f74                	ld	a3,216(a4)
 3bc:	696d                	lui	s2,0x1b
 3be:	00682e63          	.insn	4, 0x00682e63
 3c2:	6e697073          	csrci	0x6e6,18
 3c6:	6f6c                	ld	a1,216(a4)
 3c8:	682e6b63          	bltu	t3,sp,a5e <__stack_align+0xa4e>
 3cc:	2e00                	fld	fs0,24(a2)
 3ce:	2f2e                	fld	ft10,200(sp)
 3d0:	2f737973          	csrrci	s2,0x2f7,6
 3d4:	7865                	lui	a6,0xffff9
 3d6:	7469                	lui	s0,0xffffa
 3d8:	632e                	ld	t1,200(sp)
	...

Disassembly of section .comment:

0000000000000000 <.comment>:
   0:	3a434347          	fmsub.d	ft6,ft6,ft4,ft7,rmm
   4:	2820                	fld	fs0,80(s0)
   6:	39386367          	.insn	4, 0x39386367
   a:	6431                	lui	s0,0xc
   c:	6438                	ld	a4,72(s0)
   e:	65333263          	.insn	4, 0x65333263
  12:	2029                	.insn	2, 0x2029
  14:	3331                	addiw	t1,t1,-20 # ffffffffffffdfec <__heap_end+0xffffffff7ffdafec>
  16:	322e                	fld	ft4,232(sp)
  18:	302e                	fld	ft0,232(sp)
  1a:	4700                	lw	s0,8(a4)
  1c:	203a4343          	fmadd.s	ft6,fs4,ft3,ft4,rmm
  20:	4728                	lw	a0,72(a4)
  22:	554e                	lw	a0,240(sp)
  24:	2029                	.insn	2, 0x2029
  26:	3331                	addiw	t1,t1,-20
  28:	322e                	fld	ft4,232(sp)
  2a:	302e                	fld	ft0,232(sp)
	...

Disassembly of section .riscv.attributes:

0000000000000000 <.riscv.attributes>:
   0:	4a41                	li	s4,16
   2:	0000                	unimp
   4:	7200                	ld	s0,32(a2)
   6:	7369                	lui	t1,0xffffa
   8:	01007663          	bgeu	zero,a6,14 <__stack_align+0x4>
   c:	0040                	addi	s0,sp,4
   e:	0000                	unimp
  10:	1004                	addi	s1,sp,32
  12:	7205                	lui	tp,0xfffe1
  14:	3676                	fld	fa2,376(sp)
  16:	6934                	ld	a3,80(a0)
  18:	7032                	.insn	2, 0x7032
  1a:	5f31                	li	t5,-20
  1c:	326d                	addiw	tp,tp,-5 # fffffffffffe0ffb <__heap_end+0xffffffff7ffbdffb>
  1e:	3070                	fld	fa2,224(s0)
  20:	615f 7032 5f31      	.insn	6, 0x5f317032615f
  26:	3266                	fld	ft4,120(sp)
  28:	3270                	fld	fa2,224(a2)
  2a:	645f 7032 5f32      	.insn	6, 0x5f327032645f
  30:	30703263          	.insn	4, 0x30703263
  34:	7a5f 6369 7273      	.insn	6, 0x727363697a5f
  3a:	7032                	.insn	2, 0x7032
  3c:	5f30                	lw	a2,120(a4)
  3e:	6d7a                	ld	s10,408(sp)
  40:	756d                	lui	a0,0xffffb
  42:	316c                	fld	fa1,224(a0)
  44:	3070                	fld	fa2,224(s0)
  46:	0800                	addi	s0,sp,16
  48:	0a01                	addi	s4,s4,0 # ffffffffffffa000 <__heap_end+0xffffffff7ffd7000>
  4a:	Address 0x4a is out of bounds.


Disassembly of section .debug_frame:

0000000000000000 <.debug_frame>:
   0:	000c                	.insn	2, 0x000c
   2:	0000                	unimp
   4:	ffff                	.insn	2, 0xffff
   6:	ffff                	.insn	2, 0xffff
   8:	7c010003          	lb	zero,1984(sp)
   c:	0d01                	addi	s10,s10,0
   e:	0002                	c.slli64	zero
  10:	0014                	.insn	2, 0x0014
  12:	0000                	unimp
  14:	0000                	unimp
  16:	0000                	unimp
  18:	024c                	addi	a1,sp,260
  1a:	8000                	.insn	2, 0x8000
  1c:	0000                	unimp
  1e:	0000                	unimp
  20:	0058                	addi	a4,sp,4
  22:	0000                	unimp
  24:	0000                	unimp
  26:	0000                	unimp
  28:	0014                	.insn	2, 0x0014
  2a:	0000                	unimp
  2c:	0000                	unimp
  2e:	0000                	unimp
  30:	02a4                	addi	s1,sp,328
  32:	8000                	.insn	2, 0x8000
  34:	0000                	unimp
  36:	0000                	unimp
  38:	0030                	addi	a2,sp,8
  3a:	0000                	unimp
  3c:	0000                	unimp
  3e:	0000                	unimp
  40:	003c                	addi	a5,sp,8
  42:	0000                	unimp
  44:	0000                	unimp
  46:	0000                	unimp
  48:	02d4                	addi	a3,sp,324
  4a:	8000                	.insn	2, 0x8000
  4c:	0000                	unimp
  4e:	0000                	unimp
  50:	00c8                	addi	a0,sp,68
  52:	0000                	unimp
  54:	0000                	unimp
  56:	0000                	unimp
  58:	0e44                	addi	s1,sp,788
  5a:	5830                	lw	a2,112(s0)
  5c:	0281                	addi	t0,t0,0
  5e:	0488                	addi	a0,sp,576
  60:	0689                	addi	a3,a3,2
  62:	0892                	slli	a7,a7,0x4
  64:	0c940a93          	addi	s5,s0,201 # c0c9 <__stack_size+0x40c9>
  68:	6802                	ld	a6,0(sp)
  6a:	c10a                	sw	sp,128(sp)
  6c:	c844                	sw	s1,20(s0)
  6e:	c944                	sw	s1,20(a0)
  70:	d244                	sw	s1,36(a2)
  72:	d344                	sw	s1,36(a4)
  74:	d444                	sw	s1,44(s0)
  76:	0e44                	addi	s1,sp,788
  78:	4400                	lw	s0,8(s0)
  7a:	0000000b          	.insn	4, 0x000b
  7e:	0000                	unimp
  80:	0024                	addi	s1,sp,8
  82:	0000                	unimp
  84:	0000                	unimp
  86:	0000                	unimp
  88:	0230                	addi	a2,sp,264
  8a:	8000                	.insn	2, 0x8000
  8c:	0000                	unimp
  8e:	0000                	unimp
  90:	001c                	.insn	2, 0x001c
  92:	0000                	unimp
  94:	0000                	unimp
  96:	0000                	unimp
  98:	0e44                	addi	s1,sp,788
  9a:	4410                	lw	a2,8(s0)
  9c:	0281                	addi	t0,t0,0
  9e:	c148                	sw	a0,4(a0)
  a0:	0e48                	addi	a0,sp,788
  a2:	0000                	unimp
  a4:	0000                	unimp
  a6:	0000                	unimp
  a8:	000c                	.insn	2, 0x000c
  aa:	0000                	unimp
  ac:	ffff                	.insn	2, 0xffff
  ae:	ffff                	.insn	2, 0xffff
  b0:	7c010003          	lb	zero,1984(sp)
  b4:	0d01                	addi	s10,s10,0
  b6:	0002                	c.slli64	zero
  b8:	0024                	addi	s1,sp,8
  ba:	0000                	unimp
  bc:	00a8                	addi	a0,sp,72
  be:	0000                	unimp
  c0:	19f8                	addi	a4,sp,252
  c2:	8000                	.insn	2, 0x8000
  c4:	0000                	unimp
  c6:	0000                	unimp
  c8:	0014                	.insn	2, 0x0014
  ca:	0000                	unimp
  cc:	0000                	unimp
  ce:	0000                	unimp
  d0:	0e42                	slli	t3,t3,0x10
  d2:	4210                	lw	a2,0(a2)
  d4:	0281                	addi	t0,t0,0
  d6:	c146                	sw	a7,128(sp)
  d8:	0e48                	addi	a0,sp,788
  da:	0000                	unimp
  dc:	0000                	unimp
  de:	0000                	unimp
  e0:	000c                	.insn	2, 0x000c
  e2:	0000                	unimp
  e4:	ffff                	.insn	2, 0xffff
  e6:	ffff                	.insn	2, 0xffff
  e8:	7c010003          	lb	zero,1984(sp)
  ec:	0d01                	addi	s10,s10,0
  ee:	0002                	c.slli64	zero
  f0:	0024                	addi	s1,sp,8
  f2:	0000                	unimp
  f4:	00e0                	addi	s0,sp,76
  f6:	0000                	unimp
  f8:	1a0c                	addi	a1,sp,304
  fa:	8000                	.insn	2, 0x8000
  fc:	0000                	unimp
  fe:	0000                	unimp
 100:	0014                	.insn	2, 0x0014
 102:	0000                	unimp
 104:	0000                	unimp
 106:	0000                	unimp
 108:	0e42                	slli	t3,t3,0x10
 10a:	4210                	lw	a2,0(a2)
 10c:	0281                	addi	t0,t0,0
 10e:	c146                	sw	a7,128(sp)
 110:	0e48                	addi	a0,sp,788
 112:	0000                	unimp
 114:	0000                	unimp
 116:	0000                	unimp
 118:	000c                	.insn	2, 0x000c
 11a:	0000                	unimp
 11c:	ffff                	.insn	2, 0xffff
 11e:	ffff                	.insn	2, 0xffff
 120:	7c010003          	lb	zero,1984(sp)
 124:	0d01                	addi	s10,s10,0
 126:	0002                	c.slli64	zero
 128:	0014                	.insn	2, 0x0014
 12a:	0000                	unimp
 12c:	0118                	addi	a4,sp,128
 12e:	0000                	unimp
 130:	1a20                	addi	s0,sp,312
 132:	8000                	.insn	2, 0x8000
 134:	0000                	unimp
 136:	0000                	unimp
 138:	0008                	.insn	2, 0x0008
 13a:	0000                	unimp
 13c:	0000                	unimp
 13e:	0000                	unimp
 140:	000c                	.insn	2, 0x000c
 142:	0000                	unimp
 144:	ffff                	.insn	2, 0xffff
 146:	ffff                	.insn	2, 0xffff
 148:	7c010003          	lb	zero,1984(sp)
 14c:	0d01                	addi	s10,s10,0
 14e:	0002                	c.slli64	zero
 150:	0024                	addi	s1,sp,8
 152:	0000                	unimp
 154:	0140                	addi	s0,sp,132
 156:	0000                	unimp
 158:	1a28                	addi	a0,sp,312
 15a:	8000                	.insn	2, 0x8000
 15c:	0000                	unimp
 15e:	0000                	unimp
 160:	0014                	.insn	2, 0x0014
 162:	0000                	unimp
 164:	0000                	unimp
 166:	0000                	unimp
 168:	0e42                	slli	t3,t3,0x10
 16a:	4210                	lw	a2,0(a2)
 16c:	0281                	addi	t0,t0,0
 16e:	c146                	sw	a7,128(sp)
 170:	0e48                	addi	a0,sp,788
 172:	0000                	unimp
 174:	0000                	unimp
 176:	0000                	unimp
 178:	000c                	.insn	2, 0x000c
 17a:	0000                	unimp
 17c:	ffff                	.insn	2, 0xffff
 17e:	ffff                	.insn	2, 0xffff
 180:	7c010003          	lb	zero,1984(sp)
 184:	0d01                	addi	s10,s10,0
 186:	0002                	c.slli64	zero
 188:	0024                	addi	s1,sp,8
 18a:	0000                	unimp
 18c:	0178                	addi	a4,sp,140
 18e:	0000                	unimp
 190:	1a3c                	addi	a5,sp,312
 192:	8000                	.insn	2, 0x8000
 194:	0000                	unimp
 196:	0000                	unimp
 198:	0016                	c.slli	zero,0x5
 19a:	0000                	unimp
 19c:	0000                	unimp
 19e:	0000                	unimp
 1a0:	0e42                	slli	t3,t3,0x10
 1a2:	4210                	lw	a2,0(a2)
 1a4:	0281                	addi	t0,t0,0
 1a6:	c146                	sw	a7,128(sp)
 1a8:	0e4a                	slli	t3,t3,0x12
 1aa:	0000                	unimp
 1ac:	0000                	unimp
 1ae:	0000                	unimp
 1b0:	000c                	.insn	2, 0x000c
 1b2:	0000                	unimp
 1b4:	ffff                	.insn	2, 0xffff
 1b6:	ffff                	.insn	2, 0xffff
 1b8:	7c010003          	lb	zero,1984(sp)
 1bc:	0d01                	addi	s10,s10,0
 1be:	0002                	c.slli64	zero
 1c0:	0024                	addi	s1,sp,8
 1c2:	0000                	unimp
 1c4:	01b0                	addi	a2,sp,200
 1c6:	0000                	unimp
 1c8:	1a52                	slli	s4,s4,0x34
 1ca:	8000                	.insn	2, 0x8000
 1cc:	0000                	unimp
 1ce:	0000                	unimp
 1d0:	003c                	addi	a5,sp,8
 1d2:	0000                	unimp
 1d4:	0000                	unimp
 1d6:	0000                	unimp
 1d8:	0e68                	addi	a0,sp,796
 1da:	4210                	lw	a2,0(a2)
 1dc:	0281                	addi	t0,t0,0
 1de:	c146                	sw	a7,128(sp)
 1e0:	0e4a                	slli	t3,t3,0x12
 1e2:	0000                	unimp
 1e4:	0000                	unimp
 1e6:	0000                	unimp
 1e8:	000c                	.insn	2, 0x000c
 1ea:	0000                	unimp
 1ec:	ffff                	.insn	2, 0xffff
 1ee:	ffff                	.insn	2, 0xffff
 1f0:	7c010003          	lb	zero,1984(sp)
 1f4:	0d01                	addi	s10,s10,0
 1f6:	0002                	c.slli64	zero
 1f8:	0014                	.insn	2, 0x0014
 1fa:	0000                	unimp
 1fc:	01e8                	addi	a0,sp,204
 1fe:	0000                	unimp
 200:	1a8e                	slli	s5,s5,0x23
 202:	8000                	.insn	2, 0x8000
 204:	0000                	unimp
 206:	0000                	unimp
 208:	0006                	c.slli	zero,0x1
 20a:	0000                	unimp
 20c:	0000                	unimp
 20e:	0000                	unimp
 210:	000c                	.insn	2, 0x000c
 212:	0000                	unimp
 214:	ffff                	.insn	2, 0xffff
 216:	ffff                	.insn	2, 0xffff
 218:	7c010003          	lb	zero,1984(sp)
 21c:	0d01                	addi	s10,s10,0
 21e:	0002                	c.slli64	zero
 220:	001c                	.insn	2, 0x001c
 222:	0000                	unimp
 224:	0210                	addi	a2,sp,256
 226:	0000                	unimp
 228:	1a94                	addi	a3,sp,368
 22a:	8000                	.insn	2, 0x8000
 22c:	0000                	unimp
 22e:	0000                	unimp
 230:	0016                	c.slli	zero,0x5
 232:	0000                	unimp
 234:	0000                	unimp
 236:	0000                	unimp
 238:	0e42                	slli	t3,t3,0x10
 23a:	4610                	lw	a2,8(a2)
 23c:	0281                	addi	t0,t0,0
 23e:	0000                	unimp
 240:	000c                	.insn	2, 0x000c
 242:	0000                	unimp
 244:	ffff                	.insn	2, 0xffff
 246:	ffff                	.insn	2, 0xffff
 248:	7c010003          	lb	zero,1984(sp)
 24c:	0d01                	addi	s10,s10,0
 24e:	0002                	c.slli64	zero
 250:	0024                	addi	s1,sp,8
 252:	0000                	unimp
 254:	0240                	addi	s0,sp,260
 256:	0000                	unimp
 258:	1aaa                	slli	s5,s5,0x2a
 25a:	8000                	.insn	2, 0x8000
 25c:	0000                	unimp
 25e:	0000                	unimp
 260:	0030                	addi	a2,sp,8
 262:	0000                	unimp
 264:	0000                	unimp
 266:	0000                	unimp
 268:	0e42                	slli	t3,t3,0x10
 26a:	5210                	lw	a2,32(a2)
 26c:	0488                	addi	a0,sp,576
 26e:	0281                	addi	t0,t0,0
 270:	c84e                	sw	s3,16(sp)
 272:	c142                	sw	a6,128(sp)
 274:	0e48                	addi	a0,sp,788
 276:	0000                	unimp
 278:	000c                	.insn	2, 0x000c
 27a:	0000                	unimp
 27c:	ffff                	.insn	2, 0xffff
 27e:	ffff                	.insn	2, 0xffff
 280:	7c010003          	lb	zero,1984(sp)
 284:	0d01                	addi	s10,s10,0
 286:	0002                	c.slli64	zero
 288:	001c                	.insn	2, 0x001c
 28a:	0000                	unimp
 28c:	0278                	addi	a4,sp,268
 28e:	0000                	unimp
 290:	1ada                	slli	s5,s5,0x36
 292:	8000                	.insn	2, 0x8000
 294:	0000                	unimp
 296:	0000                	unimp
 298:	004c                	addi	a1,sp,4
 29a:	0000                	unimp
 29c:	0000                	unimp
 29e:	0000                	unimp
 2a0:	0e42                	slli	t3,t3,0x10
 2a2:	0240                	addi	s0,sp,260
 2a4:	0e48                	addi	a0,sp,788
 2a6:	0000                	unimp
 2a8:	000c                	.insn	2, 0x000c
 2aa:	0000                	unimp
 2ac:	ffff                	.insn	2, 0xffff
 2ae:	ffff                	.insn	2, 0xffff
 2b0:	7c010003          	lb	zero,1984(sp)
 2b4:	0d01                	addi	s10,s10,0
 2b6:	0002                	c.slli64	zero
 2b8:	0014                	.insn	2, 0x0014
 2ba:	0000                	unimp
 2bc:	02a8                	addi	a0,sp,328
 2be:	0000                	unimp
 2c0:	1b26                	slli	s6,s6,0x29
 2c2:	8000                	.insn	2, 0x8000
 2c4:	0000                	unimp
 2c6:	0000                	unimp
 2c8:	0022                	c.slli	zero,0x8
 2ca:	0000                	unimp
 2cc:	0000                	unimp
	...
