
/home/frank/hesl/test_riscv/chipyard/chipyard/build/spiflashread.riscv:     file format elf64-littleriscv


Disassembly of section .text:

0000000080000000 <_start>:
    80000000:	4081                	li	ra,0
    80000002:	4101                	li	sp,0
    80000004:	4181                	li	gp,0
    80000006:	4201                	li	tp,0
    80000008:	4281                	li	t0,0
    8000000a:	4301                	li	t1,0
    8000000c:	4381                	li	t2,0
    8000000e:	4401                	li	s0,0
    80000010:	4481                	li	s1,0
    80000012:	4501                	li	a0,0
    80000014:	4581                	li	a1,0
    80000016:	4601                	li	a2,0
    80000018:	4681                	li	a3,0
    8000001a:	4701                	li	a4,0
    8000001c:	4781                	li	a5,0
    8000001e:	4801                	li	a6,0
    80000020:	4881                	li	a7,0
    80000022:	4901                	li	s2,0
    80000024:	4981                	li	s3,0
    80000026:	4a01                	li	s4,0
    80000028:	4a81                	li	s5,0
    8000002a:	4b01                	li	s6,0
    8000002c:	4b81                	li	s7,0
    8000002e:	4c01                	li	s8,0
    80000030:	4c81                	li	s9,0
    80000032:	4d01                	li	s10,0
    80000034:	4d81                	li	s11,0
    80000036:	4e01                	li	t3,0
    80000038:	4e81                	li	t4,0
    8000003a:	4f01                	li	t5,0
    8000003c:	4f81                	li	t6,0
    8000003e:	62f9                	lui	t0,0x1e
    80000040:	6002829b          	addiw	t0,t0,1536 # 1e600 <__stack_size+0x16600>
    80000044:	3002a073          	csrs	mstatus,t0
    80000048:	00000297          	auipc	t0,0x0
    8000004c:	09028293          	addi	t0,t0,144 # 800000d8 <_start+0xd8>
    80000050:	30529073          	csrw	mtvec,t0
    80000054:	00301073          	fscsr	zero
    80000058:	f0000053          	fmv.w.x	ft0,zero
    8000005c:	f00000d3          	fmv.w.x	ft1,zero
    80000060:	f0000153          	fmv.w.x	ft2,zero
    80000064:	f00001d3          	fmv.w.x	ft3,zero
    80000068:	f0000253          	fmv.w.x	ft4,zero
    8000006c:	f00002d3          	fmv.w.x	ft5,zero
    80000070:	f0000353          	fmv.w.x	ft6,zero
    80000074:	f00003d3          	fmv.w.x	ft7,zero
    80000078:	f0000453          	fmv.w.x	fs0,zero
    8000007c:	f00004d3          	fmv.w.x	fs1,zero
    80000080:	f0000553          	fmv.w.x	fa0,zero
    80000084:	f00005d3          	fmv.w.x	fa1,zero
    80000088:	f0000653          	fmv.w.x	fa2,zero
    8000008c:	f00006d3          	fmv.w.x	fa3,zero
    80000090:	f0000753          	fmv.w.x	fa4,zero
    80000094:	f00007d3          	fmv.w.x	fa5,zero
    80000098:	f0000853          	fmv.w.x	fa6,zero
    8000009c:	f00008d3          	fmv.w.x	fa7,zero
    800000a0:	f0000953          	fmv.w.x	fs2,zero
    800000a4:	f00009d3          	fmv.w.x	fs3,zero
    800000a8:	f0000a53          	fmv.w.x	fs4,zero
    800000ac:	f0000ad3          	fmv.w.x	fs5,zero
    800000b0:	f0000b53          	fmv.w.x	fs6,zero
    800000b4:	f0000bd3          	fmv.w.x	fs7,zero
    800000b8:	f0000c53          	fmv.w.x	fs8,zero
    800000bc:	f0000cd3          	fmv.w.x	fs9,zero
    800000c0:	f0000d53          	fmv.w.x	fs10,zero
    800000c4:	f0000dd3          	fmv.w.x	fs11,zero
    800000c8:	f0000e53          	fmv.w.x	ft8,zero
    800000cc:	f0000ed3          	fmv.w.x	ft9,zero
    800000d0:	f0000f53          	fmv.w.x	ft10,zero
    800000d4:	f0000fd3          	fmv.w.x	ft11,zero
    800000d8:	00003197          	auipc	gp,0x3
    800000dc:	bf818193          	addi	gp,gp,-1032 # 80002cd0 <__global_pointer$>
    800000e0:	f1402473          	csrr	s0,mhartid
    800000e4:	00f00293          	li	t0,15
    800000e8:	00023217          	auipc	tp,0x23
    800000ec:	f1820213          	addi	tp,tp,-232 # 80023000 <__heap_end>
    800000f0:	005412b3          	sll	t0,s0,t0
    800000f4:	9216                	add	tp,tp,t0
    800000f6:	62a1                	lui	t0,0x8
    800000f8:	00028293          	mv	t0,t0
    800000fc:	00520133          	add	sp,tp,t0
    80000100:	00000297          	auipc	t0,0x0
    80000104:	04428293          	addi	t0,t0,68 # 80000144 <trap_entry>
    80000108:	30529073          	csrw	mtvec,t0
    8000010c:	4eb010ef          	jal	80001df6 <__init_tls>
    80000110:	00000293          	li	t0,0
    80000114:	00540463          	beq	s0,t0,8000011c <_start+0x11c>
    80000118:	0f60006f          	j	8000020e <_start_secondary>
    8000011c:	82018293          	addi	t0,gp,-2016 # 800024f0 <__stdio_exit_handler>
    80000120:	b8818313          	addi	t1,gp,-1144 # 80002858 <_end>
    80000124:	0062f763          	bgeu	t0,t1,80000132 <_start+0x132>
    80000128:	0002b023          	sd	zero,0(t0)
    8000012c:	02a1                	addi	t0,t0,8
    8000012e:	fe62ede3          	bltu	t0,t1,80000128 <_start+0x128>
    80000132:	00002517          	auipc	a0,0x2
    80000136:	e0050513          	addi	a0,a0,-512 # 80001f32 <__libc_fini_array>
    8000013a:	561010ef          	jal	80001e9a <atexit>
    8000013e:	597010ef          	jal	80001ed4 <__libc_init_array>
    80000142:	a075                	j	800001ee <_start_main>

0000000080000144 <trap_entry>:
    80000144:	34011073          	csrw	mscratch,sp
    80000148:	7111                	addi	sp,sp,-256
    8000014a:	e406                	sd	ra,8(sp)
    8000014c:	340020f3          	csrr	ra,mscratch
    80000150:	e806                	sd	ra,16(sp)
    80000152:	ec0e                	sd	gp,24(sp)
    80000154:	f012                	sd	tp,32(sp)
    80000156:	f416                	sd	t0,40(sp)
    80000158:	f81a                	sd	t1,48(sp)
    8000015a:	fc1e                	sd	t2,56(sp)
    8000015c:	e0a2                	sd	s0,64(sp)
    8000015e:	e4a6                	sd	s1,72(sp)
    80000160:	e8aa                	sd	a0,80(sp)
    80000162:	ecae                	sd	a1,88(sp)
    80000164:	f0b2                	sd	a2,96(sp)
    80000166:	f4b6                	sd	a3,104(sp)
    80000168:	f8ba                	sd	a4,112(sp)
    8000016a:	fcbe                	sd	a5,120(sp)
    8000016c:	e142                	sd	a6,128(sp)
    8000016e:	e546                	sd	a7,136(sp)
    80000170:	e94a                	sd	s2,144(sp)
    80000172:	ed4e                	sd	s3,152(sp)
    80000174:	f152                	sd	s4,160(sp)
    80000176:	f556                	sd	s5,168(sp)
    80000178:	f95a                	sd	s6,176(sp)
    8000017a:	fd5e                	sd	s7,184(sp)
    8000017c:	e1e2                	sd	s8,192(sp)
    8000017e:	e5e6                	sd	s9,200(sp)
    80000180:	e9ea                	sd	s10,208(sp)
    80000182:	edee                	sd	s11,216(sp)
    80000184:	f1f2                	sd	t3,224(sp)
    80000186:	f5f6                	sd	t4,232(sp)
    80000188:	f9fa                	sd	t5,240(sp)
    8000018a:	fdfe                	sd	t6,248(sp)
    8000018c:	34102573          	csrr	a0,mepc
    80000190:	342025f3          	csrr	a1,mcause
    80000194:	34302673          	csrr	a2,mtval
    80000198:	868a                	mv	a3,sp
    8000019a:	447010ef          	jal	80001de0 <handle_trap>
    8000019e:	34151073          	csrw	mepc,a0
    800001a2:	6289                	lui	t0,0x2
    800001a4:	8002829b          	addiw	t0,t0,-2048 # 1800 <__stack_align+0x17f0>
    800001a8:	3002a073          	csrs	mstatus,t0
    800001ac:	60a2                	ld	ra,8(sp)
    800001ae:	61e2                	ld	gp,24(sp)
    800001b0:	7202                	ld	tp,32(sp)
    800001b2:	72a2                	ld	t0,40(sp)
    800001b4:	7342                	ld	t1,48(sp)
    800001b6:	73e2                	ld	t2,56(sp)
    800001b8:	6406                	ld	s0,64(sp)
    800001ba:	64a6                	ld	s1,72(sp)
    800001bc:	6546                	ld	a0,80(sp)
    800001be:	65e6                	ld	a1,88(sp)
    800001c0:	7606                	ld	a2,96(sp)
    800001c2:	76a6                	ld	a3,104(sp)
    800001c4:	7746                	ld	a4,112(sp)
    800001c6:	77e6                	ld	a5,120(sp)
    800001c8:	680a                	ld	a6,128(sp)
    800001ca:	68aa                	ld	a7,136(sp)
    800001cc:	694a                	ld	s2,144(sp)
    800001ce:	69ea                	ld	s3,152(sp)
    800001d0:	7a0a                	ld	s4,160(sp)
    800001d2:	7aaa                	ld	s5,168(sp)
    800001d4:	7b4a                	ld	s6,176(sp)
    800001d6:	7bea                	ld	s7,184(sp)
    800001d8:	6c0e                	ld	s8,192(sp)
    800001da:	6cae                	ld	s9,200(sp)
    800001dc:	6d4e                	ld	s10,208(sp)
    800001de:	6dee                	ld	s11,216(sp)
    800001e0:	7e0e                	ld	t3,224(sp)
    800001e2:	7eae                	ld	t4,232(sp)
    800001e4:	7f4e                	ld	t5,240(sp)
    800001e6:	7fee                	ld	t6,248(sp)
    800001e8:	6142                	ld	sp,16(sp)
    800001ea:	30200073          	mret

00000000800001ee <_start_main>:
    800001ee:	52fd                	li	t0,-1
    800001f0:	0110000f          	fence	w,w
    800001f4:	a651a423          	sw	t0,-1432(gp) # 80002738 <__boot_sync>
    800001f8:	4505                	li	a0,1
    800001fa:	00002597          	auipc	a1,0x2
    800001fe:	18658593          	addi	a1,a1,390 # 80002380 <argv>
    80000202:	8101b603          	ld	a2,-2032(gp) # 800024e0 <environ>
    80000206:	02a000ef          	jal	80000230 <main>
    8000020a:	49b0106f          	j	80001ea4 <exit>

000000008000020e <_start_secondary>:
    8000020e:	a681a283          	lw	t0,-1432(gp) # 80002738 <__boot_sync>
    80000212:	fe028ee3          	beqz	t0,8000020e <_start_secondary>
    80000216:	0220000f          	fence	r,r
    8000021a:	4505                	li	a0,1
    8000021c:	00002597          	auipc	a1,0x2
    80000220:	16458593          	addi	a1,a1,356 # 80002380 <argv>
    80000224:	8101b603          	ld	a2,-2032(gp) # 800024e0 <environ>
    80000228:	3ff010ef          	jal	80001e26 <__main>
    8000022c:	4790106f          	j	80001ea4 <exit>

0000000080000230 <main>:
    80000230:	fe010113          	addi	sp,sp,-32
    80000234:	00002517          	auipc	a0,0x2
    80000238:	f1450513          	addi	a0,a0,-236 # 80002148 <__tbss_end+0xa2>
    8000023c:	00813823          	sd	s0,16(sp)
    80000240:	00913423          	sd	s1,8(sp)
    80000244:	01213023          	sd	s2,0(sp)
    80000248:	00113c23          	sd	ra,24(sp)
    8000024c:	4be000ef          	jal	8000070a <iprintf>
    80000250:	001307b7          	lui	a5,0x130
    80000254:	10030437          	lui	s0,0x10030
    80000258:	00978793          	addi	a5,a5,9 # 130009 <__heap_size+0x110009>
    8000025c:	06042023          	sw	zero,96(s0) # 10030060 <__heap_size+0x10010060>
    80000260:	100304b7          	lui	s1,0x10030
    80000264:	0007879b          	sext.w	a5,a5
    80000268:	00100913          	li	s2,1
    8000026c:	06f4a223          	sw	a5,100(s1) # 10030064 <__heap_size+0x10010064>
    80000270:	00000613          	li	a2,0
    80000274:	10000593          	li	a1,256
    80000278:	00000513          	li	a0,0
    8000027c:	07242023          	sw	s2,96(s0)
    80000280:	37c000ef          	jal	800005fc <test_spiflash>
    80000284:	02050063          	beqz	a0,800002a4 <main+0x74>
    80000288:	00100513          	li	a0,1
    8000028c:	01813083          	ld	ra,24(sp)
    80000290:	01013403          	ld	s0,16(sp)
    80000294:	00813483          	ld	s1,8(sp)
    80000298:	00013903          	ld	s2,0(sp)
    8000029c:	02010113          	addi	sp,sp,32
    800002a0:	00008067          	ret
    800002a4:	00002517          	auipc	a0,0x2
    800002a8:	ecc50513          	addi	a0,a0,-308 # 80002170 <__tbss_end+0xca>
    800002ac:	45e000ef          	jal	8000070a <iprintf>
    800002b0:	000307b7          	lui	a5,0x30
    800002b4:	00778793          	addi	a5,a5,7 # 30007 <__heap_size+0x10007>
    800002b8:	06042023          	sw	zero,96(s0)
    800002bc:	06448493          	addi	s1,s1,100
    800002c0:	0007879b          	sext.w	a5,a5
    800002c4:	00f4a023          	sw	a5,0(s1)
    800002c8:	00000613          	li	a2,0
    800002cc:	10000593          	li	a1,256
    800002d0:	00000513          	li	a0,0
    800002d4:	07242023          	sw	s2,96(s0)
    800002d8:	06040413          	addi	s0,s0,96
    800002dc:	320000ef          	jal	800005fc <test_spiflash>
    800002e0:	fa0514e3          	bnez	a0,80000288 <main+0x58>
    800002e4:	00002517          	auipc	a0,0x2
    800002e8:	eb450513          	addi	a0,a0,-332 # 80002198 <__tbss_end+0xf2>
    800002ec:	41e000ef          	jal	8000070a <iprintf>
    800002f0:	000b07b7          	lui	a5,0xb0
    800002f4:	08778793          	addi	a5,a5,135 # b0087 <__heap_size+0x90087>
    800002f8:	00042023          	sw	zero,0(s0)
    800002fc:	0007879b          	sext.w	a5,a5
    80000300:	00f4a023          	sw	a5,0(s1)
    80000304:	01242023          	sw	s2,0(s0)
    80000308:	00000613          	li	a2,0
    8000030c:	10000593          	li	a1,256
    80000310:	00001537          	lui	a0,0x1
    80000314:	2e8000ef          	jal	800005fc <test_spiflash>
    80000318:	f60518e3          	bnez	a0,80000288 <main+0x58>
    8000031c:	00002517          	auipc	a0,0x2
    80000320:	ea450513          	addi	a0,a0,-348 # 800021c0 <__tbss_end+0x11a>
    80000324:	3e6000ef          	jal	8000070a <iprintf>
    80000328:	000c07b7          	lui	a5,0xc0
    8000032c:	08978793          	addi	a5,a5,137 # c0089 <__heap_size+0xa0089>
    80000330:	00042023          	sw	zero,0(s0)
    80000334:	0007879b          	sext.w	a5,a5
    80000338:	00f4a023          	sw	a5,0(s1)
    8000033c:	00002537          	lui	a0,0x2
    80000340:	01242023          	sw	s2,0(s0)
    80000344:	00000613          	li	a2,0
    80000348:	10000593          	li	a1,256
    8000034c:	34050513          	addi	a0,a0,832 # 2340 <__stack_align+0x2330>
    80000350:	2ac000ef          	jal	800005fc <test_spiflash>
    80000354:	f2051ae3          	bnez	a0,80000288 <main+0x58>
    80000358:	00002517          	auipc	a0,0x2
    8000035c:	e9050513          	addi	a0,a0,-368 # 800021e8 <__tbss_end+0x142>
    80000360:	3aa000ef          	jal	8000070a <iprintf>
    80000364:	006c27b7          	lui	a5,0x6c2
    80000368:	08978793          	addi	a5,a5,137 # 6c2089 <__heap_size+0x6a2089>
    8000036c:	00042023          	sw	zero,0(s0)
    80000370:	0007879b          	sext.w	a5,a5
    80000374:	00f4a023          	sw	a5,0(s1)
    80000378:	00004537          	lui	a0,0x4
    8000037c:	01242023          	sw	s2,0(s0)
    80000380:	00000613          	li	a2,0
    80000384:	10000593          	li	a1,256
    80000388:	10c50513          	addi	a0,a0,268 # 410c <__stack_align+0x40fc>
    8000038c:	270000ef          	jal	800005fc <test_spiflash>
    80000390:	ee051ce3          	bnez	a0,80000288 <main+0x58>
    80000394:	00002517          	auipc	a0,0x2
    80000398:	e7c50513          	addi	a0,a0,-388 # 80002210 <__tbss_end+0x16a>
    8000039c:	36e000ef          	jal	8000070a <iprintf>
    800003a0:	006b27b7          	lui	a5,0x6b2
    800003a4:	08778793          	addi	a5,a5,135 # 6b2087 <__heap_size+0x692087>
    800003a8:	00042023          	sw	zero,0(s0)
    800003ac:	0007879b          	sext.w	a5,a5
    800003b0:	00f4a023          	sw	a5,0(s1)
    800003b4:	00006537          	lui	a0,0x6
    800003b8:	01242023          	sw	s2,0(s0)
    800003bc:	00000613          	li	a2,0
    800003c0:	10000593          	li	a1,256
    800003c4:	ff850513          	addi	a0,a0,-8 # 5ff8 <__stack_align+0x5fe8>
    800003c8:	234000ef          	jal	800005fc <test_spiflash>
    800003cc:	ea051ee3          	bnez	a0,80000288 <main+0x58>
    800003d0:	00002517          	auipc	a0,0x2
    800003d4:	e6850513          	addi	a0,a0,-408 # 80002238 <__tbss_end+0x192>
    800003d8:	332000ef          	jal	8000070a <iprintf>
    800003dc:	00eb37b7          	lui	a5,0xeb3
    800003e0:	88778793          	addi	a5,a5,-1913 # eb2887 <__heap_size+0xe92887>
    800003e4:	00042023          	sw	zero,0(s0)
    800003e8:	0007879b          	sext.w	a5,a5
    800003ec:	00f4a023          	sw	a5,0(s1)
    800003f0:	00008537          	lui	a0,0x8
    800003f4:	01242023          	sw	s2,0(s0)
    800003f8:	00000613          	li	a2,0
    800003fc:	10000593          	li	a1,256
    80000400:	c0450513          	addi	a0,a0,-1020 # 7c04 <__stack_size_min+0x1c04>
    80000404:	1f8000ef          	jal	800005fc <test_spiflash>
    80000408:	e80510e3          	bnez	a0,80000288 <main+0x58>
    8000040c:	00002517          	auipc	a0,0x2
    80000410:	e5450513          	addi	a0,a0,-428 # 80002260 <__tbss_end+0x1ba>
    80000414:	2f6000ef          	jal	8000070a <iprintf>
    80000418:	00ec37b7          	lui	a5,0xec3
    8000041c:	00042023          	sw	zero,0(s0)
    80000420:	88978793          	addi	a5,a5,-1911 # ec2889 <__heap_size+0xea2889>
    80000424:	00f4a023          	sw	a5,0(s1)
    80000428:	01242023          	sw	s2,0(s0)
    8000042c:	00000613          	li	a2,0
    80000430:	10000593          	li	a1,256
    80000434:	00009537          	lui	a0,0x9
    80000438:	1c4000ef          	jal	800005fc <test_spiflash>
    8000043c:	e40516e3          	bnez	a0,80000288 <main+0x58>
    80000440:	00002517          	auipc	a0,0x2
    80000444:	e4850513          	addi	a0,a0,-440 # 80002288 <__tbss_end+0x1e2>
    80000448:	2c2000ef          	jal	8000070a <iprintf>
    8000044c:	00100613          	li	a2,1
    80000450:	10000593          	li	a1,256
    80000454:	00100537          	lui	a0,0x100
    80000458:	1a4000ef          	jal	800005fc <test_spiflash>
    8000045c:	e20516e3          	bnez	a0,80000288 <main+0x58>
    80000460:	00002517          	auipc	a0,0x2
    80000464:	e5050513          	addi	a0,a0,-432 # 800022b0 <__tbss_end+0x20a>
    80000468:	2a2000ef          	jal	8000070a <iprintf>
    8000046c:	00200813          	li	a6,2
    80000470:	00200793          	li	a5,2
    80000474:	00400713          	li	a4,4
    80000478:	03e00693          	li	a3,62
    8000047c:	00000613          	li	a2,0
    80000480:	01000593          	li	a1,16
    80000484:	00002517          	auipc	a0,0x2
    80000488:	f8c50513          	addi	a0,a0,-116 # 80002410 <test_data>
    8000048c:	054000ef          	jal	800004e0 <write_spiflash>
    80000490:	00000613          	li	a2,0
    80000494:	10000593          	li	a1,256
    80000498:	00000513          	li	a0,0
    8000049c:	160000ef          	jal	800005fc <test_spiflash>
    800004a0:	00a03533          	snez	a0,a0
    800004a4:	de9ff06f          	j	8000028c <main+0x5c>

00000000800004a8 <spi_data_write>:
    800004a8:	10030737          	lui	a4,0x10030
    800004ac:	04870713          	addi	a4,a4,72 # 10030048 <__heap_size+0x10010048>
    800004b0:	00072783          	lw	a5,0(a4)
    800004b4:	fe07cee3          	bltz	a5,800004b0 <spi_data_write+0x8>
    800004b8:	0005051b          	sext.w	a0,a0
    800004bc:	00a72023          	sw	a0,0(a4)
    800004c0:	00008067          	ret

00000000800004c4 <configure_spiflash>:
    800004c4:	100307b7          	lui	a5,0x10030
    800004c8:	10030737          	lui	a4,0x10030
    800004cc:	0607a023          	sw	zero,96(a5) # 10030060 <__heap_size+0x10010060>
    800004d0:	06a72223          	sw	a0,100(a4) # 10030064 <__heap_size+0x10010064>
    800004d4:	00100713          	li	a4,1
    800004d8:	06e7a023          	sw	a4,96(a5)
    800004dc:	00008067          	ret

00000000800004e0 <write_spiflash>:
    800004e0:	00080e37          	lui	t3,0x80
    800004e4:	10030f37          	lui	t5,0x10030
    800004e8:	008e0e13          	addi	t3,t3,8 # 80008 <__heap_size+0x60008>
    800004ec:	10030eb7          	lui	t4,0x10030
    800004f0:	060f2023          	sw	zero,96(t5) # 10030060 <__heap_size+0x10010060>
    800004f4:	000e0f9b          	sext.w	t6,t3
    800004f8:	05fea023          	sw	t6,64(t4) # 10030040 <__heap_size+0x10010040>
    800004fc:	100308b7          	lui	a7,0x10030
    80000500:	10030337          	lui	t1,0x10030
    80000504:	00200e93          	li	t4,2
    80000508:	01d8ac23          	sw	t4,24(a7) # 10030018 <__heap_size+0x10010018>
    8000050c:	04830313          	addi	t1,t1,72 # 10030048 <__heap_size+0x10010048>
    80000510:	00032883          	lw	a7,0(t1)
    80000514:	fe08cee3          	bltz	a7,80000510 <write_spiflash+0x30>
    80000518:	0006869b          	sext.w	a3,a3
    8000051c:	00d32023          	sw	a3,0(t1)
    80000520:	10000693          	li	a3,256
    80000524:	00000013          	nop
    80000528:	fff6869b          	addiw	a3,a3,-1
    8000052c:	fe069ce3          	bnez	a3,80000524 <write_spiflash+0x44>
    80000530:	0037f793          	andi	a5,a5,3
    80000534:	00fe68b3          	or	a7,t3,a5
    80000538:	100306b7          	lui	a3,0x10030
    8000053c:	0516a023          	sw	a7,64(a3) # 10030040 <__heap_size+0x10010040>
    80000540:	00088e13          	mv	t3,a7
    80000544:	0007089b          	sext.w	a7,a4
    80000548:	02070a63          	beqz	a4,8000057c <write_spiflash+0x9c>
    8000054c:	10030737          	lui	a4,0x10030
    80000550:	fff8889b          	addiw	a7,a7,-1
    80000554:	04870713          	addi	a4,a4,72 # 10030048 <__heap_size+0x10010048>
    80000558:	fff00313          	li	t1,-1
    8000055c:	0038979b          	slliw	a5,a7,0x3
    80000560:	00f656bb          	srlw	a3,a2,a5
    80000564:	00072783          	lw	a5,0(a4)
    80000568:	fe07cee3          	bltz	a5,80000564 <write_spiflash+0x84>
    8000056c:	0ff6f793          	zext.b	a5,a3
    80000570:	00f72023          	sw	a5,0(a4)
    80000574:	fff8889b          	addiw	a7,a7,-1
    80000578:	fe6892e3          	bne	a7,t1,8000055c <write_spiflash+0x7c>
    8000057c:	10000793          	li	a5,256
    80000580:	00000013          	nop
    80000584:	fff7879b          	addiw	a5,a5,-1
    80000588:	fe079ce3          	bnez	a5,80000580 <write_spiflash+0xa0>
    8000058c:	00387813          	andi	a6,a6,3
    80000590:	ffce7793          	andi	a5,t3,-4
    80000594:	10030737          	lui	a4,0x10030
    80000598:	0107e7b3          	or	a5,a5,a6
    8000059c:	04f72023          	sw	a5,64(a4) # 10030040 <__heap_size+0x10010040>
    800005a0:	02058863          	beqz	a1,800005d0 <write_spiflash+0xf0>
    800005a4:	02059613          	slli	a2,a1,0x20
    800005a8:	02065613          	srli	a2,a2,0x20
    800005ac:	00c50633          	add	a2,a0,a2
    800005b0:	04870713          	addi	a4,a4,72
    800005b4:	00054683          	lbu	a3,0(a0)
    800005b8:	00072783          	lw	a5,0(a4)
    800005bc:	fe07cee3          	bltz	a5,800005b8 <write_spiflash+0xd8>
    800005c0:	0006879b          	sext.w	a5,a3
    800005c4:	00f72023          	sw	a5,0(a4)
    800005c8:	00150513          	addi	a0,a0,1
    800005cc:	fea614e3          	bne	a2,a0,800005b4 <write_spiflash+0xd4>
    800005d0:	10000793          	li	a5,256
    800005d4:	00000013          	nop
    800005d8:	fff7879b          	addiw	a5,a5,-1
    800005dc:	fe079ce3          	bnez	a5,800005d4 <write_spiflash+0xf4>
    800005e0:	10030737          	lui	a4,0x10030
    800005e4:	00300693          	li	a3,3
    800005e8:	00d72c23          	sw	a3,24(a4) # 10030018 <__heap_size+0x10010018>
    800005ec:	100307b7          	lui	a5,0x10030
    800005f0:	00100713          	li	a4,1
    800005f4:	06e7a023          	sw	a4,96(a5) # 10030060 <__heap_size+0x10010060>
    800005f8:	00008067          	ret

00000000800005fc <test_spiflash>:
    800005fc:	00b505bb          	addw	a1,a0,a1
    80000600:	04b57063          	bgeu	a0,a1,80000640 <test_spiflash+0x44>
    80000604:	deadc8b7          	lui	a7,0xdeadc
    80000608:	00060713          	mv	a4,a2
    8000060c:	20000837          	lui	a6,0x20000
    80000610:	eef8889b          	addiw	a7,a7,-273 # ffffffffdeadbeef <__heap_end+0xffffffff5eab8eef>
    80000614:	00a807bb          	addw	a5,a6,a0
    80000618:	02079793          	slli	a5,a5,0x20
    8000061c:	0207d793          	srli	a5,a5,0x20
    80000620:	0007a603          	lw	a2,0(a5)
    80000624:	00000693          	li	a3,0
    80000628:	0006061b          	sext.w	a2,a2
    8000062c:	00071463          	bnez	a4,80000634 <test_spiflash+0x38>
    80000630:	40a886bb          	subw	a3,a7,a0
    80000634:	00c69a63          	bne	a3,a2,80000648 <test_spiflash+0x4c>
    80000638:	0045051b          	addiw	a0,a0,4
    8000063c:	fcb56ce3          	bltu	a0,a1,80000614 <test_spiflash+0x18>
    80000640:	00000513          	li	a0,0
    80000644:	00008067          	ret
    80000648:	ff010113          	addi	sp,sp,-16
    8000064c:	00050593          	mv	a1,a0
    80000650:	00002517          	auipc	a0,0x2
    80000654:	a5850513          	addi	a0,a0,-1448 # 800020a8 <__tbss_end+0x2>
    80000658:	00113423          	sd	ra,8(sp)
    8000065c:	0ae000ef          	jal	8000070a <iprintf>
    80000660:	00813083          	ld	ra,8(sp)
    80000664:	00100513          	li	a0,1
    80000668:	01010113          	addi	sp,sp,16
    8000066c:	00008067          	ret

0000000080000670 <check_write>:
    80000670:	06058863          	beqz	a1,800006e0 <check_write+0x70>
    80000674:	200008b7          	lui	a7,0x20000
    80000678:	00060313          	mv	t1,a2
    8000067c:	00000813          	li	a6,0
    80000680:	00c888bb          	addw	a7,a7,a2
    80000684:	00c0006f          	j	80000690 <check_write+0x20>
    80000688:	0048081b          	addiw	a6,a6,4 # 20000004 <__heap_size+0x1ffe0004>
    8000068c:	04b87a63          	bgeu	a6,a1,800006e0 <check_write+0x70>
    80000690:	0028579b          	srliw	a5,a6,0x2
    80000694:	0108873b          	addw	a4,a7,a6
    80000698:	00279793          	slli	a5,a5,0x2
    8000069c:	02071713          	slli	a4,a4,0x20
    800006a0:	02075713          	srli	a4,a4,0x20
    800006a4:	00f507b3          	add	a5,a0,a5
    800006a8:	00072703          	lw	a4,0(a4)
    800006ac:	0007a683          	lw	a3,0(a5)
    800006b0:	0007061b          	sext.w	a2,a4
    800006b4:	fce68ae3          	beq	a3,a4,80000688 <check_write+0x18>
    800006b8:	ff010113          	addi	sp,sp,-16
    800006bc:	010305bb          	addw	a1,t1,a6
    800006c0:	00002517          	auipc	a0,0x2
    800006c4:	a3850513          	addi	a0,a0,-1480 # 800020f8 <__tbss_end+0x52>
    800006c8:	00113423          	sd	ra,8(sp)
    800006cc:	03e000ef          	jal	8000070a <iprintf>
    800006d0:	00813083          	ld	ra,8(sp)
    800006d4:	00100513          	li	a0,1
    800006d8:	01010113          	addi	sp,sp,16
    800006dc:	00008067          	ret
    800006e0:	00000513          	li	a0,0
    800006e4:	00008067          	ret

00000000800006e8 <_iprintf_r>:
    800006e8:	715d                	addi	sp,sp,-80
    800006ea:	f032                	sd	a2,32(sp)
    800006ec:	f436                	sd	a3,40(sp)
    800006ee:	f83a                	sd	a4,48(sp)
    800006f0:	fc3e                	sd	a5,56(sp)
    800006f2:	e0c2                	sd	a6,64(sp)
    800006f4:	e4c6                	sd	a7,72(sp)
    800006f6:	862e                	mv	a2,a1
    800006f8:	690c                	ld	a1,16(a0)
    800006fa:	1014                	addi	a3,sp,32
    800006fc:	ec06                	sd	ra,24(sp)
    800006fe:	e436                	sd	a3,8(sp)
    80000700:	0cc000ef          	jal	800007cc <_vfiprintf_r>
    80000704:	60e2                	ld	ra,24(sp)
    80000706:	6161                	addi	sp,sp,80
    80000708:	8082                	ret

000000008000070a <iprintf>:
    8000070a:	711d                	addi	sp,sp,-96
    8000070c:	f832                	sd	a2,48(sp)
    8000070e:	fc36                	sd	a3,56(sp)
    80000710:	e4be                	sd	a5,72(sp)
    80000712:	f42e                	sd	a1,40(sp)
    80000714:	e0ba                	sd	a4,64(sp)
    80000716:	e8c2                	sd	a6,80(sp)
    80000718:	ecc6                	sd	a7,88(sp)
    8000071a:	00002797          	auipc	a5,0x2
    8000071e:	db67b783          	ld	a5,-586(a5) # 800024d0 <_impure_ptr>
    80000722:	6b8c                	ld	a1,16(a5)
    80000724:	1034                	addi	a3,sp,40
    80000726:	862a                	mv	a2,a0
    80000728:	853e                	mv	a0,a5
    8000072a:	ec06                	sd	ra,24(sp)
    8000072c:	e436                	sd	a3,8(sp)
    8000072e:	09e000ef          	jal	800007cc <_vfiprintf_r>
    80000732:	60e2                	ld	ra,24(sp)
    80000734:	6125                	addi	sp,sp,96
    80000736:	8082                	ret

0000000080000738 <__sfputc_r>:
    80000738:	465c                	lw	a5,12(a2)
    8000073a:	fff7871b          	addiw	a4,a5,-1
    8000073e:	c658                	sw	a4,12(a2)
    80000740:	00075a63          	bgez	a4,80000754 <__sfputc_r+0x1c>
    80000744:	561c                	lw	a5,40(a2)
    80000746:	00f74563          	blt	a4,a5,80000750 <__sfputc_r+0x18>
    8000074a:	47a9                	li	a5,10
    8000074c:	00f59463          	bne	a1,a5,80000754 <__sfputc_r+0x1c>
    80000750:	4c10006f          	j	80001410 <__swbuf_r>
    80000754:	621c                	ld	a5,0(a2)
    80000756:	852e                	mv	a0,a1
    80000758:	00178713          	addi	a4,a5,1
    8000075c:	e218                	sd	a4,0(a2)
    8000075e:	00b78023          	sb	a1,0(a5)
    80000762:	8082                	ret

0000000080000764 <__sfputs_r>:
    80000764:	7179                	addi	sp,sp,-48
    80000766:	f022                	sd	s0,32(sp)
    80000768:	ec26                	sd	s1,24(sp)
    8000076a:	e84a                	sd	s2,16(sp)
    8000076c:	e44e                	sd	s3,8(sp)
    8000076e:	e052                	sd	s4,0(sp)
    80000770:	f406                	sd	ra,40(sp)
    80000772:	892a                	mv	s2,a0
    80000774:	89ae                	mv	s3,a1
    80000776:	8432                	mv	s0,a2
    80000778:	00d604b3          	add	s1,a2,a3
    8000077c:	5a7d                	li	s4,-1
    8000077e:	00941463          	bne	s0,s1,80000786 <__sfputs_r+0x22>
    80000782:	4501                	li	a0,0
    80000784:	a811                	j	80000798 <__sfputs_r+0x34>
    80000786:	00044583          	lbu	a1,0(s0)
    8000078a:	864e                	mv	a2,s3
    8000078c:	854a                	mv	a0,s2
    8000078e:	fabff0ef          	jal	80000738 <__sfputc_r>
    80000792:	0405                	addi	s0,s0,1
    80000794:	ff4515e3          	bne	a0,s4,8000077e <__sfputs_r+0x1a>
    80000798:	70a2                	ld	ra,40(sp)
    8000079a:	7402                	ld	s0,32(sp)
    8000079c:	64e2                	ld	s1,24(sp)
    8000079e:	6942                	ld	s2,16(sp)
    800007a0:	69a2                	ld	s3,8(sp)
    800007a2:	6a02                	ld	s4,0(sp)
    800007a4:	6145                	addi	sp,sp,48
    800007a6:	8082                	ret

00000000800007a8 <__sprint_r>:
    800007a8:	6a1c                	ld	a5,16(a2)
    800007aa:	1141                	addi	sp,sp,-16
    800007ac:	e022                	sd	s0,0(sp)
    800007ae:	e406                	sd	ra,8(sp)
    800007b0:	8432                	mv	s0,a2
    800007b2:	cb99                	beqz	a5,800007c8 <__sprint_r+0x20>
    800007b4:	059000ef          	jal	8000100c <__sfvwrite_r>
    800007b8:	00043823          	sd	zero,16(s0)
    800007bc:	60a2                	ld	ra,8(sp)
    800007be:	00042423          	sw	zero,8(s0)
    800007c2:	6402                	ld	s0,0(sp)
    800007c4:	0141                	addi	sp,sp,16
    800007c6:	8082                	ret
    800007c8:	4501                	li	a0,0
    800007ca:	bfcd                	j	800007bc <__sprint_r+0x14>

00000000800007cc <_vfiprintf_r>:
    800007cc:	7155                	addi	sp,sp,-208
    800007ce:	e1a2                	sd	s0,192(sp)
    800007d0:	fd26                	sd	s1,184(sp)
    800007d2:	f94a                	sd	s2,176(sp)
    800007d4:	f54e                	sd	s3,168(sp)
    800007d6:	f152                	sd	s4,160(sp)
    800007d8:	e586                	sd	ra,200(sp)
    800007da:	ed56                	sd	s5,152(sp)
    800007dc:	e95a                	sd	s6,144(sp)
    800007de:	e55e                	sd	s7,136(sp)
    800007e0:	e162                	sd	s8,128(sp)
    800007e2:	fce6                	sd	s9,120(sp)
    800007e4:	f8ea                	sd	s10,112(sp)
    800007e6:	8a2a                	mv	s4,a0
    800007e8:	892e                	mv	s2,a1
    800007ea:	84b2                	mv	s1,a2
    800007ec:	8436                	mv	s0,a3
    800007ee:	4981                	li	s3,0
    800007f0:	c509                	beqz	a0,800007fa <_vfiprintf_r+0x2e>
    800007f2:	613c                	ld	a5,64(a0)
    800007f4:	e399                	bnez	a5,800007fa <_vfiprintf_r+0x2e>
    800007f6:	7d2000ef          	jal	80000fc8 <__sinit>
    800007fa:	01095783          	lhu	a5,16(s2)
    800007fe:	8ba1                	andi	a5,a5,8
    80000800:	cbe1                	beqz	a5,800008d0 <_vfiprintf_r+0x104>
    80000802:	01893783          	ld	a5,24(s2)
    80000806:	c7e9                	beqz	a5,800008d0 <_vfiprintf_r+0x104>
    80000808:	02000793          	li	a5,32
    8000080c:	02f104a3          	sb	a5,41(sp)
    80000810:	5afd                	li	s5,-1
    80000812:	03000793          	li	a5,48
    80000816:	d202                	sw	zero,36(sp)
    80000818:	02f10523          	sb	a5,42(sp)
    8000081c:	e422                	sd	s0,8(sp)
    8000081e:	02500b93          	li	s7,37
    80000822:	020a9c13          	slli	s8,s5,0x20
    80000826:	00002b17          	auipc	s6,0x2
    8000082a:	abab0b13          	addi	s6,s6,-1350 # 800022e0 <__tbss_end+0x23a>
    8000082e:	4c85                	li	s9,1
    80000830:	8426                	mv	s0,s1
    80000832:	00044783          	lbu	a5,0(s0)
    80000836:	c399                	beqz	a5,8000083c <_vfiprintf_r+0x70>
    80000838:	0d779063          	bne	a5,s7,800008f8 <_vfiprintf_r+0x12c>
    8000083c:	40940d3b          	subw	s10,s0,s1
    80000840:	000d0e63          	beqz	s10,8000085c <_vfiprintf_r+0x90>
    80000844:	86ea                	mv	a3,s10
    80000846:	8626                	mv	a2,s1
    80000848:	85ca                	mv	a1,s2
    8000084a:	8552                	mv	a0,s4
    8000084c:	f19ff0ef          	jal	80000764 <__sfputs_r>
    80000850:	1d550963          	beq	a0,s5,80000a22 <_vfiprintf_r+0x256>
    80000854:	5792                	lw	a5,36(sp)
    80000856:	01a787bb          	addw	a5,a5,s10
    8000085a:	d23e                	sw	a5,36(sp)
    8000085c:	00044783          	lbu	a5,0(s0)
    80000860:	1c078163          	beqz	a5,80000a22 <_vfiprintf_r+0x256>
    80000864:	00140493          	addi	s1,s0,1
    80000868:	e862                	sd	s8,16(sp)
    8000086a:	ec02                	sd	zero,24(sp)
    8000086c:	040109a3          	sb	zero,83(sp)
    80000870:	d482                	sw	zero,104(sp)
    80000872:	0004c583          	lbu	a1,0(s1)
    80000876:	4615                	li	a2,5
    80000878:	855a                	mv	a0,s6
    8000087a:	50f000ef          	jal	80001588 <memchr>
    8000087e:	47c2                	lw	a5,16(sp)
    80000880:	00148413          	addi	s0,s1,1
    80000884:	ed25                	bnez	a0,800008fc <_vfiprintf_r+0x130>
    80000886:	0107f713          	andi	a4,a5,16
    8000088a:	c709                	beqz	a4,80000894 <_vfiprintf_r+0xc8>
    8000088c:	02000713          	li	a4,32
    80000890:	04e109a3          	sb	a4,83(sp)
    80000894:	0087f713          	andi	a4,a5,8
    80000898:	c709                	beqz	a4,800008a2 <_vfiprintf_r+0xd6>
    8000089a:	02b00713          	li	a4,43
    8000089e:	04e109a3          	sb	a4,83(sp)
    800008a2:	0004c683          	lbu	a3,0(s1)
    800008a6:	02a00713          	li	a4,42
    800008aa:	06e68163          	beq	a3,a4,8000090c <_vfiprintf_r+0x140>
    800008ae:	47f2                	lw	a5,28(sp)
    800008b0:	8426                	mv	s0,s1
    800008b2:	4681                	li	a3,0
    800008b4:	4625                	li	a2,9
    800008b6:	4829                	li	a6,10
    800008b8:	00044703          	lbu	a4,0(s0)
    800008bc:	00140513          	addi	a0,s0,1
    800008c0:	fd07059b          	addiw	a1,a4,-48
    800008c4:	872e                	mv	a4,a1
    800008c6:	08b67a63          	bgeu	a2,a1,8000095a <_vfiprintf_r+0x18e>
    800008ca:	caa9                	beqz	a3,8000091c <_vfiprintf_r+0x150>
    800008cc:	ce3e                	sw	a5,28(sp)
    800008ce:	a0b9                	j	8000091c <_vfiprintf_r+0x150>
    800008d0:	85ca                	mv	a1,s2
    800008d2:	8552                	mv	a0,s4
    800008d4:	3e7000ef          	jal	800014ba <__swsetup_r>
    800008d8:	d905                	beqz	a0,80000808 <_vfiprintf_r+0x3c>
    800008da:	557d                	li	a0,-1
    800008dc:	60ae                	ld	ra,200(sp)
    800008de:	640e                	ld	s0,192(sp)
    800008e0:	74ea                	ld	s1,184(sp)
    800008e2:	794a                	ld	s2,176(sp)
    800008e4:	79aa                	ld	s3,168(sp)
    800008e6:	7a0a                	ld	s4,160(sp)
    800008e8:	6aea                	ld	s5,152(sp)
    800008ea:	6b4a                	ld	s6,144(sp)
    800008ec:	6baa                	ld	s7,136(sp)
    800008ee:	6c0a                	ld	s8,128(sp)
    800008f0:	7ce6                	ld	s9,120(sp)
    800008f2:	7d46                	ld	s10,112(sp)
    800008f4:	6169                	addi	sp,sp,208
    800008f6:	8082                	ret
    800008f8:	0405                	addi	s0,s0,1
    800008fa:	bf25                	j	80000832 <_vfiprintf_r+0x66>
    800008fc:	41650533          	sub	a0,a0,s6
    80000900:	00ac953b          	sllw	a0,s9,a0
    80000904:	8fc9                	or	a5,a5,a0
    80000906:	c83e                	sw	a5,16(sp)
    80000908:	84a2                	mv	s1,s0
    8000090a:	b7a5                	j	80000872 <_vfiprintf_r+0xa6>
    8000090c:	6722                	ld	a4,8(sp)
    8000090e:	00870693          	addi	a3,a4,8
    80000912:	4318                	lw	a4,0(a4)
    80000914:	e436                	sd	a3,8(sp)
    80000916:	02074b63          	bltz	a4,8000094c <_vfiprintf_r+0x180>
    8000091a:	ce3a                	sw	a4,28(sp)
    8000091c:	00044703          	lbu	a4,0(s0)
    80000920:	02e00793          	li	a5,46
    80000924:	06f71163          	bne	a4,a5,80000986 <_vfiprintf_r+0x1ba>
    80000928:	00144703          	lbu	a4,1(s0)
    8000092c:	02a00793          	li	a5,42
    80000930:	02f71b63          	bne	a4,a5,80000966 <_vfiprintf_r+0x19a>
    80000934:	67a2                	ld	a5,8(sp)
    80000936:	0409                	addi	s0,s0,2
    80000938:	00878713          	addi	a4,a5,8
    8000093c:	e43a                	sd	a4,8(sp)
    8000093e:	4398                	lw	a4,0(a5)
    80000940:	87ba                	mv	a5,a4
    80000942:	00075363          	bgez	a4,80000948 <_vfiprintf_r+0x17c>
    80000946:	57fd                	li	a5,-1
    80000948:	ca3e                	sw	a5,20(sp)
    8000094a:	a835                	j	80000986 <_vfiprintf_r+0x1ba>
    8000094c:	40e0073b          	negw	a4,a4
    80000950:	0027e793          	ori	a5,a5,2
    80000954:	ce3a                	sw	a4,28(sp)
    80000956:	c83e                	sw	a5,16(sp)
    80000958:	b7d1                	j	8000091c <_vfiprintf_r+0x150>
    8000095a:	02f807bb          	mulw	a5,a6,a5
    8000095e:	842a                	mv	s0,a0
    80000960:	4685                	li	a3,1
    80000962:	9fb9                	addw	a5,a5,a4
    80000964:	bf91                	j	800008b8 <_vfiprintf_r+0xec>
    80000966:	0405                	addi	s0,s0,1
    80000968:	ca02                	sw	zero,20(sp)
    8000096a:	4681                	li	a3,0
    8000096c:	4781                	li	a5,0
    8000096e:	4625                	li	a2,9
    80000970:	4829                	li	a6,10
    80000972:	00044703          	lbu	a4,0(s0)
    80000976:	00140513          	addi	a0,s0,1
    8000097a:	fd07059b          	addiw	a1,a4,-48
    8000097e:	872e                	mv	a4,a1
    80000980:	06b67c63          	bgeu	a2,a1,800009f8 <_vfiprintf_r+0x22c>
    80000984:	f2f1                	bnez	a3,80000948 <_vfiprintf_r+0x17c>
    80000986:	00044583          	lbu	a1,0(s0)
    8000098a:	460d                	li	a2,3
    8000098c:	00002517          	auipc	a0,0x2
    80000990:	95c50513          	addi	a0,a0,-1700 # 800022e8 <__tbss_end+0x242>
    80000994:	3f5000ef          	jal	80001588 <memchr>
    80000998:	cd11                	beqz	a0,800009b4 <_vfiprintf_r+0x1e8>
    8000099a:	00002797          	auipc	a5,0x2
    8000099e:	94e78793          	addi	a5,a5,-1714 # 800022e8 <__tbss_end+0x242>
    800009a2:	8d1d                	sub	a0,a0,a5
    800009a4:	47c2                	lw	a5,16(sp)
    800009a6:	04000713          	li	a4,64
    800009aa:	00a7173b          	sllw	a4,a4,a0
    800009ae:	8fd9                	or	a5,a5,a4
    800009b0:	0405                	addi	s0,s0,1
    800009b2:	c83e                	sw	a5,16(sp)
    800009b4:	00044583          	lbu	a1,0(s0)
    800009b8:	4619                	li	a2,6
    800009ba:	00002517          	auipc	a0,0x2
    800009be:	93650513          	addi	a0,a0,-1738 # 800022f0 <__tbss_end+0x24a>
    800009c2:	00140493          	addi	s1,s0,1
    800009c6:	02b10423          	sb	a1,40(sp)
    800009ca:	3bf000ef          	jal	80001588 <memchr>
    800009ce:	c135                	beqz	a0,80000a32 <_vfiprintf_r+0x266>
    800009d0:	00000793          	li	a5,0
    800009d4:	eb85                	bnez	a5,80000a04 <_vfiprintf_r+0x238>
    800009d6:	4742                	lw	a4,16(sp)
    800009d8:	67a2                	ld	a5,8(sp)
    800009da:	10077713          	andi	a4,a4,256
    800009de:	00878693          	addi	a3,a5,8
    800009e2:	c709                	beqz	a4,800009ec <_vfiprintf_r+0x220>
    800009e4:	07bd                	addi	a5,a5,15
    800009e6:	9bc1                	andi	a5,a5,-16
    800009e8:	01078693          	addi	a3,a5,16
    800009ec:	e436                	sd	a3,8(sp)
    800009ee:	5792                	lw	a5,36(sp)
    800009f0:	013787bb          	addw	a5,a5,s3
    800009f4:	d23e                	sw	a5,36(sp)
    800009f6:	bd2d                	j	80000830 <_vfiprintf_r+0x64>
    800009f8:	02f807bb          	mulw	a5,a6,a5
    800009fc:	842a                	mv	s0,a0
    800009fe:	4685                	li	a3,1
    80000a00:	9fb9                	addw	a5,a5,a4
    80000a02:	bf85                	j	80000972 <_vfiprintf_r+0x1a6>
    80000a04:	0038                	addi	a4,sp,8
    80000a06:	00000697          	auipc	a3,0x0
    80000a0a:	d5e68693          	addi	a3,a3,-674 # 80000764 <__sfputs_r>
    80000a0e:	864a                	mv	a2,s2
    80000a10:	080c                	addi	a1,sp,16
    80000a12:	8552                	mv	a0,s4
    80000a14:	00000097          	auipc	ra,0x0
    80000a18:	000000e7          	jalr	zero # 0 <__boot_hart>
    80000a1c:	89aa                	mv	s3,a0
    80000a1e:	fd5518e3          	bne	a0,s5,800009ee <_vfiprintf_r+0x222>
    80000a22:	01095783          	lhu	a5,16(s2)
    80000a26:	0407f793          	andi	a5,a5,64
    80000a2a:	ea0798e3          	bnez	a5,800008da <_vfiprintf_r+0x10e>
    80000a2e:	5512                	lw	a0,36(sp)
    80000a30:	b575                	j	800008dc <_vfiprintf_r+0x110>
    80000a32:	0038                	addi	a4,sp,8
    80000a34:	00000697          	auipc	a3,0x0
    80000a38:	d3068693          	addi	a3,a3,-720 # 80000764 <__sfputs_r>
    80000a3c:	864a                	mv	a2,s2
    80000a3e:	080c                	addi	a1,sp,16
    80000a40:	8552                	mv	a0,s4
    80000a42:	134000ef          	jal	80000b76 <_printf_i>
    80000a46:	bfd9                	j	80000a1c <_vfiprintf_r+0x250>

0000000080000a48 <vfiprintf>:
    80000a48:	86b2                	mv	a3,a2
    80000a4a:	862e                	mv	a2,a1
    80000a4c:	85aa                	mv	a1,a0
    80000a4e:	00002517          	auipc	a0,0x2
    80000a52:	a8253503          	ld	a0,-1406(a0) # 800024d0 <_impure_ptr>
    80000a56:	bb9d                	j	800007cc <_vfiprintf_r>

0000000080000a58 <_printf_common>:
    80000a58:	715d                	addi	sp,sp,-80
    80000a5a:	f052                	sd	s4,32(sp)
    80000a5c:	ec56                	sd	s5,24(sp)
    80000a5e:	8a36                	mv	s4,a3
    80000a60:	8aba                	mv	s5,a4
    80000a62:	4994                	lw	a3,16(a1)
    80000a64:	4598                	lw	a4,8(a1)
    80000a66:	e0a2                	sd	s0,64(sp)
    80000a68:	f84a                	sd	s2,48(sp)
    80000a6a:	f44e                	sd	s3,40(sp)
    80000a6c:	e486                	sd	ra,72(sp)
    80000a6e:	fc26                	sd	s1,56(sp)
    80000a70:	e85a                	sd	s6,16(sp)
    80000a72:	e45e                	sd	s7,8(sp)
    80000a74:	89aa                	mv	s3,a0
    80000a76:	842e                	mv	s0,a1
    80000a78:	8932                	mv	s2,a2
    80000a7a:	87ba                	mv	a5,a4
    80000a7c:	00e6c363          	blt	a3,a4,80000a82 <_printf_common+0x2a>
    80000a80:	87b6                	mv	a5,a3
    80000a82:	00f92023          	sw	a5,0(s2)
    80000a86:	04344703          	lbu	a4,67(s0)
    80000a8a:	c701                	beqz	a4,80000a92 <_printf_common+0x3a>
    80000a8c:	2785                	addiw	a5,a5,1
    80000a8e:	00f92023          	sw	a5,0(s2)
    80000a92:	401c                	lw	a5,0(s0)
    80000a94:	0207f793          	andi	a5,a5,32
    80000a98:	c791                	beqz	a5,80000aa4 <_printf_common+0x4c>
    80000a9a:	00092783          	lw	a5,0(s2)
    80000a9e:	2789                	addiw	a5,a5,2
    80000aa0:	00f92023          	sw	a5,0(s2)
    80000aa4:	4004                	lw	s1,0(s0)
    80000aa6:	8899                	andi	s1,s1,6
    80000aa8:	e891                	bnez	s1,80000abc <_printf_common+0x64>
    80000aaa:	01940b13          	addi	s6,s0,25
    80000aae:	5bfd                	li	s7,-1
    80000ab0:	445c                	lw	a5,12(s0)
    80000ab2:	00092703          	lw	a4,0(s2)
    80000ab6:	9f99                	subw	a5,a5,a4
    80000ab8:	06f4c063          	blt	s1,a5,80000b18 <_printf_common+0xc0>
    80000abc:	04344783          	lbu	a5,67(s0)
    80000ac0:	00f03633          	snez	a2,a5
    80000ac4:	00f036b3          	snez	a3,a5
    80000ac8:	401c                	lw	a5,0(s0)
    80000aca:	0207f793          	andi	a5,a5,32
    80000ace:	ebb5                	bnez	a5,80000b42 <_printf_common+0xea>
    80000ad0:	04340613          	addi	a2,s0,67
    80000ad4:	85d2                	mv	a1,s4
    80000ad6:	854e                	mv	a0,s3
    80000ad8:	9a82                	jalr	s5
    80000ada:	57fd                	li	a5,-1
    80000adc:	04f50563          	beq	a0,a5,80000b26 <_printf_common+0xce>
    80000ae0:	401c                	lw	a5,0(s0)
    80000ae2:	4711                	li	a4,4
    80000ae4:	4481                	li	s1,0
    80000ae6:	8b99                	andi	a5,a5,6
    80000ae8:	00e79b63          	bne	a5,a4,80000afe <_printf_common+0xa6>
    80000aec:	00092783          	lw	a5,0(s2)
    80000af0:	4444                	lw	s1,12(s0)
    80000af2:	9c9d                	subw	s1,s1,a5
    80000af4:	02049793          	slli	a5,s1,0x20
    80000af8:	0007d363          	bgez	a5,80000afe <_printf_common+0xa6>
    80000afc:	4481                	li	s1,0
    80000afe:	441c                	lw	a5,8(s0)
    80000b00:	4818                	lw	a4,16(s0)
    80000b02:	00f75463          	bge	a4,a5,80000b0a <_printf_common+0xb2>
    80000b06:	9f99                	subw	a5,a5,a4
    80000b08:	9cbd                	addw	s1,s1,a5
    80000b0a:	4901                	li	s2,0
    80000b0c:	0469                	addi	s0,s0,26
    80000b0e:	5b7d                	li	s6,-1
    80000b10:	05249a63          	bne	s1,s2,80000b64 <_printf_common+0x10c>
    80000b14:	4501                	li	a0,0
    80000b16:	a809                	j	80000b28 <_printf_common+0xd0>
    80000b18:	4685                	li	a3,1
    80000b1a:	865a                	mv	a2,s6
    80000b1c:	85d2                	mv	a1,s4
    80000b1e:	854e                	mv	a0,s3
    80000b20:	9a82                	jalr	s5
    80000b22:	01751e63          	bne	a0,s7,80000b3e <_printf_common+0xe6>
    80000b26:	557d                	li	a0,-1
    80000b28:	60a6                	ld	ra,72(sp)
    80000b2a:	6406                	ld	s0,64(sp)
    80000b2c:	74e2                	ld	s1,56(sp)
    80000b2e:	7942                	ld	s2,48(sp)
    80000b30:	79a2                	ld	s3,40(sp)
    80000b32:	7a02                	ld	s4,32(sp)
    80000b34:	6ae2                	ld	s5,24(sp)
    80000b36:	6b42                	ld	s6,16(sp)
    80000b38:	6ba2                	ld	s7,8(sp)
    80000b3a:	6161                	addi	sp,sp,80
    80000b3c:	8082                	ret
    80000b3e:	2485                	addiw	s1,s1,1
    80000b40:	bf85                	j	80000ab0 <_printf_common+0x58>
    80000b42:	00d407b3          	add	a5,s0,a3
    80000b46:	03000693          	li	a3,48
    80000b4a:	04d781a3          	sb	a3,67(a5)
    80000b4e:	0016071b          	addiw	a4,a2,1
    80000b52:	0026069b          	addiw	a3,a2,2
    80000b56:	04544603          	lbu	a2,69(s0)
    80000b5a:	00e407b3          	add	a5,s0,a4
    80000b5e:	04c781a3          	sb	a2,67(a5)
    80000b62:	b7bd                	j	80000ad0 <_printf_common+0x78>
    80000b64:	4685                	li	a3,1
    80000b66:	8622                	mv	a2,s0
    80000b68:	85d2                	mv	a1,s4
    80000b6a:	854e                	mv	a0,s3
    80000b6c:	9a82                	jalr	s5
    80000b6e:	fb650ce3          	beq	a0,s6,80000b26 <_printf_common+0xce>
    80000b72:	2905                	addiw	s2,s2,1
    80000b74:	bf71                	j	80000b10 <_printf_common+0xb8>

0000000080000b76 <_printf_i>:
    80000b76:	715d                	addi	sp,sp,-80
    80000b78:	e0a2                	sd	s0,64(sp)
    80000b7a:	f84a                	sd	s2,48(sp)
    80000b7c:	f44e                	sd	s3,40(sp)
    80000b7e:	f052                	sd	s4,32(sp)
    80000b80:	e486                	sd	ra,72(sp)
    80000b82:	fc26                	sd	s1,56(sp)
    80000b84:	ec56                	sd	s5,24(sp)
    80000b86:	e85a                	sd	s6,16(sp)
    80000b88:	0185c803          	lbu	a6,24(a1)
    80000b8c:	07800793          	li	a5,120
    80000b90:	892a                	mv	s2,a0
    80000b92:	842e                	mv	s0,a1
    80000b94:	89b2                	mv	s3,a2
    80000b96:	8a36                	mv	s4,a3
    80000b98:	0307e263          	bltu	a5,a6,80000bbc <_printf_i+0x46>
    80000b9c:	06200793          	li	a5,98
    80000ba0:	04358693          	addi	a3,a1,67
    80000ba4:	0307e163          	bltu	a5,a6,80000bc6 <_printf_i+0x50>
    80000ba8:	1c080663          	beqz	a6,80000d74 <_printf_i+0x1fe>
    80000bac:	05800793          	li	a5,88
    80000bb0:	00001617          	auipc	a2,0x1
    80000bb4:	74860613          	addi	a2,a2,1864 # 800022f8 <__tbss_end+0x252>
    80000bb8:	14f80a63          	beq	a6,a5,80000d0c <_printf_i+0x196>
    80000bbc:	04240493          	addi	s1,s0,66
    80000bc0:	05040123          	sb	a6,66(s0)
    80000bc4:	a815                	j	80000bf8 <_printf_i+0x82>
    80000bc6:	f9d8079b          	addiw	a5,a6,-99
    80000bca:	0ff7f793          	zext.b	a5,a5
    80000bce:	4655                	li	a2,21
    80000bd0:	fef666e3          	bltu	a2,a5,80000bbc <_printf_i+0x46>
    80000bd4:	00001617          	auipc	a2,0x1
    80000bd8:	75060613          	addi	a2,a2,1872 # 80002324 <__tbss_end+0x27e>
    80000bdc:	078a                	slli	a5,a5,0x2
    80000bde:	97b2                	add	a5,a5,a2
    80000be0:	439c                	lw	a5,0(a5)
    80000be2:	97b2                	add	a5,a5,a2
    80000be4:	8782                	jr	a5
    80000be6:	631c                	ld	a5,0(a4)
    80000be8:	04258493          	addi	s1,a1,66
    80000bec:	00878693          	addi	a3,a5,8
    80000bf0:	439c                	lw	a5,0(a5)
    80000bf2:	e314                	sd	a3,0(a4)
    80000bf4:	04f58123          	sb	a5,66(a1)
    80000bf8:	4785                	li	a5,1
    80000bfa:	aa4d                	j	80000dac <_printf_i+0x236>
    80000bfc:	419c                	lw	a5,0(a1)
    80000bfe:	6308                	ld	a0,0(a4)
    80000c00:	0807f613          	andi	a2,a5,128
    80000c04:	00850593          	addi	a1,a0,8
    80000c08:	c20d                	beqz	a2,80000c2a <_printf_i+0xb4>
    80000c0a:	611c                	ld	a5,0(a0)
    80000c0c:	e30c                	sd	a1,0(a4)
    80000c0e:	0007d863          	bgez	a5,80000c1e <_printf_i+0xa8>
    80000c12:	02d00713          	li	a4,45
    80000c16:	40f007b3          	neg	a5,a5
    80000c1a:	04e401a3          	sb	a4,67(s0)
    80000c1e:	00001617          	auipc	a2,0x1
    80000c22:	6da60613          	addi	a2,a2,1754 # 800022f8 <__tbss_end+0x252>
    80000c26:	4829                	li	a6,10
    80000c28:	a83d                	j	80000c66 <_printf_i+0xf0>
    80000c2a:	0407f613          	andi	a2,a5,64
    80000c2e:	411c                	lw	a5,0(a0)
    80000c30:	e30c                	sd	a1,0(a4)
    80000c32:	de71                	beqz	a2,80000c0e <_printf_i+0x98>
    80000c34:	0107979b          	slliw	a5,a5,0x10
    80000c38:	4107d79b          	sraiw	a5,a5,0x10
    80000c3c:	bfc9                	j	80000c0e <_printf_i+0x98>
    80000c3e:	4190                	lw	a2,0(a1)
    80000c40:	631c                	ld	a5,0(a4)
    80000c42:	08067513          	andi	a0,a2,128
    80000c46:	00878593          	addi	a1,a5,8
    80000c4a:	cd41                	beqz	a0,80000ce2 <_printf_i+0x16c>
    80000c4c:	639c                	ld	a5,0(a5)
    80000c4e:	e30c                	sd	a1,0(a4)
    80000c50:	06f00713          	li	a4,111
    80000c54:	00001617          	auipc	a2,0x1
    80000c58:	6a460613          	addi	a2,a2,1700 # 800022f8 <__tbss_end+0x252>
    80000c5c:	0ee81e63          	bne	a6,a4,80000d58 <_printf_i+0x1e2>
    80000c60:	4821                	li	a6,8
    80000c62:	040401a3          	sb	zero,67(s0)
    80000c66:	4058                	lw	a4,4(s0)
    80000c68:	c418                	sw	a4,8(s0)
    80000c6a:	00074563          	bltz	a4,80000c74 <_printf_i+0xfe>
    80000c6e:	400c                	lw	a1,0(s0)
    80000c70:	99ed                	andi	a1,a1,-5
    80000c72:	c00c                	sw	a1,0(s0)
    80000c74:	e399                	bnez	a5,80000c7a <_printf_i+0x104>
    80000c76:	84b6                	mv	s1,a3
    80000c78:	cf19                	beqz	a4,80000c96 <_printf_i+0x120>
    80000c7a:	84b6                	mv	s1,a3
    80000c7c:	0307f733          	remu	a4,a5,a6
    80000c80:	14fd                	addi	s1,s1,-1
    80000c82:	9732                	add	a4,a4,a2
    80000c84:	00074703          	lbu	a4,0(a4)
    80000c88:	00e48023          	sb	a4,0(s1)
    80000c8c:	873e                	mv	a4,a5
    80000c8e:	0307d7b3          	divu	a5,a5,a6
    80000c92:	ff0775e3          	bgeu	a4,a6,80000c7c <_printf_i+0x106>
    80000c96:	47a1                	li	a5,8
    80000c98:	00f81e63          	bne	a6,a5,80000cb4 <_printf_i+0x13e>
    80000c9c:	401c                	lw	a5,0(s0)
    80000c9e:	8b85                	andi	a5,a5,1
    80000ca0:	cb91                	beqz	a5,80000cb4 <_printf_i+0x13e>
    80000ca2:	4058                	lw	a4,4(s0)
    80000ca4:	481c                	lw	a5,16(s0)
    80000ca6:	00e7c763          	blt	a5,a4,80000cb4 <_printf_i+0x13e>
    80000caa:	03000793          	li	a5,48
    80000cae:	fef48fa3          	sb	a5,-1(s1)
    80000cb2:	14fd                	addi	s1,s1,-1
    80000cb4:	8e85                	sub	a3,a3,s1
    80000cb6:	c814                	sw	a3,16(s0)
    80000cb8:	8752                	mv	a4,s4
    80000cba:	86ce                	mv	a3,s3
    80000cbc:	0070                	addi	a2,sp,12
    80000cbe:	85a2                	mv	a1,s0
    80000cc0:	854a                	mv	a0,s2
    80000cc2:	d97ff0ef          	jal	80000a58 <_printf_common>
    80000cc6:	5afd                	li	s5,-1
    80000cc8:	0f551663          	bne	a0,s5,80000db4 <_printf_i+0x23e>
    80000ccc:	557d                	li	a0,-1
    80000cce:	60a6                	ld	ra,72(sp)
    80000cd0:	6406                	ld	s0,64(sp)
    80000cd2:	74e2                	ld	s1,56(sp)
    80000cd4:	7942                	ld	s2,48(sp)
    80000cd6:	79a2                	ld	s3,40(sp)
    80000cd8:	7a02                	ld	s4,32(sp)
    80000cda:	6ae2                	ld	s5,24(sp)
    80000cdc:	6b42                	ld	s6,16(sp)
    80000cde:	6161                	addi	sp,sp,80
    80000ce0:	8082                	ret
    80000ce2:	439c                	lw	a5,0(a5)
    80000ce4:	04067613          	andi	a2,a2,64
    80000ce8:	e30c                	sd	a1,0(a4)
    80000cea:	c601                	beqz	a2,80000cf2 <_printf_i+0x17c>
    80000cec:	17c2                	slli	a5,a5,0x30
    80000cee:	93c1                	srli	a5,a5,0x30
    80000cf0:	b785                	j	80000c50 <_printf_i+0xda>
    80000cf2:	1782                	slli	a5,a5,0x20
    80000cf4:	9381                	srli	a5,a5,0x20
    80000cf6:	bfa9                	j	80000c50 <_printf_i+0xda>
    80000cf8:	419c                	lw	a5,0(a1)
    80000cfa:	0a07e793          	ori	a5,a5,160
    80000cfe:	c19c                	sw	a5,0(a1)
    80000d00:	07800813          	li	a6,120
    80000d04:	00001617          	auipc	a2,0x1
    80000d08:	60c60613          	addi	a2,a2,1548 # 80002310 <__tbss_end+0x26a>
    80000d0c:	050402a3          	sb	a6,69(s0)
    80000d10:	400c                	lw	a1,0(s0)
    80000d12:	631c                	ld	a5,0(a4)
    80000d14:	0805f813          	andi	a6,a1,128
    80000d18:	00878513          	addi	a0,a5,8
    80000d1c:	00080d63          	beqz	a6,80000d36 <_printf_i+0x1c0>
    80000d20:	639c                	ld	a5,0(a5)
    80000d22:	e308                	sd	a0,0(a4)
    80000d24:	0015f713          	andi	a4,a1,1
    80000d28:	c701                	beqz	a4,80000d30 <_printf_i+0x1ba>
    80000d2a:	0205e593          	ori	a1,a1,32
    80000d2e:	c00c                	sw	a1,0(s0)
    80000d30:	cf99                	beqz	a5,80000d4e <_printf_i+0x1d8>
    80000d32:	4841                	li	a6,16
    80000d34:	b73d                	j	80000c62 <_printf_i+0xec>
    80000d36:	439c                	lw	a5,0(a5)
    80000d38:	0405f813          	andi	a6,a1,64
    80000d3c:	e308                	sd	a0,0(a4)
    80000d3e:	00080563          	beqz	a6,80000d48 <_printf_i+0x1d2>
    80000d42:	17c2                	slli	a5,a5,0x30
    80000d44:	93c1                	srli	a5,a5,0x30
    80000d46:	bff9                	j	80000d24 <_printf_i+0x1ae>
    80000d48:	1782                	slli	a5,a5,0x20
    80000d4a:	9381                	srli	a5,a5,0x20
    80000d4c:	bfe1                	j	80000d24 <_printf_i+0x1ae>
    80000d4e:	4018                	lw	a4,0(s0)
    80000d50:	fdf77713          	andi	a4,a4,-33
    80000d54:	c018                	sw	a4,0(s0)
    80000d56:	bff1                	j	80000d32 <_printf_i+0x1bc>
    80000d58:	4829                	li	a6,10
    80000d5a:	b721                	j	80000c62 <_printf_i+0xec>
    80000d5c:	4190                	lw	a2,0(a1)
    80000d5e:	631c                	ld	a5,0(a4)
    80000d60:	49cc                	lw	a1,20(a1)
    80000d62:	08067813          	andi	a6,a2,128
    80000d66:	00878513          	addi	a0,a5,8
    80000d6a:	00080963          	beqz	a6,80000d7c <_printf_i+0x206>
    80000d6e:	e308                	sd	a0,0(a4)
    80000d70:	639c                	ld	a5,0(a5)
    80000d72:	e38c                	sd	a1,0(a5)
    80000d74:	00042823          	sw	zero,16(s0)
    80000d78:	84b6                	mv	s1,a3
    80000d7a:	bf3d                	j	80000cb8 <_printf_i+0x142>
    80000d7c:	e308                	sd	a0,0(a4)
    80000d7e:	04067613          	andi	a2,a2,64
    80000d82:	639c                	ld	a5,0(a5)
    80000d84:	c601                	beqz	a2,80000d8c <_printf_i+0x216>
    80000d86:	00b79023          	sh	a1,0(a5)
    80000d8a:	b7ed                	j	80000d74 <_printf_i+0x1fe>
    80000d8c:	c38c                	sw	a1,0(a5)
    80000d8e:	b7dd                	j	80000d74 <_printf_i+0x1fe>
    80000d90:	631c                	ld	a5,0(a4)
    80000d92:	41d0                	lw	a2,4(a1)
    80000d94:	4581                	li	a1,0
    80000d96:	00878693          	addi	a3,a5,8
    80000d9a:	e314                	sd	a3,0(a4)
    80000d9c:	6384                	ld	s1,0(a5)
    80000d9e:	8526                	mv	a0,s1
    80000da0:	7e8000ef          	jal	80001588 <memchr>
    80000da4:	c119                	beqz	a0,80000daa <_printf_i+0x234>
    80000da6:	8d05                	sub	a0,a0,s1
    80000da8:	c048                	sw	a0,4(s0)
    80000daa:	405c                	lw	a5,4(s0)
    80000dac:	c81c                	sw	a5,16(s0)
    80000dae:	040401a3          	sb	zero,67(s0)
    80000db2:	b719                	j	80000cb8 <_printf_i+0x142>
    80000db4:	4814                	lw	a3,16(s0)
    80000db6:	8626                	mv	a2,s1
    80000db8:	85ce                	mv	a1,s3
    80000dba:	854a                	mv	a0,s2
    80000dbc:	9a02                	jalr	s4
    80000dbe:	f15507e3          	beq	a0,s5,80000ccc <_printf_i+0x156>
    80000dc2:	401c                	lw	a5,0(s0)
    80000dc4:	8b89                	andi	a5,a5,2
    80000dc6:	eb85                	bnez	a5,80000df6 <_printf_i+0x280>
    80000dc8:	4458                	lw	a4,12(s0)
    80000dca:	47b2                	lw	a5,12(sp)
    80000dcc:	0007051b          	sext.w	a0,a4
    80000dd0:	eef75fe3          	bge	a4,a5,80000cce <_printf_i+0x158>
    80000dd4:	0007851b          	sext.w	a0,a5
    80000dd8:	bddd                	j	80000cce <_printf_i+0x158>
    80000dda:	4685                	li	a3,1
    80000ddc:	8656                	mv	a2,s5
    80000dde:	85ce                	mv	a1,s3
    80000de0:	854a                	mv	a0,s2
    80000de2:	9a02                	jalr	s4
    80000de4:	ef6504e3          	beq	a0,s6,80000ccc <_printf_i+0x156>
    80000de8:	2485                	addiw	s1,s1,1
    80000dea:	445c                	lw	a5,12(s0)
    80000dec:	4732                	lw	a4,12(sp)
    80000dee:	9f99                	subw	a5,a5,a4
    80000df0:	fef4c5e3          	blt	s1,a5,80000dda <_printf_i+0x264>
    80000df4:	bfd1                	j	80000dc8 <_printf_i+0x252>
    80000df6:	4481                	li	s1,0
    80000df8:	01940a93          	addi	s5,s0,25
    80000dfc:	5b7d                	li	s6,-1
    80000dfe:	b7f5                	j	80000dea <_printf_i+0x274>

0000000080000e00 <__fp_lock>:
    80000e00:	4501                	li	a0,0
    80000e02:	8082                	ret

0000000080000e04 <std>:
    80000e04:	1141                	addi	sp,sp,-16
    80000e06:	e022                	sd	s0,0(sp)
    80000e08:	e406                	sd	ra,8(sp)
    80000e0a:	842a                	mv	s0,a0
    80000e0c:	00b51823          	sh	a1,16(a0)
    80000e10:	00c51923          	sh	a2,18(a0)
    80000e14:	00053023          	sd	zero,0(a0)
    80000e18:	00053423          	sd	zero,8(a0)
    80000e1c:	0a052623          	sw	zero,172(a0)
    80000e20:	00053c23          	sd	zero,24(a0)
    80000e24:	02052023          	sw	zero,32(a0)
    80000e28:	02052423          	sw	zero,40(a0)
    80000e2c:	4621                	li	a2,8
    80000e2e:	4581                	li	a1,0
    80000e30:	0a450513          	addi	a0,a0,164
    80000e34:	111000ef          	jal	80001744 <memset>
    80000e38:	00000797          	auipc	a5,0x0
    80000e3c:	51478793          	addi	a5,a5,1300 # 8000134c <__sread>
    80000e40:	e03c                	sd	a5,64(s0)
    80000e42:	00000797          	auipc	a5,0x0
    80000e46:	54078793          	addi	a5,a5,1344 # 80001382 <__swrite>
    80000e4a:	e43c                	sd	a5,72(s0)
    80000e4c:	00000797          	auipc	a5,0x0
    80000e50:	58678793          	addi	a5,a5,1414 # 800013d2 <__sseek>
    80000e54:	e83c                	sd	a5,80(s0)
    80000e56:	00000797          	auipc	a5,0x0
    80000e5a:	5b478793          	addi	a5,a5,1460 # 8000140a <__sclose>
    80000e5e:	60a2                	ld	ra,8(sp)
    80000e60:	fc00                	sd	s0,56(s0)
    80000e62:	ec3c                	sd	a5,88(s0)
    80000e64:	6402                	ld	s0,0(sp)
    80000e66:	0141                	addi	sp,sp,16
    80000e68:	8082                	ret

0000000080000e6a <stdio_exit_handler>:
    80000e6a:	00001617          	auipc	a2,0x1
    80000e6e:	64e60613          	addi	a2,a2,1614 # 800024b8 <__sglue>
    80000e72:	00001597          	auipc	a1,0x1
    80000e76:	ce458593          	addi	a1,a1,-796 # 80001b56 <_fflush_r>
    80000e7a:	00001517          	auipc	a0,0x1
    80000e7e:	5ae50513          	addi	a0,a0,1454 # 80002428 <_impure_data>
    80000e82:	a185                	j	800012e2 <_fwalk_sglue>

0000000080000e84 <cleanup_stdio>:
    80000e84:	650c                	ld	a1,8(a0)
    80000e86:	1141                	addi	sp,sp,-16
    80000e88:	e022                	sd	s0,0(sp)
    80000e8a:	e406                	sd	ra,8(sp)
    80000e8c:	00001797          	auipc	a5,0x1
    80000e90:	69c78793          	addi	a5,a5,1692 # 80002528 <__sf>
    80000e94:	842a                	mv	s0,a0
    80000e96:	00f58463          	beq	a1,a5,80000e9e <cleanup_stdio+0x1a>
    80000e9a:	4bd000ef          	jal	80001b56 <_fflush_r>
    80000e9e:	680c                	ld	a1,16(s0)
    80000ea0:	00001797          	auipc	a5,0x1
    80000ea4:	73878793          	addi	a5,a5,1848 # 800025d8 <__sf+0xb0>
    80000ea8:	00f58563          	beq	a1,a5,80000eb2 <cleanup_stdio+0x2e>
    80000eac:	8522                	mv	a0,s0
    80000eae:	4a9000ef          	jal	80001b56 <_fflush_r>
    80000eb2:	6c0c                	ld	a1,24(s0)
    80000eb4:	9b818793          	addi	a5,gp,-1608 # 80002688 <__sf+0x160>
    80000eb8:	00f58863          	beq	a1,a5,80000ec8 <cleanup_stdio+0x44>
    80000ebc:	8522                	mv	a0,s0
    80000ebe:	6402                	ld	s0,0(sp)
    80000ec0:	60a2                	ld	ra,8(sp)
    80000ec2:	0141                	addi	sp,sp,16
    80000ec4:	4930006f          	j	80001b56 <_fflush_r>
    80000ec8:	60a2                	ld	ra,8(sp)
    80000eca:	6402                	ld	s0,0(sp)
    80000ecc:	0141                	addi	sp,sp,16
    80000ece:	8082                	ret

0000000080000ed0 <global_stdio_init.part.0>:
    80000ed0:	1141                	addi	sp,sp,-16
    80000ed2:	00000797          	auipc	a5,0x0
    80000ed6:	f9878793          	addi	a5,a5,-104 # 80000e6a <stdio_exit_handler>
    80000eda:	4601                	li	a2,0
    80000edc:	4591                	li	a1,4
    80000ede:	00001517          	auipc	a0,0x1
    80000ee2:	64a50513          	addi	a0,a0,1610 # 80002528 <__sf>
    80000ee6:	e406                	sd	ra,8(sp)
    80000ee8:	82f1b023          	sd	a5,-2016(gp) # 800024f0 <__stdio_exit_handler>
    80000eec:	f19ff0ef          	jal	80000e04 <std>
    80000ef0:	4605                	li	a2,1
    80000ef2:	45a5                	li	a1,9
    80000ef4:	00001517          	auipc	a0,0x1
    80000ef8:	6e450513          	addi	a0,a0,1764 # 800025d8 <__sf+0xb0>
    80000efc:	f09ff0ef          	jal	80000e04 <std>
    80000f00:	60a2                	ld	ra,8(sp)
    80000f02:	4609                	li	a2,2
    80000f04:	45c9                	li	a1,18
    80000f06:	9b818513          	addi	a0,gp,-1608 # 80002688 <__sf+0x160>
    80000f0a:	0141                	addi	sp,sp,16
    80000f0c:	bde5                	j	80000e04 <std>

0000000080000f0e <__fp_unlock>:
    80000f0e:	4501                	li	a0,0
    80000f10:	8082                	ret

0000000080000f12 <__sfp>:
    80000f12:	1101                	addi	sp,sp,-32
    80000f14:	e04a                	sd	s2,0(sp)
    80000f16:	ec06                	sd	ra,24(sp)
    80000f18:	e822                	sd	s0,16(sp)
    80000f1a:	e426                	sd	s1,8(sp)
    80000f1c:	8201b783          	ld	a5,-2016(gp) # 800024f0 <__stdio_exit_handler>
    80000f20:	892a                	mv	s2,a0
    80000f22:	e399                	bnez	a5,80000f28 <__sfp+0x16>
    80000f24:	fadff0ef          	jal	80000ed0 <global_stdio_init.part.0>
    80000f28:	00001497          	auipc	s1,0x1
    80000f2c:	59048493          	addi	s1,s1,1424 # 800024b8 <__sglue>
    80000f30:	6880                	ld	s0,16(s1)
    80000f32:	449c                	lw	a5,8(s1)
    80000f34:	37fd                	addiw	a5,a5,-1
    80000f36:	0207d163          	bgez	a5,80000f58 <__sfp+0x46>
    80000f3a:	609c                	ld	a5,0(s1)
    80000f3c:	e7c1                	bnez	a5,80000fc4 <__sfp+0xb2>
    80000f3e:	2d800593          	li	a1,728
    80000f42:	854a                	mv	a0,s2
    80000f44:	121000ef          	jal	80001864 <_malloc_r>
    80000f48:	842a                	mv	s0,a0
    80000f4a:	e12d                	bnez	a0,80000fac <__sfp+0x9a>
    80000f4c:	0004b023          	sd	zero,0(s1)
    80000f50:	47b1                	li	a5,12
    80000f52:	00f92023          	sw	a5,0(s2)
    80000f56:	a089                	j	80000f98 <__sfp+0x86>
    80000f58:	01041703          	lh	a4,16(s0)
    80000f5c:	e729                	bnez	a4,80000fa6 <__sfp+0x94>
    80000f5e:	77c1                	lui	a5,0xffff0
    80000f60:	0785                	addi	a5,a5,1 # ffffffffffff0001 <__heap_end+0xffffffff7ffcd001>
    80000f62:	0a042623          	sw	zero,172(s0)
    80000f66:	00043023          	sd	zero,0(s0)
    80000f6a:	00043423          	sd	zero,8(s0)
    80000f6e:	c81c                	sw	a5,16(s0)
    80000f70:	00043c23          	sd	zero,24(s0)
    80000f74:	02042023          	sw	zero,32(s0)
    80000f78:	02042423          	sw	zero,40(s0)
    80000f7c:	4621                	li	a2,8
    80000f7e:	4581                	li	a1,0
    80000f80:	0a440513          	addi	a0,s0,164
    80000f84:	7c0000ef          	jal	80001744 <memset>
    80000f88:	06043023          	sd	zero,96(s0)
    80000f8c:	06042423          	sw	zero,104(s0)
    80000f90:	08043023          	sd	zero,128(s0)
    80000f94:	08042423          	sw	zero,136(s0)
    80000f98:	60e2                	ld	ra,24(sp)
    80000f9a:	8522                	mv	a0,s0
    80000f9c:	6442                	ld	s0,16(sp)
    80000f9e:	64a2                	ld	s1,8(sp)
    80000fa0:	6902                	ld	s2,0(sp)
    80000fa2:	6105                	addi	sp,sp,32
    80000fa4:	8082                	ret
    80000fa6:	0b040413          	addi	s0,s0,176
    80000faa:	b769                	j	80000f34 <__sfp+0x22>
    80000fac:	4791                	li	a5,4
    80000fae:	00053023          	sd	zero,0(a0)
    80000fb2:	c51c                	sw	a5,8(a0)
    80000fb4:	0561                	addi	a0,a0,24
    80000fb6:	e808                	sd	a0,16(s0)
    80000fb8:	2c000613          	li	a2,704
    80000fbc:	4581                	li	a1,0
    80000fbe:	786000ef          	jal	80001744 <memset>
    80000fc2:	e080                	sd	s0,0(s1)
    80000fc4:	6084                	ld	s1,0(s1)
    80000fc6:	b7ad                	j	80000f30 <__sfp+0x1e>

0000000080000fc8 <__sinit>:
    80000fc8:	613c                	ld	a5,64(a0)
    80000fca:	eb91                	bnez	a5,80000fde <__sinit+0x16>
    80000fcc:	00000797          	auipc	a5,0x0
    80000fd0:	eb878793          	addi	a5,a5,-328 # 80000e84 <cleanup_stdio>
    80000fd4:	e13c                	sd	a5,64(a0)
    80000fd6:	8201b783          	ld	a5,-2016(gp) # 800024f0 <__stdio_exit_handler>
    80000fda:	e391                	bnez	a5,80000fde <__sinit+0x16>
    80000fdc:	bdd5                	j	80000ed0 <global_stdio_init.part.0>
    80000fde:	8082                	ret

0000000080000fe0 <__sfp_lock_acquire>:
    80000fe0:	8082                	ret

0000000080000fe2 <__sfp_lock_release>:
    80000fe2:	8082                	ret

0000000080000fe4 <__fp_lock_all>:
    80000fe4:	00001617          	auipc	a2,0x1
    80000fe8:	4d460613          	addi	a2,a2,1236 # 800024b8 <__sglue>
    80000fec:	00000597          	auipc	a1,0x0
    80000ff0:	e1458593          	addi	a1,a1,-492 # 80000e00 <__fp_lock>
    80000ff4:	4501                	li	a0,0
    80000ff6:	a4f5                	j	800012e2 <_fwalk_sglue>

0000000080000ff8 <__fp_unlock_all>:
    80000ff8:	00001617          	auipc	a2,0x1
    80000ffc:	4c060613          	addi	a2,a2,1216 # 800024b8 <__sglue>
    80001000:	00000597          	auipc	a1,0x0
    80001004:	f0e58593          	addi	a1,a1,-242 # 80000f0e <__fp_unlock>
    80001008:	4501                	li	a0,0
    8000100a:	ace1                	j	800012e2 <_fwalk_sglue>

000000008000100c <__sfvwrite_r>:
    8000100c:	6a1c                	ld	a5,16(a2)
    8000100e:	e399                	bnez	a5,80001014 <__sfvwrite_r+0x8>
    80001010:	4501                	li	a0,0
    80001012:	8082                	ret
    80001014:	0105d783          	lhu	a5,16(a1)
    80001018:	7159                	addi	sp,sp,-112
    8000101a:	f0a2                	sd	s0,96(sp)
    8000101c:	e8ca                	sd	s2,80(sp)
    8000101e:	e0d2                	sd	s4,64(sp)
    80001020:	f486                	sd	ra,104(sp)
    80001022:	eca6                	sd	s1,88(sp)
    80001024:	e4ce                	sd	s3,72(sp)
    80001026:	fc56                	sd	s5,56(sp)
    80001028:	f85a                	sd	s6,48(sp)
    8000102a:	f45e                	sd	s7,40(sp)
    8000102c:	f062                	sd	s8,32(sp)
    8000102e:	ec66                	sd	s9,24(sp)
    80001030:	e86a                	sd	s10,16(sp)
    80001032:	e46e                	sd	s11,8(sp)
    80001034:	8ba1                	andi	a5,a5,8
    80001036:	892a                	mv	s2,a0
    80001038:	842e                	mv	s0,a1
    8000103a:	8a32                	mv	s4,a2
    8000103c:	cfc1                	beqz	a5,800010d4 <__sfvwrite_r+0xc8>
    8000103e:	6d9c                	ld	a5,24(a1)
    80001040:	cbd1                	beqz	a5,800010d4 <__sfvwrite_r+0xc8>
    80001042:	01041783          	lh	a5,16(s0)
    80001046:	000a3983          	ld	s3,0(s4)
    8000104a:	0027f713          	andi	a4,a5,2
    8000104e:	e765                	bnez	a4,80001136 <__sfvwrite_r+0x12a>
    80001050:	8b85                	andi	a5,a5,1
    80001052:	4a81                	li	s5,0
    80001054:	16078063          	beqz	a5,800011b4 <__sfvwrite_r+0x1a8>
    80001058:	4501                	li	a0,0
    8000105a:	4b81                	li	s7,0
    8000105c:	4b01                	li	s6,0
    8000105e:	240b0063          	beqz	s6,8000129e <__sfvwrite_r+0x292>
    80001062:	e919                	bnez	a0,80001078 <__sfvwrite_r+0x6c>
    80001064:	865a                	mv	a2,s6
    80001066:	45a9                	li	a1,10
    80001068:	855e                	mv	a0,s7
    8000106a:	51e000ef          	jal	80001588 <memchr>
    8000106e:	22050f63          	beqz	a0,800012ac <__sfvwrite_r+0x2a0>
    80001072:	0505                	addi	a0,a0,1
    80001074:	41750abb          	subw	s5,a0,s7
    80001078:	8c56                	mv	s8,s5
    8000107a:	015b7363          	bgeu	s6,s5,80001080 <__sfvwrite_r+0x74>
    8000107e:	8c5a                	mv	s8,s6
    80001080:	6008                	ld	a0,0(s0)
    80001082:	6c1c                	ld	a5,24(s0)
    80001084:	4444                	lw	s1,12(s0)
    80001086:	5014                	lw	a3,32(s0)
    80001088:	22a7f563          	bgeu	a5,a0,800012b2 <__sfvwrite_r+0x2a6>
    8000108c:	9cb5                	addw	s1,s1,a3
    8000108e:	2384d263          	bge	s1,s8,800012b2 <__sfvwrite_r+0x2a6>
    80001092:	85de                	mv	a1,s7
    80001094:	8626                	mv	a2,s1
    80001096:	688000ef          	jal	8000171e <memmove>
    8000109a:	601c                	ld	a5,0(s0)
    8000109c:	85a2                	mv	a1,s0
    8000109e:	854a                	mv	a0,s2
    800010a0:	97a6                	add	a5,a5,s1
    800010a2:	e01c                	sd	a5,0(s0)
    800010a4:	2b3000ef          	jal	80001b56 <_fflush_r>
    800010a8:	0e051f63          	bnez	a0,800011a6 <__sfvwrite_r+0x19a>
    800010ac:	409a8abb          	subw	s5,s5,s1
    800010b0:	4505                	li	a0,1
    800010b2:	000a9763          	bnez	s5,800010c0 <__sfvwrite_r+0xb4>
    800010b6:	85a2                	mv	a1,s0
    800010b8:	854a                	mv	a0,s2
    800010ba:	29d000ef          	jal	80001b56 <_fflush_r>
    800010be:	e565                	bnez	a0,800011a6 <__sfvwrite_r+0x19a>
    800010c0:	010a3783          	ld	a5,16(s4)
    800010c4:	9ba6                	add	s7,s7,s1
    800010c6:	409b0b33          	sub	s6,s6,s1
    800010ca:	8f85                	sub	a5,a5,s1
    800010cc:	00fa3823          	sd	a5,16(s4)
    800010d0:	f7d9                	bnez	a5,8000105e <__sfvwrite_r+0x52>
    800010d2:	a091                	j	80001116 <__sfvwrite_r+0x10a>
    800010d4:	85a2                	mv	a1,s0
    800010d6:	854a                	mv	a0,s2
    800010d8:	3e2000ef          	jal	800014ba <__swsetup_r>
    800010dc:	d13d                	beqz	a0,80001042 <__sfvwrite_r+0x36>
    800010de:	557d                	li	a0,-1
    800010e0:	a825                	j	80001118 <__sfvwrite_r+0x10c>
    800010e2:	0009ba83          	ld	s5,0(s3)
    800010e6:	0089b483          	ld	s1,8(s3)
    800010ea:	09c1                	addi	s3,s3,16
    800010ec:	643c                	ld	a5,72(s0)
    800010ee:	7c0c                	ld	a1,56(s0)
    800010f0:	d8ed                	beqz	s1,800010e2 <__sfvwrite_r+0xd6>
    800010f2:	86a6                	mv	a3,s1
    800010f4:	009b7363          	bgeu	s6,s1,800010fa <__sfvwrite_r+0xee>
    800010f8:	86da                	mv	a3,s6
    800010fa:	2681                	sext.w	a3,a3
    800010fc:	8656                	mv	a2,s5
    800010fe:	854a                	mv	a0,s2
    80001100:	9782                	jalr	a5
    80001102:	0aa05263          	blez	a0,800011a6 <__sfvwrite_r+0x19a>
    80001106:	010a3783          	ld	a5,16(s4)
    8000110a:	9aaa                	add	s5,s5,a0
    8000110c:	8c89                	sub	s1,s1,a0
    8000110e:	8f89                	sub	a5,a5,a0
    80001110:	00fa3823          	sd	a5,16(s4)
    80001114:	ffe1                	bnez	a5,800010ec <__sfvwrite_r+0xe0>
    80001116:	4501                	li	a0,0
    80001118:	70a6                	ld	ra,104(sp)
    8000111a:	7406                	ld	s0,96(sp)
    8000111c:	64e6                	ld	s1,88(sp)
    8000111e:	6946                	ld	s2,80(sp)
    80001120:	69a6                	ld	s3,72(sp)
    80001122:	6a06                	ld	s4,64(sp)
    80001124:	7ae2                	ld	s5,56(sp)
    80001126:	7b42                	ld	s6,48(sp)
    80001128:	7ba2                	ld	s7,40(sp)
    8000112a:	7c02                	ld	s8,32(sp)
    8000112c:	6ce2                	ld	s9,24(sp)
    8000112e:	6d42                	ld	s10,16(sp)
    80001130:	6da2                	ld	s11,8(sp)
    80001132:	6165                	addi	sp,sp,112
    80001134:	8082                	ret
    80001136:	80000b37          	lui	s6,0x80000
    8000113a:	4a81                	li	s5,0
    8000113c:	4481                	li	s1,0
    8000113e:	c00b4b13          	xori	s6,s6,-1024
    80001142:	b76d                	j	800010ec <__sfvwrite_r+0xe0>
    80001144:	0009ba83          	ld	s5,0(s3)
    80001148:	0089bc83          	ld	s9,8(s3)
    8000114c:	09c1                	addi	s3,s3,16
    8000114e:	4444                	lw	s1,12(s0)
    80001150:	01041783          	lh	a5,16(s0)
    80001154:	6008                	ld	a0,0(s0)
    80001156:	8d26                	mv	s10,s1
    80001158:	fe0c86e3          	beqz	s9,80001144 <__sfvwrite_r+0x138>
    8000115c:	2007f713          	andi	a4,a5,512
    80001160:	c37d                	beqz	a4,80001246 <__sfvwrite_r+0x23a>
    80001162:	089ce763          	bltu	s9,s1,800011f0 <__sfvwrite_r+0x1e4>
    80001166:	4807f713          	andi	a4,a5,1152
    8000116a:	c359                	beqz	a4,800011f0 <__sfvwrite_r+0x1e4>
    8000116c:	5004                	lw	s1,32(s0)
    8000116e:	6c0c                	ld	a1,24(s0)
    80001170:	029b84bb          	mulw	s1,s7,s1
    80001174:	8d0d                	sub	a0,a0,a1
    80001176:	00050d9b          	sext.w	s11,a0
    8000117a:	001d8713          	addi	a4,s11,1
    8000117e:	9766                	add	a4,a4,s9
    80001180:	0384c4bb          	divw	s1,s1,s8
    80001184:	00e4f563          	bgeu	s1,a4,8000118e <__sfvwrite_r+0x182>
    80001188:	2505                	addiw	a0,a0,1
    8000118a:	019504bb          	addw	s1,a0,s9
    8000118e:	4007f793          	andi	a5,a5,1024
    80001192:	cbc9                	beqz	a5,80001224 <__sfvwrite_r+0x218>
    80001194:	85a6                	mv	a1,s1
    80001196:	854a                	mv	a0,s2
    80001198:	6cc000ef          	jal	80001864 <_malloc_r>
    8000119c:	8d2a                	mv	s10,a0
    8000119e:	e11d                	bnez	a0,800011c4 <__sfvwrite_r+0x1b8>
    800011a0:	47b1                	li	a5,12
    800011a2:	00f92023          	sw	a5,0(s2)
    800011a6:	01045783          	lhu	a5,16(s0)
    800011aa:	0407e793          	ori	a5,a5,64
    800011ae:	00f41823          	sh	a5,16(s0)
    800011b2:	b735                	j	800010de <__sfvwrite_r+0xd2>
    800011b4:	80000b37          	lui	s6,0x80000
    800011b8:	4c81                	li	s9,0
    800011ba:	fffb4b13          	not	s6,s6
    800011be:	4b8d                	li	s7,3
    800011c0:	4c09                	li	s8,2
    800011c2:	b771                	j	8000114e <__sfvwrite_r+0x142>
    800011c4:	6c0c                	ld	a1,24(s0)
    800011c6:	866e                	mv	a2,s11
    800011c8:	58c000ef          	jal	80001754 <memcpy>
    800011cc:	01045783          	lhu	a5,16(s0)
    800011d0:	b7f7f793          	andi	a5,a5,-1153
    800011d4:	0807e793          	ori	a5,a5,128
    800011d8:	00f41823          	sh	a5,16(s0)
    800011dc:	01a43c23          	sd	s10,24(s0)
    800011e0:	d004                	sw	s1,32(s0)
    800011e2:	9d6e                	add	s10,s10,s11
    800011e4:	41b484bb          	subw	s1,s1,s11
    800011e8:	01a43023          	sd	s10,0(s0)
    800011ec:	c444                	sw	s1,12(s0)
    800011ee:	8d66                	mv	s10,s9
    800011f0:	84e6                	mv	s1,s9
    800011f2:	01acf363          	bgeu	s9,s10,800011f8 <__sfvwrite_r+0x1ec>
    800011f6:	8d66                	mv	s10,s9
    800011f8:	6008                	ld	a0,0(s0)
    800011fa:	866a                	mv	a2,s10
    800011fc:	85d6                	mv	a1,s5
    800011fe:	520000ef          	jal	8000171e <memmove>
    80001202:	445c                	lw	a5,12(s0)
    80001204:	41a787bb          	subw	a5,a5,s10
    80001208:	c45c                	sw	a5,12(s0)
    8000120a:	601c                	ld	a5,0(s0)
    8000120c:	97ea                	add	a5,a5,s10
    8000120e:	e01c                	sd	a5,0(s0)
    80001210:	010a3783          	ld	a5,16(s4)
    80001214:	9aa6                	add	s5,s5,s1
    80001216:	409c8cb3          	sub	s9,s9,s1
    8000121a:	8f85                	sub	a5,a5,s1
    8000121c:	00fa3823          	sd	a5,16(s4)
    80001220:	f79d                	bnez	a5,8000114e <__sfvwrite_r+0x142>
    80001222:	bdd5                	j	80001116 <__sfvwrite_r+0x10a>
    80001224:	8626                	mv	a2,s1
    80001226:	854a                	mv	a0,s2
    80001228:	770000ef          	jal	80001998 <_realloc_r>
    8000122c:	8d2a                	mv	s10,a0
    8000122e:	f55d                	bnez	a0,800011dc <__sfvwrite_r+0x1d0>
    80001230:	6c0c                	ld	a1,24(s0)
    80001232:	854a                	mv	a0,s2
    80001234:	536000ef          	jal	8000176a <_free_r>
    80001238:	01045783          	lhu	a5,16(s0)
    8000123c:	f7f7f793          	andi	a5,a5,-129
    80001240:	00f41823          	sh	a5,16(s0)
    80001244:	bfb1                	j	800011a0 <__sfvwrite_r+0x194>
    80001246:	6c1c                	ld	a5,24(s0)
    80001248:	00a7e563          	bltu	a5,a0,80001252 <__sfvwrite_r+0x246>
    8000124c:	5014                	lw	a3,32(s0)
    8000124e:	02dcf763          	bgeu	s9,a3,8000127c <__sfvwrite_r+0x270>
    80001252:	009cf363          	bgeu	s9,s1,80001258 <__sfvwrite_r+0x24c>
    80001256:	84e6                	mv	s1,s9
    80001258:	8626                	mv	a2,s1
    8000125a:	85d6                	mv	a1,s5
    8000125c:	4c2000ef          	jal	8000171e <memmove>
    80001260:	445c                	lw	a5,12(s0)
    80001262:	4097873b          	subw	a4,a5,s1
    80001266:	601c                	ld	a5,0(s0)
    80001268:	c458                	sw	a4,12(s0)
    8000126a:	97a6                	add	a5,a5,s1
    8000126c:	e01c                	sd	a5,0(s0)
    8000126e:	f34d                	bnez	a4,80001210 <__sfvwrite_r+0x204>
    80001270:	85a2                	mv	a1,s0
    80001272:	854a                	mv	a0,s2
    80001274:	0e3000ef          	jal	80001b56 <_fflush_r>
    80001278:	dd41                	beqz	a0,80001210 <__sfvwrite_r+0x204>
    8000127a:	b735                	j	800011a6 <__sfvwrite_r+0x19a>
    8000127c:	87e6                	mv	a5,s9
    8000127e:	019b7363          	bgeu	s6,s9,80001284 <__sfvwrite_r+0x278>
    80001282:	87da                	mv	a5,s6
    80001284:	02d7c7bb          	divw	a5,a5,a3
    80001288:	6438                	ld	a4,72(s0)
    8000128a:	7c0c                	ld	a1,56(s0)
    8000128c:	8656                	mv	a2,s5
    8000128e:	854a                	mv	a0,s2
    80001290:	02d786bb          	mulw	a3,a5,a3
    80001294:	9702                	jalr	a4
    80001296:	84aa                	mv	s1,a0
    80001298:	f6a04ce3          	bgtz	a0,80001210 <__sfvwrite_r+0x204>
    8000129c:	b729                	j	800011a6 <__sfvwrite_r+0x19a>
    8000129e:	0009bb83          	ld	s7,0(s3)
    800012a2:	0089bb03          	ld	s6,8(s3)
    800012a6:	4501                	li	a0,0
    800012a8:	09c1                	addi	s3,s3,16
    800012aa:	bb55                	j	8000105e <__sfvwrite_r+0x52>
    800012ac:	001b0a9b          	addiw	s5,s6,1 # ffffffff80000001 <__heap_end+0xfffffffefffdd001>
    800012b0:	b3e1                	j	80001078 <__sfvwrite_r+0x6c>
    800012b2:	00dc4b63          	blt	s8,a3,800012c8 <__sfvwrite_r+0x2bc>
    800012b6:	643c                	ld	a5,72(s0)
    800012b8:	7c0c                	ld	a1,56(s0)
    800012ba:	865e                	mv	a2,s7
    800012bc:	854a                	mv	a0,s2
    800012be:	9782                	jalr	a5
    800012c0:	84aa                	mv	s1,a0
    800012c2:	dea045e3          	bgtz	a0,800010ac <__sfvwrite_r+0xa0>
    800012c6:	b5c5                	j	800011a6 <__sfvwrite_r+0x19a>
    800012c8:	8662                	mv	a2,s8
    800012ca:	85de                	mv	a1,s7
    800012cc:	452000ef          	jal	8000171e <memmove>
    800012d0:	445c                	lw	a5,12(s0)
    800012d2:	84e2                	mv	s1,s8
    800012d4:	418787bb          	subw	a5,a5,s8
    800012d8:	c45c                	sw	a5,12(s0)
    800012da:	601c                	ld	a5,0(s0)
    800012dc:	97e2                	add	a5,a5,s8
    800012de:	e01c                	sd	a5,0(s0)
    800012e0:	b3f1                	j	800010ac <__sfvwrite_r+0xa0>

00000000800012e2 <_fwalk_sglue>:
    800012e2:	715d                	addi	sp,sp,-80
    800012e4:	e0a2                	sd	s0,64(sp)
    800012e6:	fc26                	sd	s1,56(sp)
    800012e8:	f44e                	sd	s3,40(sp)
    800012ea:	f052                	sd	s4,32(sp)
    800012ec:	e85a                	sd	s6,16(sp)
    800012ee:	e45e                	sd	s7,8(sp)
    800012f0:	e486                	sd	ra,72(sp)
    800012f2:	f84a                	sd	s2,48(sp)
    800012f4:	ec56                	sd	s5,24(sp)
    800012f6:	89aa                	mv	s3,a0
    800012f8:	8a2e                	mv	s4,a1
    800012fa:	8432                	mv	s0,a2
    800012fc:	4481                	li	s1,0
    800012fe:	4b05                	li	s6,1
    80001300:	5bfd                	li	s7,-1
    80001302:	01043903          	ld	s2,16(s0)
    80001306:	00842a83          	lw	s5,8(s0)
    8000130a:	3afd                	addiw	s5,s5,-1
    8000130c:	020ad063          	bgez	s5,8000132c <_fwalk_sglue+0x4a>
    80001310:	6000                	ld	s0,0(s0)
    80001312:	f865                	bnez	s0,80001302 <_fwalk_sglue+0x20>
    80001314:	60a6                	ld	ra,72(sp)
    80001316:	6406                	ld	s0,64(sp)
    80001318:	7942                	ld	s2,48(sp)
    8000131a:	79a2                	ld	s3,40(sp)
    8000131c:	7a02                	ld	s4,32(sp)
    8000131e:	6ae2                	ld	s5,24(sp)
    80001320:	6b42                	ld	s6,16(sp)
    80001322:	6ba2                	ld	s7,8(sp)
    80001324:	8526                	mv	a0,s1
    80001326:	74e2                	ld	s1,56(sp)
    80001328:	6161                	addi	sp,sp,80
    8000132a:	8082                	ret
    8000132c:	01095783          	lhu	a5,16(s2)
    80001330:	00fb7b63          	bgeu	s6,a5,80001346 <_fwalk_sglue+0x64>
    80001334:	01291783          	lh	a5,18(s2)
    80001338:	01778763          	beq	a5,s7,80001346 <_fwalk_sglue+0x64>
    8000133c:	85ca                	mv	a1,s2
    8000133e:	854e                	mv	a0,s3
    80001340:	9a02                	jalr	s4
    80001342:	8cc9                	or	s1,s1,a0
    80001344:	2481                	sext.w	s1,s1
    80001346:	0b090913          	addi	s2,s2,176
    8000134a:	b7c1                	j	8000130a <_fwalk_sglue+0x28>

000000008000134c <__sread>:
    8000134c:	1141                	addi	sp,sp,-16
    8000134e:	e022                	sd	s0,0(sp)
    80001350:	842e                	mv	s0,a1
    80001352:	01259583          	lh	a1,18(a1)
    80001356:	e406                	sd	ra,8(sp)
    80001358:	36e000ef          	jal	800016c6 <_read_r>
    8000135c:	00054963          	bltz	a0,8000136e <__sread+0x22>
    80001360:	6c5c                	ld	a5,152(s0)
    80001362:	97aa                	add	a5,a5,a0
    80001364:	ec5c                	sd	a5,152(s0)
    80001366:	60a2                	ld	ra,8(sp)
    80001368:	6402                	ld	s0,0(sp)
    8000136a:	0141                	addi	sp,sp,16
    8000136c:	8082                	ret
    8000136e:	01045783          	lhu	a5,16(s0)
    80001372:	777d                	lui	a4,0xfffff
    80001374:	177d                	addi	a4,a4,-1 # ffffffffffffefff <__heap_end+0xffffffff7ffdbfff>
    80001376:	8ff9                	and	a5,a5,a4
    80001378:	00f41823          	sh	a5,16(s0)
    8000137c:	b7ed                	j	80001366 <__sread+0x1a>

000000008000137e <__seofread>:
    8000137e:	4501                	li	a0,0
    80001380:	8082                	ret

0000000080001382 <__swrite>:
    80001382:	0105d783          	lhu	a5,16(a1)
    80001386:	7179                	addi	sp,sp,-48
    80001388:	f022                	sd	s0,32(sp)
    8000138a:	ec26                	sd	s1,24(sp)
    8000138c:	e84a                	sd	s2,16(sp)
    8000138e:	e44e                	sd	s3,8(sp)
    80001390:	f406                	sd	ra,40(sp)
    80001392:	1007f793          	andi	a5,a5,256
    80001396:	84aa                	mv	s1,a0
    80001398:	842e                	mv	s0,a1
    8000139a:	8932                	mv	s2,a2
    8000139c:	89b6                	mv	s3,a3
    8000139e:	c799                	beqz	a5,800013ac <__swrite+0x2a>
    800013a0:	01259583          	lh	a1,18(a1)
    800013a4:	4689                	li	a3,2
    800013a6:	4601                	li	a2,0
    800013a8:	2f2000ef          	jal	8000169a <_lseek_r>
    800013ac:	01045783          	lhu	a5,16(s0)
    800013b0:	777d                	lui	a4,0xfffff
    800013b2:	177d                	addi	a4,a4,-1 # ffffffffffffefff <__heap_end+0xffffffff7ffdbfff>
    800013b4:	8ff9                	and	a5,a5,a4
    800013b6:	01241583          	lh	a1,18(s0)
    800013ba:	00f41823          	sh	a5,16(s0)
    800013be:	7402                	ld	s0,32(sp)
    800013c0:	70a2                	ld	ra,40(sp)
    800013c2:	86ce                	mv	a3,s3
    800013c4:	864a                	mv	a2,s2
    800013c6:	69a2                	ld	s3,8(sp)
    800013c8:	6942                	ld	s2,16(sp)
    800013ca:	8526                	mv	a0,s1
    800013cc:	64e2                	ld	s1,24(sp)
    800013ce:	6145                	addi	sp,sp,48
    800013d0:	a60d                	j	800016f2 <_write_r>

00000000800013d2 <__sseek>:
    800013d2:	1141                	addi	sp,sp,-16
    800013d4:	e022                	sd	s0,0(sp)
    800013d6:	842e                	mv	s0,a1
    800013d8:	01259583          	lh	a1,18(a1)
    800013dc:	e406                	sd	ra,8(sp)
    800013de:	2bc000ef          	jal	8000169a <_lseek_r>
    800013e2:	577d                	li	a4,-1
    800013e4:	01045783          	lhu	a5,16(s0)
    800013e8:	00e51b63          	bne	a0,a4,800013fe <__sseek+0x2c>
    800013ec:	777d                	lui	a4,0xfffff
    800013ee:	177d                	addi	a4,a4,-1 # ffffffffffffefff <__heap_end+0xffffffff7ffdbfff>
    800013f0:	8ff9                	and	a5,a5,a4
    800013f2:	00f41823          	sh	a5,16(s0)
    800013f6:	60a2                	ld	ra,8(sp)
    800013f8:	6402                	ld	s0,0(sp)
    800013fa:	0141                	addi	sp,sp,16
    800013fc:	8082                	ret
    800013fe:	6705                	lui	a4,0x1
    80001400:	8fd9                	or	a5,a5,a4
    80001402:	00f41823          	sh	a5,16(s0)
    80001406:	ec48                	sd	a0,152(s0)
    80001408:	b7fd                	j	800013f6 <__sseek+0x24>

000000008000140a <__sclose>:
    8000140a:	01259583          	lh	a1,18(a1)
    8000140e:	aa51                	j	800015a2 <_close_r>

0000000080001410 <__swbuf_r>:
    80001410:	7179                	addi	sp,sp,-48
    80001412:	f022                	sd	s0,32(sp)
    80001414:	ec26                	sd	s1,24(sp)
    80001416:	e84a                	sd	s2,16(sp)
    80001418:	f406                	sd	ra,40(sp)
    8000141a:	e44e                	sd	s3,8(sp)
    8000141c:	892a                	mv	s2,a0
    8000141e:	84ae                	mv	s1,a1
    80001420:	8432                	mv	s0,a2
    80001422:	c509                	beqz	a0,8000142c <__swbuf_r+0x1c>
    80001424:	613c                	ld	a5,64(a0)
    80001426:	e399                	bnez	a5,8000142c <__swbuf_r+0x1c>
    80001428:	ba1ff0ef          	jal	80000fc8 <__sinit>
    8000142c:	541c                	lw	a5,40(s0)
    8000142e:	c45c                	sw	a5,12(s0)
    80001430:	01045783          	lhu	a5,16(s0)
    80001434:	8ba1                	andi	a5,a5,8
    80001436:	c399                	beqz	a5,8000143c <__swbuf_r+0x2c>
    80001438:	6c1c                	ld	a5,24(s0)
    8000143a:	ef99                	bnez	a5,80001458 <__swbuf_r+0x48>
    8000143c:	85a2                	mv	a1,s0
    8000143e:	854a                	mv	a0,s2
    80001440:	07a000ef          	jal	800014ba <__swsetup_r>
    80001444:	c911                	beqz	a0,80001458 <__swbuf_r+0x48>
    80001446:	54fd                	li	s1,-1
    80001448:	70a2                	ld	ra,40(sp)
    8000144a:	7402                	ld	s0,32(sp)
    8000144c:	6942                	ld	s2,16(sp)
    8000144e:	69a2                	ld	s3,8(sp)
    80001450:	8526                	mv	a0,s1
    80001452:	64e2                	ld	s1,24(sp)
    80001454:	6145                	addi	sp,sp,48
    80001456:	8082                	ret
    80001458:	601c                	ld	a5,0(s0)
    8000145a:	6c18                	ld	a4,24(s0)
    8000145c:	0ff4f993          	zext.b	s3,s1
    80001460:	84ce                	mv	s1,s3
    80001462:	40e7853b          	subw	a0,a5,a4
    80001466:	501c                	lw	a5,32(s0)
    80001468:	00f54763          	blt	a0,a5,80001476 <__swbuf_r+0x66>
    8000146c:	85a2                	mv	a1,s0
    8000146e:	854a                	mv	a0,s2
    80001470:	6e6000ef          	jal	80001b56 <_fflush_r>
    80001474:	f969                	bnez	a0,80001446 <__swbuf_r+0x36>
    80001476:	445c                	lw	a5,12(s0)
    80001478:	37fd                	addiw	a5,a5,-1
    8000147a:	c45c                	sw	a5,12(s0)
    8000147c:	601c                	ld	a5,0(s0)
    8000147e:	00178713          	addi	a4,a5,1
    80001482:	e018                	sd	a4,0(s0)
    80001484:	01378023          	sb	s3,0(a5)
    80001488:	5018                	lw	a4,32(s0)
    8000148a:	0015079b          	addiw	a5,a0,1
    8000148e:	00f70963          	beq	a4,a5,800014a0 <__swbuf_r+0x90>
    80001492:	01045783          	lhu	a5,16(s0)
    80001496:	8b85                	andi	a5,a5,1
    80001498:	dbc5                	beqz	a5,80001448 <__swbuf_r+0x38>
    8000149a:	47a9                	li	a5,10
    8000149c:	faf496e3          	bne	s1,a5,80001448 <__swbuf_r+0x38>
    800014a0:	85a2                	mv	a1,s0
    800014a2:	854a                	mv	a0,s2
    800014a4:	6b2000ef          	jal	80001b56 <_fflush_r>
    800014a8:	d145                	beqz	a0,80001448 <__swbuf_r+0x38>
    800014aa:	bf71                	j	80001446 <__swbuf_r+0x36>

00000000800014ac <__swbuf>:
    800014ac:	862e                	mv	a2,a1
    800014ae:	85aa                	mv	a1,a0
    800014b0:	00001517          	auipc	a0,0x1
    800014b4:	02053503          	ld	a0,32(a0) # 800024d0 <_impure_ptr>
    800014b8:	bfa1                	j	80001410 <__swbuf_r>

00000000800014ba <__swsetup_r>:
    800014ba:	1101                	addi	sp,sp,-32
    800014bc:	e822                	sd	s0,16(sp)
    800014be:	e426                	sd	s1,8(sp)
    800014c0:	ec06                	sd	ra,24(sp)
    800014c2:	84aa                	mv	s1,a0
    800014c4:	00001517          	auipc	a0,0x1
    800014c8:	00c53503          	ld	a0,12(a0) # 800024d0 <_impure_ptr>
    800014cc:	842e                	mv	s0,a1
    800014ce:	c509                	beqz	a0,800014d8 <__swsetup_r+0x1e>
    800014d0:	613c                	ld	a5,64(a0)
    800014d2:	e399                	bnez	a5,800014d8 <__swsetup_r+0x1e>
    800014d4:	af5ff0ef          	jal	80000fc8 <__sinit>
    800014d8:	01041783          	lh	a5,16(s0)
    800014dc:	0087f713          	andi	a4,a5,8
    800014e0:	eb29                	bnez	a4,80001532 <__swsetup_r+0x78>
    800014e2:	0107f713          	andi	a4,a5,16
    800014e6:	eb09                	bnez	a4,800014f8 <__swsetup_r+0x3e>
    800014e8:	4725                	li	a4,9
    800014ea:	c098                	sw	a4,0(s1)
    800014ec:	0407e793          	ori	a5,a5,64
    800014f0:	00f41823          	sh	a5,16(s0)
    800014f4:	557d                	li	a0,-1
    800014f6:	a8ad                	j	80001570 <__swsetup_r+0xb6>
    800014f8:	8b91                	andi	a5,a5,4
    800014fa:	c795                	beqz	a5,80001526 <__swsetup_r+0x6c>
    800014fc:	702c                	ld	a1,96(s0)
    800014fe:	c991                	beqz	a1,80001512 <__swsetup_r+0x58>
    80001500:	07c40793          	addi	a5,s0,124
    80001504:	00f58563          	beq	a1,a5,8000150e <__swsetup_r+0x54>
    80001508:	8526                	mv	a0,s1
    8000150a:	260000ef          	jal	8000176a <_free_r>
    8000150e:	06043023          	sd	zero,96(s0)
    80001512:	01045783          	lhu	a5,16(s0)
    80001516:	00042423          	sw	zero,8(s0)
    8000151a:	fdb7f793          	andi	a5,a5,-37
    8000151e:	00f41823          	sh	a5,16(s0)
    80001522:	6c1c                	ld	a5,24(s0)
    80001524:	e01c                	sd	a5,0(s0)
    80001526:	01045783          	lhu	a5,16(s0)
    8000152a:	0087e793          	ori	a5,a5,8
    8000152e:	00f41823          	sh	a5,16(s0)
    80001532:	6c1c                	ld	a5,24(s0)
    80001534:	ef89                	bnez	a5,8000154e <__swsetup_r+0x94>
    80001536:	01045783          	lhu	a5,16(s0)
    8000153a:	20000713          	li	a4,512
    8000153e:	2807f793          	andi	a5,a5,640
    80001542:	00e78663          	beq	a5,a4,8000154e <__swsetup_r+0x94>
    80001546:	85a2                	mv	a1,s0
    80001548:	8526                	mv	a0,s1
    8000154a:	6ca000ef          	jal	80001c14 <__smakebuf_r>
    8000154e:	01041783          	lh	a5,16(s0)
    80001552:	0017f713          	andi	a4,a5,1
    80001556:	c315                	beqz	a4,8000157a <__swsetup_r+0xc0>
    80001558:	5018                	lw	a4,32(s0)
    8000155a:	00042623          	sw	zero,12(s0)
    8000155e:	40e0073b          	negw	a4,a4
    80001562:	d418                	sw	a4,40(s0)
    80001564:	6c18                	ld	a4,24(s0)
    80001566:	4501                	li	a0,0
    80001568:	e701                	bnez	a4,80001570 <__swsetup_r+0xb6>
    8000156a:	0807f713          	andi	a4,a5,128
    8000156e:	ff3d                	bnez	a4,800014ec <__swsetup_r+0x32>
    80001570:	60e2                	ld	ra,24(sp)
    80001572:	6442                	ld	s0,16(sp)
    80001574:	64a2                	ld	s1,8(sp)
    80001576:	6105                	addi	sp,sp,32
    80001578:	8082                	ret
    8000157a:	0027f713          	andi	a4,a5,2
    8000157e:	4681                	li	a3,0
    80001580:	e311                	bnez	a4,80001584 <__swsetup_r+0xca>
    80001582:	5014                	lw	a3,32(s0)
    80001584:	c454                	sw	a3,12(s0)
    80001586:	bff9                	j	80001564 <__swsetup_r+0xaa>

0000000080001588 <memchr>:
    80001588:	0ff5f593          	zext.b	a1,a1
    8000158c:	962a                	add	a2,a2,a0
    8000158e:	00c51463          	bne	a0,a2,80001596 <memchr+0xe>
    80001592:	4501                	li	a0,0
    80001594:	8082                	ret
    80001596:	00054783          	lbu	a5,0(a0)
    8000159a:	feb78de3          	beq	a5,a1,80001594 <memchr+0xc>
    8000159e:	0505                	addi	a0,a0,1
    800015a0:	b7fd                	j	8000158e <memchr+0x6>

00000000800015a2 <_close_r>:
    800015a2:	1141                	addi	sp,sp,-16
    800015a4:	e022                	sd	s0,0(sp)
    800015a6:	842a                	mv	s0,a0
    800015a8:	852e                	mv	a0,a1
    800015aa:	8201a423          	sw	zero,-2008(gp) # 800024f8 <errno>
    800015ae:	e406                	sd	ra,8(sp)
    800015b0:	794000ef          	jal	80001d44 <_close>
    800015b4:	57fd                	li	a5,-1
    800015b6:	00f51663          	bne	a0,a5,800015c2 <_close_r+0x20>
    800015ba:	8281a783          	lw	a5,-2008(gp) # 800024f8 <errno>
    800015be:	c391                	beqz	a5,800015c2 <_close_r+0x20>
    800015c0:	c01c                	sw	a5,0(s0)
    800015c2:	60a2                	ld	ra,8(sp)
    800015c4:	6402                	ld	s0,0(sp)
    800015c6:	0141                	addi	sp,sp,16
    800015c8:	8082                	ret

00000000800015ca <_reclaim_reent>:
    800015ca:	00001797          	auipc	a5,0x1
    800015ce:	f067b783          	ld	a5,-250(a5) # 800024d0 <_impure_ptr>
    800015d2:	0ca78363          	beq	a5,a0,80001698 <_reclaim_reent+0xce>
    800015d6:	7d1c                	ld	a5,56(a0)
    800015d8:	7179                	addi	sp,sp,-48
    800015da:	f022                	sd	s0,32(sp)
    800015dc:	f406                	sd	ra,40(sp)
    800015de:	ec26                	sd	s1,24(sp)
    800015e0:	e84a                	sd	s2,16(sp)
    800015e2:	e44e                	sd	s3,8(sp)
    800015e4:	842a                	mv	s0,a0
    800015e6:	cb8d                	beqz	a5,80001618 <_reclaim_reent+0x4e>
    800015e8:	6f9c                	ld	a5,24(a5)
    800015ea:	c38d                	beqz	a5,8000160c <_reclaim_reent+0x42>
    800015ec:	4481                	li	s1,0
    800015ee:	20000913          	li	s2,512
    800015f2:	7c1c                	ld	a5,56(s0)
    800015f4:	6f9c                	ld	a5,24(a5)
    800015f6:	97a6                	add	a5,a5,s1
    800015f8:	638c                	ld	a1,0(a5)
    800015fa:	e1c9                	bnez	a1,8000167c <_reclaim_reent+0xb2>
    800015fc:	04a1                	addi	s1,s1,8
    800015fe:	ff249ae3          	bne	s1,s2,800015f2 <_reclaim_reent+0x28>
    80001602:	7c1c                	ld	a5,56(s0)
    80001604:	8522                	mv	a0,s0
    80001606:	6f8c                	ld	a1,24(a5)
    80001608:	162000ef          	jal	8000176a <_free_r>
    8000160c:	7c1c                	ld	a5,56(s0)
    8000160e:	638c                	ld	a1,0(a5)
    80001610:	c581                	beqz	a1,80001618 <_reclaim_reent+0x4e>
    80001612:	8522                	mv	a0,s0
    80001614:	156000ef          	jal	8000176a <_free_r>
    80001618:	740c                	ld	a1,40(s0)
    8000161a:	c581                	beqz	a1,80001622 <_reclaim_reent+0x58>
    8000161c:	8522                	mv	a0,s0
    8000161e:	14c000ef          	jal	8000176a <_free_r>
    80001622:	7c0c                	ld	a1,56(s0)
    80001624:	c581                	beqz	a1,8000162c <_reclaim_reent+0x62>
    80001626:	8522                	mv	a0,s0
    80001628:	142000ef          	jal	8000176a <_free_r>
    8000162c:	6c2c                	ld	a1,88(s0)
    8000162e:	c581                	beqz	a1,80001636 <_reclaim_reent+0x6c>
    80001630:	8522                	mv	a0,s0
    80001632:	138000ef          	jal	8000176a <_free_r>
    80001636:	702c                	ld	a1,96(s0)
    80001638:	c581                	beqz	a1,80001640 <_reclaim_reent+0x76>
    8000163a:	8522                	mv	a0,s0
    8000163c:	12e000ef          	jal	8000176a <_free_r>
    80001640:	742c                	ld	a1,104(s0)
    80001642:	c581                	beqz	a1,8000164a <_reclaim_reent+0x80>
    80001644:	8522                	mv	a0,s0
    80001646:	124000ef          	jal	8000176a <_free_r>
    8000164a:	644c                	ld	a1,136(s0)
    8000164c:	c581                	beqz	a1,80001654 <_reclaim_reent+0x8a>
    8000164e:	8522                	mv	a0,s0
    80001650:	11a000ef          	jal	8000176a <_free_r>
    80001654:	604c                	ld	a1,128(s0)
    80001656:	c581                	beqz	a1,8000165e <_reclaim_reent+0x94>
    80001658:	8522                	mv	a0,s0
    8000165a:	110000ef          	jal	8000176a <_free_r>
    8000165e:	682c                	ld	a1,80(s0)
    80001660:	c581                	beqz	a1,80001668 <_reclaim_reent+0x9e>
    80001662:	8522                	mv	a0,s0
    80001664:	106000ef          	jal	8000176a <_free_r>
    80001668:	603c                	ld	a5,64(s0)
    8000166a:	c385                	beqz	a5,8000168a <_reclaim_reent+0xc0>
    8000166c:	8522                	mv	a0,s0
    8000166e:	7402                	ld	s0,32(sp)
    80001670:	70a2                	ld	ra,40(sp)
    80001672:	64e2                	ld	s1,24(sp)
    80001674:	6942                	ld	s2,16(sp)
    80001676:	69a2                	ld	s3,8(sp)
    80001678:	6145                	addi	sp,sp,48
    8000167a:	8782                	jr	a5
    8000167c:	0005b983          	ld	s3,0(a1)
    80001680:	8522                	mv	a0,s0
    80001682:	0e8000ef          	jal	8000176a <_free_r>
    80001686:	85ce                	mv	a1,s3
    80001688:	bf8d                	j	800015fa <_reclaim_reent+0x30>
    8000168a:	70a2                	ld	ra,40(sp)
    8000168c:	7402                	ld	s0,32(sp)
    8000168e:	64e2                	ld	s1,24(sp)
    80001690:	6942                	ld	s2,16(sp)
    80001692:	69a2                	ld	s3,8(sp)
    80001694:	6145                	addi	sp,sp,48
    80001696:	8082                	ret
    80001698:	8082                	ret

000000008000169a <_lseek_r>:
    8000169a:	1141                	addi	sp,sp,-16
    8000169c:	e022                	sd	s0,0(sp)
    8000169e:	842a                	mv	s0,a0
    800016a0:	852e                	mv	a0,a1
    800016a2:	85b2                	mv	a1,a2
    800016a4:	8636                	mv	a2,a3
    800016a6:	8201a423          	sw	zero,-2008(gp) # 800024f8 <errno>
    800016aa:	e406                	sd	ra,8(sp)
    800016ac:	6c8000ef          	jal	80001d74 <_lseek>
    800016b0:	57fd                	li	a5,-1
    800016b2:	00f51663          	bne	a0,a5,800016be <_lseek_r+0x24>
    800016b6:	8281a783          	lw	a5,-2008(gp) # 800024f8 <errno>
    800016ba:	c391                	beqz	a5,800016be <_lseek_r+0x24>
    800016bc:	c01c                	sw	a5,0(s0)
    800016be:	60a2                	ld	ra,8(sp)
    800016c0:	6402                	ld	s0,0(sp)
    800016c2:	0141                	addi	sp,sp,16
    800016c4:	8082                	ret

00000000800016c6 <_read_r>:
    800016c6:	1141                	addi	sp,sp,-16
    800016c8:	e022                	sd	s0,0(sp)
    800016ca:	842a                	mv	s0,a0
    800016cc:	852e                	mv	a0,a1
    800016ce:	85b2                	mv	a1,a2
    800016d0:	8636                	mv	a2,a3
    800016d2:	8201a423          	sw	zero,-2008(gp) # 800024f8 <errno>
    800016d6:	e406                	sd	ra,8(sp)
    800016d8:	6b0000ef          	jal	80001d88 <_read>
    800016dc:	57fd                	li	a5,-1
    800016de:	00f51663          	bne	a0,a5,800016ea <_read_r+0x24>
    800016e2:	8281a783          	lw	a5,-2008(gp) # 800024f8 <errno>
    800016e6:	c391                	beqz	a5,800016ea <_read_r+0x24>
    800016e8:	c01c                	sw	a5,0(s0)
    800016ea:	60a2                	ld	ra,8(sp)
    800016ec:	6402                	ld	s0,0(sp)
    800016ee:	0141                	addi	sp,sp,16
    800016f0:	8082                	ret

00000000800016f2 <_write_r>:
    800016f2:	1141                	addi	sp,sp,-16
    800016f4:	e022                	sd	s0,0(sp)
    800016f6:	842a                	mv	s0,a0
    800016f8:	852e                	mv	a0,a1
    800016fa:	85b2                	mv	a1,a2
    800016fc:	8636                	mv	a2,a3
    800016fe:	8201a423          	sw	zero,-2008(gp) # 800024f8 <errno>
    80001702:	e406                	sd	ra,8(sp)
    80001704:	6d6000ef          	jal	80001dda <_write>
    80001708:	57fd                	li	a5,-1
    8000170a:	00f51663          	bne	a0,a5,80001716 <_write_r+0x24>
    8000170e:	8281a783          	lw	a5,-2008(gp) # 800024f8 <errno>
    80001712:	c391                	beqz	a5,80001716 <_write_r+0x24>
    80001714:	c01c                	sw	a5,0(s0)
    80001716:	60a2                	ld	ra,8(sp)
    80001718:	6402                	ld	s0,0(sp)
    8000171a:	0141                	addi	sp,sp,16
    8000171c:	8082                	ret

000000008000171e <memmove>:
    8000171e:	c215                	beqz	a2,80001742 <memmove+0x24>
    80001720:	832a                	mv	t1,a0
    80001722:	4685                	li	a3,1
    80001724:	00b56763          	bltu	a0,a1,80001732 <memmove+0x14>
    80001728:	56fd                	li	a3,-1
    8000172a:	fff60713          	addi	a4,a2,-1
    8000172e:	933a                	add	t1,t1,a4
    80001730:	95ba                	add	a1,a1,a4
    80001732:	00058383          	lb	t2,0(a1)
    80001736:	00730023          	sb	t2,0(t1)
    8000173a:	167d                	addi	a2,a2,-1
    8000173c:	9336                	add	t1,t1,a3
    8000173e:	95b6                	add	a1,a1,a3
    80001740:	fa6d                	bnez	a2,80001732 <memmove+0x14>
    80001742:	8082                	ret

0000000080001744 <memset>:
    80001744:	832a                	mv	t1,a0
    80001746:	c611                	beqz	a2,80001752 <memset+0xe>
    80001748:	00b30023          	sb	a1,0(t1)
    8000174c:	167d                	addi	a2,a2,-1
    8000174e:	0305                	addi	t1,t1,1
    80001750:	fe65                	bnez	a2,80001748 <memset+0x4>
    80001752:	8082                	ret

0000000080001754 <memcpy>:
    80001754:	832a                	mv	t1,a0
    80001756:	ca09                	beqz	a2,80001768 <memcpy+0x14>
    80001758:	00058383          	lb	t2,0(a1)
    8000175c:	00730023          	sb	t2,0(t1)
    80001760:	167d                	addi	a2,a2,-1
    80001762:	0305                	addi	t1,t1,1
    80001764:	0585                	addi	a1,a1,1
    80001766:	fa6d                	bnez	a2,80001758 <memcpy+0x4>
    80001768:	8082                	ret

000000008000176a <_free_r>:
    8000176a:	cdd9                	beqz	a1,80001808 <_free_r+0x9e>
    8000176c:	ff85b783          	ld	a5,-8(a1)
    80001770:	1101                	addi	sp,sp,-32
    80001772:	e822                	sd	s0,16(sp)
    80001774:	ec06                	sd	ra,24(sp)
    80001776:	ff858413          	addi	s0,a1,-8
    8000177a:	0007d363          	bgez	a5,80001780 <_free_r+0x16>
    8000177e:	943e                	add	s0,s0,a5
    80001780:	e42a                	sd	a0,8(sp)
    80001782:	212000ef          	jal	80001994 <__malloc_lock>
    80001786:	83818713          	addi	a4,gp,-1992 # 80002508 <__malloc_free_list>
    8000178a:	631c                	ld	a5,0(a4)
    8000178c:	6522                	ld	a0,8(sp)
    8000178e:	eb81                	bnez	a5,8000179e <_free_r+0x34>
    80001790:	00043423          	sd	zero,8(s0)
    80001794:	e300                	sd	s0,0(a4)
    80001796:	6442                	ld	s0,16(sp)
    80001798:	60e2                	ld	ra,24(sp)
    8000179a:	6105                	addi	sp,sp,32
    8000179c:	aaed                	j	80001996 <__malloc_unlock>
    8000179e:	00f47d63          	bgeu	s0,a5,800017b8 <_free_r+0x4e>
    800017a2:	6010                	ld	a2,0(s0)
    800017a4:	00c406b3          	add	a3,s0,a2
    800017a8:	00d79663          	bne	a5,a3,800017b4 <_free_r+0x4a>
    800017ac:	6394                	ld	a3,0(a5)
    800017ae:	679c                	ld	a5,8(a5)
    800017b0:	96b2                	add	a3,a3,a2
    800017b2:	e014                	sd	a3,0(s0)
    800017b4:	e41c                	sd	a5,8(s0)
    800017b6:	bff9                	j	80001794 <_free_r+0x2a>
    800017b8:	873e                	mv	a4,a5
    800017ba:	679c                	ld	a5,8(a5)
    800017bc:	c399                	beqz	a5,800017c2 <_free_r+0x58>
    800017be:	fef47de3          	bgeu	s0,a5,800017b8 <_free_r+0x4e>
    800017c2:	6314                	ld	a3,0(a4)
    800017c4:	00d70633          	add	a2,a4,a3
    800017c8:	00861f63          	bne	a2,s0,800017e6 <_free_r+0x7c>
    800017cc:	6010                	ld	a2,0(s0)
    800017ce:	96b2                	add	a3,a3,a2
    800017d0:	e314                	sd	a3,0(a4)
    800017d2:	00d70633          	add	a2,a4,a3
    800017d6:	fcc790e3          	bne	a5,a2,80001796 <_free_r+0x2c>
    800017da:	6390                	ld	a2,0(a5)
    800017dc:	679c                	ld	a5,8(a5)
    800017de:	96b2                	add	a3,a3,a2
    800017e0:	e314                	sd	a3,0(a4)
    800017e2:	e71c                	sd	a5,8(a4)
    800017e4:	bf4d                	j	80001796 <_free_r+0x2c>
    800017e6:	00c47563          	bgeu	s0,a2,800017f0 <_free_r+0x86>
    800017ea:	47b1                	li	a5,12
    800017ec:	c11c                	sw	a5,0(a0)
    800017ee:	b765                	j	80001796 <_free_r+0x2c>
    800017f0:	6010                	ld	a2,0(s0)
    800017f2:	00c406b3          	add	a3,s0,a2
    800017f6:	00d79663          	bne	a5,a3,80001802 <_free_r+0x98>
    800017fa:	6394                	ld	a3,0(a5)
    800017fc:	679c                	ld	a5,8(a5)
    800017fe:	96b2                	add	a3,a3,a2
    80001800:	e014                	sd	a3,0(s0)
    80001802:	e41c                	sd	a5,8(s0)
    80001804:	e700                	sd	s0,8(a4)
    80001806:	bf41                	j	80001796 <_free_r+0x2c>
    80001808:	8082                	ret

000000008000180a <sbrk_aligned>:
    8000180a:	1101                	addi	sp,sp,-32
    8000180c:	e04a                	sd	s2,0(sp)
    8000180e:	83018913          	addi	s2,gp,-2000 # 80002500 <__malloc_sbrk_start>
    80001812:	00093783          	ld	a5,0(s2)
    80001816:	e822                	sd	s0,16(sp)
    80001818:	e426                	sd	s1,8(sp)
    8000181a:	ec06                	sd	ra,24(sp)
    8000181c:	84aa                	mv	s1,a0
    8000181e:	842e                	mv	s0,a1
    80001820:	e791                	bnez	a5,8000182c <sbrk_aligned+0x22>
    80001822:	4581                	li	a1,0
    80001824:	4e0000ef          	jal	80001d04 <_sbrk_r>
    80001828:	00a93023          	sd	a0,0(s2)
    8000182c:	85a2                	mv	a1,s0
    8000182e:	8526                	mv	a0,s1
    80001830:	4d4000ef          	jal	80001d04 <_sbrk_r>
    80001834:	597d                	li	s2,-1
    80001836:	01251a63          	bne	a0,s2,8000184a <sbrk_aligned+0x40>
    8000183a:	547d                	li	s0,-1
    8000183c:	60e2                	ld	ra,24(sp)
    8000183e:	8522                	mv	a0,s0
    80001840:	6442                	ld	s0,16(sp)
    80001842:	64a2                	ld	s1,8(sp)
    80001844:	6902                	ld	s2,0(sp)
    80001846:	6105                	addi	sp,sp,32
    80001848:	8082                	ret
    8000184a:	00750413          	addi	s0,a0,7
    8000184e:	9861                	andi	s0,s0,-8
    80001850:	fe8506e3          	beq	a0,s0,8000183c <sbrk_aligned+0x32>
    80001854:	40a405b3          	sub	a1,s0,a0
    80001858:	8526                	mv	a0,s1
    8000185a:	4aa000ef          	jal	80001d04 <_sbrk_r>
    8000185e:	fd251fe3          	bne	a0,s2,8000183c <sbrk_aligned+0x32>
    80001862:	bfe1                	j	8000183a <sbrk_aligned+0x30>

0000000080001864 <_malloc_r>:
    80001864:	00758793          	addi	a5,a1,7
    80001868:	7179                	addi	sp,sp,-48
    8000186a:	9be1                	andi	a5,a5,-8
    8000186c:	ec26                	sd	s1,24(sp)
    8000186e:	e84a                	sd	s2,16(sp)
    80001870:	f406                	sd	ra,40(sp)
    80001872:	f022                	sd	s0,32(sp)
    80001874:	e44e                	sd	s3,8(sp)
    80001876:	e052                	sd	s4,0(sp)
    80001878:	07a1                	addi	a5,a5,8
    8000187a:	4741                	li	a4,16
    8000187c:	892a                	mv	s2,a0
    8000187e:	44c1                	li	s1,16
    80001880:	00e7e363          	bltu	a5,a4,80001886 <_malloc_r+0x22>
    80001884:	84be                	mv	s1,a5
    80001886:	80000737          	lui	a4,0x80000
    8000188a:	fff74713          	not	a4,a4
    8000188e:	00f76463          	bltu	a4,a5,80001896 <_malloc_r+0x32>
    80001892:	00b4fe63          	bgeu	s1,a1,800018ae <_malloc_r+0x4a>
    80001896:	47b1                	li	a5,12
    80001898:	00f92023          	sw	a5,0(s2)
    8000189c:	4501                	li	a0,0
    8000189e:	70a2                	ld	ra,40(sp)
    800018a0:	7402                	ld	s0,32(sp)
    800018a2:	64e2                	ld	s1,24(sp)
    800018a4:	6942                	ld	s2,16(sp)
    800018a6:	69a2                	ld	s3,8(sp)
    800018a8:	6a02                	ld	s4,0(sp)
    800018aa:	6145                	addi	sp,sp,48
    800018ac:	8082                	ret
    800018ae:	854a                	mv	a0,s2
    800018b0:	0e4000ef          	jal	80001994 <__malloc_lock>
    800018b4:	83818993          	addi	s3,gp,-1992 # 80002508 <__malloc_free_list>
    800018b8:	0009b783          	ld	a5,0(s3)
    800018bc:	843e                	mv	s0,a5
    800018be:	ec21                	bnez	s0,80001916 <_malloc_r+0xb2>
    800018c0:	85a6                	mv	a1,s1
    800018c2:	854a                	mv	a0,s2
    800018c4:	f47ff0ef          	jal	8000180a <sbrk_aligned>
    800018c8:	57fd                	li	a5,-1
    800018ca:	842a                	mv	s0,a0
    800018cc:	0af51f63          	bne	a0,a5,8000198a <_malloc_r+0x126>
    800018d0:	0009b403          	ld	s0,0(s3)
    800018d4:	87a2                	mv	a5,s0
    800018d6:	efd1                	bnez	a5,80001972 <_malloc_r+0x10e>
    800018d8:	c055                	beqz	s0,8000197c <_malloc_r+0x118>
    800018da:	00043a03          	ld	s4,0(s0)
    800018de:	4581                	li	a1,0
    800018e0:	854a                	mv	a0,s2
    800018e2:	9a22                	add	s4,s4,s0
    800018e4:	420000ef          	jal	80001d04 <_sbrk_r>
    800018e8:	08aa1a63          	bne	s4,a0,8000197c <_malloc_r+0x118>
    800018ec:	601c                	ld	a5,0(s0)
    800018ee:	854a                	mv	a0,s2
    800018f0:	8c9d                	sub	s1,s1,a5
    800018f2:	85a6                	mv	a1,s1
    800018f4:	f17ff0ef          	jal	8000180a <sbrk_aligned>
    800018f8:	57fd                	li	a5,-1
    800018fa:	08f50163          	beq	a0,a5,8000197c <_malloc_r+0x118>
    800018fe:	601c                	ld	a5,0(s0)
    80001900:	97a6                	add	a5,a5,s1
    80001902:	e01c                	sd	a5,0(s0)
    80001904:	0009b783          	ld	a5,0(s3)
    80001908:	c3d9                	beqz	a5,8000198e <_malloc_r+0x12a>
    8000190a:	6798                	ld	a4,8(a5)
    8000190c:	06871663          	bne	a4,s0,80001978 <_malloc_r+0x114>
    80001910:	0007b423          	sd	zero,8(a5)
    80001914:	a015                	j	80001938 <_malloc_r+0xd4>
    80001916:	6014                	ld	a3,0(s0)
    80001918:	9e85                	subw	a3,a3,s1
    8000191a:	0406c963          	bltz	a3,8000196c <_malloc_r+0x108>
    8000191e:	473d                	li	a4,15
    80001920:	02d75e63          	bge	a4,a3,8000195c <_malloc_r+0xf8>
    80001924:	e004                	sd	s1,0(s0)
    80001926:	00940733          	add	a4,s0,s1
    8000192a:	02879763          	bne	a5,s0,80001958 <_malloc_r+0xf4>
    8000192e:	00e9b023          	sd	a4,0(s3)
    80001932:	641c                	ld	a5,8(s0)
    80001934:	e314                	sd	a3,0(a4)
    80001936:	e71c                	sd	a5,8(a4)
    80001938:	854a                	mv	a0,s2
    8000193a:	05c000ef          	jal	80001996 <__malloc_unlock>
    8000193e:	00f40513          	addi	a0,s0,15
    80001942:	00840793          	addi	a5,s0,8
    80001946:	9961                	andi	a0,a0,-8
    80001948:	40f507bb          	subw	a5,a0,a5
    8000194c:	dba9                	beqz	a5,8000189e <_malloc_r+0x3a>
    8000194e:	943e                	add	s0,s0,a5
    80001950:	40f007bb          	negw	a5,a5
    80001954:	e01c                	sd	a5,0(s0)
    80001956:	b7a1                	j	8000189e <_malloc_r+0x3a>
    80001958:	e798                	sd	a4,8(a5)
    8000195a:	bfe1                	j	80001932 <_malloc_r+0xce>
    8000195c:	6418                	ld	a4,8(s0)
    8000195e:	00879563          	bne	a5,s0,80001968 <_malloc_r+0x104>
    80001962:	00e9b023          	sd	a4,0(s3)
    80001966:	bfc9                	j	80001938 <_malloc_r+0xd4>
    80001968:	e798                	sd	a4,8(a5)
    8000196a:	b7f9                	j	80001938 <_malloc_r+0xd4>
    8000196c:	87a2                	mv	a5,s0
    8000196e:	6400                	ld	s0,8(s0)
    80001970:	b7b9                	j	800018be <_malloc_r+0x5a>
    80001972:	843e                	mv	s0,a5
    80001974:	679c                	ld	a5,8(a5)
    80001976:	b785                	j	800018d6 <_malloc_r+0x72>
    80001978:	87ba                	mv	a5,a4
    8000197a:	b779                	j	80001908 <_malloc_r+0xa4>
    8000197c:	47b1                	li	a5,12
    8000197e:	00f92023          	sw	a5,0(s2)
    80001982:	854a                	mv	a0,s2
    80001984:	012000ef          	jal	80001996 <__malloc_unlock>
    80001988:	bf11                	j	8000189c <_malloc_r+0x38>
    8000198a:	e104                	sd	s1,0(a0)
    8000198c:	b775                	j	80001938 <_malloc_r+0xd4>
    8000198e:	00003423          	sd	zero,8(zero) # 8 <__boot_hart+0x8>
    80001992:	9002                	ebreak

0000000080001994 <__malloc_lock>:
    80001994:	8082                	ret

0000000080001996 <__malloc_unlock>:
    80001996:	8082                	ret

0000000080001998 <_realloc_r>:
    80001998:	7179                	addi	sp,sp,-48
    8000199a:	f022                	sd	s0,32(sp)
    8000199c:	f406                	sd	ra,40(sp)
    8000199e:	ec26                	sd	s1,24(sp)
    800019a0:	e84a                	sd	s2,16(sp)
    800019a2:	e44e                	sd	s3,8(sp)
    800019a4:	e052                	sd	s4,0(sp)
    800019a6:	8432                	mv	s0,a2
    800019a8:	e991                	bnez	a1,800019bc <_realloc_r+0x24>
    800019aa:	7402                	ld	s0,32(sp)
    800019ac:	70a2                	ld	ra,40(sp)
    800019ae:	64e2                	ld	s1,24(sp)
    800019b0:	6942                	ld	s2,16(sp)
    800019b2:	69a2                	ld	s3,8(sp)
    800019b4:	6a02                	ld	s4,0(sp)
    800019b6:	85b2                	mv	a1,a2
    800019b8:	6145                	addi	sp,sp,48
    800019ba:	b56d                	j	80001864 <_malloc_r>
    800019bc:	ee09                	bnez	a2,800019d6 <_realloc_r+0x3e>
    800019be:	dadff0ef          	jal	8000176a <_free_r>
    800019c2:	4481                	li	s1,0
    800019c4:	70a2                	ld	ra,40(sp)
    800019c6:	7402                	ld	s0,32(sp)
    800019c8:	6942                	ld	s2,16(sp)
    800019ca:	69a2                	ld	s3,8(sp)
    800019cc:	6a02                	ld	s4,0(sp)
    800019ce:	8526                	mv	a0,s1
    800019d0:	64e2                	ld	s1,24(sp)
    800019d2:	6145                	addi	sp,sp,48
    800019d4:	8082                	ret
    800019d6:	8a2a                	mv	s4,a0
    800019d8:	84ae                	mv	s1,a1
    800019da:	352000ef          	jal	80001d2c <_malloc_usable_size_r>
    800019de:	892a                	mv	s2,a0
    800019e0:	00856663          	bltu	a0,s0,800019ec <_realloc_r+0x54>
    800019e4:	00155793          	srli	a5,a0,0x1
    800019e8:	fc87eee3          	bltu	a5,s0,800019c4 <_realloc_r+0x2c>
    800019ec:	85a2                	mv	a1,s0
    800019ee:	8552                	mv	a0,s4
    800019f0:	e75ff0ef          	jal	80001864 <_malloc_r>
    800019f4:	89aa                	mv	s3,a0
    800019f6:	e119                	bnez	a0,800019fc <_realloc_r+0x64>
    800019f8:	84ce                	mv	s1,s3
    800019fa:	b7e9                	j	800019c4 <_realloc_r+0x2c>
    800019fc:	8622                	mv	a2,s0
    800019fe:	00897363          	bgeu	s2,s0,80001a04 <_realloc_r+0x6c>
    80001a02:	864a                	mv	a2,s2
    80001a04:	85a6                	mv	a1,s1
    80001a06:	854e                	mv	a0,s3
    80001a08:	d4dff0ef          	jal	80001754 <memcpy>
    80001a0c:	85a6                	mv	a1,s1
    80001a0e:	8552                	mv	a0,s4
    80001a10:	d5bff0ef          	jal	8000176a <_free_r>
    80001a14:	b7d5                	j	800019f8 <_realloc_r+0x60>

0000000080001a16 <__sflush_r>:
    80001a16:	01059783          	lh	a5,16(a1)
    80001a1a:	7179                	addi	sp,sp,-48
    80001a1c:	f022                	sd	s0,32(sp)
    80001a1e:	ec26                	sd	s1,24(sp)
    80001a20:	f406                	sd	ra,40(sp)
    80001a22:	e84a                	sd	s2,16(sp)
    80001a24:	e44e                	sd	s3,8(sp)
    80001a26:	0087f713          	andi	a4,a5,8
    80001a2a:	84aa                	mv	s1,a0
    80001a2c:	842e                	mv	s0,a1
    80001a2e:	eb69                	bnez	a4,80001b00 <__sflush_r+0xea>
    80001a30:	4598                	lw	a4,8(a1)
    80001a32:	00e04563          	bgtz	a4,80001a3c <__sflush_r+0x26>
    80001a36:	5db8                	lw	a4,120(a1)
    80001a38:	0ae05b63          	blez	a4,80001aee <__sflush_r+0xd8>
    80001a3c:	6838                	ld	a4,80(s0)
    80001a3e:	cb45                	beqz	a4,80001aee <__sflush_r+0xd8>
    80001a40:	0004a903          	lw	s2,0(s1)
    80001a44:	03379693          	slli	a3,a5,0x33
    80001a48:	0004a023          	sw	zero,0(s1)
    80001a4c:	7c0c                	ld	a1,56(s0)
    80001a4e:	0606de63          	bgez	a3,80001aca <__sflush_r+0xb4>
    80001a52:	6c50                	ld	a2,152(s0)
    80001a54:	01045783          	lhu	a5,16(s0)
    80001a58:	8b91                	andi	a5,a5,4
    80001a5a:	c799                	beqz	a5,80001a68 <__sflush_r+0x52>
    80001a5c:	441c                	lw	a5,8(s0)
    80001a5e:	8e1d                	sub	a2,a2,a5
    80001a60:	703c                	ld	a5,96(s0)
    80001a62:	c399                	beqz	a5,80001a68 <__sflush_r+0x52>
    80001a64:	5c3c                	lw	a5,120(s0)
    80001a66:	8e1d                	sub	a2,a2,a5
    80001a68:	683c                	ld	a5,80(s0)
    80001a6a:	7c0c                	ld	a1,56(s0)
    80001a6c:	4681                	li	a3,0
    80001a6e:	8526                	mv	a0,s1
    80001a70:	9782                	jalr	a5
    80001a72:	577d                	li	a4,-1
    80001a74:	01045783          	lhu	a5,16(s0)
    80001a78:	00e51d63          	bne	a0,a4,80001a92 <__sflush_r+0x7c>
    80001a7c:	4094                	lw	a3,0(s1)
    80001a7e:	4775                	li	a4,29
    80001a80:	06d76963          	bltu	a4,a3,80001af2 <__sflush_r+0xdc>
    80001a84:	20400737          	lui	a4,0x20400
    80001a88:	0705                	addi	a4,a4,1 # 20400001 <__heap_size+0x203e0001>
    80001a8a:	00d75733          	srl	a4,a4,a3
    80001a8e:	8b05                	andi	a4,a4,1
    80001a90:	c32d                	beqz	a4,80001af2 <__sflush_r+0xdc>
    80001a92:	6c18                	ld	a4,24(s0)
    80001a94:	00042423          	sw	zero,8(s0)
    80001a98:	e018                	sd	a4,0(s0)
    80001a9a:	03379713          	slli	a4,a5,0x33
    80001a9e:	00075863          	bgez	a4,80001aae <__sflush_r+0x98>
    80001aa2:	57fd                	li	a5,-1
    80001aa4:	00f51463          	bne	a0,a5,80001aac <__sflush_r+0x96>
    80001aa8:	409c                	lw	a5,0(s1)
    80001aaa:	e391                	bnez	a5,80001aae <__sflush_r+0x98>
    80001aac:	ec48                	sd	a0,152(s0)
    80001aae:	702c                	ld	a1,96(s0)
    80001ab0:	0124a023          	sw	s2,0(s1)
    80001ab4:	cd8d                	beqz	a1,80001aee <__sflush_r+0xd8>
    80001ab6:	07c40793          	addi	a5,s0,124
    80001aba:	00f58563          	beq	a1,a5,80001ac4 <__sflush_r+0xae>
    80001abe:	8526                	mv	a0,s1
    80001ac0:	cabff0ef          	jal	8000176a <_free_r>
    80001ac4:	06043023          	sd	zero,96(s0)
    80001ac8:	a01d                	j	80001aee <__sflush_r+0xd8>
    80001aca:	4601                	li	a2,0
    80001acc:	4685                	li	a3,1
    80001ace:	8526                	mv	a0,s1
    80001ad0:	9702                	jalr	a4
    80001ad2:	57fd                	li	a5,-1
    80001ad4:	862a                	mv	a2,a0
    80001ad6:	f6f51fe3          	bne	a0,a5,80001a54 <__sflush_r+0x3e>
    80001ada:	409c                	lw	a5,0(s1)
    80001adc:	dfa5                	beqz	a5,80001a54 <__sflush_r+0x3e>
    80001ade:	4775                	li	a4,29
    80001ae0:	00e78563          	beq	a5,a4,80001aea <__sflush_r+0xd4>
    80001ae4:	4759                	li	a4,22
    80001ae6:	04e79663          	bne	a5,a4,80001b32 <__sflush_r+0x11c>
    80001aea:	0124a023          	sw	s2,0(s1)
    80001aee:	4501                	li	a0,0
    80001af0:	a881                	j	80001b40 <__sflush_r+0x12a>
    80001af2:	0407e793          	ori	a5,a5,64
    80001af6:	0107979b          	slliw	a5,a5,0x10
    80001afa:	4107d79b          	sraiw	a5,a5,0x10
    80001afe:	a835                	j	80001b3a <__sflush_r+0x124>
    80001b00:	0185b983          	ld	s3,24(a1)
    80001b04:	fe0985e3          	beqz	s3,80001aee <__sflush_r+0xd8>
    80001b08:	0005b903          	ld	s2,0(a1)
    80001b0c:	8b8d                	andi	a5,a5,3
    80001b0e:	0135b023          	sd	s3,0(a1)
    80001b12:	4139093b          	subw	s2,s2,s3
    80001b16:	4701                	li	a4,0
    80001b18:	e391                	bnez	a5,80001b1c <__sflush_r+0x106>
    80001b1a:	5198                	lw	a4,32(a1)
    80001b1c:	c458                	sw	a4,12(s0)
    80001b1e:	fd2058e3          	blez	s2,80001aee <__sflush_r+0xd8>
    80001b22:	643c                	ld	a5,72(s0)
    80001b24:	7c0c                	ld	a1,56(s0)
    80001b26:	86ca                	mv	a3,s2
    80001b28:	864e                	mv	a2,s3
    80001b2a:	8526                	mv	a0,s1
    80001b2c:	9782                	jalr	a5
    80001b2e:	02a04063          	bgtz	a0,80001b4e <__sflush_r+0x138>
    80001b32:	01041783          	lh	a5,16(s0)
    80001b36:	0407e793          	ori	a5,a5,64
    80001b3a:	00f41823          	sh	a5,16(s0)
    80001b3e:	557d                	li	a0,-1
    80001b40:	70a2                	ld	ra,40(sp)
    80001b42:	7402                	ld	s0,32(sp)
    80001b44:	64e2                	ld	s1,24(sp)
    80001b46:	6942                	ld	s2,16(sp)
    80001b48:	69a2                	ld	s3,8(sp)
    80001b4a:	6145                	addi	sp,sp,48
    80001b4c:	8082                	ret
    80001b4e:	99aa                	add	s3,s3,a0
    80001b50:	40a9093b          	subw	s2,s2,a0
    80001b54:	b7e9                	j	80001b1e <__sflush_r+0x108>

0000000080001b56 <_fflush_r>:
    80001b56:	6d9c                	ld	a5,24(a1)
    80001b58:	cb8d                	beqz	a5,80001b8a <_fflush_r+0x34>
    80001b5a:	1101                	addi	sp,sp,-32
    80001b5c:	e822                	sd	s0,16(sp)
    80001b5e:	ec06                	sd	ra,24(sp)
    80001b60:	842a                	mv	s0,a0
    80001b62:	c519                	beqz	a0,80001b70 <_fflush_r+0x1a>
    80001b64:	613c                	ld	a5,64(a0)
    80001b66:	e789                	bnez	a5,80001b70 <_fflush_r+0x1a>
    80001b68:	e42e                	sd	a1,8(sp)
    80001b6a:	c5eff0ef          	jal	80000fc8 <__sinit>
    80001b6e:	65a2                	ld	a1,8(sp)
    80001b70:	01059783          	lh	a5,16(a1)
    80001b74:	c791                	beqz	a5,80001b80 <_fflush_r+0x2a>
    80001b76:	8522                	mv	a0,s0
    80001b78:	6442                	ld	s0,16(sp)
    80001b7a:	60e2                	ld	ra,24(sp)
    80001b7c:	6105                	addi	sp,sp,32
    80001b7e:	bd61                	j	80001a16 <__sflush_r>
    80001b80:	60e2                	ld	ra,24(sp)
    80001b82:	6442                	ld	s0,16(sp)
    80001b84:	4501                	li	a0,0
    80001b86:	6105                	addi	sp,sp,32
    80001b88:	8082                	ret
    80001b8a:	4501                	li	a0,0
    80001b8c:	8082                	ret

0000000080001b8e <fflush>:
    80001b8e:	85aa                	mv	a1,a0
    80001b90:	ed19                	bnez	a0,80001bae <fflush+0x20>
    80001b92:	00001617          	auipc	a2,0x1
    80001b96:	92660613          	addi	a2,a2,-1754 # 800024b8 <__sglue>
    80001b9a:	00000597          	auipc	a1,0x0
    80001b9e:	fbc58593          	addi	a1,a1,-68 # 80001b56 <_fflush_r>
    80001ba2:	00001517          	auipc	a0,0x1
    80001ba6:	88650513          	addi	a0,a0,-1914 # 80002428 <_impure_data>
    80001baa:	f38ff06f          	j	800012e2 <_fwalk_sglue>
    80001bae:	00001517          	auipc	a0,0x1
    80001bb2:	92253503          	ld	a0,-1758(a0) # 800024d0 <_impure_ptr>
    80001bb6:	b745                	j	80001b56 <_fflush_r>

0000000080001bb8 <__swhatbuf_r>:
    80001bb8:	7175                	addi	sp,sp,-144
    80001bba:	e122                	sd	s0,128(sp)
    80001bbc:	842e                	mv	s0,a1
    80001bbe:	01259583          	lh	a1,18(a1)
    80001bc2:	fca6                	sd	s1,120(sp)
    80001bc4:	f8ca                	sd	s2,112(sp)
    80001bc6:	e506                	sd	ra,136(sp)
    80001bc8:	84b2                	mv	s1,a2
    80001bca:	8936                	mv	s2,a3
    80001bcc:	0205d363          	bgez	a1,80001bf2 <__swhatbuf_r+0x3a>
    80001bd0:	01045783          	lhu	a5,16(s0)
    80001bd4:	0807f793          	andi	a5,a5,128
    80001bd8:	eb95                	bnez	a5,80001c0c <__swhatbuf_r+0x54>
    80001bda:	40000713          	li	a4,1024
    80001bde:	60aa                	ld	ra,136(sp)
    80001be0:	640a                	ld	s0,128(sp)
    80001be2:	00f92023          	sw	a5,0(s2)
    80001be6:	e098                	sd	a4,0(s1)
    80001be8:	7946                	ld	s2,112(sp)
    80001bea:	74e6                	ld	s1,120(sp)
    80001bec:	4501                	li	a0,0
    80001bee:	6149                	addi	sp,sp,144
    80001bf0:	8082                	ret
    80001bf2:	0030                	addi	a2,sp,8
    80001bf4:	0be000ef          	jal	80001cb2 <_fstat_r>
    80001bf8:	fc054ce3          	bltz	a0,80001bd0 <__swhatbuf_r+0x18>
    80001bfc:	47b2                	lw	a5,12(sp)
    80001bfe:	673d                	lui	a4,0xf
    80001c00:	8ff9                	and	a5,a5,a4
    80001c02:	6709                	lui	a4,0x2
    80001c04:	8f99                	sub	a5,a5,a4
    80001c06:	0017b793          	seqz	a5,a5
    80001c0a:	bfc1                	j	80001bda <__swhatbuf_r+0x22>
    80001c0c:	4781                	li	a5,0
    80001c0e:	04000713          	li	a4,64
    80001c12:	b7f1                	j	80001bde <__swhatbuf_r+0x26>

0000000080001c14 <__smakebuf_r>:
    80001c14:	0105d783          	lhu	a5,16(a1)
    80001c18:	7139                	addi	sp,sp,-64
    80001c1a:	f822                	sd	s0,48(sp)
    80001c1c:	fc06                	sd	ra,56(sp)
    80001c1e:	f426                	sd	s1,40(sp)
    80001c20:	f04a                	sd	s2,32(sp)
    80001c22:	ec4e                	sd	s3,24(sp)
    80001c24:	8b89                	andi	a5,a5,2
    80001c26:	842e                	mv	s0,a1
    80001c28:	cf91                	beqz	a5,80001c44 <__smakebuf_r+0x30>
    80001c2a:	07f40793          	addi	a5,s0,127
    80001c2e:	e01c                	sd	a5,0(s0)
    80001c30:	ec1c                	sd	a5,24(s0)
    80001c32:	4785                	li	a5,1
    80001c34:	d01c                	sw	a5,32(s0)
    80001c36:	70e2                	ld	ra,56(sp)
    80001c38:	7442                	ld	s0,48(sp)
    80001c3a:	74a2                	ld	s1,40(sp)
    80001c3c:	7902                	ld	s2,32(sp)
    80001c3e:	69e2                	ld	s3,24(sp)
    80001c40:	6121                	addi	sp,sp,64
    80001c42:	8082                	ret
    80001c44:	0054                	addi	a3,sp,4
    80001c46:	0030                	addi	a2,sp,8
    80001c48:	84aa                	mv	s1,a0
    80001c4a:	f6fff0ef          	jal	80001bb8 <__swhatbuf_r>
    80001c4e:	69a2                	ld	s3,8(sp)
    80001c50:	892a                	mv	s2,a0
    80001c52:	8526                	mv	a0,s1
    80001c54:	85ce                	mv	a1,s3
    80001c56:	c0fff0ef          	jal	80001864 <_malloc_r>
    80001c5a:	ed01                	bnez	a0,80001c72 <__smakebuf_r+0x5e>
    80001c5c:	01041783          	lh	a5,16(s0)
    80001c60:	2007f713          	andi	a4,a5,512
    80001c64:	fb69                	bnez	a4,80001c36 <__smakebuf_r+0x22>
    80001c66:	9bf1                	andi	a5,a5,-4
    80001c68:	0027e793          	ori	a5,a5,2
    80001c6c:	00f41823          	sh	a5,16(s0)
    80001c70:	bf6d                	j	80001c2a <__smakebuf_r+0x16>
    80001c72:	01045783          	lhu	a5,16(s0)
    80001c76:	e008                	sd	a0,0(s0)
    80001c78:	ec08                	sd	a0,24(s0)
    80001c7a:	0807e793          	ori	a5,a5,128
    80001c7e:	00f41823          	sh	a5,16(s0)
    80001c82:	4792                	lw	a5,4(sp)
    80001c84:	03342023          	sw	s3,32(s0)
    80001c88:	cf91                	beqz	a5,80001ca4 <__smakebuf_r+0x90>
    80001c8a:	01241583          	lh	a1,18(s0)
    80001c8e:	8526                	mv	a0,s1
    80001c90:	04c000ef          	jal	80001cdc <_isatty_r>
    80001c94:	c901                	beqz	a0,80001ca4 <__smakebuf_r+0x90>
    80001c96:	01045783          	lhu	a5,16(s0)
    80001c9a:	9bf1                	andi	a5,a5,-4
    80001c9c:	0017e793          	ori	a5,a5,1
    80001ca0:	00f41823          	sh	a5,16(s0)
    80001ca4:	01045783          	lhu	a5,16(s0)
    80001ca8:	0127e533          	or	a0,a5,s2
    80001cac:	00a41823          	sh	a0,16(s0)
    80001cb0:	b759                	j	80001c36 <__smakebuf_r+0x22>

0000000080001cb2 <_fstat_r>:
    80001cb2:	1141                	addi	sp,sp,-16
    80001cb4:	e022                	sd	s0,0(sp)
    80001cb6:	842a                	mv	s0,a0
    80001cb8:	852e                	mv	a0,a1
    80001cba:	85b2                	mv	a1,a2
    80001cbc:	8201a423          	sw	zero,-2008(gp) # 800024f8 <errno>
    80001cc0:	e406                	sd	ra,8(sp)
    80001cc2:	096000ef          	jal	80001d58 <_fstat>
    80001cc6:	57fd                	li	a5,-1
    80001cc8:	00f51663          	bne	a0,a5,80001cd4 <_fstat_r+0x22>
    80001ccc:	8281a783          	lw	a5,-2008(gp) # 800024f8 <errno>
    80001cd0:	c391                	beqz	a5,80001cd4 <_fstat_r+0x22>
    80001cd2:	c01c                	sw	a5,0(s0)
    80001cd4:	60a2                	ld	ra,8(sp)
    80001cd6:	6402                	ld	s0,0(sp)
    80001cd8:	0141                	addi	sp,sp,16
    80001cda:	8082                	ret

0000000080001cdc <_isatty_r>:
    80001cdc:	1141                	addi	sp,sp,-16
    80001cde:	e022                	sd	s0,0(sp)
    80001ce0:	842a                	mv	s0,a0
    80001ce2:	852e                	mv	a0,a1
    80001ce4:	8201a423          	sw	zero,-2008(gp) # 800024f8 <errno>
    80001ce8:	e406                	sd	ra,8(sp)
    80001cea:	082000ef          	jal	80001d6c <_isatty>
    80001cee:	57fd                	li	a5,-1
    80001cf0:	00f51663          	bne	a0,a5,80001cfc <_isatty_r+0x20>
    80001cf4:	8281a783          	lw	a5,-2008(gp) # 800024f8 <errno>
    80001cf8:	c391                	beqz	a5,80001cfc <_isatty_r+0x20>
    80001cfa:	c01c                	sw	a5,0(s0)
    80001cfc:	60a2                	ld	ra,8(sp)
    80001cfe:	6402                	ld	s0,0(sp)
    80001d00:	0141                	addi	sp,sp,16
    80001d02:	8082                	ret

0000000080001d04 <_sbrk_r>:
    80001d04:	1141                	addi	sp,sp,-16
    80001d06:	e022                	sd	s0,0(sp)
    80001d08:	842a                	mv	s0,a0
    80001d0a:	852e                	mv	a0,a1
    80001d0c:	8201a423          	sw	zero,-2008(gp) # 800024f8 <errno>
    80001d10:	e406                	sd	ra,8(sp)
    80001d12:	08c000ef          	jal	80001d9e <_sbrk>
    80001d16:	57fd                	li	a5,-1
    80001d18:	00f51663          	bne	a0,a5,80001d24 <_sbrk_r+0x20>
    80001d1c:	8281a783          	lw	a5,-2008(gp) # 800024f8 <errno>
    80001d20:	c391                	beqz	a5,80001d24 <_sbrk_r+0x20>
    80001d22:	c01c                	sw	a5,0(s0)
    80001d24:	60a2                	ld	ra,8(sp)
    80001d26:	6402                	ld	s0,0(sp)
    80001d28:	0141                	addi	sp,sp,16
    80001d2a:	8082                	ret

0000000080001d2c <_malloc_usable_size_r>:
    80001d2c:	ff85b503          	ld	a0,-8(a1)
    80001d30:	0005079b          	sext.w	a5,a0
    80001d34:	1561                	addi	a0,a0,-8
    80001d36:	0007d663          	bgez	a5,80001d42 <_malloc_usable_size_r+0x16>
    80001d3a:	95aa                	add	a1,a1,a0
    80001d3c:	6188                	ld	a0,0(a1)
    80001d3e:	17e1                	addi	a5,a5,-8
    80001d40:	953e                	add	a0,a0,a5
    80001d42:	8082                	ret

0000000080001d44 <_close>:
    80001d44:	1141                	addi	sp,sp,-16
    80001d46:	e406                	sd	ra,8(sp)
    80001d48:	182000ef          	jal	80001eca <__errno>
    80001d4c:	60a2                	ld	ra,8(sp)
    80001d4e:	47a5                	li	a5,9
    80001d50:	c11c                	sw	a5,0(a0)
    80001d52:	557d                	li	a0,-1
    80001d54:	0141                	addi	sp,sp,16
    80001d56:	8082                	ret

0000000080001d58 <_fstat>:
    80001d58:	1141                	addi	sp,sp,-16
    80001d5a:	e406                	sd	ra,8(sp)
    80001d5c:	16e000ef          	jal	80001eca <__errno>
    80001d60:	60a2                	ld	ra,8(sp)
    80001d62:	47a5                	li	a5,9
    80001d64:	c11c                	sw	a5,0(a0)
    80001d66:	557d                	li	a0,-1
    80001d68:	0141                	addi	sp,sp,16
    80001d6a:	8082                	ret

0000000080001d6c <_isatty>:
    80001d6c:	357d                	addiw	a0,a0,-1
    80001d6e:	00253513          	sltiu	a0,a0,2
    80001d72:	8082                	ret

0000000080001d74 <_lseek>:
    80001d74:	1141                	addi	sp,sp,-16
    80001d76:	e406                	sd	ra,8(sp)
    80001d78:	152000ef          	jal	80001eca <__errno>
    80001d7c:	60a2                	ld	ra,8(sp)
    80001d7e:	47a5                	li	a5,9
    80001d80:	c11c                	sw	a5,0(a0)
    80001d82:	557d                	li	a0,-1
    80001d84:	0141                	addi	sp,sp,16
    80001d86:	8082                	ret

0000000080001d88 <_read>:
    80001d88:	1141                	addi	sp,sp,-16
    80001d8a:	e406                	sd	ra,8(sp)
    80001d8c:	13e000ef          	jal	80001eca <__errno>
    80001d90:	60a2                	ld	ra,8(sp)
    80001d92:	05800793          	li	a5,88
    80001d96:	c11c                	sw	a5,0(a0)
    80001d98:	557d                	li	a0,-1
    80001d9a:	0141                	addi	sp,sp,16
    80001d9c:	8082                	ret

0000000080001d9e <_sbrk>:
    80001d9e:	00000717          	auipc	a4,0x0
    80001da2:	73a70713          	addi	a4,a4,1850 # 800024d8 <curbrk>
    80001da6:	631c                	ld	a5,0(a4)
    80001da8:	b8818693          	addi	a3,gp,-1144 # 80002858 <_end>
    80001dac:	953e                	add	a0,a0,a5
    80001dae:	00d56b63          	bltu	a0,a3,80001dc4 <_sbrk+0x26>
    80001db2:	00021697          	auipc	a3,0x21
    80001db6:	24e68693          	addi	a3,a3,590 # 80023000 <__heap_end>
    80001dba:	00d57563          	bgeu	a0,a3,80001dc4 <_sbrk+0x26>
    80001dbe:	e308                	sd	a0,0(a4)
    80001dc0:	853e                	mv	a0,a5
    80001dc2:	8082                	ret
    80001dc4:	1141                	addi	sp,sp,-16
    80001dc6:	e406                	sd	ra,8(sp)
    80001dc8:	102000ef          	jal	80001eca <__errno>
    80001dcc:	60a2                	ld	ra,8(sp)
    80001dce:	47b1                	li	a5,12
    80001dd0:	c11c                	sw	a5,0(a0)
    80001dd2:	57fd                	li	a5,-1
    80001dd4:	853e                	mv	a0,a5
    80001dd6:	0141                	addi	sp,sp,16
    80001dd8:	8082                	ret

0000000080001dda <_write>:
    80001dda:	04000693          	li	a3,64
    80001dde:	a0b9                	j	80001e2c <htif_syscall>

0000000080001de0 <handle_trap>:
    80001de0:	1141                	addi	sp,sp,-16
    80001de2:	02159513          	slli	a0,a1,0x21
    80001de6:	e406                	sd	ra,8(sp)
    80001de8:	9105                	srli	a0,a0,0x21
    80001dea:	0005d463          	bgez	a1,80001df2 <handle_trap+0x12>
    80001dee:	40a0053b          	negw	a0,a0
    80001df2:	086000ef          	jal	80001e78 <_exit>

0000000080001df6 <__init_tls>:
    80001df6:	1141                	addi	sp,sp,-16
    80001df8:	00000613          	li	a2,0
    80001dfc:	00000597          	auipc	a1,0x0
    80001e00:	2aa58593          	addi	a1,a1,682 # 800020a6 <__tbss_end>
    80001e04:	8512                	mv	a0,tp
    80001e06:	e022                	sd	s0,0(sp)
    80001e08:	e406                	sd	ra,8(sp)
    80001e0a:	8412                	mv	s0,tp
    80001e0c:	949ff0ef          	jal	80001754 <memcpy>
    80001e10:	00000513          	li	a0,0
    80001e14:	9522                	add	a0,a0,s0
    80001e16:	6402                	ld	s0,0(sp)
    80001e18:	60a2                	ld	ra,8(sp)
    80001e1a:	00000613          	li	a2,0
    80001e1e:	4581                	li	a1,0
    80001e20:	0141                	addi	sp,sp,16
    80001e22:	923ff06f          	j	80001744 <memset>

0000000080001e26 <__main>:
    80001e26:	10500073          	wfi
    80001e2a:	bff5                	j	80001e26 <__main>

0000000080001e2c <htif_syscall>:
    80001e2c:	7139                	addi	sp,sp,-64
    80001e2e:	e036                	sd	a3,0(sp)
    80001e30:	e42a                	sd	a0,8(sp)
    80001e32:	fff007b7          	lui	a5,0xfff00
    80001e36:	e82e                	sd	a1,16(sp)
    80001e38:	83c1                	srli	a5,a5,0x10
    80001e3a:	ec32                	sd	a2,24(sp)
    80001e3c:	860a                	mv	a2,sp
    80001e3e:	8e7d                	and	a2,a2,a5
    80001e40:	84018713          	addi	a4,gp,-1984 # 80002510 <htif_lock>
    80001e44:	56fd                	li	a3,-1
    80001e46:	431c                	lw	a5,0(a4)
    80001e48:	fffd                	bnez	a5,80001e46 <htif_syscall+0x1a>
    80001e4a:	0cd727af          	amoswap.w.aq	a5,a3,(a4)
    80001e4e:	ffe5                	bnez	a5,80001e46 <htif_syscall+0x1a>
    80001e50:	0110000f          	fence	w,w
    80001e54:	00000697          	auipc	a3,0x0
    80001e58:	5ac68693          	addi	a3,a3,1452 # 80002400 <tohost>
    80001e5c:	e290                	sd	a2,0(a3)
    80001e5e:	669c                	ld	a5,8(a3)
    80001e60:	dffd                	beqz	a5,80001e5e <htif_syscall+0x32>
    80001e62:	00000797          	auipc	a5,0x0
    80001e66:	5a07b323          	sd	zero,1446(a5) # 80002408 <fromhost>
    80001e6a:	0a07202f          	amoswap.w.rl	zero,zero,(a4)
    80001e6e:	0220000f          	fence	r,r
    80001e72:	6502                	ld	a0,0(sp)
    80001e74:	6121                	addi	sp,sp,64
    80001e76:	8082                	ret

0000000080001e78 <_exit>:
    80001e78:	0015179b          	slliw	a5,a0,0x1
    80001e7c:	0017e793          	ori	a5,a5,1
    80001e80:	2781                	sext.w	a5,a5
    80001e82:	07c2                	slli	a5,a5,0x10
    80001e84:	83c1                	srli	a5,a5,0x10
    80001e86:	00000717          	auipc	a4,0x0
    80001e8a:	57a70713          	addi	a4,a4,1402 # 80002400 <tohost>
    80001e8e:	00000697          	auipc	a3,0x0
    80001e92:	5606bd23          	sd	zero,1402(a3) # 80002408 <fromhost>
    80001e96:	e31c                	sd	a5,0(a4)
    80001e98:	bfdd                	j	80001e8e <_exit+0x16>

0000000080001e9a <atexit>:
    80001e9a:	85aa                	mv	a1,a0
    80001e9c:	4681                	li	a3,0
    80001e9e:	4601                	li	a2,0
    80001ea0:	4501                	li	a0,0
    80001ea2:	a0d9                	j	80001f68 <__register_exitproc>

0000000080001ea4 <exit>:
    80001ea4:	1141                	addi	sp,sp,-16
    80001ea6:	e022                	sd	s0,0(sp)
    80001ea8:	e406                	sd	ra,8(sp)
    80001eaa:	00000797          	auipc	a5,0x0
    80001eae:	13478793          	addi	a5,a5,308 # 80001fde <__call_exitprocs>
    80001eb2:	842a                	mv	s0,a0
    80001eb4:	c781                	beqz	a5,80001ebc <exit+0x18>
    80001eb6:	4581                	li	a1,0
    80001eb8:	126000ef          	jal	80001fde <__call_exitprocs>
    80001ebc:	8201b783          	ld	a5,-2016(gp) # 800024f0 <__stdio_exit_handler>
    80001ec0:	c391                	beqz	a5,80001ec4 <exit+0x20>
    80001ec2:	9782                	jalr	a5
    80001ec4:	8522                	mv	a0,s0
    80001ec6:	fb3ff0ef          	jal	80001e78 <_exit>

0000000080001eca <__errno>:
    80001eca:	00000517          	auipc	a0,0x0
    80001ece:	60653503          	ld	a0,1542(a0) # 800024d0 <_impure_ptr>
    80001ed2:	8082                	ret

0000000080001ed4 <__libc_init_array>:
    80001ed4:	1101                	addi	sp,sp,-32
    80001ed6:	e822                	sd	s0,16(sp)
    80001ed8:	e426                	sd	s1,8(sp)
    80001eda:	00000417          	auipc	s0,0x0
    80001ede:	4ee40413          	addi	s0,s0,1262 # 800023c8 <__fini_array_end>
    80001ee2:	00000497          	auipc	s1,0x0
    80001ee6:	4e648493          	addi	s1,s1,1254 # 800023c8 <__fini_array_end>
    80001eea:	8c81                	sub	s1,s1,s0
    80001eec:	e04a                	sd	s2,0(sp)
    80001eee:	ec06                	sd	ra,24(sp)
    80001ef0:	848d                	srai	s1,s1,0x3
    80001ef2:	4901                	li	s2,0
    80001ef4:	02991563          	bne	s2,s1,80001f1e <__libc_init_array+0x4a>
    80001ef8:	00000417          	auipc	s0,0x0
    80001efc:	4d040413          	addi	s0,s0,1232 # 800023c8 <__fini_array_end>
    80001f00:	00000497          	auipc	s1,0x0
    80001f04:	4c848493          	addi	s1,s1,1224 # 800023c8 <__fini_array_end>
    80001f08:	8c81                	sub	s1,s1,s0
    80001f0a:	848d                	srai	s1,s1,0x3
    80001f0c:	4901                	li	s2,0
    80001f0e:	00991d63          	bne	s2,s1,80001f28 <__libc_init_array+0x54>
    80001f12:	60e2                	ld	ra,24(sp)
    80001f14:	6442                	ld	s0,16(sp)
    80001f16:	64a2                	ld	s1,8(sp)
    80001f18:	6902                	ld	s2,0(sp)
    80001f1a:	6105                	addi	sp,sp,32
    80001f1c:	8082                	ret
    80001f1e:	601c                	ld	a5,0(s0)
    80001f20:	0905                	addi	s2,s2,1
    80001f22:	0421                	addi	s0,s0,8
    80001f24:	9782                	jalr	a5
    80001f26:	b7f9                	j	80001ef4 <__libc_init_array+0x20>
    80001f28:	601c                	ld	a5,0(s0)
    80001f2a:	0905                	addi	s2,s2,1
    80001f2c:	0421                	addi	s0,s0,8
    80001f2e:	9782                	jalr	a5
    80001f30:	bff9                	j	80001f0e <__libc_init_array+0x3a>

0000000080001f32 <__libc_fini_array>:
    80001f32:	1101                	addi	sp,sp,-32
    80001f34:	e822                	sd	s0,16(sp)
    80001f36:	e426                	sd	s1,8(sp)
    80001f38:	00000417          	auipc	s0,0x0
    80001f3c:	49040413          	addi	s0,s0,1168 # 800023c8 <__fini_array_end>
    80001f40:	00000497          	auipc	s1,0x0
    80001f44:	48848493          	addi	s1,s1,1160 # 800023c8 <__fini_array_end>
    80001f48:	8c05                	sub	s0,s0,s1
    80001f4a:	ec06                	sd	ra,24(sp)
    80001f4c:	840d                	srai	s0,s0,0x3
    80001f4e:	e411                	bnez	s0,80001f5a <__libc_fini_array+0x28>
    80001f50:	60e2                	ld	ra,24(sp)
    80001f52:	6442                	ld	s0,16(sp)
    80001f54:	64a2                	ld	s1,8(sp)
    80001f56:	6105                	addi	sp,sp,32
    80001f58:	8082                	ret
    80001f5a:	147d                	addi	s0,s0,-1
    80001f5c:	00341793          	slli	a5,s0,0x3
    80001f60:	97a6                	add	a5,a5,s1
    80001f62:	639c                	ld	a5,0(a5)
    80001f64:	9782                	jalr	a5
    80001f66:	b7e5                	j	80001f4e <__libc_fini_array+0x1c>

0000000080001f68 <__register_exitproc>:
    80001f68:	88aa                	mv	a7,a0
    80001f6a:	85018513          	addi	a0,gp,-1968 # 80002520 <__atexit>
    80001f6e:	6118                	ld	a4,0(a0)
    80001f70:	ef01                	bnez	a4,80001f88 <__register_exitproc+0x20>
    80001f72:	a7018793          	addi	a5,gp,-1424 # 80002740 <__atexit0>
    80001f76:	e11c                	sd	a5,0(a0)
    80001f78:	00000713          	li	a4,0
    80001f7c:	c701                	beqz	a4,80001f84 <__register_exitproc+0x1c>
    80001f7e:	6318                	ld	a4,0(a4)
    80001f80:	10e7b823          	sd	a4,272(a5)
    80001f84:	a7018713          	addi	a4,gp,-1424 # 80002740 <__atexit0>
    80001f88:	471c                	lw	a5,8(a4)
    80001f8a:	487d                	li	a6,31
    80001f8c:	557d                	li	a0,-1
    80001f8e:	04f84763          	blt	a6,a5,80001fdc <__register_exitproc+0x74>
    80001f92:	02088d63          	beqz	a7,80001fcc <__register_exitproc+0x64>
    80001f96:	11073803          	ld	a6,272(a4)
    80001f9a:	04080163          	beqz	a6,80001fdc <__register_exitproc+0x74>
    80001f9e:	00379513          	slli	a0,a5,0x3
    80001fa2:	9542                	add	a0,a0,a6
    80001fa4:	e110                	sd	a2,0(a0)
    80001fa6:	20082303          	lw	t1,512(a6)
    80001faa:	4605                	li	a2,1
    80001fac:	00f6163b          	sllw	a2,a2,a5
    80001fb0:	00c36333          	or	t1,t1,a2
    80001fb4:	20682023          	sw	t1,512(a6)
    80001fb8:	10d53023          	sd	a3,256(a0)
    80001fbc:	4689                	li	a3,2
    80001fbe:	00d89763          	bne	a7,a3,80001fcc <__register_exitproc+0x64>
    80001fc2:	20482683          	lw	a3,516(a6)
    80001fc6:	8ed1                	or	a3,a3,a2
    80001fc8:	20d82223          	sw	a3,516(a6)
    80001fcc:	0017869b          	addiw	a3,a5,1
    80001fd0:	0789                	addi	a5,a5,2
    80001fd2:	078e                	slli	a5,a5,0x3
    80001fd4:	c714                	sw	a3,8(a4)
    80001fd6:	973e                	add	a4,a4,a5
    80001fd8:	e30c                	sd	a1,0(a4)
    80001fda:	4501                	li	a0,0
    80001fdc:	8082                	ret

0000000080001fde <__call_exitprocs>:
    80001fde:	711d                	addi	sp,sp,-96
    80001fe0:	f852                	sd	s4,48(sp)
    80001fe2:	f456                	sd	s5,40(sp)
    80001fe4:	f05a                	sd	s6,32(sp)
    80001fe6:	ec5e                	sd	s7,24(sp)
    80001fe8:	ec86                	sd	ra,88(sp)
    80001fea:	e8a2                	sd	s0,80(sp)
    80001fec:	e4a6                	sd	s1,72(sp)
    80001fee:	e0ca                	sd	s2,64(sp)
    80001ff0:	fc4e                	sd	s3,56(sp)
    80001ff2:	e862                	sd	s8,16(sp)
    80001ff4:	e466                	sd	s9,8(sp)
    80001ff6:	8aaa                	mv	s5,a0
    80001ff8:	8a2e                	mv	s4,a1
    80001ffa:	85018b13          	addi	s6,gp,-1968 # 80002520 <__atexit>
    80001ffe:	4b85                	li	s7,1
    80002000:	000b3483          	ld	s1,0(s6)
    80002004:	cc81                	beqz	s1,8000201c <__call_exitprocs+0x3e>
    80002006:	4480                	lw	s0,8(s1)
    80002008:	1104b983          	ld	s3,272(s1)
    8000200c:	fff4091b          	addiw	s2,s0,-1
    80002010:	040e                	slli	s0,s0,0x3
    80002012:	00898cb3          	add	s9,s3,s0
    80002016:	9426                	add	s0,s0,s1
    80002018:	00095f63          	bgez	s2,80002036 <__call_exitprocs+0x58>
    8000201c:	60e6                	ld	ra,88(sp)
    8000201e:	6446                	ld	s0,80(sp)
    80002020:	64a6                	ld	s1,72(sp)
    80002022:	6906                	ld	s2,64(sp)
    80002024:	79e2                	ld	s3,56(sp)
    80002026:	7a42                	ld	s4,48(sp)
    80002028:	7aa2                	ld	s5,40(sp)
    8000202a:	7b02                	ld	s6,32(sp)
    8000202c:	6be2                	ld	s7,24(sp)
    8000202e:	6c42                	ld	s8,16(sp)
    80002030:	6ca2                	ld	s9,8(sp)
    80002032:	6125                	addi	sp,sp,96
    80002034:	8082                	ret
    80002036:	000a0c63          	beqz	s4,8000204e <__call_exitprocs+0x70>
    8000203a:	00099663          	bnez	s3,80002046 <__call_exitprocs+0x68>
    8000203e:	397d                	addiw	s2,s2,-1
    80002040:	1ce1                	addi	s9,s9,-8
    80002042:	1461                	addi	s0,s0,-8
    80002044:	bfd1                	j	80002018 <__call_exitprocs+0x3a>
    80002046:	0f8cb783          	ld	a5,248(s9)
    8000204a:	ff479ae3          	bne	a5,s4,8000203e <__call_exitprocs+0x60>
    8000204e:	449c                	lw	a5,8(s1)
    80002050:	6418                	ld	a4,8(s0)
    80002052:	37fd                	addiw	a5,a5,-1
    80002054:	03279963          	bne	a5,s2,80002086 <__call_exitprocs+0xa8>
    80002058:	0124a423          	sw	s2,8(s1)
    8000205c:	d36d                	beqz	a4,8000203e <__call_exitprocs+0x60>
    8000205e:	0084ac03          	lw	s8,8(s1)
    80002062:	00098963          	beqz	s3,80002074 <__call_exitprocs+0x96>
    80002066:	2009a783          	lw	a5,512(s3)
    8000206a:	012b96bb          	sllw	a3,s7,s2
    8000206e:	8ff5                	and	a5,a5,a3
    80002070:	2781                	sext.w	a5,a5
    80002072:	ef89                	bnez	a5,8000208c <__call_exitprocs+0xae>
    80002074:	9702                	jalr	a4
    80002076:	4498                	lw	a4,8(s1)
    80002078:	000b3783          	ld	a5,0(s6)
    8000207c:	f98712e3          	bne	a4,s8,80002000 <__call_exitprocs+0x22>
    80002080:	faf48fe3          	beq	s1,a5,8000203e <__call_exitprocs+0x60>
    80002084:	bfb5                	j	80002000 <__call_exitprocs+0x22>
    80002086:	00043423          	sd	zero,8(s0)
    8000208a:	bfc9                	j	8000205c <__call_exitprocs+0x7e>
    8000208c:	2049a783          	lw	a5,516(s3)
    80002090:	ff8cb583          	ld	a1,-8(s9)
    80002094:	8ff5                	and	a5,a5,a3
    80002096:	2781                	sext.w	a5,a5
    80002098:	e781                	bnez	a5,800020a0 <__call_exitprocs+0xc2>
    8000209a:	8556                	mv	a0,s5
    8000209c:	9702                	jalr	a4
    8000209e:	bfe1                	j	80002076 <__call_exitprocs+0x98>
    800020a0:	852e                	mv	a0,a1
    800020a2:	9702                	jalr	a4
    800020a4:	bfc9                	j	80002076 <__call_exitprocs+0x98>

Disassembly of section .rodata:

00000000800020a8 <__tbss_end+0x2>:
    800020a8:	7245                	lui	tp,0xffff1
    800020aa:	6f72                	ld	t5,280(sp)
    800020ac:	2072                	fld	ft0,280(sp)
    800020ae:	6572                	ld	a0,280(sp)
    800020b0:	6461                	lui	s0,0x18
    800020b2:	6e69                	lui	t3,0x1a
    800020b4:	64612067          	.insn	4, 0x64612067
    800020b8:	7264                	ld	s1,224(a2)
    800020ba:	7365                	lui	t1,0xffff9
    800020bc:	78302073          	csrr	zero,0x783
    800020c0:	3025                	.insn	2, 0x3025
    800020c2:	7838                	ld	a4,112(s0)
    800020c4:	6620                	ld	s0,72(a2)
    800020c6:	6f72                	ld	t5,280(sp)
    800020c8:	206d                	.insn	2, 0x206d
    800020ca:	20495053          	.insn	4, 0x20495053
    800020ce:	6c66                	ld	s8,88(sp)
    800020d0:	7361                	lui	t1,0xffff8
    800020d2:	2e68                	fld	fa0,216(a2)
    800020d4:	4720                	lw	s0,72(a4)
    800020d6:	3020746f          	jal	s0,800093d8 <__global_pointer$+0x6708>
    800020da:	2578                	fld	fa4,200(a0)
    800020dc:	3830                	fld	fa2,112(s0)
    800020de:	2c78                	fld	fa4,216(s0)
    800020e0:	6520                	ld	s0,72(a0)
    800020e2:	7078                	ld	a4,224(s0)
    800020e4:	6365                	lui	t1,0x19
    800020e6:	6574                	ld	a3,200(a0)
    800020e8:	2064                	fld	fs1,192(s0)
    800020ea:	7830                	ld	a2,112(s0)
    800020ec:	3025                	.insn	2, 0x3025
    800020ee:	7838                	ld	a4,112(s0)
    800020f0:	0a2e                	slli	s4,s4,0xb
    800020f2:	0000                	unimp
    800020f4:	0000                	unimp
    800020f6:	0000                	unimp
    800020f8:	7245                	lui	tp,0xffff1
    800020fa:	6f72                	ld	t5,280(sp)
    800020fc:	2072                	fld	ft0,280(sp)
    800020fe:	6572                	ld	a0,280(sp)
    80002100:	6461                	lui	s0,0x18
    80002102:	6e69                	lui	t3,0x1a
    80002104:	64612067          	.insn	4, 0x64612067
    80002108:	7264                	ld	s1,224(a2)
    8000210a:	7365                	lui	t1,0xffff9
    8000210c:	78302073          	csrr	zero,0x783
    80002110:	3025                	.insn	2, 0x3025
    80002112:	7838                	ld	a4,112(s0)
    80002114:	6620                	ld	s0,72(a2)
    80002116:	6f72                	ld	t5,280(sp)
    80002118:	206d                	.insn	2, 0x206d
    8000211a:	20495053          	.insn	4, 0x20495053
    8000211e:	6c66                	ld	s8,88(sp)
    80002120:	7361                	lui	t1,0xffff8
    80002122:	2e68                	fld	fa0,216(a2)
    80002124:	4720                	lw	s0,72(a4)
    80002126:	3020746f          	jal	s0,80009428 <__global_pointer$+0x6758>
    8000212a:	2578                	fld	fa4,200(a0)
    8000212c:	3230                	fld	fa2,96(a2)
    8000212e:	2c78                	fld	fa4,216(s0)
    80002130:	6520                	ld	s0,72(a0)
    80002132:	7078                	ld	a4,224(s0)
    80002134:	6365                	lui	t1,0x19
    80002136:	6574                	ld	a3,200(a0)
    80002138:	2064                	fld	fs1,192(s0)
    8000213a:	7830                	ld	a2,112(s0)
    8000213c:	3025                	.insn	2, 0x3025
    8000213e:	7832                	ld	a6,296(sp)
    80002140:	0a2e                	slli	s4,s4,0xb
    80002142:	0000                	unimp
    80002144:	0000                	unimp
    80002146:	0000                	unimp
    80002148:	6554                	ld	a3,136(a0)
    8000214a:	6e697473          	csrrci	s0,0x6e6,18
    8000214e:	50532067          	.insn	4, 0x50532067
    80002152:	2049                	.insn	2, 0x2049
    80002154:	6c66                	ld	s8,88(sp)
    80002156:	7361                	lui	t1,0xffff8
    80002158:	2068                	fld	fa0,192(s0)
    8000215a:	6d6d6f63          	bltu	s10,s6,80002838 <__atexit0+0xf8>
    8000215e:	6e61                	lui	t3,0x18
    80002160:	2064                	fld	fs1,192(s0)
    80002162:	7830                	ld	a2,112(s0)
    80002164:	3331                	addiw	t1,t1,-20 # ffffffffffff7fec <__heap_end+0xffffffff7ffd4fec>
    80002166:	2e2e                	fld	ft8,200(sp)
    80002168:	0a2e                	slli	s4,s4,0xb
    8000216a:	0000                	unimp
    8000216c:	0000                	unimp
    8000216e:	0000                	unimp
    80002170:	6554                	ld	a3,136(a0)
    80002172:	6e697473          	csrrci	s0,0x6e6,18
    80002176:	50532067          	.insn	4, 0x50532067
    8000217a:	2049                	.insn	2, 0x2049
    8000217c:	6c66                	ld	s8,88(sp)
    8000217e:	7361                	lui	t1,0xffff8
    80002180:	2068                	fld	fa0,192(s0)
    80002182:	6d6d6f63          	bltu	s10,s6,80002860 <_end+0x8>
    80002186:	6e61                	lui	t3,0x18
    80002188:	2064                	fld	fs1,192(s0)
    8000218a:	7830                	ld	a2,112(s0)
    8000218c:	3330                	fld	fa2,96(a4)
    8000218e:	2e2e                	fld	ft8,200(sp)
    80002190:	0a2e                	slli	s4,s4,0xb
    80002192:	0000                	unimp
    80002194:	0000                	unimp
    80002196:	0000                	unimp
    80002198:	6554                	ld	a3,136(a0)
    8000219a:	6e697473          	csrrci	s0,0x6e6,18
    8000219e:	50532067          	.insn	4, 0x50532067
    800021a2:	2049                	.insn	2, 0x2049
    800021a4:	6c66                	ld	s8,88(sp)
    800021a6:	7361                	lui	t1,0xffff8
    800021a8:	2068                	fld	fa0,192(s0)
    800021aa:	6d6d6f63          	bltu	s10,s6,80002888 <_end+0x30>
    800021ae:	6e61                	lui	t3,0x18
    800021b0:	2064                	fld	fs1,192(s0)
    800021b2:	7830                	ld	a2,112(s0)
    800021b4:	4230                	lw	a2,64(a2)
    800021b6:	2e2e                	fld	ft8,200(sp)
    800021b8:	0a2e                	slli	s4,s4,0xb
    800021ba:	0000                	unimp
    800021bc:	0000                	unimp
    800021be:	0000                	unimp
    800021c0:	6554                	ld	a3,136(a0)
    800021c2:	6e697473          	csrrci	s0,0x6e6,18
    800021c6:	50532067          	.insn	4, 0x50532067
    800021ca:	2049                	.insn	2, 0x2049
    800021cc:	6c66                	ld	s8,88(sp)
    800021ce:	7361                	lui	t1,0xffff8
    800021d0:	2068                	fld	fa0,192(s0)
    800021d2:	6d6d6f63          	bltu	s10,s6,800028b0 <_end+0x58>
    800021d6:	6e61                	lui	t3,0x18
    800021d8:	2064                	fld	fs1,192(s0)
    800021da:	7830                	ld	a2,112(s0)
    800021dc:	4330                	lw	a2,64(a4)
    800021de:	2e2e                	fld	ft8,200(sp)
    800021e0:	0a2e                	slli	s4,s4,0xb
    800021e2:	0000                	unimp
    800021e4:	0000                	unimp
    800021e6:	0000                	unimp
    800021e8:	6554                	ld	a3,136(a0)
    800021ea:	6e697473          	csrrci	s0,0x6e6,18
    800021ee:	50532067          	.insn	4, 0x50532067
    800021f2:	2049                	.insn	2, 0x2049
    800021f4:	6c66                	ld	s8,88(sp)
    800021f6:	7361                	lui	t1,0xffff8
    800021f8:	2068                	fld	fa0,192(s0)
    800021fa:	6d6d6f63          	bltu	s10,s6,800028d8 <_end+0x80>
    800021fe:	6e61                	lui	t3,0x18
    80002200:	2064                	fld	fs1,192(s0)
    80002202:	7830                	ld	a2,112(s0)
    80002204:	4336                	lw	t1,76(sp)
    80002206:	2e2e                	fld	ft8,200(sp)
    80002208:	0a2e                	slli	s4,s4,0xb
    8000220a:	0000                	unimp
    8000220c:	0000                	unimp
    8000220e:	0000                	unimp
    80002210:	6554                	ld	a3,136(a0)
    80002212:	6e697473          	csrrci	s0,0x6e6,18
    80002216:	50532067          	.insn	4, 0x50532067
    8000221a:	2049                	.insn	2, 0x2049
    8000221c:	6c66                	ld	s8,88(sp)
    8000221e:	7361                	lui	t1,0xffff8
    80002220:	2068                	fld	fa0,192(s0)
    80002222:	6d6d6f63          	bltu	s10,s6,80002900 <_end+0xa8>
    80002226:	6e61                	lui	t3,0x18
    80002228:	2064                	fld	fs1,192(s0)
    8000222a:	7830                	ld	a2,112(s0)
    8000222c:	4236                	lw	tp,76(sp)
    8000222e:	2e2e                	fld	ft8,200(sp)
    80002230:	0a2e                	slli	s4,s4,0xb
    80002232:	0000                	unimp
    80002234:	0000                	unimp
    80002236:	0000                	unimp
    80002238:	6554                	ld	a3,136(a0)
    8000223a:	6e697473          	csrrci	s0,0x6e6,18
    8000223e:	50532067          	.insn	4, 0x50532067
    80002242:	2049                	.insn	2, 0x2049
    80002244:	6c66                	ld	s8,88(sp)
    80002246:	7361                	lui	t1,0xffff8
    80002248:	2068                	fld	fa0,192(s0)
    8000224a:	6d6d6f63          	bltu	s10,s6,80002928 <_end+0xd0>
    8000224e:	6e61                	lui	t3,0x18
    80002250:	2064                	fld	fs1,192(s0)
    80002252:	7830                	ld	a2,112(s0)
    80002254:	4245                	li	tp,17
    80002256:	2e2e                	fld	ft8,200(sp)
    80002258:	0a2e                	slli	s4,s4,0xb
    8000225a:	0000                	unimp
    8000225c:	0000                	unimp
    8000225e:	0000                	unimp
    80002260:	6554                	ld	a3,136(a0)
    80002262:	6e697473          	csrrci	s0,0x6e6,18
    80002266:	50532067          	.insn	4, 0x50532067
    8000226a:	2049                	.insn	2, 0x2049
    8000226c:	6c66                	ld	s8,88(sp)
    8000226e:	7361                	lui	t1,0xffff8
    80002270:	2068                	fld	fa0,192(s0)
    80002272:	6d6d6f63          	bltu	s10,s6,80002950 <_end+0xf8>
    80002276:	6e61                	lui	t3,0x18
    80002278:	2064                	fld	fs1,192(s0)
    8000227a:	7830                	ld	a2,112(s0)
    8000227c:	4345                	li	t1,17
    8000227e:	2e2e                	fld	ft8,200(sp)
    80002280:	0a2e                	slli	s4,s4,0xb
    80002282:	0000                	unimp
    80002284:	0000                	unimp
    80002286:	0000                	unimp
    80002288:	6554                	ld	a3,136(a0)
    8000228a:	6e697473          	csrrci	s0,0x6e6,18
    8000228e:	50532067          	.insn	4, 0x50532067
    80002292:	2049                	.insn	2, 0x2049
    80002294:	6c66                	ld	s8,88(sp)
    80002296:	7361                	lui	t1,0xffff8
    80002298:	2068                	fld	fa0,192(s0)
    8000229a:	7865                	lui	a6,0xffff9
    8000229c:	6574                	ld	a3,200(a0)
    8000229e:	646e                	ld	s0,216(sp)
    800022a0:	6465                	lui	s0,0x19
    800022a2:	7220                	ld	s0,96(a2)
    800022a4:	6e61                	lui	t3,0x18
    800022a6:	2e2e6567          	.insn	4, 0x2e2e6567
    800022aa:	0a2e                	slli	s4,s4,0xb
    800022ac:	0000                	unimp
    800022ae:	0000                	unimp
    800022b0:	6554                	ld	a3,136(a0)
    800022b2:	6e697473          	csrrci	s0,0x6e6,18
    800022b6:	68742067          	.insn	4, 0x68742067
    800022ba:	7461                	lui	s0,0xffff8
    800022bc:	7420                	ld	s0,104(s0)
    800022be:	6568                	ld	a0,200(a0)
    800022c0:	5320                	lw	s0,96(a4)
    800022c2:	4950                	lw	a2,20(a0)
    800022c4:	6920                	ld	s0,80(a0)
    800022c6:	6f6e2073          	csrs	0x6f6,t3
    800022ca:	2074                	fld	fa3,192(s0)
    800022cc:	74697277          	.insn	4, 0x74697277
    800022d0:	6261                	lui	tp,0x18
    800022d2:	656c                	ld	a1,200(a0)
    800022d4:	2e2e                	fld	ft8,200(sp)
    800022d6:	0a2e                	slli	s4,s4,0xb
	...
    800022e0:	2b302d23          	sw	s3,698(zero) # 2ba <__stack_align+0x2aa>
    800022e4:	0020                	addi	s0,sp,8
    800022e6:	0000                	unimp
    800022e8:	6c68                	ld	a0,216(s0)
    800022ea:	004c                	addi	a1,sp,4
    800022ec:	0000                	unimp
    800022ee:	0000                	unimp
    800022f0:	6665                	lui	a2,0x19
    800022f2:	47464567          	.insn	4, 0x47464567
    800022f6:	0000                	unimp
    800022f8:	3130                	fld	fa2,96(a0)
    800022fa:	3332                	fld	ft6,296(sp)
    800022fc:	3534                	fld	fa3,104(a0)
    800022fe:	3736                	fld	fa4,360(sp)
    80002300:	3938                	fld	fa4,112(a0)
    80002302:	4241                	li	tp,16
    80002304:	46454443          	.insn	4, 0x46454443
	...
    80002310:	3130                	fld	fa2,96(a0)
    80002312:	3332                	fld	ft6,296(sp)
    80002314:	3534                	fld	fa3,104(a0)
    80002316:	3736                	fld	fa4,360(sp)
    80002318:	3938                	fld	fa4,112(a0)
    8000231a:	6261                	lui	tp,0x18
    8000231c:	66656463          	bltu	a0,t1,80002984 <_end+0x12c>
    80002320:	0000                	unimp
    80002322:	0000                	unimp
    80002324:	e8c2                	sd	a6,80(sp)
    80002326:	ffff                	.insn	2, 0xffff
    80002328:	e8d8                	sd	a4,144(s1)
    8000232a:	ffff                	.insn	2, 0xffff
    8000232c:	e898                	sd	a4,16(s1)
    8000232e:	ffff                	.insn	2, 0xffff
    80002330:	e898                	sd	a4,16(s1)
    80002332:	ffff                	.insn	2, 0xffff
    80002334:	e898                	sd	a4,16(s1)
    80002336:	ffff                	.insn	2, 0xffff
    80002338:	e898                	sd	a4,16(s1)
    8000233a:	ffff                	.insn	2, 0xffff
    8000233c:	e8d8                	sd	a4,144(s1)
    8000233e:	ffff                	.insn	2, 0xffff
    80002340:	e898                	sd	a4,16(s1)
    80002342:	ffff                	.insn	2, 0xffff
    80002344:	e898                	sd	a4,16(s1)
    80002346:	ffff                	.insn	2, 0xffff
    80002348:	e898                	sd	a4,16(s1)
    8000234a:	ffff                	.insn	2, 0xffff
    8000234c:	e898                	sd	a4,16(s1)
    8000234e:	ffff                	.insn	2, 0xffff
    80002350:	ea38                	sd	a4,80(a2)
    80002352:	ffff                	.insn	2, 0xffff
    80002354:	e91a                	sd	t1,144(sp)
    80002356:	ffff                	.insn	2, 0xffff
    80002358:	e9d4                	sd	a3,144(a1)
    8000235a:	ffff                	.insn	2, 0xffff
    8000235c:	e898                	sd	a4,16(s1)
    8000235e:	ffff                	.insn	2, 0xffff
    80002360:	e898                	sd	a4,16(s1)
    80002362:	ffff                	.insn	2, 0xffff
    80002364:	ea6c                	sd	a1,208(a2)
    80002366:	ffff                	.insn	2, 0xffff
    80002368:	e898                	sd	a4,16(s1)
    8000236a:	ffff                	.insn	2, 0xffff
    8000236c:	e91a                	sd	t1,144(sp)
    8000236e:	ffff                	.insn	2, 0xffff
    80002370:	e898                	sd	a4,16(s1)
    80002372:	ffff                	.insn	2, 0xffff
    80002374:	e898                	sd	a4,16(s1)
    80002376:	ffff                	.insn	2, 0xffff
    80002378:	e9dc                	sd	a5,144(a1)
    8000237a:	ffff                	.insn	2, 0xffff
    8000237c:	0000                	unimp
	...

0000000080002380 <argv>:
    80002380:	2390                	fld	fa2,0(a5)
    80002382:	8000                	.insn	2, 0x8000
	...

0000000080002390 <name>:
    80002390:	70696863          	bltu	s2,t1,80002aa0 <_end+0x248>
    80002394:	6179                	addi	sp,sp,464
    80002396:	6472                	ld	s0,280(sp)
	...

Disassembly of section .eh_frame:

00000000800023a0 <.eh_frame>:
    800023a0:	0010                	.insn	2, 0x0010
    800023a2:	0000                	unimp
    800023a4:	0000                	unimp
    800023a6:	0000                	unimp
    800023a8:	00527a03          	.insn	4, 0x00527a03
    800023ac:	7c01                	lui	s8,0xfffe0
    800023ae:	0101                	addi	sp,sp,0
    800023b0:	00020d1b          	sext.w	s10,tp
    800023b4:	0010                	.insn	2, 0x0010
    800023b6:	0000                	unimp
    800023b8:	0018                	.insn	2, 0x0018
    800023ba:	0000                	unimp
    800023bc:	dc44                	sw	s1,60(s0)
    800023be:	ffff                	.insn	2, 0xffff
    800023c0:	0144                	addi	s1,sp,132
    800023c2:	0000                	unimp
    800023c4:	0000                	unimp
	...

Disassembly of section .htif:

0000000080002400 <tohost>:
	...

0000000080002408 <fromhost>:
	...

Disassembly of section .data:

0000000080002410 <test_data>:
    80002410:	ff003713          	sltiu	a4,zero,-16
    80002414:	55aa                	lw	a1,168(sp)
    80002416:	cefa                	sw	t5,92(sp)
    80002418:	2301f00f          	.insn	4, 0x2301f00f
    8000241c:	6745                	lui	a4,0x11
    8000241e:	ab89                	j	80002970 <_end+0x118>
    80002420:	efcd                	bnez	a5,800024da <curbrk+0x2>

Disassembly of section .data._impure_data:

0000000080002428 <_impure_data>:
	...
    80002430:	2528                	fld	fa0,72(a0)
    80002432:	8000                	.insn	2, 0x8000
    80002434:	0000                	unimp
    80002436:	0000                	unimp
    80002438:	25d8                	fld	fa4,136(a1)
    8000243a:	8000                	.insn	2, 0x8000
    8000243c:	0000                	unimp
    8000243e:	0000                	unimp
    80002440:	2688                	fld	fa0,8(a3)
    80002442:	8000                	.insn	2, 0x8000
	...

Disassembly of section .data.__sglue:

00000000800024b8 <__sglue>:
	...
    800024c0:	00000003          	lb	zero,0(zero) # 0 <__boot_hart>
    800024c4:	0000                	unimp
    800024c6:	0000                	unimp
    800024c8:	2528                	fld	fa0,72(a0)
    800024ca:	8000                	.insn	2, 0x8000
    800024cc:	0000                	unimp
	...

Disassembly of section .sdata:

00000000800024d0 <_impure_ptr>:
    800024d0:	2428                	fld	fa0,72(s0)
    800024d2:	8000                	.insn	2, 0x8000
    800024d4:	0000                	unimp
	...

00000000800024d8 <curbrk>:
    800024d8:	2858                	fld	fa4,144(s0)
    800024da:	8000                	.insn	2, 0x8000
    800024dc:	0000                	unimp
	...

00000000800024e0 <environ>:
    800024e0:	2518                	fld	fa4,8(a0)
    800024e2:	8000                	.insn	2, 0x8000
    800024e4:	0000                	unimp
	...

00000000800024e8 <__atexit_dummy>:
    800024e8:	1fde                	slli	t6,t6,0x37
    800024ea:	8000                	.insn	2, 0x8000
    800024ec:	0000                	unimp
	...

Disassembly of section .debug_info:

0000000000000000 <.debug_info>:
       0:	1201                	addi	tp,tp,-32 # 17fe0 <__stack_size+0xffe0>
       2:	0000                	unimp
       4:	0005                	c.nop	1
       6:	0801                	addi	a6,a6,0 # ffffffffffff9000 <__heap_end+0xffffffff7ffd6000>
       8:	0000                	unimp
       a:	0000                	unimp
       c:	811c                	.insn	2, 0x811c
       e:	0001                	nop
      10:	0c00                	addi	s0,sp,528
      12:	0000                	unimp
      14:	0000                	unimp
      16:	00000043          	fmadd.s	ft0,ft0,ft0,ft0,rne
      1a:	02d0                	addi	a2,sp,324
	...
      28:	0000                	unimp
      2a:	080a                	slli	a6,a6,0x2
      2c:	0000d007          	.insn	4, 0xd007
      30:	1d00                	addi	s0,sp,688
      32:	0504                	addi	s1,sp,640
      34:	6e69                	lui	t3,0x1a
      36:	0074                	addi	a3,sp,12
      38:	080a                	slli	a6,a6,0x2
      3a:	1005                	c.nop	-31
      3c:	0001                	nop
      3e:	0a00                	addi	s0,sp,272
      40:	0704                	addi	s1,sp,896
      42:	00d5                	addi	ra,ra,21 # 80000a29 <_vfiprintf_r+0x25d>
      44:	0000                	unimp
      46:	010a                	slli	sp,sp,0x2
      48:	9006                	c.add	zero,ra
      4a:	0000                	unimp
      4c:	0d00                	addi	s0,sp,656
      4e:	00000007          	.insn	4, 0x0007
      52:	2b04                	fld	fs1,16(a4)
      54:	5918                	lw	a4,48(a0)
      56:	0000                	unimp
      58:	0a00                	addi	s0,sp,272
      5a:	0801                	addi	a6,a6,0
      5c:	008e                	slli	ra,ra,0x3
      5e:	0000                	unimp
      60:	020a                	slli	tp,tp,0x2
      62:	4205                	li	tp,1
      64:	0000                	unimp
      66:	0a00                	addi	s0,sp,272
      68:	0702                	c.slli64	a4
      6a:	00f8                	addi	a4,sp,76
      6c:	0000                	unimp
      6e:	a30d                	j	590 <__stack_align+0x580>
      70:	0000                	unimp
      72:	0400                	addi	s0,sp,512
      74:	003f194f          	fnmadd.s	fs2,ft10,ft3,ft0,rtz
      78:	0000                	unimp
      7a:	180d                	addi	a6,a6,-29
      7c:	0000                	unimp
      7e:	0400                	addi	s0,sp,512
      80:	1ae8                	addi	a0,sp,380
      82:	002a                	c.slli	zero,0xa
      84:	0000                	unimp
      86:	080a                	slli	a6,a6,0x2
      88:	0b05                	addi	s6,s6,1
      8a:	0001                	nop
      8c:	0a00                	addi	s0,sp,272
      8e:	0801                	addi	a6,a6,0
      90:	00000097          	auipc	ra,0x0
      94:	8d1e                	mv	s10,t2
      96:	0000                	unimp
      98:	1300                	addi	s0,sp,416
      9a:	0094                	addi	a3,sp,64
      9c:	0000                	unimp
      9e:	991f 0000 0a00      	.insn	6, 0x0a000000991f
      a4:	0708                	addi	a0,sp,896
      a6:	000000cb          	fnmsub.s	ft1,ft0,ft0,ft0,rne
      aa:	090d                	addi	s2,s2,3
      ac:	0000                	unimp
      ae:	0500                	addi	s0,sp,640
      b0:	1318                	addi	a4,sp,416
      b2:	004d                	c.nop	19
      b4:	0000                	unimp
      b6:	a50d                	j	6d8 <__stack_align+0x6c8>
      b8:	0000                	unimp
      ba:	0500                	addi	s0,sp,640
      bc:	1430                	addi	a2,sp,552
      be:	006e                	c.slli	zero,0x1b
      c0:	0000                	unimp
      c2:	b620                	fsd	fs0,104(a2)
      c4:	0000                	unimp
      c6:	0d00                	addi	s0,sp,656
      c8:	001a                	c.slli	zero,0x6
      ca:	0000                	unimp
      cc:	5205                	li	tp,-31
      ce:	7a15                	lui	s4,0xfffe5
      d0:	0000                	unimp
      d2:	2100                	fld	fs0,0(a0)
      d4:	00aa                	slli	ra,ra,0xa
      d6:	0000                	unimp
      d8:	000000e3          	beqz	zero,8d8 <__stack_align+0x8c8>
      dc:	2a22                	fld	fs4,8(sp)
      de:	0000                	unimp
      e0:	1100                	addi	s0,sp,160
      e2:	2300                	fld	fs0,0(a4)
      e4:	006e                	c.slli	zero,0x1b
      e6:	0000                	unimp
      e8:	2501                	sext.w	a0,a0
      ea:	d310                	sw	a2,32(a4)
      ec:	0000                	unimp
      ee:	0900                	addi	s0,sp,144
      f0:	00241003          	lh	zero,2(s0) # ffffffffffff8002 <__heap_end+0xffffffff7ffd5002>
      f4:	0080                	addi	s0,sp,64
      f6:	0000                	unimp
      f8:	2400                	fld	fs0,8(s0)
      fa:	0024                	addi	s1,sp,8
      fc:	0000                	unimp
      fe:	2601                	sext.w	a2,a2
     100:	aa10                	fsd	fa2,16(a2)
     102:	0000                	unimp
     104:	1800                	addi	s0,sp,48
     106:	3e2a                	fld	ft8,168(sp)
     108:	0001                	nop
     10a:	0900                	addi	s0,sp,144
     10c:	022c                	addi	a1,sp,264
     10e:	0000                	unimp
     110:	00003f2b          	.insn	4, 0x3f2b
     114:	0200                	addi	s0,sp,256
     116:	0900                	addi	s0,sp,144
     118:	00ae                	slli	ra,ra,0xb
     11a:	0000                	unimp
     11c:	3f2c                	fld	fa1,120(a4)
     11e:	0000                	unimp
     120:	0100                	addi	s0,sp,128
     122:	0902                	c.slli64	s2
     124:	0068                	addi	a0,sp,12
     126:	0000                	unimp
     128:	3f2d                	addiw	t5,t5,-21
     12a:	0000                	unimp
     12c:	0100                	addi	s0,sp,128
     12e:	656c2503          	lw	a0,1622(s8) # fffffffffffe0656 <__heap_end+0xffffffff7ffbd656>
     132:	006e                	c.slli	zero,0x1b
     134:	2f01                	sext.w	t5,t5
     136:	3f10                	fld	fa2,56(a4)
     138:	0000                	unimp
     13a:	0400                	addi	s0,sp,512
     13c:	0010                	.insn	2, 0x0010
     13e:	2819                	addiw	a6,a6,6
     140:	0000015b          	.insn	4, 0x015b
     144:	1112                	slli	sp,sp,0x24
     146:	0000                	unimp
     148:	3100                	fld	fs0,32(a0)
     14a:	0504                	addi	s1,sp,640
     14c:	0001                	nop
     14e:	1200                	addi	s0,sp,288
     150:	0119                	addi	sp,sp,6
     152:	0000                	unimp
     154:	0b32                	slli	s6,s6,0xc
     156:	00b6                	slli	ra,ra,0xd
     158:	0000                	unimp
     15a:	0d00                	addi	s0,sp,656
     15c:	00000057          	.insn	4, 0x0057
     160:	3301                	addiw	t1,t1,-32 # ffffffffffff7fe0 <__heap_end+0xffffffff7ffd4fe0>
     162:	00013e03          	ld	t3,0(sp)
     166:	1800                	addi	s0,sp,48
     168:	0001ce37          	lui	t3,0x1c
     16c:	0900                	addi	s0,sp,144
     16e:	0078                	addi	a4,sp,12
     170:	0000                	unimp
     172:	3f38                	fld	fa4,120(a4)
     174:	0000                	unimp
     176:	0100                	addi	s0,sp,128
     178:	0900                	addi	s0,sp,144
     17a:	002d                	c.nop	11
     17c:	0000                	unimp
     17e:	3f39                	addiw	t5,t5,-18
     180:	0000                	unimp
     182:	0300                	addi	s0,sp,384
     184:	0901                	addi	s2,s2,0
     186:	000000c3          	fmadd.s	ft1,ft0,ft0,ft0,rne
     18a:	3f3a                	fld	ft10,424(sp)
     18c:	0000                	unimp
     18e:	0400                	addi	s0,sp,512
     190:	0904                	addi	s1,sp,144
     192:	0084                	addi	s1,sp,64
     194:	0000                	unimp
     196:	00003f3b          	.insn	4, 0x3f3b
     19a:	0200                	addi	s0,sp,256
     19c:	0908                	addi	a0,sp,144
     19e:	00e2                	slli	ra,ra,0x18
     1a0:	0000                	unimp
     1a2:	3f3c                	fld	fa5,120(a4)
     1a4:	0000                	unimp
     1a6:	0200                	addi	s0,sp,256
     1a8:	090a                	slli	s2,s2,0x2
     1aa:	00000227          	.insn	4, 0x0227
     1ae:	3f3d                	addiw	t5,t5,-17
     1b0:	0000                	unimp
     1b2:	0200                	addi	s0,sp,256
     1b4:	090c                	addi	a1,sp,144
     1b6:	005f 0000 3f3f      	.insn	6, 0x3f3f0000005f
     1bc:	0000                	unimp
     1be:	0800                	addi	s0,sp,16
     1c0:	0910                	addi	a2,sp,144
     1c2:	011e                	slli	sp,sp,0x7
     1c4:	0000                	unimp
     1c6:	3f40                	fld	fs0,184(a4)
     1c8:	0000                	unimp
     1ca:	0800                	addi	s0,sp,16
     1cc:	0018                	.insn	2, 0x0018
     1ce:	3519                	addiw	a0,a0,-26
     1d0:	000001eb          	.insn	4, 0x01eb
     1d4:	1112                	slli	sp,sp,0x24
     1d6:	0000                	unimp
     1d8:	4100                	lw	s0,0(a0)
     1da:	6704                	ld	s1,8(a4)
     1dc:	0001                	nop
     1de:	1200                	addi	s0,sp,288
     1e0:	0119                	addi	sp,sp,6
     1e2:	0000                	unimp
     1e4:	0b42                	slli	s6,s6,0x10
     1e6:	00b6                	slli	ra,ra,0xd
     1e8:	0000                	unimp
     1ea:	0d00                	addi	s0,sp,656
     1ec:	00000127          	.insn	4, 0x0127
     1f0:	4301                	li	t1,0
     1f2:	0001ce03          	lbu	t3,0(gp) # 80002cd0 <__global_pointer$>
     1f6:	2600                	fld	fs0,8(a2)
     1f8:	0220                	addi	s0,sp,264
     1fa:	0000                	unimp
     1fc:	ce06                	sw	ra,28(sp)
     1fe:	3105                	addiw	sp,sp,-31
     200:	0000                	unimp
     202:	0e00                	addi	s0,sp,784
     204:	0002                	c.slli64	zero
     206:	2700                	fld	fs0,8(a4)
     208:	009e                	slli	ra,ra,0x7
     20a:	0000                	unimp
     20c:	0028                	addi	a0,sp,8
     20e:	3714                	fld	fa3,40(a4)
     210:	0005                	c.nop	1
     212:	0300                	addi	s0,sp,384
     214:	00003107          	fld	ft2,0(zero) # 0 <__boot_hart>
     218:	3000                	fld	fs0,32(s0)
     21a:	0002                	c.slli64	zero
     21c:	0080                	addi	s0,sp,64
     21e:	0000                	unimp
     220:	7800                	ld	s0,48(s0)
     222:	0002                	c.slli64	zero
     224:	0000                	unimp
     226:	0000                	unimp
     228:	0100                	addi	s0,sp,128
     22a:	fa9c                	sd	a5,48(a3)
     22c:	000a                	c.slli	zero,0x2
     22e:	1000                	addi	s0,sp,32
     230:	0130                	addi	a2,sp,136
     232:	0000                	unimp
     234:	eb100903          	lb	s2,-335(zero) # fffffffffffffeb1 <__heap_end+0xffffffff7ffdceb1>
     238:	0001                	nop
     23a:	0c00                	addi	s0,sp,528
     23c:	0000                	unimp
     23e:	0300                	addi	s0,sp,384
     240:	1030                	addi	a2,sp,40
     242:	0000                	unimp
     244:	0254                	addi	a3,sp,260
     246:	8000                	.insn	2, 0x8000
     248:	0000                	unimp
     24a:	0000                	unimp
     24c:	017a                	slli	sp,sp,0x1e
     24e:	0000                	unimp
     250:	fd021403          	lh	s0,-48(tp) # ffffffffffffffd0 <__heap_end+0xffffffff7ffdcfd0>
     254:	0002                	c.slli64	zero
     256:	0100                	addi	s0,sp,128
     258:	103a                	c.slli	zero,0x2e
     25a:	0000                	unimp
     25c:	01d6                	slli	gp,gp,0x15
     25e:	0000                	unimp
     260:	00108d03          	lb	s10,1(ra) # 91 <__stack_align+0x81>
     264:	5400                	lw	s0,40(s0)
     266:	0002                	c.slli64	zero
     268:	0080                	addi	s0,sp,64
     26a:	0000                	unimp
     26c:	8a00                	.insn	2, 0x8a00
     26e:	0001                	nop
     270:	0100                	addi	s0,sp,128
     272:	028e024f          	fnmadd.d	ft4,ft8,fs0,ft0,rne
     276:	0000                	unimp
     278:	a606                	fsd	ft1,264(sp)
     27a:	0010                	.insn	2, 0x0010
     27c:	0600                	addi	s0,sp,768
     27e:	109a                	slli	ra,ra,0x26
     280:	0000                	unimp
     282:	8a04                	.insn	2, 0x8a04
     284:	0001                	nop
     286:	0800                	addi	s0,sp,16
     288:	10b2                	slli	ra,ra,0x2c
     28a:	0000                	unimp
     28c:	0000                	unimp
     28e:	00108d03          	lb	s10,1(ra)
     292:	6000                	ld	s0,0(s0)
     294:	0002                	c.slli64	zero
     296:	0080                	addi	s0,sp,64
     298:	0000                	unimp
     29a:	9a00                	.insn	2, 0x9a00
     29c:	0001                	nop
     29e:	0100                	addi	s0,sp,128
     2a0:	0250                	addi	a2,sp,260
     2a2:	02c8                	addi	a0,sp,324
     2a4:	0000                	unimp
     2a6:	a601                	j	5a6 <__stack_align+0x596>
     2a8:	0010                	.insn	2, 0x0010
     2aa:	e500                	sd	s0,8(a0)
     2ac:	0001                	nop
     2ae:	0100                	addi	s0,sp,128
     2b0:	109a                	slli	ra,ra,0x26
     2b2:	0000                	unimp
     2b4:	01f2                	slli	gp,gp,0x1c
     2b6:	0000                	unimp
     2b8:	9a04                	.insn	2, 0x9a04
     2ba:	0001                	nop
     2bc:	0500                	addi	s0,sp,640
     2be:	10b2                	slli	ra,ra,0x2c
     2c0:	0000                	unimp
     2c2:	01f2                	slli	gp,gp,0x1c
     2c4:	0000                	unimp
     2c6:	0000                	unimp
     2c8:	8d0e                	mv	s10,gp
     2ca:	0010                	.insn	2, 0x0010
     2cc:	6800                	ld	s0,16(s0)
     2ce:	0002                	c.slli64	zero
     2d0:	0080                	addi	s0,sp,64
     2d2:	0000                	unimp
     2d4:	ad00                	fsd	fs0,24(a0)
     2d6:	0001                	nop
     2d8:	5100                	lw	s0,32(a0)
     2da:	a601                	j	5da <__stack_align+0x5ca>
     2dc:	0010                	.insn	2, 0x0010
     2de:	0400                	addi	s0,sp,512
     2e0:	0002                	c.slli64	zero
     2e2:	0100                	addi	s0,sp,128
     2e4:	109a                	slli	ra,ra,0x26
     2e6:	0000                	unimp
     2e8:	0212                	slli	tp,tp,0x4
     2ea:	0000                	unimp
     2ec:	ad04                	fsd	fs1,24(a0)
     2ee:	0001                	nop
     2f0:	0500                	addi	s0,sp,640
     2f2:	10b2                	slli	ra,ra,0x2c
     2f4:	0000                	unimp
     2f6:	0212                	slli	tp,tp,0x4
     2f8:	0000                	unimp
     2fa:	0000                	unimp
     2fc:	0300                	addi	s0,sp,384
     2fe:	1030                	addi	a2,sp,40
     300:	0000                	unimp
     302:	02b8                	addi	a4,sp,328
     304:	8000                	.insn	2, 0x8000
     306:	0000                	unimp
     308:	0000                	unimp
     30a:	01c0                	addi	s0,sp,196
     30c:	0000                	unimp
     30e:	b8021a03          	lh	s4,-1152(tp) # fffffffffffffb80 <__heap_end+0xffffffff7ffdcb80>
     312:	01000003          	lb	zero,16(zero) # 10 <__stack_align>
     316:	103a                	c.slli	zero,0x2e
     318:	0000                	unimp
     31a:	0224                	addi	s1,sp,264
     31c:	0000                	unimp
     31e:	00108d03          	lb	s10,1(ra)
     322:	b800                	fsd	fs0,48(s0)
     324:	0002                	c.slli64	zero
     326:	0080                	addi	s0,sp,64
     328:	0000                	unimp
     32a:	d000                	sw	s0,32(s0)
     32c:	0001                	nop
     32e:	0100                	addi	s0,sp,128
     330:	034c024f          	fnmadd.d	ft4,fs8,fs4,ft0,rne
     334:	0000                	unimp
     336:	a606                	fsd	ft1,264(sp)
     338:	0010                	.insn	2, 0x0010
     33a:	0600                	addi	s0,sp,768
     33c:	109a                	slli	ra,ra,0x26
     33e:	0000                	unimp
     340:	d004                	sw	s1,32(s0)
     342:	0001                	nop
     344:	0800                	addi	s0,sp,16
     346:	10b2                	slli	ra,ra,0x2c
     348:	0000                	unimp
     34a:	0000                	unimp
     34c:	00108d0b          	.insn	4, 0x00108d0b
     350:	c400                	sw	s0,8(s0)
     352:	0002                	c.slli64	zero
     354:	0080                	addi	s0,sp,64
     356:	0000                	unimp
     358:	0400                	addi	s0,sp,512
     35a:	0000                	unimp
     35c:	0000                	unimp
     35e:	0000                	unimp
     360:	0100                	addi	s0,sp,128
     362:	8350                	.insn	2, 0x8350
     364:	01000003          	lb	zero,16(zero) # 10 <__stack_align>
     368:	10a6                	slli	ra,ra,0x29
     36a:	0000                	unimp
     36c:	00000233          	add	tp,zero,zero
     370:	9a01                	andi	a2,a2,-32
     372:	0010                	.insn	2, 0x0010
     374:	4000                	lw	s0,0(s0)
     376:	0002                	c.slli64	zero
     378:	0500                	addi	s0,sp,640
     37a:	10b2                	slli	ra,ra,0x2c
     37c:	0000                	unimp
     37e:	0240                	addi	s0,sp,260
     380:	0000                	unimp
     382:	0e00                	addi	s0,sp,784
     384:	108d                	addi	ra,ra,-29
     386:	0000                	unimp
     388:	02c8                	addi	a0,sp,324
     38a:	8000                	.insn	2, 0x8000
     38c:	0000                	unimp
     38e:	0000                	unimp
     390:	01e0                	addi	s0,sp,204
     392:	0000                	unimp
     394:	0151                	addi	sp,sp,20
     396:	10a6                	slli	ra,ra,0x29
     398:	0000                	unimp
     39a:	0252                	slli	tp,tp,0x14
     39c:	0000                	unimp
     39e:	9a01                	andi	a2,a2,-32
     3a0:	0010                	.insn	2, 0x0010
     3a2:	6000                	ld	s0,0(s0)
     3a4:	0002                	c.slli64	zero
     3a6:	0400                	addi	s0,sp,512
     3a8:	01e0                	addi	s0,sp,204
     3aa:	0000                	unimp
     3ac:	b205                	j	fffffffffffffccc <__heap_end+0xffffffff7ffdcccc>
     3ae:	0010                	.insn	2, 0x0010
     3b0:	6000                	ld	s0,0(s0)
     3b2:	0002                	c.slli64	zero
     3b4:	0000                	unimp
     3b6:	0000                	unimp
     3b8:	0010300b          	.insn	4, 0x0010300b
     3bc:	f800                	sd	s0,48(s0)
     3be:	0002                	c.slli64	zero
     3c0:	0080                	addi	s0,sp,64
     3c2:	0000                	unimp
     3c4:	1000                	addi	s0,sp,32
     3c6:	0000                	unimp
     3c8:	0000                	unimp
     3ca:	0000                	unimp
     3cc:	0300                	addi	s0,sp,384
     3ce:	7420                	ld	s0,104(s0)
     3d0:	0004                	.insn	2, 0x0004
     3d2:	0100                	addi	s0,sp,128
     3d4:	103a                	c.slli	zero,0x2e
     3d6:	0000                	unimp
     3d8:	0272                	slli	tp,tp,0x1c
     3da:	0000                	unimp
     3dc:	00108d03          	lb	s10,1(ra)
     3e0:	f800                	sd	s0,48(s0)
     3e2:	0002                	c.slli64	zero
     3e4:	0080                	addi	s0,sp,64
     3e6:	0000                	unimp
     3e8:	f000                	sd	s0,32(s0)
     3ea:	0001                	nop
     3ec:	0100                	addi	s0,sp,128
     3ee:	040a024f          	.insn	4, 0x040a024f
     3f2:	0000                	unimp
     3f4:	a606                	fsd	ft1,264(sp)
     3f6:	0010                	.insn	2, 0x0010
     3f8:	0600                	addi	s0,sp,768
     3fa:	109a                	slli	ra,ra,0x26
     3fc:	0000                	unimp
     3fe:	f004                	sd	s1,32(s0)
     400:	0001                	nop
     402:	0800                	addi	s0,sp,16
     404:	10b2                	slli	ra,ra,0x2c
     406:	0000                	unimp
     408:	0000                	unimp
     40a:	00108d0b          	.insn	4, 0x00108d0b
     40e:	0000                	unimp
     410:	00800003          	lb	zero,8(zero) # 8 <__boot_hart+0x8>
     414:	0000                	unimp
     416:	0400                	addi	s0,sp,512
     418:	0000                	unimp
     41a:	0000                	unimp
     41c:	0000                	unimp
     41e:	0100                	addi	s0,sp,128
     420:	4150                	lw	a2,4(a0)
     422:	0004                	.insn	2, 0x0004
     424:	0100                	addi	s0,sp,128
     426:	10a6                	slli	ra,ra,0x29
     428:	0000                	unimp
     42a:	0281                	addi	t0,t0,0
     42c:	0000                	unimp
     42e:	9a01                	andi	a2,a2,-32
     430:	0010                	.insn	2, 0x0010
     432:	8e00                	.insn	2, 0x8e00
     434:	0002                	c.slli64	zero
     436:	0500                	addi	s0,sp,640
     438:	10b2                	slli	ra,ra,0x2c
     43a:	0000                	unimp
     43c:	028e                	slli	t0,t0,0x3
     43e:	0000                	unimp
     440:	0f00                	addi	s0,sp,912
     442:	108d                	addi	ra,ra,-29
     444:	0000                	unimp
     446:	0304                	addi	s1,sp,384
     448:	8000                	.insn	2, 0x8000
     44a:	0000                	unimp
     44c:	0000                	unimp
     44e:	0004                	.insn	2, 0x0004
     450:	0000                	unimp
     452:	0000                	unimp
     454:	0000                	unimp
     456:	0151                	addi	sp,sp,20
     458:	10a6                	slli	ra,ra,0x29
     45a:	0000                	unimp
     45c:	02a0                	addi	s0,sp,328
     45e:	0000                	unimp
     460:	9a01                	andi	a2,a2,-32
     462:	0010                	.insn	2, 0x0010
     464:	ae00                	fsd	fs0,24(a2)
     466:	0002                	c.slli64	zero
     468:	0500                	addi	s0,sp,640
     46a:	10b2                	slli	ra,ra,0x2c
     46c:	0000                	unimp
     46e:	02ae                	slli	t0,t0,0xb
     470:	0000                	unimp
     472:	0000                	unimp
     474:	00103003          	ld	zero,1(zero) # 1 <__boot_hart+0x1>
     478:	3000                	fld	fs0,32(s0)
     47a:	00800003          	lb	zero,8(zero) # 8 <__boot_hart+0x8>
     47e:	0000                	unimp
     480:	0000                	unimp
     482:	0002                	c.slli64	zero
     484:	0300                	addi	s0,sp,384
     486:	0226                	slli	tp,tp,0x9
     488:	0000052f          	.insn	4, 0x052f
     48c:	3a01                	addiw	s4,s4,-32 # fffffffffffe4fe0 <__heap_end+0xffffffff7ffc1fe0>
     48e:	0010                	.insn	2, 0x0010
     490:	c000                	sw	s0,0(s0)
     492:	0002                	c.slli64	zero
     494:	0300                	addi	s0,sp,384
     496:	108d                	addi	ra,ra,-29
     498:	0000                	unimp
     49a:	0330                	addi	a2,sp,392
     49c:	8000                	.insn	2, 0x8000
     49e:	0000                	unimp
     4a0:	0000                	unimp
     4a2:	0210                	addi	a2,sp,256
     4a4:	0000                	unimp
     4a6:	4f01                	li	t5,0
     4a8:	c302                	sw	zero,132(sp)
     4aa:	0004                	.insn	2, 0x0004
     4ac:	0600                	addi	s0,sp,768
     4ae:	10a6                	slli	ra,ra,0x29
     4b0:	0000                	unimp
     4b2:	9a06                	add	s4,s4,ra
     4b4:	0010                	.insn	2, 0x0010
     4b6:	0400                	addi	s0,sp,512
     4b8:	0210                	addi	a2,sp,256
     4ba:	0000                	unimp
     4bc:	b208                	fsd	fa0,32(a2)
     4be:	0010                	.insn	2, 0x0010
     4c0:	0000                	unimp
     4c2:	0b00                	addi	s0,sp,400
     4c4:	108d                	addi	ra,ra,-29
     4c6:	0000                	unimp
     4c8:	0338                	addi	a4,sp,392
     4ca:	8000                	.insn	2, 0x8000
     4cc:	0000                	unimp
     4ce:	0000                	unimp
     4d0:	0004                	.insn	2, 0x0004
     4d2:	0000                	unimp
     4d4:	0000                	unimp
     4d6:	0000                	unimp
     4d8:	5001                	c.li	zero,-32
     4da:	04fa                	slli	s1,s1,0x1e
     4dc:	0000                	unimp
     4de:	a601                	j	7de <__stack_align+0x7ce>
     4e0:	0010                	.insn	2, 0x0010
     4e2:	cf00                	sw	s0,24(a4)
     4e4:	0002                	c.slli64	zero
     4e6:	0100                	addi	s0,sp,128
     4e8:	109a                	slli	ra,ra,0x26
     4ea:	0000                	unimp
     4ec:	02dc                	addi	a5,sp,324
     4ee:	0000                	unimp
     4f0:	b205                	j	fffffffffffffe10 <__heap_end+0xffffffff7ffdce10>
     4f2:	0010                	.insn	2, 0x0010
     4f4:	dc00                	sw	s0,56(s0)
     4f6:	0002                	c.slli64	zero
     4f8:	0000                	unimp
     4fa:	8d0e                	mv	s10,gp
     4fc:	0010                	.insn	2, 0x0010
     4fe:	3c00                	fld	fs0,56(s0)
     500:	00800003          	lb	zero,8(zero) # 8 <__boot_hart+0x8>
     504:	0000                	unimp
     506:	2000                	fld	fs0,0(s0)
     508:	0002                	c.slli64	zero
     50a:	5100                	lw	s0,32(a0)
     50c:	a601                	j	80c <__stack_align+0x7fc>
     50e:	0010                	.insn	2, 0x0010
     510:	ee00                	sd	s0,24(a2)
     512:	0002                	c.slli64	zero
     514:	0100                	addi	s0,sp,128
     516:	109a                	slli	ra,ra,0x26
     518:	0000                	unimp
     51a:	02fc                	addi	a5,sp,332
     51c:	0000                	unimp
     51e:	2004                	fld	fs1,0(s0)
     520:	0002                	c.slli64	zero
     522:	0500                	addi	s0,sp,640
     524:	10b2                	slli	ra,ra,0x2c
     526:	0000                	unimp
     528:	02fc                	addi	a5,sp,332
     52a:	0000                	unimp
     52c:	0000                	unimp
     52e:	0300                	addi	s0,sp,384
     530:	1030                	addi	a2,sp,40
     532:	0000                	unimp
     534:	036c                	addi	a1,sp,396
     536:	8000                	.insn	2, 0x8000
     538:	0000                	unimp
     53a:	0000                	unimp
     53c:	0230                	addi	a2,sp,264
     53e:	0000                	unimp
     540:	ea022c03          	lw	s8,-352(tp) # fffffffffffffea0 <__heap_end+0xffffffff7ffdcea0>
     544:	0005                	c.nop	1
     546:	0100                	addi	s0,sp,128
     548:	103a                	c.slli	zero,0x2e
     54a:	0000                	unimp
     54c:	030e                	slli	t1,t1,0x3
     54e:	0000                	unimp
     550:	00108d03          	lb	s10,1(ra)
     554:	6c00                	ld	s0,24(s0)
     556:	00800003          	lb	zero,8(zero) # 8 <__boot_hart+0x8>
     55a:	0000                	unimp
     55c:	4000                	lw	s0,0(s0)
     55e:	0002                	c.slli64	zero
     560:	0100                	addi	s0,sp,128
     562:	057e024f          	.insn	4, 0x057e024f
     566:	0000                	unimp
     568:	a606                	fsd	ft1,264(sp)
     56a:	0010                	.insn	2, 0x0010
     56c:	0600                	addi	s0,sp,768
     56e:	109a                	slli	ra,ra,0x26
     570:	0000                	unimp
     572:	4004                	lw	s1,0(s0)
     574:	0002                	c.slli64	zero
     576:	0800                	addi	s0,sp,16
     578:	10b2                	slli	ra,ra,0x2c
     57a:	0000                	unimp
     57c:	0000                	unimp
     57e:	00108d0b          	.insn	4, 0x00108d0b
     582:	7400                	ld	s0,40(s0)
     584:	00800003          	lb	zero,8(zero) # 8 <__boot_hart+0x8>
     588:	0000                	unimp
     58a:	0400                	addi	s0,sp,512
     58c:	0000                	unimp
     58e:	0000                	unimp
     590:	0000                	unimp
     592:	0100                	addi	s0,sp,128
     594:	b550                	fsd	fa2,168(a0)
     596:	0005                	c.nop	1
     598:	0100                	addi	s0,sp,128
     59a:	10a6                	slli	ra,ra,0x29
     59c:	0000                	unimp
     59e:	031d                	addi	t1,t1,7
     5a0:	0000                	unimp
     5a2:	9a01                	andi	a2,a2,-32
     5a4:	0010                	.insn	2, 0x0010
     5a6:	2a00                	fld	fs0,16(a2)
     5a8:	05000003          	lb	zero,80(zero) # 50 <__stack_align+0x40>
     5ac:	10b2                	slli	ra,ra,0x2c
     5ae:	0000                	unimp
     5b0:	032a                	slli	t1,t1,0xa
     5b2:	0000                	unimp
     5b4:	0e00                	addi	s0,sp,784
     5b6:	108d                	addi	ra,ra,-29
     5b8:	0000                	unimp
     5ba:	0378                	addi	a4,sp,396
     5bc:	8000                	.insn	2, 0x8000
     5be:	0000                	unimp
     5c0:	0000                	unimp
     5c2:	0250                	addi	a2,sp,260
     5c4:	0000                	unimp
     5c6:	0151                	addi	sp,sp,20
     5c8:	10a6                	slli	ra,ra,0x29
     5ca:	0000                	unimp
     5cc:	033c                	addi	a5,sp,392
     5ce:	0000                	unimp
     5d0:	9a01                	andi	a2,a2,-32
     5d2:	0010                	.insn	2, 0x0010
     5d4:	4a00                	lw	s0,16(a2)
     5d6:	04000003          	lb	zero,64(zero) # 40 <__stack_align+0x30>
     5da:	0250                	addi	a2,sp,260
     5dc:	0000                	unimp
     5de:	b205                	j	fffffffffffffefe <__heap_end+0xffffffff7ffdcefe>
     5e0:	0010                	.insn	2, 0x0010
     5e2:	4a00                	lw	s0,16(a2)
     5e4:	00000003          	lb	zero,0(zero) # 0 <__boot_hart>
     5e8:	0000                	unimp
     5ea:	00103003          	ld	zero,1(zero) # 1 <__boot_hart+0x1>
     5ee:	a800                	fsd	fs0,16(s0)
     5f0:	00800003          	lb	zero,8(zero) # 8 <__boot_hart+0x8>
     5f4:	0000                	unimp
     5f6:	6000                	ld	s0,0(s0)
     5f8:	0002                	c.slli64	zero
     5fa:	0300                	addi	s0,sp,384
     5fc:	0232                	slli	tp,tp,0xc
     5fe:	06a5                	addi	a3,a3,9
     600:	0000                	unimp
     602:	3a01                	addiw	s4,s4,-32
     604:	0010                	.insn	2, 0x0010
     606:	5c00                	lw	s0,56(s0)
     608:	03000003          	lb	zero,48(zero) # 30 <__stack_align+0x20>
     60c:	108d                	addi	ra,ra,-29
     60e:	0000                	unimp
     610:	03a8                	addi	a0,sp,456
     612:	8000                	.insn	2, 0x8000
     614:	0000                	unimp
     616:	0000                	unimp
     618:	0270                	addi	a2,sp,268
     61a:	0000                	unimp
     61c:	4f01                	li	t5,0
     61e:	3902                	fld	fs2,32(sp)
     620:	0006                	c.slli	zero,0x1
     622:	0600                	addi	s0,sp,768
     624:	10a6                	slli	ra,ra,0x29
     626:	0000                	unimp
     628:	9a06                	add	s4,s4,ra
     62a:	0010                	.insn	2, 0x0010
     62c:	0400                	addi	s0,sp,512
     62e:	0270                	addi	a2,sp,268
     630:	0000                	unimp
     632:	b208                	fsd	fa0,32(a2)
     634:	0010                	.insn	2, 0x0010
     636:	0000                	unimp
     638:	0b00                	addi	s0,sp,400
     63a:	108d                	addi	ra,ra,-29
     63c:	0000                	unimp
     63e:	03b0                	addi	a2,sp,456
     640:	8000                	.insn	2, 0x8000
     642:	0000                	unimp
     644:	0000                	unimp
     646:	0004                	.insn	2, 0x0004
     648:	0000                	unimp
     64a:	0000                	unimp
     64c:	0000                	unimp
     64e:	5001                	c.li	zero,-32
     650:	0670                	addi	a2,sp,780
     652:	0000                	unimp
     654:	a601                	j	954 <__stack_align+0x944>
     656:	0010                	.insn	2, 0x0010
     658:	6b00                	ld	s0,16(a4)
     65a:	01000003          	lb	zero,16(zero) # 10 <__stack_align>
     65e:	109a                	slli	ra,ra,0x26
     660:	0000                	unimp
     662:	0378                	addi	a4,sp,396
     664:	0000                	unimp
     666:	b205                	j	ffffffffffffff86 <__heap_end+0xffffffff7ffdcf86>
     668:	0010                	.insn	2, 0x0010
     66a:	7800                	ld	s0,48(s0)
     66c:	00000003          	lb	zero,0(zero) # 0 <__boot_hart>
     670:	8d0e                	mv	s10,gp
     672:	0010                	.insn	2, 0x0010
     674:	b400                	fsd	fs0,40(s0)
     676:	00800003          	lb	zero,8(zero) # 8 <__boot_hart+0x8>
     67a:	0000                	unimp
     67c:	8000                	.insn	2, 0x8000
     67e:	0002                	c.slli64	zero
     680:	5100                	lw	s0,32(a0)
     682:	a601                	j	982 <__stack_align+0x972>
     684:	0010                	.insn	2, 0x0010
     686:	8a00                	.insn	2, 0x8a00
     688:	01000003          	lb	zero,16(zero) # 10 <__stack_align>
     68c:	109a                	slli	ra,ra,0x26
     68e:	0000                	unimp
     690:	0398                	addi	a4,sp,448
     692:	0000                	unimp
     694:	8004                	.insn	2, 0x8004
     696:	0002                	c.slli64	zero
     698:	0500                	addi	s0,sp,640
     69a:	10b2                	slli	ra,ra,0x2c
     69c:	0000                	unimp
     69e:	0398                	addi	a4,sp,448
     6a0:	0000                	unimp
     6a2:	0000                	unimp
     6a4:	0300                	addi	s0,sp,384
     6a6:	1030                	addi	a2,sp,40
     6a8:	0000                	unimp
     6aa:	03e4                	addi	s1,sp,460
     6ac:	8000                	.insn	2, 0x8000
     6ae:	0000                	unimp
     6b0:	0000                	unimp
     6b2:	0290                	addi	a2,sp,320
     6b4:	0000                	unimp
     6b6:	60023803          	ld	a6,1536(tp) # 600 <__stack_align+0x5f0>
     6ba:	01000007          	.insn	4, 0x01000007
     6be:	103a                	c.slli	zero,0x2e
     6c0:	0000                	unimp
     6c2:	03aa                	slli	t2,t2,0xa
     6c4:	0000                	unimp
     6c6:	00108d03          	lb	s10,1(ra)
     6ca:	e400                	sd	s0,8(s0)
     6cc:	00800003          	lb	zero,8(zero) # 8 <__boot_hart+0x8>
     6d0:	0000                	unimp
     6d2:	a000                	fsd	fs0,0(s0)
     6d4:	0002                	c.slli64	zero
     6d6:	0100                	addi	s0,sp,128
     6d8:	06f4024f          	.insn	4, 0x06f4024f
     6dc:	0000                	unimp
     6de:	a606                	fsd	ft1,264(sp)
     6e0:	0010                	.insn	2, 0x0010
     6e2:	0600                	addi	s0,sp,768
     6e4:	109a                	slli	ra,ra,0x26
     6e6:	0000                	unimp
     6e8:	a004                	fsd	fs1,0(s0)
     6ea:	0002                	c.slli64	zero
     6ec:	0800                	addi	s0,sp,16
     6ee:	10b2                	slli	ra,ra,0x2c
     6f0:	0000                	unimp
     6f2:	0000                	unimp
     6f4:	00108d0b          	.insn	4, 0x00108d0b
     6f8:	ec00                	sd	s0,24(s0)
     6fa:	00800003          	lb	zero,8(zero) # 8 <__boot_hart+0x8>
     6fe:	0000                	unimp
     700:	0400                	addi	s0,sp,512
     702:	0000                	unimp
     704:	0000                	unimp
     706:	0000                	unimp
     708:	0100                	addi	s0,sp,128
     70a:	2b50                	fld	fa2,144(a4)
     70c:	01000007          	.insn	4, 0x01000007
     710:	10a6                	slli	ra,ra,0x29
     712:	0000                	unimp
     714:	03b9                	addi	t2,t2,14
     716:	0000                	unimp
     718:	9a01                	andi	a2,a2,-32
     71a:	0010                	.insn	2, 0x0010
     71c:	c600                	sw	s0,8(a2)
     71e:	05000003          	lb	zero,80(zero) # 50 <__stack_align+0x40>
     722:	10b2                	slli	ra,ra,0x2c
     724:	0000                	unimp
     726:	03c6                	slli	t2,t2,0x11
     728:	0000                	unimp
     72a:	0e00                	addi	s0,sp,784
     72c:	108d                	addi	ra,ra,-29
     72e:	0000                	unimp
     730:	03f0                	addi	a2,sp,460
     732:	8000                	.insn	2, 0x8000
     734:	0000                	unimp
     736:	0000                	unimp
     738:	02b0                	addi	a2,sp,328
     73a:	0000                	unimp
     73c:	0151                	addi	sp,sp,20
     73e:	10a6                	slli	ra,ra,0x29
     740:	0000                	unimp
     742:	03d8                	addi	a4,sp,452
     744:	0000                	unimp
     746:	9a01                	andi	a2,a2,-32
     748:	0010                	.insn	2, 0x0010
     74a:	e600                	sd	s0,8(a2)
     74c:	04000003          	lb	zero,64(zero) # 40 <__stack_align+0x30>
     750:	02b0                	addi	a2,sp,328
     752:	0000                	unimp
     754:	b205                	j	74 <__stack_align+0x64>
     756:	0010                	.insn	2, 0x0010
     758:	e600                	sd	s0,8(a2)
     75a:	00000003          	lb	zero,0(zero) # 0 <__boot_hart>
     75e:	0000                	unimp
     760:	0010300b          	.insn	4, 0x0010300b
     764:	1c00                	addi	s0,sp,560
     766:	0004                	.insn	2, 0x0004
     768:	0080                	addi	s0,sp,64
     76a:	0000                	unimp
     76c:	1000                	addi	s0,sp,32
     76e:	0000                	unimp
     770:	0000                	unimp
     772:	0000                	unimp
     774:	0300                	addi	s0,sp,384
     776:	1c3e                	slli	s8,s8,0x2f
     778:	0008                	.insn	2, 0x0008
     77a:	0100                	addi	s0,sp,128
     77c:	103a                	c.slli	zero,0x2e
     77e:	0000                	unimp
     780:	03f8                	addi	a4,sp,460
     782:	0000                	unimp
     784:	00108d03          	lb	s10,1(ra)
     788:	1c00                	addi	s0,sp,560
     78a:	0004                	.insn	2, 0x0004
     78c:	0080                	addi	s0,sp,64
     78e:	0000                	unimp
     790:	c000                	sw	s0,0(s0)
     792:	0002                	c.slli64	zero
     794:	0100                	addi	s0,sp,128
     796:	07b2024f          	.insn	4, 0x07b2024f
     79a:	0000                	unimp
     79c:	a606                	fsd	ft1,264(sp)
     79e:	0010                	.insn	2, 0x0010
     7a0:	0600                	addi	s0,sp,768
     7a2:	109a                	slli	ra,ra,0x26
     7a4:	0000                	unimp
     7a6:	c004                	sw	s1,0(s0)
     7a8:	0002                	c.slli64	zero
     7aa:	0800                	addi	s0,sp,16
     7ac:	10b2                	slli	ra,ra,0x2c
     7ae:	0000                	unimp
     7b0:	0000                	unimp
     7b2:	00108d0b          	.insn	4, 0x00108d0b
     7b6:	2400                	fld	fs0,8(s0)
     7b8:	0004                	.insn	2, 0x0004
     7ba:	0080                	addi	s0,sp,64
     7bc:	0000                	unimp
     7be:	0400                	addi	s0,sp,512
     7c0:	0000                	unimp
     7c2:	0000                	unimp
     7c4:	0000                	unimp
     7c6:	0100                	addi	s0,sp,128
     7c8:	e950                	sd	a2,144(a0)
     7ca:	01000007          	.insn	4, 0x01000007
     7ce:	10a6                	slli	ra,ra,0x29
     7d0:	0000                	unimp
     7d2:	00000407          	.insn	4, 0x0407
     7d6:	9a01                	andi	a2,a2,-32
     7d8:	0010                	.insn	2, 0x0010
     7da:	1400                	addi	s0,sp,544
     7dc:	0004                	.insn	2, 0x0004
     7de:	0500                	addi	s0,sp,640
     7e0:	10b2                	slli	ra,ra,0x2c
     7e2:	0000                	unimp
     7e4:	0414                	addi	a3,sp,512
     7e6:	0000                	unimp
     7e8:	0f00                	addi	s0,sp,912
     7ea:	108d                	addi	ra,ra,-29
     7ec:	0000                	unimp
     7ee:	0428                	addi	a0,sp,520
     7f0:	8000                	.insn	2, 0x8000
     7f2:	0000                	unimp
     7f4:	0000                	unimp
     7f6:	0004                	.insn	2, 0x0004
     7f8:	0000                	unimp
     7fa:	0000                	unimp
     7fc:	0000                	unimp
     7fe:	0151                	addi	sp,sp,20
     800:	10a6                	slli	ra,ra,0x29
     802:	0000                	unimp
     804:	0426                	slli	s0,s0,0x9
     806:	0000                	unimp
     808:	9a01                	andi	a2,a2,-32
     80a:	0010                	.insn	2, 0x0010
     80c:	3400                	fld	fs0,40(s0)
     80e:	0004                	.insn	2, 0x0004
     810:	0500                	addi	s0,sp,640
     812:	10b2                	slli	ra,ra,0x2c
     814:	0000                	unimp
     816:	0434                	addi	a3,sp,520
     818:	0000                	unimp
     81a:	0000                	unimp
     81c:	00025007          	.insn	4, 0x00025007
     820:	0080                	addi	s0,sp,64
     822:	0000                	unimp
     824:	f700                	sd	s0,40(a4)
     826:	0001                	nop
     828:	3b00                	fld	fs0,48(a4)
     82a:	0008                	.insn	2, 0x0008
     82c:	0200                	addi	s0,sp,256
     82e:	5a01                	li	s4,-32
     830:	0309                	addi	t1,t1,2
     832:	2148                	fld	fa0,128(a0)
     834:	8000                	.insn	2, 0x8000
     836:	0000                	unimp
     838:	0000                	unimp
     83a:	0700                	addi	s0,sp,896
     83c:	0284                	addi	s1,sp,320
     83e:	8000                	.insn	2, 0x8000
     840:	0000                	unimp
     842:	0000                	unimp
     844:	0bcc                	addi	a1,sp,468
     846:	0000                	unimp
     848:	085e                	slli	a6,a6,0x17
     84a:	0000                	unimp
     84c:	0102                	c.slli64	sp
     84e:	015a                	slli	sp,sp,0x16
     850:	0230                	addi	a2,sp,264
     852:	5b01                	li	s6,-32
     854:	01000a03          	lb	s4,16(zero) # 10 <__stack_align>
     858:	0102                	c.slli64	sp
     85a:	015c                	addi	a5,sp,132
     85c:	0030                	addi	a2,sp,8
     85e:	0002b007          	fld	ft0,0(t0)
     862:	0080                	addi	s0,sp,64
     864:	0000                	unimp
     866:	f700                	sd	s0,40(a4)
     868:	0001                	nop
     86a:	7d00                	ld	s0,56(a0)
     86c:	0008                	.insn	2, 0x0008
     86e:	0200                	addi	s0,sp,256
     870:	5a01                	li	s4,-32
     872:	0309                	addi	t1,t1,2
     874:	2170                	fld	fa2,192(a0)
     876:	8000                	.insn	2, 0x8000
     878:	0000                	unimp
     87a:	0000                	unimp
     87c:	0700                	addi	s0,sp,896
     87e:	02e0                	addi	s0,sp,332
     880:	8000                	.insn	2, 0x8000
     882:	0000                	unimp
     884:	0000                	unimp
     886:	0bcc                	addi	a1,sp,468
     888:	0000                	unimp
     88a:	08a0                	addi	s0,sp,88
     88c:	0000                	unimp
     88e:	0102                	c.slli64	sp
     890:	015a                	slli	sp,sp,0x16
     892:	0230                	addi	a2,sp,264
     894:	5b01                	li	s6,-32
     896:	01000a03          	lb	s4,16(zero) # 10 <__stack_align>
     89a:	0102                	c.slli64	sp
     89c:	015c                	addi	a5,sp,132
     89e:	0030                	addi	a2,sp,8
     8a0:	0002f007          	.insn	4, 0x0002f007
     8a4:	0080                	addi	s0,sp,64
     8a6:	0000                	unimp
     8a8:	f700                	sd	s0,40(a4)
     8aa:	0001                	nop
     8ac:	bf00                	fsd	fs0,56(a4)
     8ae:	0008                	.insn	2, 0x0008
     8b0:	0200                	addi	s0,sp,256
     8b2:	5a01                	li	s4,-32
     8b4:	0309                	addi	t1,t1,2
     8b6:	2198                	fld	fa4,0(a1)
     8b8:	8000                	.insn	2, 0x8000
     8ba:	0000                	unimp
     8bc:	0000                	unimp
     8be:	0700                	addi	s0,sp,896
     8c0:	0318                	addi	a4,sp,384
     8c2:	8000                	.insn	2, 0x8000
     8c4:	0000                	unimp
     8c6:	0000                	unimp
     8c8:	0bcc                	addi	a1,sp,468
     8ca:	0000                	unimp
     8cc:	08e4                	addi	s1,sp,92
     8ce:	0000                	unimp
     8d0:	0102                	c.slli64	sp
     8d2:	035a                	slli	t1,t1,0x16
     8d4:	000a                	c.slli	zero,0x2
     8d6:	0210                	addi	a2,sp,256
     8d8:	5b01                	li	s6,-32
     8da:	01000a03          	lb	s4,16(zero) # 10 <__stack_align>
     8de:	0102                	c.slli64	sp
     8e0:	015c                	addi	a5,sp,132
     8e2:	0030                	addi	a2,sp,8
     8e4:	00032807          	flw	fa6,0(t1)
     8e8:	0080                	addi	s0,sp,64
     8ea:	0000                	unimp
     8ec:	f700                	sd	s0,40(a4)
     8ee:	0001                	nop
     8f0:	0300                	addi	s0,sp,384
     8f2:	0009                	c.nop	2
     8f4:	0200                	addi	s0,sp,256
     8f6:	5a01                	li	s4,-32
     8f8:	0309                	addi	t1,t1,2
     8fa:	21c0                	fld	fs0,128(a1)
     8fc:	8000                	.insn	2, 0x8000
     8fe:	0000                	unimp
     900:	0000                	unimp
     902:	0700                	addi	s0,sp,896
     904:	0354                	addi	a3,sp,388
     906:	8000                	.insn	2, 0x8000
     908:	0000                	unimp
     90a:	0000                	unimp
     90c:	0bcc                	addi	a1,sp,468
     90e:	0000                	unimp
     910:	0928                	addi	a0,sp,152
     912:	0000                	unimp
     914:	0102                	c.slli64	sp
     916:	035a                	slli	t1,t1,0x16
     918:	400a                	.insn	2, 0x400a
     91a:	5b010223          	sb	a6,1444(sp)
     91e:	01000a03          	lb	s4,16(zero) # 10 <__stack_align>
     922:	0102                	c.slli64	sp
     924:	015c                	addi	a5,sp,132
     926:	0030                	addi	a2,sp,8
     928:	00036407          	.insn	4, 0x00036407
     92c:	0080                	addi	s0,sp,64
     92e:	0000                	unimp
     930:	f700                	sd	s0,40(a4)
     932:	0001                	nop
     934:	4700                	lw	s0,8(a4)
     936:	0009                	c.nop	2
     938:	0200                	addi	s0,sp,256
     93a:	5a01                	li	s4,-32
     93c:	0309                	addi	t1,t1,2
     93e:	21e8                	fld	fa0,192(a1)
     940:	8000                	.insn	2, 0x8000
     942:	0000                	unimp
     944:	0000                	unimp
     946:	0700                	addi	s0,sp,896
     948:	0390                	addi	a2,sp,448
     94a:	8000                	.insn	2, 0x8000
     94c:	0000                	unimp
     94e:	0000                	unimp
     950:	0bcc                	addi	a1,sp,468
     952:	0000                	unimp
     954:	096c                	addi	a1,sp,156
     956:	0000                	unimp
     958:	0102                	c.slli64	sp
     95a:	035a                	slli	t1,t1,0x16
     95c:	0c0a                	slli	s8,s8,0x2
     95e:	0241                	addi	tp,tp,16 # 10 <__stack_align>
     960:	5b01                	li	s6,-32
     962:	01000a03          	lb	s4,16(zero) # 10 <__stack_align>
     966:	0102                	c.slli64	sp
     968:	015c                	addi	a5,sp,132
     96a:	0030                	addi	a2,sp,8
     96c:	0003a007          	flw	ft0,0(t2)
     970:	0080                	addi	s0,sp,64
     972:	0000                	unimp
     974:	f700                	sd	s0,40(a4)
     976:	0001                	nop
     978:	8b00                	.insn	2, 0x8b00
     97a:	0009                	c.nop	2
     97c:	0200                	addi	s0,sp,256
     97e:	5a01                	li	s4,-32
     980:	0309                	addi	t1,t1,2
     982:	2210                	fld	fa2,0(a2)
     984:	8000                	.insn	2, 0x8000
     986:	0000                	unimp
     988:	0000                	unimp
     98a:	0700                	addi	s0,sp,896
     98c:	03cc                	addi	a1,sp,452
     98e:	8000                	.insn	2, 0x8000
     990:	0000                	unimp
     992:	0000                	unimp
     994:	0bcc                	addi	a1,sp,468
     996:	0000                	unimp
     998:	09b0                	addi	a2,sp,216
     99a:	0000                	unimp
     99c:	0102                	c.slli64	sp
     99e:	035a                	slli	t1,t1,0x16
     9a0:	f80a                	sd	sp,48(sp)
     9a2:	025f 5b01 0a03      	.insn	6, 0x0a035b01025f
     9a8:	0100                	addi	s0,sp,128
     9aa:	0102                	c.slli64	sp
     9ac:	015c                	addi	a5,sp,132
     9ae:	0030                	addi	a2,sp,8
     9b0:	0003dc07          	.insn	4, 0x0003dc07
     9b4:	0080                	addi	s0,sp,64
     9b6:	0000                	unimp
     9b8:	f700                	sd	s0,40(a4)
     9ba:	0001                	nop
     9bc:	cf00                	sw	s0,24(a4)
     9be:	0009                	c.nop	2
     9c0:	0200                	addi	s0,sp,256
     9c2:	5a01                	li	s4,-32
     9c4:	0309                	addi	t1,t1,2
     9c6:	2238                	fld	fa4,64(a2)
     9c8:	8000                	.insn	2, 0x8000
     9ca:	0000                	unimp
     9cc:	0000                	unimp
     9ce:	0700                	addi	s0,sp,896
     9d0:	0408                	addi	a0,sp,512
     9d2:	8000                	.insn	2, 0x8000
     9d4:	0000                	unimp
     9d6:	0000                	unimp
     9d8:	0bcc                	addi	a1,sp,468
     9da:	0000                	unimp
     9dc:	09f4                	addi	a3,sp,220
     9de:	0000                	unimp
     9e0:	0102                	c.slli64	sp
     9e2:	035a                	slli	t1,t1,0x16
     9e4:	040a                	slli	s0,s0,0x2
     9e6:	027c                	addi	a5,sp,268
     9e8:	5b01                	li	s6,-32
     9ea:	01000a03          	lb	s4,16(zero) # 10 <__stack_align>
     9ee:	0102                	c.slli64	sp
     9f0:	015c                	addi	a5,sp,132
     9f2:	0030                	addi	a2,sp,8
     9f4:	00041807          	.insn	4, 0x00041807
     9f8:	0080                	addi	s0,sp,64
     9fa:	0000                	unimp
     9fc:	f700                	sd	s0,40(a4)
     9fe:	0001                	nop
     a00:	1300                	addi	s0,sp,416
     a02:	000a                	c.slli	zero,0x2
     a04:	0200                	addi	s0,sp,256
     a06:	5a01                	li	s4,-32
     a08:	0309                	addi	t1,t1,2
     a0a:	2260                	fld	fs0,192(a2)
     a0c:	8000                	.insn	2, 0x8000
     a0e:	0000                	unimp
     a10:	0000                	unimp
     a12:	0700                	addi	s0,sp,896
     a14:	043c                	addi	a5,sp,520
     a16:	8000                	.insn	2, 0x8000
     a18:	0000                	unimp
     a1a:	0000                	unimp
     a1c:	0bcc                	addi	a1,sp,468
     a1e:	0000                	unimp
     a20:	0a38                	addi	a4,sp,280
     a22:	0000                	unimp
     a24:	0102                	c.slli64	sp
     a26:	035a                	slli	t1,t1,0x16
     a28:	000a                	c.slli	zero,0x2
     a2a:	0290                	addi	a2,sp,320
     a2c:	5b01                	li	s6,-32
     a2e:	01000a03          	lb	s4,16(zero) # 10 <__stack_align>
     a32:	0102                	c.slli64	sp
     a34:	015c                	addi	a5,sp,132
     a36:	0030                	addi	a2,sp,8
     a38:	00044c07          	.insn	4, 0x00044c07
     a3c:	0080                	addi	s0,sp,64
     a3e:	0000                	unimp
     a40:	f700                	sd	s0,40(a4)
     a42:	0001                	nop
     a44:	5700                	lw	s0,40(a4)
     a46:	000a                	c.slli	zero,0x2
     a48:	0200                	addi	s0,sp,256
     a4a:	5a01                	li	s4,-32
     a4c:	0309                	addi	t1,t1,2
     a4e:	2288                	fld	fa0,0(a3)
     a50:	8000                	.insn	2, 0x8000
     a52:	0000                	unimp
     a54:	0000                	unimp
     a56:	0700                	addi	s0,sp,896
     a58:	045c                	addi	a5,sp,516
     a5a:	8000                	.insn	2, 0x8000
     a5c:	0000                	unimp
     a5e:	0000                	unimp
     a60:	0bcc                	addi	a1,sp,468
     a62:	0000                	unimp
     a64:	0a7d                	addi	s4,s4,31
     a66:	0000                	unimp
     a68:	0102                	c.slli64	sp
     a6a:	035a                	slli	t1,t1,0x16
     a6c:	4040                	lw	s0,4(s0)
     a6e:	0224                	addi	s1,sp,264
     a70:	5b01                	li	s6,-32
     a72:	01000a03          	lb	s4,16(zero) # 10 <__stack_align>
     a76:	0102                	c.slli64	sp
     a78:	025c                	addi	a5,sp,260
     a7a:	0082                	c.slli64	ra
     a7c:	0700                	addi	s0,sp,896
     a7e:	046c                	addi	a1,sp,524
     a80:	8000                	.insn	2, 0x8000
     a82:	0000                	unimp
     a84:	0000                	unimp
     a86:	000001f7          	.insn	4, 0x01f7
     a8a:	0a9c                	addi	a5,sp,336
     a8c:	0000                	unimp
     a8e:	0102                	c.slli64	sp
     a90:	095a                	slli	s2,s2,0x16
     a92:	0022b003          	ld	zero,2(t0)
     a96:	0080                	addi	s0,sp,64
     a98:	0000                	unimp
     a9a:	0000                	unimp
     a9c:	00049007          	.insn	4, 0x00049007
     aa0:	0080                	addi	s0,sp,64
     aa2:	0000                	unimp
     aa4:	9900                	.insn	2, 0x9900
     aa6:	000c                	.insn	2, 0x000c
     aa8:	da00                	sw	s0,48(a2)
     aaa:	000a                	c.slli	zero,0x2
     aac:	0200                	addi	s0,sp,256
     aae:	5a01                	li	s4,-32
     ab0:	0309                	addi	t1,t1,2
     ab2:	2410                	fld	fa2,8(s0)
     ab4:	8000                	.insn	2, 0x8000
     ab6:	0000                	unimp
     ab8:	0000                	unimp
     aba:	0102                	c.slli64	sp
     abc:	0240015b          	.insn	4, 0x0240015b
     ac0:	5c01                	li	s8,-32
     ac2:	3001                	.insn	2, 0x3001
     ac4:	0102                	c.slli64	sp
     ac6:	025d                	addi	tp,tp,23 # 17 <__stack_align+0x7>
     ac8:	3e08                	fld	fa0,56(a2)
     aca:	0102                	c.slli64	sp
     acc:	015e                	slli	sp,sp,0x17
     ace:	0234                	addi	a3,sp,264
     ad0:	5f01                	li	t5,-32
     ad2:	3201                	addiw	tp,tp,-32 # ffffffffffffffe0 <__heap_end+0xffffffff7ffdcfe0>
     ad4:	0102                	c.slli64	sp
     ad6:	0160                	addi	s0,sp,140
     ad8:	0032                	c.slli	zero,0xc
     ada:	a015                	j	afe <__stack_align+0xaee>
     adc:	0004                	.insn	2, 0x0004
     ade:	0080                	addi	s0,sp,64
     ae0:	0000                	unimp
     ae2:	cc00                	sw	s0,24(s0)
     ae4:	0200000b          	.insn	4, 0x0200000b
     ae8:	5a01                	li	s4,-32
     aea:	3001                	.insn	2, 0x3001
     aec:	0102                	c.slli64	sp
     aee:	000a035b          	.insn	4, 0x000a035b
     af2:	0201                	addi	tp,tp,0 # 0 <__boot_hart>
     af4:	5c01                	li	s8,-32
     af6:	3001                	.insn	2, 0x3001
     af8:	0000                	unimp
     afa:	5f14                	lw	a3,56(a4)
     afc:	0001                	nop
     afe:	0100                	addi	s0,sp,128
     b00:	319d                	addiw	gp,gp,-25 # ffffffff80002cb7 <__heap_end+0xfffffffefffdfcb7>
     b02:	0000                	unimp
     b04:	7000                	ld	s0,32(s0)
     b06:	0006                	c.slli	zero,0x1
     b08:	0080                	addi	s0,sp,64
     b0a:	0000                	unimp
     b0c:	7800                	ld	s0,48(s0)
     b0e:	0000                	unimp
     b10:	0000                	unimp
     b12:	0000                	unimp
     b14:	0100                	addi	s0,sp,128
     b16:	c79c                	sw	a5,8(a5)
     b18:	0c00000b          	.insn	4, 0x0c00000b
     b1c:	004c                	addi	a1,sp,4
     b1e:	0000                	unimp
     b20:	1a9d                	addi	s5,s5,-25
     b22:	00000bc7          	fmsub.s	fs7,ft0,ft0,ft0,rne
     b26:	0446                	slli	s0,s0,0x11
     b28:	0000                	unimp
     b2a:	6c1a                	ld	s8,384(sp)
     b2c:	6e65                	lui	t3,0x19
     b2e:	9d00                	.insn	2, 0x9d00
     b30:	b62a                	fsd	fa0,296(sp)
     b32:	0000                	unimp
     b34:	6a00                	ld	s0,16(a2)
     b36:	0004                	.insn	2, 0x0004
     b38:	0c00                	addi	s0,sp,528
     b3a:	007f 0000 389d 00b6 	.insn	10, 0x00b6389d0000007f
     b42:	0000 
     b44:	0486                	slli	s1,s1,0x1
     b46:	0000                	unimp
     b48:	6916                	ld	s2,320(sp)
     b4a:	9f00                	.insn	2, 0x9f00
     b4c:	00b6                	slli	ra,ra,0xd
     b4e:	0000                	unimp
     b50:	04a2                	slli	s1,s1,0x8
     b52:	0000                	unimp
     b54:	4504                	lw	s1,8(a0)
     b56:	0001                	nop
     b58:	1000                	addi	s0,sp,32
     b5a:	00000073          	ecall
     b5e:	a201                	j	c5e <__stack_align+0xc4e>
     b60:	b60c                	fsd	fa1,40(a2)
     b62:	0000                	unimp
     b64:	bc00                	fsd	fs0,56(s0)
     b66:	0004                	.insn	2, 0x0004
     b68:	1000                	addi	s0,sp,32
     b6a:	0144                	addi	s1,sp,132
     b6c:	0000                	unimp
     b6e:	a301                	j	106e <__stack_align+0x105e>
     b70:	b60c                	fsd	fa1,40(a2)
     b72:	0000                	unimp
     b74:	d000                	sw	s0,32(s0)
     b76:	0004                	.insn	2, 0x0004
     b78:	0300                	addi	s0,sp,384
     b7a:	105e                	c.slli	zero,0x37
     b7c:	0000                	unimp
     b7e:	0690                	addi	a2,sp,832
     b80:	8000                	.insn	2, 0x8000
     b82:	0000                	unimp
     b84:	0000                	unimp
     b86:	0164                	addi	s1,sp,140
     b88:	0000                	unimp
     b8a:	a201                	j	c8a <__stack_align+0xc7a>
     b8c:	000baa13          	slti	s4,s7,0
     b90:	0100                	addi	s0,sp,128
     b92:	0000106f          	j	1b92 <__stack_align+0x1b82>
     b96:	04e4                	addi	s1,sp,588
     b98:	0000                	unimp
     b9a:	6404                	ld	s1,8(s0)
     b9c:	0001                	nop
     b9e:	0500                	addi	s0,sp,640
     ba0:	0000107b          	.insn	4, 0x107b
     ba4:	0500                	addi	s0,sp,640
     ba6:	0000                	unimp
     ba8:	0000                	unimp
     baa:	d015                	beqz	s0,ace <__stack_align+0xabe>
     bac:	0006                	c.slli	zero,0x1
     bae:	0080                	addi	s0,sp,64
     bb0:	0000                	unimp
     bb2:	f700                	sd	s0,40(a4)
     bb4:	0001                	nop
     bb6:	0200                	addi	s0,sp,256
     bb8:	5a01                	li	s4,-32
     bba:	0309                	addi	t1,t1,2
     bbc:	20f8                	fld	fa4,192(s1)
     bbe:	8000                	.insn	2, 0x8000
     bc0:	0000                	unimp
     bc2:	0000                	unimp
     bc4:	0000                	unimp
     bc6:	1300                	addi	s0,sp,416
     bc8:	00aa                	slli	ra,ra,0xa
     bca:	0000                	unimp
     bcc:	b514                	fsd	fa3,40(a0)
     bce:	0000                	unimp
     bd0:	0100                	addi	s0,sp,128
     bd2:	3189                	addiw	gp,gp,-30 # ffffffff80002cb2 <__heap_end+0xfffffffefffdfcb2>
     bd4:	0000                	unimp
     bd6:	fc00                	sd	s0,56(s0)
     bd8:	0005                	c.nop	1
     bda:	0080                	addi	s0,sp,64
     bdc:	0000                	unimp
     bde:	7400                	ld	s0,40(s0)
     be0:	0000                	unimp
     be2:	0000                	unimp
     be4:	0000                	unimp
     be6:	0100                	addi	s0,sp,128
     be8:	999c                	.insn	2, 0x999c
     bea:	000c                	.insn	2, 0x000c
     bec:	0c00                	addi	s0,sp,528
     bee:	0528                	addi	a0,sp,648
     bf0:	0000                	unimp
     bf2:	1c89                	addi	s9,s9,-30
     bf4:	00b6                	slli	ra,ra,0xd
     bf6:	0000                	unimp
     bf8:	050d                	addi	a0,a0,3
     bfa:	0000                	unimp
     bfc:	ec0c                	sd	a1,24(s0)
     bfe:	0004                	.insn	2, 0x0004
     c00:	8900                	.insn	2, 0x8900
     c02:	b62c                	fsd	fa1,104(a2)
     c04:	0000                	unimp
     c06:	2400                	fld	fs0,8(s0)
     c08:	0005                	c.nop	1
     c0a:	0c00                	addi	s0,sp,528
     c0c:	0052                	c.slli	zero,0x14
     c0e:	0000                	unimp
     c10:	3a89                	addiw	s5,s5,-30
     c12:	00aa                	slli	ra,ra,0xa
     c14:	0000                	unimp
     c16:	0000053b          	addw	a0,zero,zero
     c1a:	6916                	ld	s2,320(sp)
     c1c:	8b00                	.insn	2, 0x8b00
     c1e:	00b6                	slli	ra,ra,0xd
     c20:	0000                	unimp
     c22:	0564                	addi	s1,sp,652
     c24:	0000                	unimp
     c26:	1604                	addi	s1,sp,800
     c28:	0001                	nop
     c2a:	1000                	addi	s0,sp,32
     c2c:	00000073          	ecall
     c30:	8f01                	sub	a4,a4,s0
     c32:	b60c                	fsd	fa1,40(a2)
     c34:	0000                	unimp
     c36:	7800                	ld	s0,48(s0)
     c38:	0005                	c.nop	1
     c3a:	1000                	addi	s0,sp,32
     c3c:	004c                	addi	a1,sp,4
     c3e:	0000                	unimp
     c40:	9001                	srli	s0,s0,0x20
     c42:	b60c                	fsd	fa1,40(a2)
     c44:	0000                	unimp
     c46:	8c00                	.insn	2, 0x8c00
     c48:	0005                	c.nop	1
     c4a:	0300                	addi	s0,sp,384
     c4c:	105e                	c.slli	zero,0x37
     c4e:	0000                	unimp
     c50:	0614                	addi	a3,sp,768
     c52:	8000                	.insn	2, 0x8000
     c54:	0000                	unimp
     c56:	0000                	unimp
     c58:	0132                	slli	sp,sp,0xc
     c5a:	0000                	unimp
     c5c:	8f01                	sub	a4,a4,s0
     c5e:	000c7c13          	andi	s8,s8,0
     c62:	0100                	addi	s0,sp,128
     c64:	0000106f          	j	1c64 <__stack_align+0x1c54>
     c68:	05a6                	slli	a1,a1,0x9
     c6a:	0000                	unimp
     c6c:	3204                	fld	fs1,32(a2)
     c6e:	0001                	nop
     c70:	0500                	addi	s0,sp,640
     c72:	0000107b          	.insn	4, 0x107b
     c76:	000005bf 60150000 	.insn	8, 0x60150000000005bf
     c7e:	0006                	c.slli	zero,0x1
     c80:	0080                	addi	s0,sp,64
     c82:	0000                	unimp
     c84:	f700                	sd	s0,40(a4)
     c86:	0001                	nop
     c88:	0200                	addi	s0,sp,256
     c8a:	5a01                	li	s4,-32
     c8c:	0309                	addi	t1,t1,2
     c8e:	20a8                	fld	fa0,64(s1)
     c90:	8000                	.insn	2, 0x8000
     c92:	0000                	unimp
     c94:	0000                	unimp
     c96:	0000                	unimp
     c98:	2900                	fld	fs0,16(a0)
     c9a:	0000016b          	.insn	4, 0x016b
     c9e:	5501                	li	a0,-32
     ca0:	e006                	sd	ra,0(sp)
     ca2:	0004                	.insn	2, 0x0004
     ca4:	0080                	addi	s0,sp,64
     ca6:	0000                	unimp
     ca8:	1c00                	addi	s0,sp,560
     caa:	0001                	nop
     cac:	0000                	unimp
     cae:	0000                	unimp
     cb0:	0100                	addi	s0,sp,128
     cb2:	309c                	fld	fa5,32(s1)
     cb4:	0010                	.insn	2, 0x0010
     cb6:	0c00                	addi	s0,sp,528
     cb8:	00000073          	ecall
     cbc:	1e55                	addi	t3,t3,-11 # 18ff5 <__stack_size+0x10ff5>
     cbe:	00000bc7          	fmsub.s	fs7,ft0,ft0,ft0,rne
     cc2:	05cc                	addi	a1,sp,708
     cc4:	0000                	unimp
     cc6:	6c2a                	ld	s8,136(sp)
     cc8:	6e65                	lui	t3,0x19
     cca:	0100                	addi	s0,sp,128
     ccc:	2d55                	addiw	s10,s10,21
     cce:	00b6                	slli	ra,ra,0xd
     cd0:	0000                	unimp
     cd2:	5b01                	li	s6,-32
     cd4:	7f0c                	ld	a1,56(a4)
     cd6:	0000                	unimp
     cd8:	5500                	lw	s0,40(a0)
     cda:	0000b63b          	.insn	4, 0xb63b
     cde:	e600                	sd	s0,8(a2)
     ce0:	0005                	c.nop	1
     ce2:	1a00                	addi	s0,sp,304
     ce4:	00646d63          	bltu	s0,t1,cfe <__stack_align+0xcee>
     ce8:	4955                	li	s2,21
     cea:	00aa                	slli	ra,ra,0xa
     cec:	0000                	unimp
     cee:	0600                	addi	s0,sp,768
     cf0:	0000                	unimp
     cf2:	000c                	.insn	2, 0x000c
     cf4:	0000                	unimp
     cf6:	5500                	lw	s0,40(a0)
     cf8:	aa56                	fsd	fs5,272(sp)
     cfa:	0000                	unimp
     cfc:	1800                	addi	s0,sp,48
     cfe:	0006                	c.slli	zero,0x1
     d00:	0c00                	addi	s0,sp,528
     d02:	017a                	slli	sp,sp,0x1e
     d04:	0000                	unimp
     d06:	6655                	lui	a2,0x15
     d08:	00aa                	slli	ra,ra,0xa
     d0a:	0000                	unimp
     d0c:	0630                	addi	a2,sp,776
     d0e:	0000                	unimp
     d10:	9c0c                	.insn	2, 0x9c0c
     d12:	0000                	unimp
     d14:	5500                	lw	s0,40(a0)
     d16:	aa76                	fsd	ft9,272(sp)
     d18:	0000                	unimp
     d1a:	4800                	lw	s0,16(s0)
     d1c:	0006                	c.slli	zero,0x1
     d1e:	1700                	addi	s0,sp,928
     d20:	6d66                	ld	s10,88(sp)
     d22:	0074                	addi	a3,sp,12
     d24:	5801                	li	a6,-32
     d26:	5b0a                	lw	s6,160(sp)
     d28:	0001                	nop
     d2a:	1600                	addi	s0,sp,800
     d2c:	0069                	c.nop	26
     d2e:	b65e                	fsd	fs7,296(sp)
     d30:	0000                	unimp
     d32:	6200                	ld	s0,0(a2)
     d34:	0006                	c.slli	zero,0x1
     d36:	0300                	addi	s0,sp,384
     d38:	108d                	addi	ra,ra,-29
     d3a:	0000                	unimp
     d3c:	04e4                	addi	s1,sp,588
     d3e:	8000                	.insn	2, 0x8000
     d40:	0000                	unimp
     d42:	0000                	unimp
     d44:	003c                	addi	a5,sp,8
     d46:	0000                	unimp
     d48:	6101                	addi	sp,sp,0
     d4a:	7102                	ld	sp,32(sp)
     d4c:	000d                	c.nop	3
     d4e:	0100                	addi	s0,sp,128
     d50:	10a6                	slli	ra,ra,0x29
     d52:	0000                	unimp
     d54:	06c4                	addi	s1,sp,836
     d56:	0000                	unimp
     d58:	9a01                	andi	a2,a2,-32
     d5a:	0010                	.insn	2, 0x0010
     d5c:	d200                	sw	s0,32(a2)
     d5e:	0006                	c.slli	zero,0x1
     d60:	0400                	addi	s0,sp,512
     d62:	003c                	addi	a5,sp,8
     d64:	0000                	unimp
     d66:	b205                	j	686 <__stack_align+0x676>
     d68:	0010                	.insn	2, 0x0010
     d6a:	d200                	sw	s0,32(a2)
     d6c:	0006                	c.slli	zero,0x1
     d6e:	0000                	unimp
     d70:	0300                	addi	s0,sp,384
     d72:	108d                	addi	ra,ra,-29
     d74:	0000                	unimp
     d76:	04ec                	addi	a1,sp,588
     d78:	8000                	.insn	2, 0x8000
     d7a:	0000                	unimp
     d7c:	0000                	unimp
     d7e:	0000004f          	fnmadd.s	ft0,ft0,ft0,ft0,rne
     d82:	6301                	.insn	2, 0x6301
     d84:	ab02                	fsd	ft0,400(sp)
     d86:	000d                	c.nop	3
     d88:	0100                	addi	s0,sp,128
     d8a:	10a6                	slli	ra,ra,0x29
     d8c:	0000                	unimp
     d8e:	06e4                	addi	s1,sp,844
     d90:	0000                	unimp
     d92:	9a01                	andi	a2,a2,-32
     d94:	0010                	.insn	2, 0x0010
     d96:	f100                	sd	s0,32(a0)
     d98:	0006                	c.slli	zero,0x1
     d9a:	0400                	addi	s0,sp,512
     d9c:	0000004f          	fnmadd.s	ft0,ft0,ft0,ft0,rne
     da0:	b205                	j	6c0 <__stack_align+0x6b0>
     da2:	0010                	.insn	2, 0x0010
     da4:	f100                	sd	s0,32(a0)
     da6:	0006                	c.slli	zero,0x1
     da8:	0000                	unimp
     daa:	0300                	addi	s0,sp,384
     dac:	108d                	addi	ra,ra,-29
     dae:	0000                	unimp
     db0:	04fc                	addi	a5,sp,588
     db2:	8000                	.insn	2, 0x8000
     db4:	0000                	unimp
     db6:	0000                	unimp
     db8:	005f 0000 6401      	.insn	6, 0x64010000005f
     dbe:	e502                	sd	zero,136(sp)
     dc0:	000d                	c.nop	3
     dc2:	0100                	addi	s0,sp,128
     dc4:	10a6                	slli	ra,ra,0x29
     dc6:	0000                	unimp
     dc8:	00000703          	lb	a4,0(zero) # 0 <__boot_hart>
     dcc:	9a01                	andi	a2,a2,-32
     dce:	0010                	.insn	2, 0x0010
     dd0:	1100                	addi	s0,sp,160
     dd2:	04000007          	.insn	4, 0x04000007
     dd6:	005f 0000 b205      	.insn	6, 0xb2050000005f
     ddc:	0010                	.insn	2, 0x0010
     dde:	1100                	addi	s0,sp,160
     de0:	00000007          	.insn	4, 0x0007
     de4:	0300                	addi	s0,sp,384
     de6:	00001047          	fmsub.s	ft0,ft0,ft0,ft0,rtz
     dea:	0500                	addi	s0,sp,640
     dec:	8000                	.insn	2, 0x8000
     dee:	0000                	unimp
     df0:	0000                	unimp
     df2:	0000006f          	j	df2 <__stack_align+0xde2>
     df6:	6601                	.insn	2, 0x6601
     df8:	6402                	ld	s0,0(sp)
     dfa:	000e                	c.slli	zero,0x3
     dfc:	0100                	addi	s0,sp,128
     dfe:	1051                	c.nop	-12
     e00:	0000                	unimp
     e02:	00000723          	sb	zero,14(zero) # e <__boot_hart+0xe>
     e06:	00105e03          	lhu	t3,1(zero) # 1 <__boot_hart+0x1>
     e0a:	0000                	unimp
     e0c:	0005                	c.nop	1
     e0e:	0080                	addi	s0,sp,64
     e10:	0000                	unimp
     e12:	8b00                	.insn	2, 0x8b00
     e14:	0000                	unimp
     e16:	0100                	addi	s0,sp,128
     e18:	0948                	addi	a0,sp,148
     e1a:	00000e2f          	.insn	4, 0x0e2f
     e1e:	6f06                	ld	t5,64(sp)
     e20:	0010                	.insn	2, 0x0010
     e22:	0400                	addi	s0,sp,512
     e24:	0000008b          	.insn	4, 0x008b
     e28:	7b08                	ld	a0,48(a4)
     e2a:	0010                	.insn	2, 0x0010
     e2c:	0000                	unimp
     e2e:	0e00                	addi	s0,sp,784
     e30:	108d                	addi	ra,ra,-29
     e32:	0000                	unimp
     e34:	051c                	addi	a5,sp,640
     e36:	8000                	.insn	2, 0x8000
     e38:	0000                	unimp
     e3a:	0000                	unimp
     e3c:	009e                	slli	ra,ra,0x7
     e3e:	0000                	unimp
     e40:	0149                	addi	sp,sp,18
     e42:	10a6                	slli	ra,ra,0x29
     e44:	0000                	unimp
     e46:	073a                	slli	a4,a4,0xe
     e48:	0000                	unimp
     e4a:	9a01                	andi	a2,a2,-32
     e4c:	0010                	.insn	2, 0x0010
     e4e:	4700                	lw	s0,8(a4)
     e50:	04000007          	.insn	4, 0x04000007
     e54:	009e                	slli	ra,ra,0x7
     e56:	0000                	unimp
     e58:	b205                	j	778 <__stack_align+0x768>
     e5a:	0010                	.insn	2, 0x0010
     e5c:	4700                	lw	s0,8(a4)
     e5e:	00000007          	.insn	4, 0x0007
     e62:	0000                	unimp
     e64:	00108d03          	lb	s10,1(ra)
     e68:	3800                	fld	fs0,48(s0)
     e6a:	0005                	c.nop	1
     e6c:	0080                	addi	s0,sp,64
     e6e:	0000                	unimp
     e70:	b600                	fsd	fs0,40(a2)
     e72:	0000                	unimp
     e74:	0100                	addi	s0,sp,128
     e76:	026c                	addi	a1,sp,268
     e78:	0e92                	slli	t4,t4,0x4
     e7a:	0000                	unimp
     e7c:	a606                	fsd	ft1,264(sp)
     e7e:	0010                	.insn	2, 0x0010
     e80:	0600                	addi	s0,sp,768
     e82:	109a                	slli	ra,ra,0x26
     e84:	0000                	unimp
     e86:	b604                	fsd	fs1,40(a2)
     e88:	0000                	unimp
     e8a:	0800                	addi	s0,sp,16
     e8c:	10b2                	slli	ra,ra,0x2c
     e8e:	0000                	unimp
     e90:	0000                	unimp
     e92:	00104703          	lbu	a4,1(zero) # 1 <__boot_hart+0x1>
     e96:	4c00                	lw	s0,24(s0)
     e98:	0005                	c.nop	1
     e9a:	0080                	addi	s0,sp,64
     e9c:	0000                	unimp
     e9e:	c600                	sw	s0,8(a2)
     ea0:	0000                	unimp
     ea2:	0100                	addi	s0,sp,128
     ea4:	0370                	addi	a2,sp,396
     ea6:	00000f0f          	.insn	4, 0x0f0f
     eaa:	5101                	li	sp,-32
     eac:	0010                	.insn	2, 0x0010
     eae:	5900                	lw	s0,48(a0)
     eb0:	03000007          	.insn	4, 0x03000007
     eb4:	105e                	c.slli	zero,0x37
     eb6:	0000                	unimp
     eb8:	054c                	addi	a1,sp,644
     eba:	8000                	.insn	2, 0x8000
     ebc:	0000                	unimp
     ebe:	0000                	unimp
     ec0:	00d6                	slli	ra,ra,0x15
     ec2:	0000                	unimp
     ec4:	4801                	li	a6,0
     ec6:	dc09                	beqz	s0,de0 <__stack_align+0xdd0>
     ec8:	000e                	c.slli	zero,0x3
     eca:	0600                	addi	s0,sp,768
     ecc:	0000106f          	j	1ecc <__stack_align+0x1ebc>
     ed0:	d604                	sw	s1,40(a2)
     ed2:	0000                	unimp
     ed4:	0800                	addi	s0,sp,16
     ed6:	0000107b          	.insn	4, 0x107b
     eda:	0000                	unimp
     edc:	00108d0f          	.insn	4, 0x00108d0f
     ee0:	7000                	ld	s0,32(s0)
     ee2:	0005                	c.nop	1
     ee4:	0080                	addi	s0,sp,64
     ee6:	0000                	unimp
     ee8:	0400                	addi	s0,sp,512
     eea:	0000                	unimp
     eec:	0000                	unimp
     eee:	0000                	unimp
     ef0:	4900                	lw	s0,16(a0)
     ef2:	a601                	j	11f2 <__stack_align+0x11e2>
     ef4:	0010                	.insn	2, 0x0010
     ef6:	6600                	ld	s0,8(a2)
     ef8:	01000007          	.insn	4, 0x01000007
     efc:	109a                	slli	ra,ra,0x26
     efe:	0000                	unimp
     f00:	00000773          	.insn	4, 0x0773
     f04:	b205                	j	824 <__stack_align+0x814>
     f06:	0010                	.insn	2, 0x0010
     f08:	7300                	ld	s0,32(a4)
     f0a:	00000007          	.insn	4, 0x0007
     f0e:	0300                	addi	s0,sp,384
     f10:	108d                	addi	ra,ra,-29
     f12:	0000                	unimp
     f14:	0594                	addi	a3,sp,704
     f16:	8000                	.insn	2, 0x8000
     f18:	0000                	unimp
     f1a:	0000                	unimp
     f1c:	00e6                	slli	ra,ra,0x19
     f1e:	0000                	unimp
     f20:	7701                	lui	a4,0xfffe0
     f22:	4902                	lw	s2,0(sp)
     f24:	0100000f          	fence	w,unknown
     f28:	10a6                	slli	ra,ra,0x29
     f2a:	0000                	unimp
     f2c:	0785                	addi	a5,a5,1
     f2e:	0000                	unimp
     f30:	9a01                	andi	a2,a2,-32
     f32:	0010                	.insn	2, 0x0010
     f34:	9200                	.insn	2, 0x9200
     f36:	04000007          	.insn	4, 0x04000007
     f3a:	00e6                	slli	ra,ra,0x19
     f3c:	0000                	unimp
     f3e:	b205                	j	85e <__stack_align+0x84e>
     f40:	0010                	.insn	2, 0x0010
     f42:	9200                	.insn	2, 0x9200
     f44:	00000007          	.insn	4, 0x0007
     f48:	0300                	addi	s0,sp,384
     f4a:	00001047          	fmsub.s	ft0,ft0,ft0,ft0,rtz
     f4e:	05b0                	addi	a2,sp,712
     f50:	8000                	.insn	2, 0x8000
     f52:	0000                	unimp
     f54:	0000                	unimp
     f56:	00f6                	slli	ra,ra,0x1d
     f58:	0000                	unimp
     f5a:	7b01                	lui	s6,0xfffe0
     f5c:	000fc603          	lbu	a2,0(t6)
     f60:	0100                	addi	s0,sp,128
     f62:	1051                	c.nop	-12
     f64:	0000                	unimp
     f66:	07a4                	addi	s1,sp,968
     f68:	0000                	unimp
     f6a:	00105e03          	lhu	t3,1(zero) # 1 <__boot_hart+0x1>
     f6e:	b000                	fsd	fs0,32(s0)
     f70:	0005                	c.nop	1
     f72:	0080                	addi	s0,sp,64
     f74:	0000                	unimp
     f76:	0600                	addi	s0,sp,768
     f78:	0001                	nop
     f7a:	0100                	addi	s0,sp,128
     f7c:	0948                	addi	a0,sp,148
     f7e:	00000f93          	li	t6,0
     f82:	6f06                	ld	t5,64(sp)
     f84:	0010                	.insn	2, 0x0010
     f86:	0400                	addi	s0,sp,512
     f88:	0106                	slli	sp,sp,0x1
     f8a:	0000                	unimp
     f8c:	7b08                	ld	a0,48(a4)
     f8e:	0010                	.insn	2, 0x0010
     f90:	0000                	unimp
     f92:	0f00                	addi	s0,sp,912
     f94:	108d                	addi	ra,ra,-29
     f96:	0000                	unimp
     f98:	05c4                	addi	s1,sp,708
     f9a:	8000                	.insn	2, 0x8000
     f9c:	0000                	unimp
     f9e:	0000                	unimp
     fa0:	0004                	.insn	2, 0x0004
     fa2:	0000                	unimp
     fa4:	0000                	unimp
     fa6:	0000                	unimp
     fa8:	0149                	addi	sp,sp,18
     faa:	10a6                	slli	ra,ra,0x29
     fac:	0000                	unimp
     fae:	07b1                	addi	a5,a5,12
     fb0:	0000                	unimp
     fb2:	9a01                	andi	a2,a2,-32
     fb4:	0010                	.insn	2, 0x0010
     fb6:	be00                	fsd	fs0,56(a2)
     fb8:	05000007          	.insn	4, 0x05000007
     fbc:	10b2                	slli	ra,ra,0x2c
     fbe:	0000                	unimp
     fc0:	07be                	slli	a5,a5,0xf
     fc2:	0000                	unimp
     fc4:	0000                	unimp
     fc6:	00108d0b          	.insn	4, 0x00108d0b
     fca:	e000                	sd	s0,0(s0)
     fcc:	0005                	c.nop	1
     fce:	0080                	addi	s0,sp,64
     fd0:	0000                	unimp
     fd2:	0c00                	addi	s0,sp,528
     fd4:	0000                	unimp
     fd6:	0000                	unimp
     fd8:	0000                	unimp
     fda:	0100                	addi	s0,sp,128
     fdc:	fd81                	bnez	a1,ef4 <__stack_align+0xee4>
     fde:	0100000f          	fence	w,unknown
     fe2:	10a6                	slli	ra,ra,0x29
     fe4:	0000                	unimp
     fe6:	07d0                	addi	a2,sp,964
     fe8:	0000                	unimp
     fea:	9a01                	andi	a2,a2,-32
     fec:	0010                	.insn	2, 0x0010
     fee:	de00                	sw	s0,56(a2)
     ff0:	05000007          	.insn	4, 0x05000007
     ff4:	10b2                	slli	ra,ra,0x2c
     ff6:	0000                	unimp
     ff8:	07de                	slli	a5,a5,0x17
     ffa:	0000                	unimp
     ffc:	0f00                	addi	s0,sp,912
     ffe:	108d                	addi	ra,ra,-29
    1000:	0000                	unimp
    1002:	05ec                	addi	a1,sp,716
    1004:	8000                	.insn	2, 0x8000
    1006:	0000                	unimp
    1008:	0000                	unimp
    100a:	000c                	.insn	2, 0x000c
    100c:	0000                	unimp
    100e:	0000                	unimp
    1010:	0000                	unimp
    1012:	0184                	addi	s1,sp,192
    1014:	10a6                	slli	ra,ra,0x29
    1016:	0000                	unimp
    1018:	07f0                	addi	a2,sp,972
    101a:	0000                	unimp
    101c:	9a01                	andi	a2,a2,-32
    101e:	0010                	.insn	2, 0x0010
    1020:	fe00                	sd	s0,56(a2)
    1022:	05000007          	.insn	4, 0x05000007
    1026:	10b2                	slli	ra,ra,0x2c
    1028:	0000                	unimp
    102a:	07fe                	slli	a5,a5,0x1f
    102c:	0000                	unimp
    102e:	0000                	unimp
    1030:	00014c1b          	.insn	4, 0x00014c1b
    1034:	4d00                	lw	s0,24(a0)
    1036:	00001047          	fmsub.s	ft0,ft0,ft0,ft0,rtz
    103a:	7311                	lui	t1,0xfffe4
    103c:	0000                	unimp
    103e:	0100                	addi	s0,sp,128
    1040:	274d                	addiw	a4,a4,19 # fffffffffffe0013 <__heap_end+0xffffffff7ffbd013>
    1042:	000001eb          	.insn	4, 0x01eb
    1046:	1b00                	addi	s0,sp,432
    1048:	0135                	addi	sp,sp,13
    104a:	0000                	unimp
    104c:	5e46                	lw	t3,112(sp)
    104e:	0010                	.insn	2, 0x0010
    1050:	1100                	addi	s0,sp,160
    1052:	00000073          	ecall
    1056:	4601                	li	a2,0
    1058:	aa1d                	j	118e <__stack_align+0x117e>
    105a:	0000                	unimp
    105c:	0000                	unimp
    105e:	0000ed2b          	.insn	4, 0xed2b
    1062:	0200                	addi	s0,sp,256
    1064:	1824                	addi	s1,sp,56
    1066:	00b6                	slli	ra,ra,0xd
    1068:	0000                	unimp
    106a:	00108803          	lb	a6,1(ra)
    106e:	1100                	addi	s0,sp,160
    1070:	007f 0000 2402 c72d 	.insn	10, 0xc72d24020000007f
    1078:	0000 
    107a:	1700                	addi	s0,sp,928
    107c:	7470                	ld	a2,232(s0)
    107e:	0072                	c.slli	zero,0x1c
    1080:	2602                	fld	fa2,0(sp)
    1082:	8815                	andi	s0,s0,5
    1084:	0010                	.insn	2, 0x0010
    1086:	0000                	unimp
    1088:	0000c213          	xori	tp,ra,0
    108c:	2c00                	fld	fs0,24(s0)
    108e:	0036                	c.slli	zero,0xd
    1090:	0000                	unimp
    1092:	1e02                	slli	t3,t3,0x20
    1094:	0314                	addi	a3,sp,384
    1096:	000010bf 00007f11 	.insn	8, 0x7f11000010bf
    109e:	0200                	addi	s0,sp,256
    10a0:	2a1e                	fld	fs4,448(sp)
    10a2:	000000c7          	fmsub.s	ft1,ft0,ft0,ft0,rne
    10a6:	7311                	lui	t1,0xfffe4
    10a8:	0000                	unimp
    10aa:	0200                	addi	s0,sp,256
    10ac:	391e                	fld	fs2,480(sp)
    10ae:	00b6                	slli	ra,ra,0xd
    10b0:	0000                	unimp
    10b2:	72747017          	auipc	zero,0x72747
    10b6:	0200                	addi	s0,sp,256
    10b8:	1520                	addi	s0,sp,680
    10ba:	1088                	addi	a0,sp,96
    10bc:	0000                	unimp
    10be:	2d00                	fld	fs0,24(a0)
    10c0:	00001047          	fmsub.s	ft0,ft0,ft0,ft0,rtz
    10c4:	04a8                	addi	a0,sp,584
    10c6:	8000                	.insn	2, 0x8000
    10c8:	0000                	unimp
    10ca:	0000                	unimp
    10cc:	001c                	.insn	2, 0x001c
    10ce:	0000                	unimp
    10d0:	0000                	unimp
    10d2:	0000                	unimp
    10d4:	9c01                	subw	s0,s0,s0
    10d6:	0000113f 00105101 	.insn	8, 0x001051010000113f
    10de:	1000                	addi	s0,sp,32
    10e0:	0008                	.insn	2, 0x0008
    10e2:	0300                	addi	s0,sp,384
    10e4:	105e                	c.slli	zero,0x37
    10e6:	0000                	unimp
    10e8:	04a8                	addi	a0,sp,584
    10ea:	8000                	.insn	2, 0x8000
    10ec:	0000                	unimp
    10ee:	0000                	unimp
    10f0:	000c                	.insn	2, 0x000c
    10f2:	0000                	unimp
    10f4:	4801                	li	a6,0
    10f6:	0c09                	addi	s8,s8,2
    10f8:	0011                	c.nop	4
    10fa:	0600                	addi	s0,sp,768
    10fc:	0000106f          	j	20fc <__stack_align+0x20ec>
    1100:	0c04                	addi	s1,sp,528
    1102:	0000                	unimp
    1104:	0800                	addi	s0,sp,16
    1106:	0000107b          	.insn	4, 0x107b
    110a:	0000                	unimp
    110c:	00108d0f          	.insn	4, 0x00108d0f
    1110:	bc00                	fsd	fs0,56(s0)
    1112:	0004                	.insn	2, 0x0004
    1114:	0080                	addi	s0,sp,64
    1116:	0000                	unimp
    1118:	0400                	addi	s0,sp,512
    111a:	0000                	unimp
    111c:	0000                	unimp
    111e:	0000                	unimp
    1120:	4900                	lw	s0,16(a0)
    1122:	a601                	j	1422 <__stack_align+0x1412>
    1124:	0010                	.insn	2, 0x0010
    1126:	2700                	fld	fs0,8(a4)
    1128:	0008                	.insn	2, 0x0008
    112a:	0100                	addi	s0,sp,128
    112c:	109a                	slli	ra,ra,0x26
    112e:	0000                	unimp
    1130:	0834                	addi	a3,sp,24
    1132:	0000                	unimp
    1134:	b205                	j	a54 <__stack_align+0xa44>
    1136:	0010                	.insn	2, 0x0010
    1138:	3400                	fld	fs0,40(s0)
    113a:	0008                	.insn	2, 0x0008
    113c:	0000                	unimp
    113e:	2e00                	fld	fs0,24(a2)
    1140:	1030                	addi	a2,sp,40
    1142:	0000                	unimp
    1144:	04c4                	addi	s1,sp,580
    1146:	8000                	.insn	2, 0x8000
    1148:	0000                	unimp
    114a:	0000                	unimp
    114c:	001c                	.insn	2, 0x001c
    114e:	0000                	unimp
    1150:	0000                	unimp
    1152:	0000                	unimp
    1154:	9c01                	subw	s0,s0,s0
    1156:	00103a2f          	amoadd.d	s4,ra,(zero)
    115a:	0100                	addi	s0,sp,128
    115c:	035a                	slli	t1,t1,0x16
    115e:	108d                	addi	ra,ra,-29
    1160:	0000                	unimp
    1162:	04c4                	addi	s1,sp,580
    1164:	8000                	.insn	2, 0x8000
    1166:	0000                	unimp
    1168:	0000                	unimp
    116a:	001c                	.insn	2, 0x001c
    116c:	0000                	unimp
    116e:	4f01                	li	t5,0
    1170:	9702                	jalr	a4
    1172:	0011                	c.nop	4
    1174:	0100                	addi	s0,sp,128
    1176:	10a6                	slli	ra,ra,0x29
    1178:	0000                	unimp
    117a:	0846                	slli	a6,a6,0x11
    117c:	0000                	unimp
    117e:	9a01                	andi	a2,a2,-32
    1180:	0010                	.insn	2, 0x0010
    1182:	5400                	lw	s0,40(s0)
    1184:	0008                	.insn	2, 0x0008
    1186:	0400                	addi	s0,sp,512
    1188:	001c                	.insn	2, 0x001c
    118a:	0000                	unimp
    118c:	b205                	j	aac <__stack_align+0xa9c>
    118e:	0010                	.insn	2, 0x0010
    1190:	5400                	lw	s0,40(s0)
    1192:	0008                	.insn	2, 0x0008
    1194:	0000                	unimp
    1196:	0300                	addi	s0,sp,384
    1198:	108d                	addi	ra,ra,-29
    119a:	0000                	unimp
    119c:	04c8                	addi	a0,sp,580
    119e:	8000                	.insn	2, 0x8000
    11a0:	0000                	unimp
    11a2:	0000                	unimp
    11a4:	002c                	addi	a1,sp,8
    11a6:	0000                	unimp
    11a8:	5001                	c.li	zero,-32
    11aa:	d102                	sw	zero,160(sp)
    11ac:	0011                	c.nop	4
    11ae:	0100                	addi	s0,sp,128
    11b0:	10a6                	slli	ra,ra,0x29
    11b2:	0000                	unimp
    11b4:	0866                	slli	a6,a6,0x19
    11b6:	0000                	unimp
    11b8:	9a01                	andi	a2,a2,-32
    11ba:	0010                	.insn	2, 0x0010
    11bc:	7300                	ld	s0,32(a4)
    11be:	0008                	.insn	2, 0x0008
    11c0:	0400                	addi	s0,sp,512
    11c2:	002c                	addi	a1,sp,8
    11c4:	0000                	unimp
    11c6:	b205                	j	ae6 <__stack_align+0xad6>
    11c8:	0010                	.insn	2, 0x0010
    11ca:	7300                	ld	s0,32(a4)
    11cc:	0008                	.insn	2, 0x0008
    11ce:	0000                	unimp
    11d0:	0f00                	addi	s0,sp,912
    11d2:	108d                	addi	ra,ra,-29
    11d4:	0000                	unimp
    11d6:	04d4                	addi	a3,sp,580
    11d8:	8000                	.insn	2, 0x8000
    11da:	0000                	unimp
    11dc:	0000                	unimp
    11de:	0008                	.insn	2, 0x0008
    11e0:	0000                	unimp
    11e2:	0000                	unimp
    11e4:	0000                	unimp
    11e6:	0151                	addi	sp,sp,20
    11e8:	10a6                	slli	ra,ra,0x29
    11ea:	0000                	unimp
    11ec:	0885                	addi	a7,a7,1 # 20000001 <__heap_size+0x1ffe0001>
    11ee:	0000                	unimp
    11f0:	9a01                	andi	a2,a2,-32
    11f2:	0010                	.insn	2, 0x0010
    11f4:	9300                	.insn	2, 0x9300
    11f6:	0008                	.insn	2, 0x0008
    11f8:	0500                	addi	s0,sp,640
    11fa:	10b2                	slli	ra,ra,0x2c
    11fc:	0000                	unimp
    11fe:	00000893          	li	a7,0
    1202:	0000                	unimp
    1204:	cd00                	sw	s0,24(a0)
    1206:	0000                	unimp
    1208:	0500                	addi	s0,sp,640
    120a:	0100                	addi	s0,sp,128
    120c:	b308                	fsd	fa0,32(a4)
    120e:	0002                	c.slli64	zero
    1210:	0200                	addi	s0,sp,256
    1212:	023e                	slli	tp,tp,0xf
    1214:	0000                	unimp
    1216:	571d                	li	a4,-25
    1218:	0002                	c.slli64	zero
    121a:	0f00                	addi	s0,sp,912
    121c:	0002                	c.slli64	zero
    121e:	4400                	lw	s0,8(s0)
    1220:	001d                	c.nop	7
    1222:	0080                	addi	s0,sp,64
    1224:	0000                	unimp
    1226:	1400                	addi	s0,sp,544
    1228:	0000                	unimp
    122a:	0000                	unimp
    122c:	0000                	unimp
    122e:	6500                	ld	s0,8(a0)
    1230:	000e                	c.slli	zero,0x3
    1232:	0300                	addi	s0,sp,384
    1234:	0504                	addi	s1,sp,640
    1236:	6e69                	lui	t3,0x1a
    1238:	0074                	addi	a3,sp,12
    123a:	0801                	addi	a6,a6,0
    123c:	1005                	c.nop	-31
    123e:	0001                	nop
    1240:	0100                	addi	s0,sp,128
    1242:	0708                	addi	a0,sp,896
    1244:	00d0                	addi	a2,sp,68
    1246:	0000                	unimp
    1248:	0801                	addi	a6,a6,0
    124a:	0b05                	addi	s6,s6,1 # fffffffffffe0001 <__heap_end+0xffffffff7ffbd001>
    124c:	0001                	nop
    124e:	0100                	addi	s0,sp,128
    1250:	0410                	addi	a2,sp,512
    1252:	02d4                	addi	a3,sp,324
    1254:	0000                	unimp
    1256:	0401                	addi	s0,s0,0
    1258:	0000d507          	.insn	4, 0xd507
    125c:	0100                	addi	s0,sp,128
    125e:	0601                	addi	a2,a2,0 # 15000 <__stack_size+0xd000>
    1260:	0090                	addi	a2,sp,64
    1262:	0000                	unimp
    1264:	0101                	addi	sp,sp,0
    1266:	8e08                	.insn	2, 0x8e08
    1268:	0000                	unimp
    126a:	0100                	addi	s0,sp,128
    126c:	0502                	c.slli64	a0
    126e:	0042                	c.slli	zero,0x10
    1270:	0000                	unimp
    1272:	0201                	addi	tp,tp,0 # 0 <__boot_hart>
    1274:	0000f807          	.insn	4, 0xf807
    1278:	0100                	addi	s0,sp,128
    127a:	0801                	addi	a6,a6,0
    127c:	00000097          	auipc	ra,0x0
    1280:	0801                	addi	a6,a6,0
    1282:	0000cb07          	.insn	4, 0xcb07
    1286:	0400                	addi	s0,sp,512
    1288:	02cc                	addi	a1,sp,324
    128a:	0000                	unimp
    128c:	1302                	slli	t1,t1,0x20
    128e:	8e0d                	sub	a2,a2,a1
    1290:	0000                	unimp
    1292:	0500                	addi	s0,sp,640
    1294:	2e08                	fld	fa0,24(a2)
    1296:	0000                	unimp
    1298:	0600                	addi	s0,sp,768
    129a:	0232                	slli	tp,tp,0xc
    129c:	0000                	unimp
    129e:	0401                	addi	s0,s0,0
    12a0:	2e05                	addiw	t3,t3,1 # 1a001 <__stack_size+0x12001>
    12a2:	0000                	unimp
    12a4:	4400                	lw	s0,8(s0)
    12a6:	001d                	c.nop	7
    12a8:	0080                	addi	s0,sp,64
    12aa:	0000                	unimp
    12ac:	1400                	addi	s0,sp,544
    12ae:	0000                	unimp
    12b0:	0000                	unimp
    12b2:	0000                	unimp
    12b4:	0100                	addi	s0,sp,128
    12b6:	079c                	addi	a5,sp,960
    12b8:	0239                	addi	tp,tp,14 # e <__boot_hart+0xe>
    12ba:	0000                	unimp
    12bc:	0401                	addi	s0,s0,0
    12be:	2e10                	fld	fa2,24(a2)
    12c0:	0000                	unimp
    12c2:	b100                	fsd	fs0,32(a0)
    12c4:	0008                	.insn	2, 0x0008
    12c6:	0800                	addi	s0,sp,16
    12c8:	1d4c                	addi	a1,sp,692
    12ca:	8000                	.insn	2, 0x8000
    12cc:	0000                	unimp
    12ce:	0000                	unimp
    12d0:	0082                	c.slli64	ra
    12d2:	0000                	unimp
    12d4:	0000                	unimp
    12d6:	02da                	slli	t0,t0,0x16
    12d8:	0000                	unimp
    12da:	0005                	c.nop	1
    12dc:	0801                	addi	a6,a6,0
    12de:	0330                	addi	a2,sp,392
    12e0:	0000                	unimp
    12e2:	3e06                	fld	ft8,96(sp)
    12e4:	0002                	c.slli64	zero
    12e6:	1d00                	addi	s0,sp,688
    12e8:	0275                	addi	tp,tp,29 # 1d <__stack_align+0xd>
    12ea:	0000                	unimp
    12ec:	0000020f          	.insn	4, 0x020f
    12f0:	1d58                	addi	a4,sp,692
    12f2:	8000                	.insn	2, 0x8000
    12f4:	0000                	unimp
    12f6:	0000                	unimp
    12f8:	0014                	.insn	2, 0x0014
    12fa:	0000                	unimp
    12fc:	0000                	unimp
    12fe:	0000                	unimp
    1300:	00000efb          	.insn	4, 0x0efb
    1304:	69050407          	.insn	4, 0x69050407
    1308:	746e                	ld	s0,248(sp)
    130a:	0300                	addi	s0,sp,384
    130c:	0508                	addi	a0,sp,640
    130e:	0110                	addi	a2,sp,128
    1310:	0000                	unimp
    1312:	d0070803          	lb	a6,-768(a4)
    1316:	0000                	unimp
    1318:	0300                	addi	s0,sp,384
    131a:	0508                	addi	a0,sp,640
    131c:	0000010b          	.insn	4, 0x010b
    1320:	d4041003          	lh	zero,-704(s0)
    1324:	0002                	c.slli64	zero
    1326:	0300                	addi	s0,sp,384
    1328:	0704                	addi	s1,sp,896
    132a:	00d5                	addi	ra,ra,21 # 1291 <__stack_align+0x1281>
    132c:	0000                	unimp
    132e:	90060103          	lb	sp,-1792(a2)
    1332:	0000                	unimp
    1334:	0300                	addi	s0,sp,384
    1336:	0801                	addi	a6,a6,0
    1338:	008e                	slli	ra,ra,0x3
    133a:	0000                	unimp
    133c:	42050203          	lb	tp,1056(a0)
    1340:	0000                	unimp
    1342:	0300                	addi	s0,sp,384
    1344:	0702                	c.slli64	a4
    1346:	00f8                	addi	a4,sp,76
    1348:	0000                	unimp
    134a:	a301                	j	184a <__stack_align+0x183a>
    134c:	0000                	unimp
    134e:	0200                	addi	s0,sp,256
    1350:	0051194f          	fnmadd.s	fs2,ft2,ft5,ft0,rtz
    1354:	0000                	unimp
    1356:	6c01                	.insn	2, 0x6c01
    1358:	03000003          	lb	zero,48(zero) # 30 <__stack_align+0x20>
    135c:	0e1e                	slli	t3,t3,0x7
    135e:	0035                	c.nop	13
    1360:	0000                	unimp
    1362:	6001                	.insn	2, 0x6001
    1364:	03000003          	lb	zero,48(zero) # 30 <__stack_align+0x20>
    1368:	0e22                	slli	t3,t3,0x8
    136a:	0035                	c.nop	13
    136c:	0000                	unimp
    136e:	8f01                	sub	a4,a4,s0
    1370:	03000003          	lb	zero,48(zero) # 30 <__stack_align+0x20>
    1374:	0e2e                	slli	t3,t3,0xb
    1376:	0035                	c.nop	13
    1378:	0000                	unimp
    137a:	2501                	sext.w	a0,a0
    137c:	03000003          	lb	zero,48(zero) # 30 <__stack_align+0x20>
    1380:	0f38                	addi	a4,sp,920
    1382:	0066                	c.slli	zero,0x19
    1384:	0000                	unimp
    1386:	e001                	bnez	s0,1386 <__stack_align+0x1376>
    1388:	0002                	c.slli64	zero
    138a:	0300                	addi	s0,sp,384
    138c:	183c                	addi	a5,sp,56
    138e:	006d                	c.nop	27
    1390:	0000                	unimp
    1392:	8601                	c.srai64	a2
    1394:	03000003          	lb	zero,48(zero) # 30 <__stack_align+0x20>
    1398:	006d183f b6010000 	.insn	8, 0xb6010000006d183f
    13a0:	03000003          	lb	zero,48(zero) # 30 <__stack_align+0x20>
    13a4:	006d184b          	fnmsub.s	fa6,fs10,ft6,ft0,rtz
    13a8:	0000                	unimp
    13aa:	ad01                	j	19ba <__stack_align+0x19aa>
    13ac:	03000003          	lb	zero,48(zero) # 30 <__stack_align+0x20>
    13b0:	145a                	slli	s0,s0,0x36
    13b2:	0074                	addi	a3,sp,12
    13b4:	0000                	unimp
    13b6:	8e01                	sub	a2,a2,s0
    13b8:	03000003          	lb	zero,48(zero) # 30 <__stack_align+0x20>
    13bc:	1066                	c.slli	zero,0x39
    13be:	0098                	addi	a4,sp,64
    13c0:	0000                	unimp
    13c2:	4e01                	li	t3,0
    13c4:	03000003          	lb	zero,48(zero) # 30 <__stack_align+0x20>
    13c8:	18d5                	addi	a7,a7,-11
    13ca:	006d                	c.nop	27
    13cc:	0000                	unimp
    13ce:	97080103          	lb	sp,-1680(a6)
    13d2:	0000                	unimp
    13d4:	0300                	addi	s0,sp,384
    13d6:	0708                	addi	a0,sp,896
    13d8:	000000cb          	fnmsub.s	ft1,ft0,ft0,ft0,rne
    13dc:	6e01                	.insn	2, 0x6e01
    13de:	04000003          	lb	zero,64(zero) # 40 <__stack_align+0x30>
    13e2:	1461                	addi	s0,s0,-8
    13e4:	0080                	addi	s0,sp,64
    13e6:	0000                	unimp
    13e8:	6201                	.insn	2, 0x6201
    13ea:	04000003          	lb	zero,64(zero) # 40 <__stack_align+0x30>
    13ee:	1566                	slli	a0,a0,0x39
    13f0:	008c                	addi	a1,sp,64
    13f2:	0000                	unimp
    13f4:	4701                	li	a4,0
    13f6:	04000003          	lb	zero,64(zero) # 40 <__stack_align+0x30>
    13fa:	1271                	addi	tp,tp,-4 # fffffffffffffffc <__heap_end+0xffffffff7ffdcffc>
    13fc:	0035                	c.nop	13
    13fe:	0000                	unimp
    1400:	b801                	j	c10 <__stack_align+0xc00>
    1402:	04000003          	lb	zero,64(zero) # 40 <__stack_align+0x30>
    1406:	1289                	addi	t0,t0,-30
    1408:	00c8                	addi	a0,sp,68
    140a:	0000                	unimp
    140c:	9001                	srli	s0,s0,0x20
    140e:	04000003          	lb	zero,64(zero) # 40 <__stack_align+0x30>
    1412:	00e0129b          	slliw	t0,zero,0xe
    1416:	0000                	unimp
    1418:	2701                	sext.w	a4,a4
    141a:	04000003          	lb	zero,64(zero) # 40 <__stack_align+0x30>
    141e:	129f 00a4 0000      	.insn	6, 0x00a4129f
    1424:	e201                	bnez	a2,1424 <__stack_align+0x1414>
    1426:	0002                	c.slli64	zero
    1428:	0400                	addi	s0,sp,512
    142a:	00b012a3          	sh	a1,5(zero) # 5 <__boot_hart+0x5>
    142e:	0000                	unimp
    1430:	8801                	andi	s0,s0,0
    1432:	04000003          	lb	zero,64(zero) # 40 <__stack_align+0x30>
    1436:	00bc12a7          	.insn	4, 0x00bc12a7
    143a:	0000                	unimp
    143c:	af01                	j	1b4c <__stack_align+0x1b3c>
    143e:	04000003          	lb	zero,64(zero) # 40 <__stack_align+0x30>
    1442:	00d412bb          	sllw	t0,s0,a3
    1446:	0000                	unimp
    1448:	5001                	c.li	zero,-32
    144a:	04000003          	lb	zero,64(zero) # 40 <__stack_align+0x30>
    144e:	13c0                	addi	s0,sp,484
    1450:	00ec                	addi	a1,sp,76
    1452:	0000                	unimp
    1454:	9d04                	.insn	2, 0x9d04
    1456:	10000003          	lb	zero,256(zero) # 100 <__stack_align+0xf0>
    145a:	2f05                	addiw	t5,t5,1
    145c:	01a5                	addi	gp,gp,9 # 80002cd9 <__global_pointer$+0x9>
    145e:	0000                	unimp
    1460:	9602                	jalr	a2
    1462:	05000003          	lb	zero,80(zero) # 50 <__stack_align+0x40>
    1466:	0930                	addi	a2,sp,152
    1468:	011e                	slli	sp,sp,0x7
    146a:	0000                	unimp
    146c:	0200                	addi	s0,sp,256
    146e:	02f1                	addi	t0,t0,28
    1470:	0000                	unimp
    1472:	3105                	addiw	sp,sp,-31
    1474:	00003507          	fld	fa0,0(zero) # 0 <__boot_hart>
    1478:	0800                	addi	s0,sp,16
    147a:	0400                	addi	s0,sp,512
    147c:	03a8                	addi	a0,sp,456
    147e:	0000                	unimp
    1480:	0668                	addi	a0,sp,780
    1482:	0002681b          	.insn	4, 0x0002681b
    1486:	0200                	addi	s0,sp,256
    1488:	03be                	slli	t2,t2,0xf
    148a:	0000                	unimp
    148c:	1d06                	slli	s10,s10,0x21
    148e:	420a                	lw	tp,128(sp)
    1490:	0001                	nop
    1492:	0000                	unimp
    1494:	0902                	c.slli64	s2
    1496:	06000003          	lb	zero,96(zero) # 60 <__stack_align+0x50>
    149a:	0a1e                	slli	s4,s4,0x7
    149c:	012a                	slli	sp,sp,0xa
    149e:	0000                	unimp
    14a0:	0202                	c.slli64	tp
    14a2:	00000337          	lui	t1,0x0
    14a6:	1f06                	slli	t5,t5,0x21
    14a8:	660a                	ld	a2,128(sp)
    14aa:	0001                	nop
    14ac:	0400                	addi	s0,sp,512
    14ae:	e802                	sd	zero,16(sp)
    14b0:	0002                	c.slli64	zero
    14b2:	0600                	addi	s0,sp,768
    14b4:	0b20                	addi	s0,sp,408
    14b6:	0172                	slli	sp,sp,0x1c
    14b8:	0000                	unimp
    14ba:	0208                	addi	a0,sp,256
    14bc:	037f 0000 2106 4e0a 	.insn	10, 0x00014e0a21060000037f
    14c4:	0001 
    14c6:	0a00                	addi	s0,sp,272
    14c8:	c502                	sw	zero,136(sp)
    14ca:	06000003          	lb	zero,96(zero) # 60 <__stack_align+0x50>
    14ce:	0a22                	slli	s4,s4,0x8
    14d0:	015a                	slli	sp,sp,0x16
    14d2:	0000                	unimp
    14d4:	020c                	addi	a1,sp,256
    14d6:	0358                	addi	a4,sp,388
    14d8:	0000                	unimp
    14da:	2306                	fld	ft6,64(sp)
    14dc:	420a                	lw	tp,128(sp)
    14de:	0001                	nop
    14e0:	0e00                	addi	s0,sp,784
    14e2:	f902                	sd	zero,176(sp)
    14e4:	0002                	c.slli64	zero
    14e6:	0600                	addi	s0,sp,768
    14e8:	0a24                	addi	s1,sp,280
    14ea:	0136                	slli	sp,sp,0xd
    14ec:	0000                	unimp
    14ee:	0210                	addi	a2,sp,256
    14f0:	0000033f 7e132a06 	.insn	8, 0x7e132a060000033f
    14f8:	0001                	nop
    14fa:	1800                	addi	s0,sp,48
    14fc:	0102                	c.slli64	sp
    14fe:	06000003          	lb	zero,96(zero) # 60 <__stack_align+0x50>
    1502:	017e132b          	.insn	4, 0x017e132b
    1506:	0000                	unimp
    1508:	0228                	addi	a0,sp,264
    150a:	00000377          	.insn	4, 0x0377
    150e:	2c06                	fld	fs8,64(sp)
    1510:	00017e13          	andi	t3,sp,0
    1514:	3800                	fld	fs0,48(s0)
    1516:	1002                	c.slli	zero,0x20
    1518:	06000003          	lb	zero,96(zero) # 60 <__stack_align+0x50>
    151c:	112d                	addi	sp,sp,-21
    151e:	0112                	slli	sp,sp,0x4
    1520:	0000                	unimp
    1522:	0248                	addi	a0,sp,260
    1524:	032d                	addi	t1,t1,11 # b <__boot_hart+0xb>
    1526:	0000                	unimp
    1528:	2e06                	fld	ft8,64(sp)
    152a:	060c                	addi	a1,sp,768
    152c:	0001                	nop
    152e:	5000                	lw	s0,32(s0)
    1530:	1b02                	slli	s6,s6,0x20
    1532:	06000003          	lb	zero,96(zero) # 60 <__stack_align+0x50>
    1536:	0930                	addi	a2,sp,152
    1538:	0268                	addi	a0,sp,268
    153a:	0000                	unimp
    153c:	0058                	addi	a4,sp,4
    153e:	3508                	fld	fa0,40(a0)
    1540:	0000                	unimp
    1542:	7800                	ld	s0,48(s0)
    1544:	0002                	c.slli64	zero
    1546:	0900                	addi	s0,sp,144
    1548:	003c                	addi	a5,sp,8
    154a:	0000                	unimp
    154c:	0001                	nop
    154e:	cc0a                	sw	sp,24(sp)
    1550:	0002                	c.slli64	zero
    1552:	0700                	addi	s0,sp,896
    1554:	02840d13          	addi	s10,s0,40
    1558:	0000                	unimp
    155a:	2e05                	addiw	t3,t3,1
    155c:	0000                	unimp
    155e:	0b00                	addi	s0,sp,400
    1560:	03a6                	slli	t2,t2,0x9
    1562:	0000                	unimp
    1564:	0501                	addi	a0,a0,0
    1566:	2e05                	addiw	t3,t3,1
    1568:	0000                	unimp
    156a:	5800                	lw	s0,48(s0)
    156c:	001d                	c.nop	7
    156e:	0080                	addi	s0,sp,64
    1570:	0000                	unimp
    1572:	1400                	addi	s0,sp,544
    1574:	0000                	unimp
    1576:	0000                	unimp
    1578:	0000                	unimp
    157a:	0100                	addi	s0,sp,128
    157c:	d89c                	sw	a5,48(s1)
    157e:	0002                	c.slli64	zero
    1580:	0c00                	addi	s0,sp,528
    1582:	0239                	addi	tp,tp,14 # e <__boot_hart+0xe>
    1584:	0000                	unimp
    1586:	0501                	addi	a0,a0,0
    1588:	2e10                	fld	fa2,24(a2)
    158a:	0000                	unimp
    158c:	cb00                	sw	s0,16(a4)
    158e:	0008                	.insn	2, 0x0008
    1590:	0d00                	addi	s0,sp,656
    1592:	01007473          	csrrci	s0,0x10,0
    1596:	2305                	addiw	t1,t1,1
    1598:	02d8                	addi	a4,sp,324
    159a:	0000                	unimp
    159c:	08d9                	addi	a7,a7,22
    159e:	0000                	unimp
    15a0:	600e                	.insn	2, 0x600e
    15a2:	001d                	c.nop	7
    15a4:	0080                	addi	s0,sp,64
    15a6:	0000                	unimp
    15a8:	7800                	ld	s0,48(s0)
    15aa:	0002                	c.slli64	zero
    15ac:	0000                	unimp
    15ae:	a505                	j	1bce <__stack_align+0x1bbe>
    15b0:	0001                	nop
    15b2:	0000                	unimp
    15b4:	000000a7          	.insn	4, 0x00a7
    15b8:	0005                	c.nop	1
    15ba:	0801                	addi	a6,a6,0
    15bc:	0405                	addi	s0,s0,1
    15be:	0000                	unimp
    15c0:	3e02                	fld	ft8,32(sp)
    15c2:	0002                	c.slli64	zero
    15c4:	1d00                	addi	s0,sp,688
    15c6:	00000297          	auipc	t0,0x0
    15ca:	0000020f          	.insn	4, 0x020f
    15ce:	1d6c                	addi	a1,sp,700
    15d0:	8000                	.insn	2, 0x8000
    15d2:	0000                	unimp
    15d4:	0000                	unimp
    15d6:	0008                	.insn	2, 0x0008
    15d8:	0000                	unimp
    15da:	0000                	unimp
    15dc:	0000                	unimp
    15de:	0fae                	slli	t6,t6,0xb
    15e0:	0000                	unimp
    15e2:	0101                	addi	sp,sp,0
    15e4:	9006                	c.add	zero,ra
    15e6:	0000                	unimp
    15e8:	0100                	addi	s0,sp,128
    15ea:	0801                	addi	a6,a6,0
    15ec:	008e                	slli	ra,ra,0x3
    15ee:	0000                	unimp
    15f0:	0201                	addi	tp,tp,0 # 0 <__boot_hart>
    15f2:	4205                	li	tp,1
    15f4:	0000                	unimp
    15f6:	0100                	addi	s0,sp,128
    15f8:	0702                	c.slli64	a4
    15fa:	00f8                	addi	a4,sp,76
    15fc:	0000                	unimp
    15fe:	69050403          	lb	s0,1680(a0)
    1602:	746e                	ld	s0,248(sp)
    1604:	0100                	addi	s0,sp,128
    1606:	0704                	addi	s1,sp,896
    1608:	00d5                	addi	ra,ra,21
    160a:	0000                	unimp
    160c:	0801                	addi	a6,a6,0
    160e:	1005                	c.nop	-31
    1610:	0001                	nop
    1612:	0100                	addi	s0,sp,128
    1614:	0708                	addi	a0,sp,896
    1616:	00d0                	addi	a2,sp,68
    1618:	0000                	unimp
    161a:	0801                	addi	a6,a6,0
    161c:	0b05                	addi	s6,s6,1
    161e:	0001                	nop
    1620:	0100                	addi	s0,sp,128
    1622:	0801                	addi	a6,a6,0
    1624:	00000097          	auipc	ra,0x0
    1628:	1001                	c.nop	-32
    162a:	d404                	sw	s1,40(s0)
    162c:	0002                	c.slli64	zero
    162e:	0400                	addi	s0,sp,512
    1630:	03cc                	addi	a1,sp,452
    1632:	0000                	unimp
    1634:	0401                	addi	s0,s0,0
    1636:	4a05                	li	s4,1
    1638:	0000                	unimp
    163a:	6c00                	ld	s0,24(s0)
    163c:	001d                	c.nop	7
    163e:	0080                	addi	s0,sp,64
    1640:	0000                	unimp
    1642:	0800                	addi	s0,sp,16
    1644:	0000                	unimp
    1646:	0000                	unimp
    1648:	0000                	unimp
    164a:	0100                	addi	s0,sp,128
    164c:	059c                	addi	a5,sp,704
    164e:	0239                	addi	tp,tp,14 # e <__boot_hart+0xe>
    1650:	0000                	unimp
    1652:	0401                	addi	s0,s0,0
    1654:	4a11                	li	s4,4
    1656:	0000                	unimp
    1658:	f300                	sd	s0,32(a4)
    165a:	0008                	.insn	2, 0x0008
    165c:	0000                	unimp
    165e:	0d00                	addi	s0,sp,656
    1660:	0001                	nop
    1662:	0500                	addi	s0,sp,640
    1664:	0100                	addi	s0,sp,128
    1666:	5b08                	lw	a0,48(a4)
    1668:	0004                	.insn	2, 0x0004
    166a:	0400                	addi	s0,sp,512
    166c:	023e                	slli	tp,tp,0xf
    166e:	0000                	unimp
    1670:	a71d                	j	1d96 <__stack_align+0x1d86>
    1672:	0002                	c.slli64	zero
    1674:	0f00                	addi	s0,sp,912
    1676:	0002                	c.slli64	zero
    1678:	7400                	ld	s0,40(s0)
    167a:	001d                	c.nop	7
    167c:	0080                	addi	s0,sp,64
    167e:	0000                	unimp
    1680:	1400                	addi	s0,sp,544
    1682:	0000                	unimp
    1684:	0000                	unimp
    1686:	0000                	unimp
    1688:	1500                	addi	s0,sp,672
    168a:	0010                	.insn	2, 0x0010
    168c:	0500                	addi	s0,sp,640
    168e:	0504                	addi	s1,sp,640
    1690:	6e69                	lui	t3,0x1a
    1692:	0074                	addi	a3,sp,12
    1694:	0801                	addi	a6,a6,0
    1696:	1005                	c.nop	-31
    1698:	0001                	nop
    169a:	0100                	addi	s0,sp,128
    169c:	0708                	addi	a0,sp,896
    169e:	00d0                	addi	a2,sp,68
    16a0:	0000                	unimp
    16a2:	0801                	addi	a6,a6,0
    16a4:	0b05                	addi	s6,s6,1
    16a6:	0001                	nop
    16a8:	0100                	addi	s0,sp,128
    16aa:	0410                	addi	a2,sp,512
    16ac:	02d4                	addi	a3,sp,324
    16ae:	0000                	unimp
    16b0:	0401                	addi	s0,s0,0
    16b2:	0000d507          	.insn	4, 0xd507
    16b6:	0100                	addi	s0,sp,128
    16b8:	0601                	addi	a2,a2,0
    16ba:	0090                	addi	a2,sp,64
    16bc:	0000                	unimp
    16be:	0101                	addi	sp,sp,0
    16c0:	8e08                	.insn	2, 0x8e08
    16c2:	0000                	unimp
    16c4:	0100                	addi	s0,sp,128
    16c6:	0502                	c.slli64	a0
    16c8:	0042                	c.slli	zero,0x10
    16ca:	0000                	unimp
    16cc:	0201                	addi	tp,tp,0 # 0 <__boot_hart>
    16ce:	0000f807          	.insn	4, 0xf807
    16d2:	0200                	addi	s0,sp,256
    16d4:	0000038f          	.insn	4, 0x038f
    16d8:	2e02                	fld	ft8,0(sp)
    16da:	350e                	fld	fa0,224(sp)
    16dc:	0000                	unimp
    16de:	0200                	addi	s0,sp,256
    16e0:	038e                	slli	t2,t2,0x3
    16e2:	0000                	unimp
    16e4:	6602                	ld	a2,0(sp)
    16e6:	7410                	ld	a2,40(s0)
    16e8:	0000                	unimp
    16ea:	0100                	addi	s0,sp,128
    16ec:	0801                	addi	a6,a6,0
    16ee:	00000097          	auipc	ra,0x0
    16f2:	0801                	addi	a6,a6,0
    16f4:	0000cb07          	.insn	4, 0xcb07
    16f8:	0200                	addi	s0,sp,256
    16fa:	0390                	addi	a2,sp,448
    16fc:	0000                	unimp
    16fe:	80129b03          	lh	s6,-2047(t0) # dc7 <__stack_align+0xdb7>
    1702:	0000                	unimp
    1704:	0600                	addi	s0,sp,768
    1706:	02cc                	addi	a1,sp,324
    1708:	0000                	unimp
    170a:	1304                	addi	s1,sp,416
    170c:	b20d                	j	102e <__stack_align+0x101e>
    170e:	0000                	unimp
    1710:	0700                	addi	s0,sp,896
    1712:	2e08                	fld	fa0,24(a2)
    1714:	0000                	unimp
    1716:	0800                	addi	s0,sp,16
    1718:	03d4                	addi	a3,sp,452
    171a:	0000                	unimp
    171c:	0501                	addi	a0,a0,0
    171e:	00009a07          	.insn	4, 0x9a07
    1722:	7400                	ld	s0,40(s0)
    1724:	001d                	c.nop	7
    1726:	0080                	addi	s0,sp,64
    1728:	0000                	unimp
    172a:	1400                	addi	s0,sp,544
    172c:	0000                	unimp
    172e:	0000                	unimp
    1730:	0000                	unimp
    1732:	0100                	addi	s0,sp,128
    1734:	099c                	addi	a5,sp,208
    1736:	0239                	addi	tp,tp,14 # e <__boot_hart+0xe>
    1738:	0000                	unimp
    173a:	0501                	addi	a0,a0,0
    173c:	2e12                	fld	ft8,256(sp)
    173e:	0000                	unimp
    1740:	0d00                	addi	s0,sp,656
    1742:	0009                	c.nop	2
    1744:	0300                	addi	s0,sp,384
    1746:	7470                	ld	a2,232(s0)
    1748:	0072                	c.slli	zero,0x1c
    174a:	9a1e                	add	s4,s4,t2
    174c:	0000                	unimp
    174e:	1b00                	addi	s0,sp,432
    1750:	0009                	c.nop	2
    1752:	0300                	addi	s0,sp,384
    1754:	6964                	ld	s1,208(a0)
    1756:	0072                	c.slli	zero,0x1c
    1758:	00002e27          	fsw	ft0,28(zero) # 1c <__stack_align+0xc>
    175c:	2900                	fld	fs0,16(a0)
    175e:	0009                	c.nop	2
    1760:	0a00                	addi	s0,sp,272
    1762:	1d7c                	addi	a5,sp,700
    1764:	8000                	.insn	2, 0x8000
    1766:	0000                	unimp
    1768:	0000                	unimp
    176a:	00a6                	slli	ra,ra,0x9
    176c:	0000                	unimp
    176e:	0000                	unimp
    1770:	0000010f          	.insn	4, 0x010f
    1774:	0005                	c.nop	1
    1776:	0801                	addi	a6,a6,0
    1778:	04fa                	slli	s1,s1,0x1e
    177a:	0000                	unimp
    177c:	3e04                	fld	fs1,56(a2)
    177e:	0002                	c.slli64	zero
    1780:	1d00                	addi	s0,sp,688
    1782:	02b6                	slli	t0,t0,0xd
    1784:	0000                	unimp
    1786:	0000020f          	.insn	4, 0x020f
    178a:	1d88                	addi	a0,sp,752
    178c:	8000                	.insn	2, 0x8000
    178e:	0000                	unimp
    1790:	0000                	unimp
    1792:	0016                	c.slli	zero,0x5
    1794:	0000                	unimp
    1796:	0000                	unimp
    1798:	0000                	unimp
    179a:	10b5                	addi	ra,ra,-19 # 16db <__stack_align+0x16cb>
    179c:	0000                	unimp
    179e:	0405                	addi	s0,s0,1
    17a0:	6905                	lui	s2,0x1
    17a2:	746e                	ld	s0,248(sp)
    17a4:	0100                	addi	s0,sp,128
    17a6:	0508                	addi	a0,sp,640
    17a8:	0110                	addi	a2,sp,128
    17aa:	0000                	unimp
    17ac:	6502                	ld	a0,0(sp)
    17ae:	02000003          	lb	zero,32(zero) # 20 <__stack_align+0x10>
    17b2:	17d6                	slli	a5,a5,0x35
    17b4:	0048                	addi	a0,sp,4
    17b6:	0000                	unimp
    17b8:	0801                	addi	a6,a6,0
    17ba:	0000d007          	.insn	4, 0xd007
    17be:	0100                	addi	s0,sp,128
    17c0:	0508                	addi	a0,sp,640
    17c2:	0000010b          	.insn	4, 0x010b
    17c6:	1001                	c.nop	-32
    17c8:	d404                	sw	s1,40(s0)
    17ca:	0002                	c.slli64	zero
    17cc:	0100                	addi	s0,sp,128
    17ce:	0704                	addi	s1,sp,896
    17d0:	00d5                	addi	ra,ra,21
    17d2:	0000                	unimp
    17d4:	0101                	addi	sp,sp,0
    17d6:	9006                	c.add	zero,ra
    17d8:	0000                	unimp
    17da:	0100                	addi	s0,sp,128
    17dc:	0801                	addi	a6,a6,0
    17de:	008e                	slli	ra,ra,0x3
    17e0:	0000                	unimp
    17e2:	0201                	addi	tp,tp,0 # 0 <__boot_hart>
    17e4:	4205                	li	tp,1
    17e6:	0000                	unimp
    17e8:	0100                	addi	s0,sp,128
    17ea:	0702                	c.slli64	a4
    17ec:	00f8                	addi	a4,sp,76
    17ee:	0000                	unimp
    17f0:	e102                	sd	zero,128(sp)
    17f2:	03000003          	lb	zero,48(zero) # 30 <__stack_align+0x20>
    17f6:	00351793          	slli	a5,a0,0x3
    17fa:	0000                	unimp
    17fc:	0806                	slli	a6,a6,0x1
    17fe:	0101                	addi	sp,sp,0
    1800:	9708                	.insn	2, 0x9708
    1802:	0000                	unimp
    1804:	0100                	addi	s0,sp,128
    1806:	0708                	addi	a0,sp,896
    1808:	000000cb          	fnmsub.s	ft1,ft0,ft0,ft0,rne
    180c:	e202                	sd	zero,256(sp)
    180e:	04000003          	lb	zero,64(zero) # 40 <__stack_align+0x30>
    1812:	12b6                	slli	t0,t0,0x2d
    1814:	0080                	addi	s0,sp,64
    1816:	0000                	unimp
    1818:	0002cc07          	.insn	4, 0x0002cc07
    181c:	0500                	addi	s0,sp,640
    181e:	00b40d13          	addi	s10,s0,11
    1822:	0000                	unimp
    1824:	0808                	addi	a0,sp,16
    1826:	002e                	c.slli	zero,0xb
    1828:	0000                	unimp
    182a:	db09                	beqz	a4,173c <__stack_align+0x172c>
    182c:	01000003          	lb	zero,16(zero) # 10 <__stack_align>
    1830:	0905                	addi	s2,s2,1 # 1001 <__stack_align+0xff1>
    1832:	009c                	addi	a5,sp,64
    1834:	0000                	unimp
    1836:	1d88                	addi	a0,sp,752
    1838:	8000                	.insn	2, 0x8000
    183a:	0000                	unimp
    183c:	0000                	unimp
    183e:	0016                	c.slli	zero,0x5
    1840:	0000                	unimp
    1842:	0000                	unimp
    1844:	0000                	unimp
    1846:	9c01                	subw	s0,s0,s0
    1848:	390a                	fld	fs2,160(sp)
    184a:	0002                	c.slli64	zero
    184c:	0100                	addi	s0,sp,128
    184e:	1305                	addi	t1,t1,-31
    1850:	002e                	c.slli	zero,0xb
    1852:	0000                	unimp
    1854:	00000943          	fmadd.s	fs2,ft0,ft0,ft0,rne
    1858:	72747003          	.insn	4, 0x72747003
    185c:	1f00                	addi	s0,sp,944
    185e:	008c                	addi	a1,sp,64
    1860:	0000                	unimp
    1862:	0951                	addi	s2,s2,20
    1864:	0000                	unimp
    1866:	6e656c03          	lwu	s8,1766(a0)
    186a:	2b00                	fld	fs0,16(a4)
    186c:	003c                	addi	a5,sp,8
    186e:	0000                	unimp
    1870:	095f 0000 900b      	.insn	6, 0x900b0000095f
    1876:	001d                	c.nop	7
    1878:	0080                	addi	s0,sp,64
    187a:	0000                	unimp
    187c:	a800                	fsd	fs0,16(s0)
    187e:	0000                	unimp
    1880:	0000                	unimp
    1882:	3200                	fld	fs0,32(a2)
    1884:	0001                	nop
    1886:	0500                	addi	s0,sp,640
    1888:	0100                	addi	s0,sp,128
    188a:	a008                	fsd	fa0,0(s0)
    188c:	0005                	c.nop	1
    188e:	0500                	addi	s0,sp,640
    1890:	023e                	slli	tp,tp,0xf
    1892:	0000                	unimp
    1894:	3d1d                	addiw	s10,s10,-25
    1896:	0f000003          	lb	zero,240(zero) # f0 <__stack_align+0xe0>
    189a:	0002                	c.slli64	zero
    189c:	9e00                	.insn	2, 0x9e00
    189e:	001d                	c.nop	7
    18a0:	0080                	addi	s0,sp,64
    18a2:	0000                	unimp
    18a4:	3c00                	fld	fs0,56(s0)
    18a6:	0000                	unimp
    18a8:	0000                	unimp
    18aa:	0000                	unimp
    18ac:	5e00                	lw	s0,56(a2)
    18ae:	0011                	c.nop	4
    18b0:	0600                	addi	s0,sp,768
    18b2:	03ea                	slli	t2,t2,0x1a
    18b4:	0000                	unimp
    18b6:	9102                	jalr	sp
    18b8:	3a1a                	fld	fs4,416(sp)
    18ba:	0000                	unimp
    18bc:	0100                	addi	s0,sp,128
    18be:	0508                	addi	a0,sp,640
    18c0:	0110                	addi	a2,sp,128
    18c2:	0000                	unimp
    18c4:	0801                	addi	a6,a6,0
    18c6:	0000d007          	.insn	4, 0xd007
    18ca:	0700                	addi	s0,sp,896
    18cc:	0504                	addi	s1,sp,640
    18ce:	6e69                	lui	t3,0x1a
    18d0:	0074                	addi	a3,sp,12
    18d2:	0801                	addi	a6,a6,0
    18d4:	0b05                	addi	s6,s6,1
    18d6:	0001                	nop
    18d8:	0100                	addi	s0,sp,128
    18da:	0410                	addi	a2,sp,512
    18dc:	02d4                	addi	a3,sp,324
    18de:	0000                	unimp
    18e0:	0401                	addi	s0,s0,0
    18e2:	0000d507          	.insn	4, 0xd507
    18e6:	0100                	addi	s0,sp,128
    18e8:	0601                	addi	a2,a2,0
    18ea:	0090                	addi	a2,sp,64
    18ec:	0000                	unimp
    18ee:	0101                	addi	sp,sp,0
    18f0:	8e08                	.insn	2, 0x8e08
    18f2:	0000                	unimp
    18f4:	0100                	addi	s0,sp,128
    18f6:	0502                	c.slli64	a0
    18f8:	0042                	c.slli	zero,0x10
    18fa:	0000                	unimp
    18fc:	0201                	addi	tp,tp,0 # 0 <__boot_hart>
    18fe:	0000f807          	.insn	4, 0xf807
    1902:	0800                	addi	s0,sp,16
    1904:	0208                	addi	a0,sp,256
    1906:	00000087          	.insn	4, 0x0087
    190a:	0101                	addi	sp,sp,0
    190c:	9708                	.insn	2, 0x9708
    190e:	0000                	unimp
    1910:	0100                	addi	s0,sp,128
    1912:	0708                	addi	a0,sp,896
    1914:	000000cb          	fnmsub.s	ft1,ft0,ft0,ft0,rne
    1918:	8709                	srai	a4,a4,0x2
    191a:	0000                	unimp
    191c:	a000                	fsd	fs0,0(s0)
    191e:	0000                	unimp
    1920:	0a00                	addi	s0,sp,272
    1922:	0300                	addi	s0,sp,384
    1924:	03fa                	slli	t2,t2,0x1e
    1926:	0000                	unimp
    1928:	0d06                	slli	s10,s10,0x1
    192a:	0095                	addi	ra,ra,5
    192c:	0000                	unimp
    192e:	0003ff0b          	.insn	4, 0x0003ff0b
    1932:	0100                	addi	s0,sp,128
    1934:	00820e07          	.insn	4, 0x00820e07
    1938:	0000                	unimp
    193a:	0309                	addi	t1,t1,2
    193c:	24d8                	fld	fa4,136(s1)
    193e:	8000                	.insn	2, 0x8000
    1940:	0000                	unimp
    1942:	0000                	unimp
    1944:	cc0c                	sw	a1,24(s0)
    1946:	0002                	c.slli64	zero
    1948:	0300                	addi	s0,sp,384
    194a:	00cd0d13          	addi	s10,s10,12
    194e:	0000                	unimp
    1950:	4802                	lw	a6,0(sp)
    1952:	0000                	unimp
    1954:	0d00                	addi	s0,sp,656
    1956:	0406                	slli	s0,s0,0x1
    1958:	0000                	unimp
    195a:	0901                	addi	s2,s2,0
    195c:	00008007          	.insn	4, 0x8007
    1960:	9e00                	.insn	2, 0x9e00
    1962:	001d                	c.nop	7
    1964:	0080                	addi	s0,sp,64
    1966:	0000                	unimp
    1968:	3c00                	fld	fs0,56(s0)
    196a:	0000                	unimp
    196c:	0000                	unimp
    196e:	0000                	unimp
    1970:	0100                	addi	s0,sp,128
    1972:	0e9c                	addi	a5,sp,848
    1974:	040c                	addi	a1,sp,512
    1976:	0000                	unimp
    1978:	0901                	addi	s2,s2,0
    197a:	00002e17          	auipc	t3,0x2
    197e:	7900                	ld	s0,48(a0)
    1980:	0009                	c.nop	2
    1982:	0300                	addi	s0,sp,384
    1984:	03f4                	addi	a3,sp,460
    1986:	0000                	unimp
    1988:	0095110b          	.insn	4, 0x0095110b
    198c:	0000                	unimp
    198e:	1804                	addi	s1,sp,48
    1990:	0004                	.insn	2, 0x0004
    1992:	0c00                	addi	s0,sp,528
    1994:	0082                	c.slli64	ra
    1996:	0000                	unimp
    1998:	00000987          	.insn	4, 0x0987
    199c:	1104                	addi	s1,sp,160
    199e:	0004                	.insn	2, 0x0004
    19a0:	0d00                	addi	s0,sp,656
    19a2:	0082                	c.slli64	ra
    19a4:	0000                	unimp
    19a6:	099f 0000 cc0f      	.insn	6, 0xcc0f0000099f
    19ac:	001d                	c.nop	7
    19ae:	0080                	addi	s0,sp,64
    19b0:	0000                	unimp
    19b2:	c100                	sw	s0,0(a0)
    19b4:	0000                	unimp
    19b6:	0000                	unimp
    19b8:	7400                	ld	s0,40(s0)
    19ba:	0001                	nop
    19bc:	0500                	addi	s0,sp,640
    19be:	0100                	addi	s0,sp,128
    19c0:	7a08                	ld	a0,48(a2)
    19c2:	0006                	c.slli	zero,0x1
    19c4:	0600                	addi	s0,sp,768
    19c6:	023e                	slli	tp,tp,0xf
    19c8:	0000                	unimp
    19ca:	4b1d                	li	s6,7
    19cc:	0f000003          	lb	zero,240(zero) # f0 <__stack_align+0xe0>
    19d0:	0002                	c.slli64	zero
    19d2:	da00                	sw	s0,48(a2)
    19d4:	001d                	c.nop	7
    19d6:	0080                	addi	s0,sp,64
    19d8:	0000                	unimp
    19da:	0600                	addi	s0,sp,768
    19dc:	0000                	unimp
    19de:	0000                	unimp
    19e0:	0000                	unimp
    19e2:	8300                	.insn	2, 0x8300
    19e4:	0012                	c.slli	zero,0x4
    19e6:	0700                	addi	s0,sp,896
    19e8:	0504                	addi	s1,sp,640
    19ea:	6e69                	lui	t3,0x1a
    19ec:	0074                	addi	a3,sp,12
    19ee:	0801                	addi	a6,a6,0
    19f0:	1005                	c.nop	-31
    19f2:	0001                	nop
    19f4:	0200                	addi	s0,sp,256
    19f6:	0365                	addi	t1,t1,25
    19f8:	0000                	unimp
    19fa:	d602                	sw	zero,44(sp)
    19fc:	00004817          	auipc	a6,0x4
    1a00:	0100                	addi	s0,sp,128
    1a02:	0708                	addi	a0,sp,896
    1a04:	00d0                	addi	a2,sp,68
    1a06:	0000                	unimp
    1a08:	0801                	addi	a6,a6,0 # 59fc <__stack_align+0x59ec>
    1a0a:	0b05                	addi	s6,s6,1
    1a0c:	0001                	nop
    1a0e:	0100                	addi	s0,sp,128
    1a10:	0410                	addi	a2,sp,512
    1a12:	02d4                	addi	a3,sp,324
    1a14:	0000                	unimp
    1a16:	0401                	addi	s0,s0,0
    1a18:	0000d507          	.insn	4, 0xd507
    1a1c:	0100                	addi	s0,sp,128
    1a1e:	0601                	addi	a2,a2,0
    1a20:	0090                	addi	a2,sp,64
    1a22:	0000                	unimp
    1a24:	0101                	addi	sp,sp,0
    1a26:	8e08                	.insn	2, 0x8e08
    1a28:	0000                	unimp
    1a2a:	0100                	addi	s0,sp,128
    1a2c:	0502                	c.slli64	a0
    1a2e:	0042                	c.slli	zero,0x10
    1a30:	0000                	unimp
    1a32:	0201                	addi	tp,tp,0 # 0 <__boot_hart>
    1a34:	0000f807          	.insn	4, 0xf807
    1a38:	0200                	addi	s0,sp,256
    1a3a:	042c                	addi	a1,sp,520
    1a3c:	0000                	unimp
    1a3e:	48196903          	lwu	s2,1153(s2)
    1a42:	0000                	unimp
    1a44:	0200                	addi	s0,sp,256
    1a46:	0018                	.insn	2, 0x0018
    1a48:	0000                	unimp
    1a4a:	481ae803          	lwu	a6,1153(s5)
    1a4e:	0000                	unimp
    1a50:	0200                	addi	s0,sp,256
    1a52:	03e1                	addi	t2,t2,24
    1a54:	0000                	unimp
    1a56:	9304                	.insn	2, 0x9304
    1a58:	00003517          	auipc	a0,0x3
    1a5c:	0100                	addi	s0,sp,128
    1a5e:	0801                	addi	a6,a6,0
    1a60:	00000097          	auipc	ra,0x0
    1a64:	0801                	addi	a6,a6,0
    1a66:	0000cb07          	.insn	4, 0xcb07
    1a6a:	0200                	addi	s0,sp,256
    1a6c:	042e                	slli	s0,s0,0xb
    1a6e:	0000                	unimp
    1a70:	3c05                	addiw	s8,s8,-31
    1a72:	8014                	.insn	2, 0x8014
    1a74:	0000                	unimp
    1a76:	0200                	addi	s0,sp,256
    1a78:	001a                	c.slli	zero,0x6
    1a7a:	0000                	unimp
    1a7c:	5205                	li	tp,-31
    1a7e:	8c15                	sub	s0,s0,a3
    1a80:	0000                	unimp
    1a82:	0200                	addi	s0,sp,256
    1a84:	03e2                	slli	t2,t2,0x18
    1a86:	0000                	unimp
    1a88:	b606                	fsd	ft1,296(sp)
    1a8a:	9812                	add	a6,a6,tp
    1a8c:	0000                	unimp
    1a8e:	0800                	addi	s0,sp,16
    1a90:	041f 0000 1a07      	.insn	6, 0x1a070000041f
    1a96:	350d                	addiw	a0,a0,-29 # 4a3b <__stack_align+0x4a2b>
    1a98:	0000                	unimp
    1a9a:	fb00                	sd	s0,48(a4)
    1a9c:	0000                	unimp
    1a9e:	0300                	addi	s0,sp,384
    1aa0:	00b2                	slli	ra,ra,0xc
    1aa2:	0000                	unimp
    1aa4:	0000b203          	ld	tp,0(ra) # 1a60 <__stack_align+0x1a50>
    1aa8:	0300                	addi	s0,sp,384
    1aaa:	00b2                	slli	ra,ra,0xc
    1aac:	0000                	unimp
    1aae:	00004803          	lbu	a6,0(zero) # 0 <__boot_hart>
    1ab2:	0000                	unimp
    1ab4:	3d09                	addiw	s10,s10,-30
    1ab6:	0001                	nop
    1ab8:	0100                	addi	s0,sp,128
    1aba:	0906                	slli	s2,s2,0x1
    1abc:	00ca                	slli	ra,ra,0x12
    1abe:	0000                	unimp
    1ac0:	1dda                	slli	s11,s11,0x36
    1ac2:	8000                	.insn	2, 0x8000
    1ac4:	0000                	unimp
    1ac6:	0000                	unimp
    1ac8:	0006                	c.slli	zero,0x1
    1aca:	0000                	unimp
    1acc:	0000                	unimp
    1ace:	0000                	unimp
    1ad0:	9c01                	subw	s0,s0,s0
    1ad2:	0170                	addi	a2,sp,140
    1ad4:	0000                	unimp
    1ad6:	6605                	lui	a2,0x1
    1ad8:	0064                	addi	s1,sp,12
    1ada:	2e14                	fld	fa3,24(a2)
    1adc:	0000                	unimp
    1ade:	b100                	fsd	fs0,32(a0)
    1ae0:	0009                	c.nop	2
    1ae2:	0500                	addi	s0,sp,640
    1ae4:	7470                	ld	a2,232(s0)
    1ae6:	0072                	c.slli	zero,0x1c
    1ae8:	7024                	ld	s1,96(s0)
    1aea:	0001                	nop
    1aec:	bf00                	fsd	fs0,56(a4)
    1aee:	0009                	c.nop	2
    1af0:	0500                	addi	s0,sp,640
    1af2:	656c                	ld	a1,200(a0)
    1af4:	006e                	c.slli	zero,0x1b
    1af6:	3c30                	fld	fa2,120(s0)
    1af8:	0000                	unimp
    1afa:	cd00                	sw	s0,24(a0)
    1afc:	0009                	c.nop	2
    1afe:	0a00                	addi	s0,sp,272
    1b00:	1de0                	addi	s0,sp,764
    1b02:	8000                	.insn	2, 0x8000
    1b04:	0000                	unimp
    1b06:	0000                	unimp
    1b08:	00d6                	slli	ra,ra,0x15
    1b0a:	0000                	unimp
    1b0c:	0104                	addi	s1,sp,128
    1b0e:	035a                	slli	t1,t1,0x16
    1b10:	045a01a3          	sb	t0,67(s4)
    1b14:	5b01                	li	s6,-32
    1b16:	5b01a303          	lw	t1,1456(gp) # 80003280 <__global_pointer$+0x5b0>
    1b1a:	0104                	addi	s1,sp,128
    1b1c:	035c                	addi	a5,sp,388
    1b1e:	045c01a3          	sb	t0,67(s8)
    1b22:	5d01                	li	s10,-32
    1b24:	0802                	c.slli64	a6
    1b26:	0040                	addi	s0,sp,4
    1b28:	0b00                	addi	s0,sp,400
    1b2a:	7608                	ld	a0,40(a2)
    1b2c:	0001                	nop
    1b2e:	0c00                	addi	s0,sp,528
    1b30:	2500                	fld	fs0,8(a0)
    1b32:	0000                	unimp
    1b34:	0500                	addi	s0,sp,640
    1b36:	0100                	addi	s0,sp,128
    1b38:	2408                	fld	fa0,8(s0)
    1b3a:	01000007          	.insn	4, 0x01000007
    1b3e:	1310                	addi	a2,sp,416
    1b40:	0000                	unimp
    1b42:	0000                	unimp
    1b44:	8000                	.insn	2, 0x8000
    1b46:	0000                	unimp
    1b48:	0000                	unimp
    1b4a:	0498                	addi	a4,sp,576
    1b4c:	00000437          	lui	s0,0x0
    1b50:	0446                	slli	s0,s0,0x11
    1b52:	0000                	unimp
    1b54:	048e                	slli	s1,s1,0x3
    1b56:	0000                	unimp
    1b58:	8001                	c.srli64	s0
    1b5a:	0024                	addi	s1,sp,8
    1b5c:	0000                	unimp
    1b5e:	0005                	c.nop	1
    1b60:	0801                	addi	a6,a6,0
    1b62:	0738                	addi	a4,sp,904
    1b64:	0000                	unimp
    1b66:	4201                	li	tp,0
    1b68:	ee000017          	auipc	zero,0xee000
    1b6c:	0001                	nop
    1b6e:	0080                	addi	s0,sp,64
    1b70:	0000                	unimp
    1b72:	6200                	ld	s0,0(a2)
    1b74:	049a                	slli	s1,s1,0x6
    1b76:	0000                	unimp
    1b78:	0446                	slli	s0,s0,0x11
    1b7a:	0000                	unimp
    1b7c:	048e                	slli	s1,s1,0x3
    1b7e:	0000                	unimp
    1b80:	8001                	c.srli64	s0
    1b82:	0136                	slli	sp,sp,0xd
    1b84:	0000                	unimp
    1b86:	0005                	c.nop	1
    1b88:	0801                	addi	a6,a6,0
    1b8a:	074c                	addi	a1,sp,900
    1b8c:	0000                	unimp
    1b8e:	3e04                	fld	fs1,56(a2)
    1b90:	0002                	c.slli64	zero
    1b92:	1d00                	addi	s0,sp,688
    1b94:	0385                	addi	t2,t2,1
    1b96:	0000                	unimp
    1b98:	0000020f          	.insn	4, 0x020f
    1b9c:	1de0                	addi	s0,sp,764
    1b9e:	8000                	.insn	2, 0x8000
    1ba0:	0000                	unimp
    1ba2:	0000                	unimp
    1ba4:	0016                	c.slli	zero,0x5
    1ba6:	0000                	unimp
    1ba8:	0000                	unimp
    1baa:	0000                	unimp
    1bac:	17a2                	slli	a5,a5,0x28
    1bae:	0000                	unimp
    1bb0:	0101                	addi	sp,sp,0
    1bb2:	9006                	c.add	zero,ra
    1bb4:	0000                	unimp
    1bb6:	0100                	addi	s0,sp,128
    1bb8:	0801                	addi	a6,a6,0
    1bba:	008e                	slli	ra,ra,0x3
    1bbc:	0000                	unimp
    1bbe:	0201                	addi	tp,tp,0 # 0 <__boot_hart>
    1bc0:	4205                	li	tp,1
    1bc2:	0000                	unimp
    1bc4:	0100                	addi	s0,sp,128
    1bc6:	0702                	c.slli64	a4
    1bc8:	00f8                	addi	a4,sp,76
    1bca:	0000                	unimp
    1bcc:	0405                	addi	s0,s0,1 # 1 <__boot_hart+0x1>
    1bce:	6905                	lui	s2,0x1
    1bd0:	746e                	ld	s0,248(sp)
    1bd2:	0100                	addi	s0,sp,128
    1bd4:	0704                	addi	s1,sp,896
    1bd6:	00d5                	addi	ra,ra,21
    1bd8:	0000                	unimp
    1bda:	0801                	addi	a6,a6,0
    1bdc:	1005                	c.nop	-31
    1bde:	0001                	nop
    1be0:	0100                	addi	s0,sp,128
    1be2:	0708                	addi	a0,sp,896
    1be4:	00d0                	addi	a2,sp,68
    1be6:	0000                	unimp
    1be8:	c402                	sw	zero,8(sp)
    1bea:	0004                	.insn	2, 0x0004
    1bec:	0200                	addi	s0,sp,256
    1bee:	19e6                	slli	s3,s3,0x39
    1bf0:	0058                	addi	a4,sp,4
    1bf2:	0000                	unimp
    1bf4:	1802                	slli	a6,a6,0x20
    1bf6:	0000                	unimp
    1bf8:	0200                	addi	s0,sp,256
    1bfa:	1ae8                	addi	a0,sp,380
    1bfc:	005f 0000 c602      	.insn	6, 0xc6020000005f
    1c02:	0004                	.insn	2, 0x0004
    1c04:	0300                	addi	s0,sp,384
    1c06:	144d                	addi	s0,s0,-13
    1c08:	0066                	c.slli	zero,0x19
    1c0a:	0000                	unimp
    1c0c:	1a02                	slli	s4,s4,0x20
    1c0e:	0000                	unimp
    1c10:	0300                	addi	s0,sp,384
    1c12:	1552                	slli	a0,a0,0x34
    1c14:	0072                	c.slli	zero,0x1c
    1c16:	0000                	unimp
    1c18:	0801                	addi	a6,a6,0
    1c1a:	0b05                	addi	s6,s6,1
    1c1c:	0001                	nop
    1c1e:	0100                	addi	s0,sp,128
    1c20:	0410                	addi	a2,sp,512
    1c22:	02d4                	addi	a3,sp,324
    1c24:	0000                	unimp
    1c26:	0101                	addi	sp,sp,0
    1c28:	9708                	.insn	2, 0x9708
    1c2a:	0000                	unimp
    1c2c:	0600                	addi	s0,sp,768
    1c2e:	04be                	slli	s1,s1,0xf
    1c30:	0000                	unimp
    1c32:	4104                	lw	s1,0(a0)
    1c34:	bd0d                	j	1a66 <__stack_align+0x1a56>
    1c36:	0000                	unimp
    1c38:	0700                	addi	s0,sp,896
    1c3a:	004a                	c.slli	zero,0x12
    1c3c:	0000                	unimp
    1c3e:	0800                	addi	s0,sp,16
    1c40:	04ac                	addi	a1,sp,584
    1c42:	0000                	unimp
    1c44:	0401                	addi	s0,s0,0
    1c46:	e01c                	sd	a5,0(s0)
    1c48:	001d                	c.nop	7
    1c4a:	0080                	addi	s0,sp,64
    1c4c:	0000                	unimp
    1c4e:	1600                	addi	s0,sp,800
    1c50:	0000                	unimp
    1c52:	0000                	unimp
    1c54:	0000                	unimp
    1c56:	0100                	addi	s0,sp,128
    1c58:	339c                	fld	fa5,32(a5)
    1c5a:	0001                	nop
    1c5c:	0900                	addi	s0,sp,144
    1c5e:	7065                	c.lui	zero,0xffff9
    1c60:	04010063          	beqz	sp,1ca0 <__stack_align+0x1c90>
    1c64:	8a32                	mv	s4,a2
    1c66:	0000                	unimp
    1c68:	e700                	sd	s0,8(a4)
    1c6a:	0009                	c.nop	2
    1c6c:	0300                	addi	s0,sp,384
    1c6e:	04b8                	addi	a4,sp,584
    1c70:	0000                	unimp
    1c72:	8a41                	andi	a2,a2,16
    1c74:	0000                	unimp
    1c76:	f500                	sd	s0,40(a0)
    1c78:	0009                	c.nop	2
    1c7a:	0300                	addi	s0,sp,384
    1c7c:	04d4                	addi	a3,sp,580
    1c7e:	0000                	unimp
    1c80:	8a52                	mv	s4,s4
    1c82:	0000                	unimp
    1c84:	0300                	addi	s0,sp,384
    1c86:	000a                	c.slli	zero,0x2
    1c88:	0300                	addi	s0,sp,384
    1c8a:	000004cf          	fnmadd.s	fs1,ft0,ft0,ft0,rne
    1c8e:	3362                	fld	ft6,56(sp)
    1c90:	0001                	nop
    1c92:	1100                	addi	s0,sp,160
    1c94:	000a                	c.slli	zero,0x2
    1c96:	0a00                	addi	s0,sp,272
    1c98:	0122                	slli	sp,sp,0x8
    1c9a:	0000                	unimp
    1c9c:	0701                	addi	a4,a4,0
    1c9e:	4a09                	li	s4,2
    1ca0:	0000                	unimp
    1ca2:	1f00                	addi	s0,sp,944
    1ca4:	000a                	c.slli	zero,0x2
    1ca6:	0b00                	addi	s0,sp,400
    1ca8:	1df6                	slli	s11,s11,0x3d
    1caa:	8000                	.insn	2, 0x8000
    1cac:	0000                	unimp
    1cae:	0000                	unimp
    1cb0:	000000ab          	.insn	4, 0x00ab
    1cb4:	0c00                	addi	s0,sp,528
    1cb6:	8a08                	.insn	2, 0x8a08
    1cb8:	0000                	unimp
    1cba:	0000                	unimp
    1cbc:	0165                	addi	sp,sp,25
    1cbe:	0000                	unimp
    1cc0:	0005                	c.nop	1
    1cc2:	0801                	addi	a6,a6,0
    1cc4:	0806                	slli	a6,a6,0x1
    1cc6:	0000                	unimp
    1cc8:	3e08                	fld	fa0,56(a2)
    1cca:	0002                	c.slli64	zero
    1ccc:	1d00                	addi	s0,sp,688
    1cce:	039f 0000 020f      	.insn	6, 0x020f0000039f
    1cd4:	0000                	unimp
    1cd6:	1df6                	slli	s11,s11,0x3d
    1cd8:	8000                	.insn	2, 0x8000
    1cda:	0000                	unimp
    1cdc:	0000                	unimp
    1cde:	0030                	addi	a2,sp,8
    1ce0:	0000                	unimp
    1ce2:	0000                	unimp
    1ce4:	0000                	unimp
    1ce6:	1859                	addi	a6,a6,-10
    1ce8:	0000                	unimp
    1cea:	0801                	addi	a6,a6,0
    1cec:	1005                	c.nop	-31
    1cee:	0001                	nop
    1cf0:	0900                	addi	s0,sp,144
    1cf2:	0365                	addi	t1,t1,25
    1cf4:	0000                	unimp
    1cf6:	4117d603          	lhu	a2,1041(a5)
    1cfa:	0000                	unimp
    1cfc:	0100                	addi	s0,sp,128
    1cfe:	0708                	addi	a0,sp,896
    1d00:	00d0                	addi	a2,sp,68
    1d02:	0000                	unimp
    1d04:	040a                	slli	s0,s0,0x2
    1d06:	6905                	lui	s2,0x1
    1d08:	746e                	ld	s0,248(sp)
    1d0a:	0100                	addi	s0,sp,128
    1d0c:	0508                	addi	a0,sp,640
    1d0e:	0000010b          	.insn	4, 0x010b
    1d12:	1001                	c.nop	-32
    1d14:	d404                	sw	s1,40(s0)
    1d16:	0002                	c.slli64	zero
    1d18:	0100                	addi	s0,sp,128
    1d1a:	0704                	addi	s1,sp,896
    1d1c:	00d5                	addi	ra,ra,21
    1d1e:	0000                	unimp
    1d20:	0101                	addi	sp,sp,0
    1d22:	9006                	c.add	zero,ra
    1d24:	0000                	unimp
    1d26:	0100                	addi	s0,sp,128
    1d28:	0801                	addi	a6,a6,0
    1d2a:	008e                	slli	ra,ra,0x3
    1d2c:	0000                	unimp
    1d2e:	0201                	addi	tp,tp,0 # 0 <__boot_hart>
    1d30:	4205                	li	tp,1
    1d32:	0000                	unimp
    1d34:	0100                	addi	s0,sp,128
    1d36:	0702                	c.slli64	a4
    1d38:	00f8                	addi	a4,sp,76
    1d3a:	0000                	unimp
    1d3c:	8004080b          	.insn	4, 0x8004080b
    1d40:	0000                	unimp
    1d42:	0500                	addi	s0,sp,640
    1d44:	008c                	addi	a1,sp,64
    1d46:	0000                	unimp
    1d48:	0101                	addi	sp,sp,0
    1d4a:	9708                	.insn	2, 0x9708
    1d4c:	0000                	unimp
    1d4e:	0100                	addi	s0,sp,128
    1d50:	0708                	addi	a0,sp,896
    1d52:	000000cb          	fnmsub.s	ft1,ft0,ft0,ft0,rne
    1d56:	2e06                	fld	ft8,64(sp)
    1d58:	0005                	c.nop	1
    1d5a:	2100                	fld	fs0,0(a0)
    1d5c:	0080                	addi	s0,sp,64
    1d5e:	0000                	unimp
    1d60:	00b8                	addi	a4,sp,72
    1d62:	0000                	unimp
    1d64:	8002                	.insn	2, 0x8002
    1d66:	0000                	unimp
    1d68:	0200                	addi	s0,sp,256
    1d6a:	0048                	addi	a0,sp,4
    1d6c:	0000                	unimp
    1d6e:	3502                	fld	fa0,32(sp)
    1d70:	0000                	unimp
    1d72:	0000                	unimp
    1d74:	1906                	slli	s2,s2,0x21
    1d76:	0005                	c.nop	1
    1d78:	1f00                	addi	s0,sp,944
    1d7a:	0080                	addi	s0,sp,64
    1d7c:	0000                	unimp
    1d7e:	00d6                	slli	ra,ra,0x15
    1d80:	0000                	unimp
    1d82:	8202                	jr	tp
    1d84:	0000                	unimp
    1d86:	0200                	addi	s0,sp,256
    1d88:	000000db          	.insn	4, 0x00db
    1d8c:	3502                	fld	fa0,32(sp)
    1d8e:	0000                	unimp
    1d90:	0000                	unimp
    1d92:	e005                	bnez	s0,1db2 <__stack_align+0x1da2>
    1d94:	0000                	unimp
    1d96:	0400                	addi	s0,sp,512
    1d98:	00d6                	slli	ra,ra,0x15
    1d9a:	0000                	unimp
    1d9c:	0d0c                	addi	a1,sp,656
    1d9e:	04d9                	addi	s1,s1,22
    1da0:	0000                	unimp
    1da2:	0301                	addi	t1,t1,0
    1da4:	f606                	sd	ra,296(sp)
    1da6:	001d                	c.nop	7
    1da8:	0080                	addi	s0,sp,64
    1daa:	0000                	unimp
    1dac:	3000                	fld	fs0,32(s0)
    1dae:	0000                	unimp
    1db0:	0000                	unimp
    1db2:	0000                	unimp
    1db4:	0100                	addi	s0,sp,128
    1db6:	619c                	ld	a5,0(a1)
    1db8:	0001                	nop
    1dba:	0e00                	addi	s0,sp,784
    1dbc:	04ff 0000 0501 8714 	.insn	10, 0x87140501000004ff
    1dc4:	0000 
    1dc6:	0100                	addi	s0,sp,128
    1dc8:	0354                	addi	a3,sp,388
    1dca:	0520                	addi	s0,sp,648
    1dcc:	0000                	unimp
    1dce:	6106                	ld	sp,64(sp)
    1dd0:	0001                	nop
    1dd2:	0300                	addi	s0,sp,384
    1dd4:	04f1                	addi	s1,s1,28
    1dd6:	0000                	unimp
    1dd8:	00016107          	.insn	4, 0x00016107
    1ddc:	0300                	addi	s0,sp,384
    1dde:	04e4                	addi	s1,sp,588
    1de0:	0000                	unimp
    1de2:	6108                	ld	a0,0(a0)
    1de4:	0001                	nop
    1de6:	0300                	addi	s0,sp,384
    1de8:	050d                	addi	a0,a0,3
    1dea:	0000                	unimp
    1dec:	6109                	addi	sp,sp,128
    1dee:	0001                	nop
    1df0:	0f00                	addi	s0,sp,912
    1df2:	1e10                	addi	a2,sp,816
    1df4:	8000                	.insn	2, 0x8000
    1df6:	0000                	unimp
    1df8:	0000                	unimp
    1dfa:	00b8                	addi	a4,sp,72
    1dfc:	0000                	unimp
    1dfe:	014d                	addi	sp,sp,19
    1e00:	0000                	unimp
    1e02:	025a0107          	.insn	4, 0x025a0107
    1e06:	0078                	addi	a4,sp,12
    1e08:	1000                	addi	s0,sp,32
    1e0a:	1e26                	slli	t3,t3,0x29
    1e0c:	8000                	.insn	2, 0x8000
    1e0e:	0000                	unimp
    1e10:	0000                	unimp
    1e12:	009a                	slli	ra,ra,0x6
    1e14:	0000                	unimp
    1e16:	015b0107          	.insn	4, 0x015b0107
    1e1a:	0030                	addi	a2,sp,8
    1e1c:	1100                	addi	s0,sp,160
    1e1e:	008c                	addi	a1,sp,64
    1e20:	0000                	unimp
    1e22:	0012                	c.slli	zero,0x4
    1e24:	4500                	lw	s0,8(a0)
    1e26:	0000                	unimp
    1e28:	0500                	addi	s0,sp,640
    1e2a:	0100                	addi	s0,sp,128
    1e2c:	e908                	sd	a0,16(a0)
    1e2e:	0008                	.insn	2, 0x0008
    1e30:	0100                	addi	s0,sp,128
    1e32:	023e                	slli	tp,tp,0xf
    1e34:	0000                	unimp
    1e36:	b61d                	j	195c <__stack_align+0x194c>
    1e38:	0f000003          	lb	zero,240(zero) # f0 <__stack_align+0xe0>
    1e3c:	0002                	c.slli64	zero
    1e3e:	2600                	fld	fs0,8(a2)
    1e40:	001e                	c.slli	zero,0x7
    1e42:	0080                	addi	s0,sp,64
    1e44:	0000                	unimp
    1e46:	0600                	addi	s0,sp,768
    1e48:	0000                	unimp
    1e4a:	0000                	unimp
    1e4c:	0000                	unimp
    1e4e:	3800                	fld	fs0,48(s0)
    1e50:	0019                	c.nop	6
    1e52:	0200                	addi	s0,sp,256
    1e54:	0535                	addi	a0,a0,13
    1e56:	0000                	unimp
    1e58:	0701                	addi	a4,a4,0
    1e5a:	001e2627          	fsw	ft1,12(t3) # 1a00c <__stack_size+0x1200c>
    1e5e:	0080                	addi	s0,sp,64
    1e60:	0000                	unimp
    1e62:	0600                	addi	s0,sp,768
    1e64:	0000                	unimp
    1e66:	0000                	unimp
    1e68:	0000                	unimp
    1e6a:	0100                	addi	s0,sp,128
    1e6c:	009c                	addi	a5,sp,64
    1e6e:	033c                	addi	a5,sp,392
    1e70:	0000                	unimp
    1e72:	0005                	c.nop	1
    1e74:	0801                	addi	a6,a6,0
    1e76:	0919                	addi	s2,s2,6 # 1006 <__stack_align+0xff6>
    1e78:	0000                	unimp
    1e7a:	3e12                	fld	ft8,288(sp)
    1e7c:	0002                	c.slli64	zero
    1e7e:	1d00                	addi	s0,sp,688
    1e80:	03c5                	addi	t2,t2,17
    1e82:	0000                	unimp
    1e84:	0000020f          	.insn	4, 0x020f
    1e88:	1e2c                	addi	a1,sp,824
    1e8a:	8000                	.insn	2, 0x8000
    1e8c:	0000                	unimp
    1e8e:	0000                	unimp
    1e90:	004c                	addi	a1,sp,4
    1e92:	0000                	unimp
    1e94:	0000                	unimp
    1e96:	0000                	unimp
    1e98:	19a2                	slli	s3,s3,0x28
    1e9a:	0000                	unimp
    1e9c:	0102                	c.slli64	sp
    1e9e:	9006                	c.add	zero,ra
    1ea0:	0000                	unimp
    1ea2:	0200                	addi	s0,sp,256
    1ea4:	0801                	addi	a6,a6,0
    1ea6:	008e                	slli	ra,ra,0x3
    1ea8:	0000                	unimp
    1eaa:	0202                	c.slli64	tp
    1eac:	4205                	li	tp,1
    1eae:	0000                	unimp
    1eb0:	0200                	addi	s0,sp,256
    1eb2:	0702                	c.slli64	a4
    1eb4:	00f8                	addi	a4,sp,76
    1eb6:	0000                	unimp
    1eb8:	5701                	li	a4,-32
    1eba:	0005                	c.nop	1
    1ebc:	0400                	addi	s0,sp,512
    1ebe:	184d                	addi	a6,a6,-13
    1ec0:	0056                	c.slli	zero,0x15
    1ec2:	0000                	unimp
    1ec4:	69050413          	addi	s0,a0,1680
    1ec8:	746e                	ld	s0,248(sp)
    1eca:	0200                	addi	s0,sp,256
    1ecc:	0704                	addi	s1,sp,896
    1ece:	00d5                	addi	ra,ra,21
    1ed0:	0000                	unimp
    1ed2:	0802                	c.slli64	a6
    1ed4:	1005                	c.nop	-31
    1ed6:	0001                	nop
    1ed8:	0100                	addi	s0,sp,128
    1eda:	042c                	addi	a1,sp,520
    1edc:	0000                	unimp
    1ede:	6904                	ld	s1,16(a0)
    1ee0:	7719                	lui	a4,0xfffe6
    1ee2:	0000                	unimp
    1ee4:	0200                	addi	s0,sp,256
    1ee6:	0708                	addi	a0,sp,896
    1ee8:	00d0                	addi	a2,sp,68
    1eea:	0000                	unimp
    1eec:	1801                	addi	a6,a6,-32
    1eee:	0000                	unimp
    1ef0:	0400                	addi	s0,sp,512
    1ef2:	1ae8                	addi	a0,sp,380
    1ef4:	00000077          	.insn	4, 0x0077
    1ef8:	5901                	li	s2,-32
    1efa:	0005                	c.nop	1
    1efc:	0500                	addi	s0,sp,640
    1efe:	132c                	addi	a1,sp,424
    1f00:	004a                	c.slli	zero,0x12
    1f02:	0000                	unimp
    1f04:	2e01                	sext.w	t3,t3
    1f06:	0004                	.insn	2, 0x0004
    1f08:	0500                	addi	s0,sp,640
    1f0a:	143c                	addi	a5,sp,552
    1f0c:	0000006b          	.insn	4, 0x006b
    1f10:	9608                	.insn	2, 0x9608
    1f12:	0000                	unimp
    1f14:	0100                	addi	s0,sp,128
    1f16:	001a                	c.slli	zero,0x6
    1f18:	0000                	unimp
    1f1a:	5205                	li	tp,-31
    1f1c:	7e15                	lui	t3,0xfffe5
    1f1e:	0000                	unimp
    1f20:	0100                	addi	s0,sp,128
    1f22:	057f 0000 1b02 8a11 	.insn	10, 0x8a111b020000057f
    1f2a:	0000 
    1f2c:	1400                	addi	s0,sp,544
    1f2e:	000000b3          	add	ra,zero,zero
    1f32:	0415                	addi	s0,s0,5
    1f34:	db090603          	lb	a2,-592(s2)
    1f38:	0000                	unimp
    1f3a:	1600                	addi	s0,sp,800
    1f3c:	0566                	slli	a0,a0,0x19
    1f3e:	0000                	unimp
    1f40:	b30e0703          	lb	a4,-1232(t3) # fffffffffffe4b30 <__heap_end+0xffffffff7ffc1b30>
    1f44:	0000                	unimp
    1f46:	0000                	unimp
    1f48:	0100                	addi	s0,sp,128
    1f4a:	053c                	addi	a5,sp,648
    1f4c:	0000                	unimp
    1f4e:	c4030803          	lb	a6,-960(t1)
    1f52:	0000                	unimp
    1f54:	0900                	addi	s0,sp,144
    1f56:	0550                	addi	a2,sp,644
    1f58:	0000                	unimp
    1f5a:	a206                	fsd	ft1,256(sp)
    1f5c:	0000                	unimp
    1f5e:	0900                	addi	s0,sp,144
    1f60:	00000547          	fmsub.s	fa0,ft0,ft0,ft0,rne
    1f64:	0000a207          	flw	ft4,0(ra)
    1f68:	0a00                	addi	s0,sp,272
    1f6a:	000000e7          	jalr	zero # 0 <__boot_hart>
    1f6e:	00030907          	.insn	4, 0x00030907
    1f72:	0024                	addi	s1,sp,8
    1f74:	0080                	addi	s0,sp,64
    1f76:	0000                	unimp
    1f78:	0a00                	addi	s0,sp,272
    1f7a:	00f1                	addi	ra,ra,28
    1f7c:	0000                	unimp
    1f7e:	0908                	addi	a0,sp,144
    1f80:	00240803          	lb	a6,2(s0)
    1f84:	0080                	addi	s0,sp,64
    1f86:	0000                	unimp
    1f88:	1700                	addi	s0,sp,928
    1f8a:	0561                	addi	a0,a0,24
    1f8c:	0000                	unimp
    1f8e:	0a01                	addi	s4,s4,0
    1f90:	0000db13          	srli	s6,ra,0x0
    1f94:	0900                	addi	s0,sp,144
    1f96:	00251003          	lh	zero,2(a0)
    1f9a:	0080                	addi	s0,sp,64
    1f9c:	0000                	unimp
    1f9e:	1800                	addi	s0,sp,48
    1fa0:	041f 0000 0c01      	.insn	6, 0x0c010000041f
    1fa6:	6406                	ld	s0,64(sp)
    1fa8:	0000                	unimp
    1faa:	2c00                	fld	fs0,24(s0)
    1fac:	001e                	c.slli	zero,0x7
    1fae:	0080                	addi	s0,sp,64
    1fb0:	0000                	unimp
    1fb2:	4c00                	lw	s0,24(s0)
    1fb4:	0000                	unimp
    1fb6:	0000                	unimp
    1fb8:	0000                	unimp
    1fba:	0100                	addi	s0,sp,128
    1fbc:	899c                	.insn	2, 0x899c
    1fbe:	0002                	c.slli64	zero
    1fc0:	0500                	addi	s0,sp,640
    1fc2:	3061                	.insn	2, 0x3061
    1fc4:	1c00                	addi	s0,sp,560
    1fc6:	0096                	slli	ra,ra,0x5
    1fc8:	0000                	unimp
    1fca:	0a31                	addi	s4,s4,12
    1fcc:	0000                	unimp
    1fce:	6119                	addi	sp,sp,384
    1fd0:	0031                	c.nop	12
    1fd2:	0c01                	addi	s8,s8,0
    1fd4:	9629                	srai	a2,a2,0x2a
    1fd6:	0000                	unimp
    1fd8:	0100                	addi	s0,sp,128
    1fda:	3261055b          	.insn	4, 0x3261055b
    1fde:	3600                	fld	fs0,40(a2)
    1fe0:	0096                	slli	ra,ra,0x5
    1fe2:	0000                	unimp
    1fe4:	00000a3f 48006e05 	.insn	8, 0x48006e0500000a3f
    1fec:	00000077          	.insn	4, 0x0077
    1ff0:	00000a53          	fadd.s	fs4,ft0,ft0,rne
    1ff4:	6675620b          	.insn	4, 0x6675620b
    1ff8:	0e00                	addi	s0,sp,784
    1ffa:	00029917          	auipc	s2,0x29
    1ffe:	0200                	addi	s0,sp,256
    2000:	4091                	li	ra,4
    2002:	0063730b          	.insn	4, 0x0063730b
    2006:	00960e0f          	.insn	4, 0x00960e0f
    200a:	0000                	unimp
    200c:	5c01                	li	s8,-32
    200e:	ba0c                	fsd	fa1,48(a2)
    2010:	0002                	c.slli64	zero
    2012:	4400                	lw	s0,8(s0)
    2014:	001e                	c.slli	zero,0x7
    2016:	0080                	addi	s0,sp,64
    2018:	0000                	unimp
    201a:	0c00                	addi	s0,sp,528
    201c:	0000                	unimp
    201e:	0000                	unimp
    2020:	0000                	unimp
    2022:	1700                	addi	s0,sp,928
    2024:	00000217          	auipc	tp,0x0
    2028:	0002c503          	lbu	a0,0(t0)
    202c:	6100                	ld	s0,0(a0)
    202e:	000a                	c.slli	zero,0x2
    2030:	1a00                	addi	s0,sp,304
    2032:	000002eb          	.insn	4, 0x02eb
    2036:	1e44                	addi	s1,sp,820
    2038:	8000                	.insn	2, 0x8000
    203a:	0000                	unimp
    203c:	0000                	unimp
    203e:	000002f3          	.insn	4, 0x02f3
    2042:	f90e1203          	lh	tp,-112(t3)
    2046:	0001                	nop
    2048:	0300                	addi	s0,sp,384
    204a:	0302                	c.slli64	t1
    204c:	0000                	unimp
    204e:	0a70                	addi	a2,sp,284
    2050:	0000                	unimp
    2052:	0002f903          	.insn	4, 0x0002f903
    2056:	7800                	ld	s0,48(s0)
    2058:	000a                	c.slli	zero,0x2
    205a:	1b00                	addi	s0,sp,432
    205c:	000002f3          	.insn	4, 0x02f3
    2060:	0b1c                	addi	a5,sp,400
    2062:	00000003          	lb	zero,0(zero) # 0 <__boot_hart>
    2066:	0d00                	addi	s0,sp,656
    2068:	0316                	slli	t1,t1,0x5
    206a:	0000                	unimp
    206c:	1e46                	slli	t3,t3,0x31
    206e:	8000                	.insn	2, 0x8000
    2070:	0000                	unimp
    2072:	0000                	unimp
    2074:	0002                	c.slli64	zero
    2076:	0000                	unimp
    2078:	0000                	unimp
    207a:	0000                	unimp
    207c:	1010                	addi	a2,sp,32
    207e:	241d                	addiw	s0,s0,7
    2080:	00000003          	lb	zero,0(zero) # 0 <__boot_hart>
    2084:	0e00                	addi	s0,sp,784
    2086:	00000333          	add	t1,zero,zero
    208a:	1e50                	addi	a2,sp,820
    208c:	8000                	.insn	2, 0x8000
    208e:	0000                	unimp
    2090:	0000                	unimp
    2092:	0004                	.insn	2, 0x0004
    2094:	0000                	unimp
    2096:	0000                	unimp
    2098:	0000                	unimp
    209a:	0c18                	addi	a4,sp,528
    209c:	029e                	slli	t0,t0,0x7
    209e:	0000                	unimp
    20a0:	1e6a                	slli	t3,t3,0x3a
    20a2:	8000                	.insn	2, 0x8000
    20a4:	0000                	unimp
    20a6:	0000                	unimp
    20a8:	0004                	.insn	2, 0x0004
    20aa:	0000                	unimp
    20ac:	0000                	unimp
    20ae:	0000                	unimp
    20b0:	721c                	ld	a5,32(a2)
    20b2:	0002                	c.slli64	zero
    20b4:	0300                	addi	s0,sp,384
    20b6:	02a9                	addi	t0,t0,10
    20b8:	0000                	unimp
    20ba:	00000a87          	.insn	4, 0x0a87
    20be:	d10d                	beqz	a0,1fe0 <__stack_align+0x1fd0>
    20c0:	0002                	c.slli64	zero
    20c2:	6a00                	ld	s0,16(a2)
    20c4:	001e                	c.slli	zero,0x7
    20c6:	0080                	addi	s0,sp,64
    20c8:	0000                	unimp
    20ca:	0400                	addi	s0,sp,512
    20cc:	0000                	unimp
    20ce:	0000                	unimp
    20d0:	0000                	unimp
    20d2:	1700                	addi	s0,sp,928
    20d4:	0305                	addi	t1,t1,1
    20d6:	02dc                	addi	a5,sp,324
    20d8:	0000                	unimp
    20da:	00000a87          	.insn	4, 0x0a87
    20de:	0000                	unimp
    20e0:	390e                	fld	fs2,224(sp)
    20e2:	6e000003          	lb	zero,1760(zero) # 6e0 <__stack_align+0x6d0>
    20e6:	001e                	c.slli	zero,0x7
    20e8:	0080                	addi	s0,sp,64
    20ea:	0000                	unimp
    20ec:	0400                	addi	s0,sp,512
    20ee:	0000                	unimp
    20f0:	0000                	unimp
    20f2:	0000                	unimp
    20f4:	1e00                	addi	s0,sp,816
    20f6:	1e00                	addi	s0,sp,816
    20f8:	00a2                	slli	ra,ra,0x8
    20fa:	0000                	unimp
    20fc:	0299                	addi	t0,t0,6
    20fe:	0000                	unimp
    2100:	771f 0000 0700      	.insn	6, 0x07000000771f
    2106:	0800                	addi	s0,sp,16
    2108:	0289                	addi	t0,t0,2
    210a:	0000                	unimp
    210c:	9e06                	add	t3,t3,ra
    210e:	0005                	c.nop	1
    2110:	0300                	addi	s0,sp,384
    2112:	b515                	j	1f36 <__stack_align+0x1f26>
    2114:	0002                	c.slli64	zero
    2116:	0f00                	addi	s0,sp,912
    2118:	0566                	slli	a0,a0,0x19
    211a:	0000                	unimp
    211c:	2c15                	addiw	s8,s8,5
    211e:	02b5                	addi	t0,t0,13
    2120:	0000                	unimp
    2122:	0700                	addi	s0,sp,896
    2124:	000000db          	.insn	4, 0x00db
    2128:	9406                	add	s0,s0,ra
    212a:	0005                	c.nop	1
    212c:	0300                	addi	s0,sp,384
    212e:	d10c                	sw	a1,32(a0)
    2130:	0002                	c.slli64	zero
    2132:	0f00                	addi	s0,sp,912
    2134:	0566                	slli	a0,a0,0x19
    2136:	0000                	unimp
    2138:	2a0c                	fld	fa1,16(a2)
    213a:	02b5                	addi	t0,t0,13
    213c:	0000                	unimp
    213e:	0600                	addi	s0,sp,768
    2140:	05aa                	slli	a1,a1,0xa
    2142:	0000                	unimp
    2144:	3c02                	fld	fs8,32(sp)
    2146:	02e6                	slli	t0,t0,0x19
    2148:	0000                	unimp
    214a:	7004                	ld	s1,32(s0)
    214c:	3c00                	fld	fs0,56(s0)
    214e:	0002e633          	or	a2,t0,zero
    2152:	0000                	unimp
    2154:	0000b307          	fld	ft6,0(ra)
    2158:	1000                	addi	s0,sp,32
    215a:	0000056b          	.insn	4, 0x056b
    215e:	6428                	ld	a0,72(s0)
    2160:	0000                	unimp
    2162:	1600                	addi	s0,sp,800
    2164:	04000003          	lb	zero,64(zero) # 40 <__stack_align+0x30>
    2168:	0070                	addi	a2,sp,12
    216a:	3228                	fld	fa0,96(a2)
    216c:	02e6                	slli	t0,t0,0x19
    216e:	0000                	unimp
    2170:	7604                	ld	s1,40(a2)
    2172:	2800                	fld	fs0,16(s0)
    2174:	b33e                	fsd	fa5,416(sp)
    2176:	0000                	unimp
    2178:	2000                	fld	fs0,0(s0)
    217a:	006e                	c.slli	zero,0x1b
    217c:	2a02                	fld	fs4,0(sp)
    217e:	640a                	ld	s0,128(sp)
    2180:	0000                	unimp
    2182:	0000                	unimp
    2184:	8810                	.insn	2, 0x8810
    2186:	0005                	c.nop	1
    2188:	1d00                	addi	s0,sp,688
    218a:	0064                	addi	s1,sp,12
    218c:	0000                	unimp
    218e:	032e                	slli	t1,t1,0xb
    2190:	0000                	unimp
    2192:	7004                	ld	s1,32(s0)
    2194:	1d00                	addi	s0,sp,688
    2196:	2e30                	fld	fa2,88(a2)
    2198:	00000003          	lb	zero,0(zero) # 0 <__boot_hart>
    219c:	0000bf07          	fld	ft10,0(ra)
    21a0:	1100                	addi	s0,sp,160
    21a2:	00626d77          	.insn	4, 0x00626d77
    21a6:	1116                	slli	sp,sp,0x25
    21a8:	6d72                	ld	s10,280(sp)
    21aa:	0062                	c.slli	zero,0x18
    21ac:	0015                	c.nop	5
    21ae:	00e0                	addi	s0,sp,76
    21b0:	0000                	unimp
    21b2:	0005                	c.nop	1
    21b4:	0801                	addi	a6,a6,0
    21b6:	0b01                	addi	s6,s6,0
    21b8:	0000                	unimp
    21ba:	3e04                	fld	fs1,56(a2)
    21bc:	0002                	c.slli64	zero
    21be:	1d00                	addi	s0,sp,688
    21c0:	03e8                	addi	a0,sp,460
    21c2:	0000                	unimp
    21c4:	0000020f          	.insn	4, 0x020f
    21c8:	1e78                	addi	a4,sp,828
    21ca:	8000                	.insn	2, 0x8000
    21cc:	0000                	unimp
    21ce:	0000                	unimp
    21d0:	0022                	c.slli	zero,0x8
    21d2:	0000                	unimp
    21d4:	0000                	unimp
    21d6:	0000                	unimp
    21d8:	1b98                	addi	a4,sp,496
    21da:	0000                	unimp
    21dc:	0801                	addi	a6,a6,0
    21de:	1005                	c.nop	-31
    21e0:	0001                	nop
    21e2:	0100                	addi	s0,sp,128
    21e4:	0708                	addi	a0,sp,896
    21e6:	00d0                	addi	a2,sp,68
    21e8:	0000                	unimp
    21ea:	0405                	addi	s0,s0,1
    21ec:	6905                	lui	s2,0x1
    21ee:	746e                	ld	s0,248(sp)
    21f0:	0100                	addi	s0,sp,128
    21f2:	0508                	addi	a0,sp,640
    21f4:	0000010b          	.insn	4, 0x010b
    21f8:	1001                	c.nop	-32
    21fa:	d404                	sw	s1,40(s0)
    21fc:	0002                	c.slli64	zero
    21fe:	0100                	addi	s0,sp,128
    2200:	0601                	addi	a2,a2,0 # 1000 <__stack_align+0xff0>
    2202:	0090                	addi	a2,sp,64
    2204:	0000                	unimp
    2206:	0101                	addi	sp,sp,0
    2208:	8e08                	.insn	2, 0x8e08
    220a:	0000                	unimp
    220c:	0100                	addi	s0,sp,128
    220e:	0502                	c.slli64	a0
    2210:	0042                	c.slli	zero,0x10
    2212:	0000                	unimp
    2214:	0201                	addi	tp,tp,0 # 2024 <__stack_align+0x2014>
    2216:	0000f807          	.insn	4, 0xf807
    221a:	0100                	addi	s0,sp,128
    221c:	0704                	addi	s1,sp,896
    221e:	00d5                	addi	ra,ra,21
    2220:	0000                	unimp
    2222:	2c02                	fld	fs8,0(sp)
    2224:	0004                	.insn	2, 0x0004
    2226:	0200                	addi	s0,sp,256
    2228:	1969                	addi	s2,s2,-6 # ffa <__stack_align+0xfea>
    222a:	0035                	c.nop	13
    222c:	0000                	unimp
    222e:	2e02                	fld	ft8,0(sp)
    2230:	0004                	.insn	2, 0x0004
    2232:	0300                	addi	s0,sp,384
    2234:	143c                	addi	a5,sp,552
    2236:	0074                	addi	a3,sp,12
    2238:	0000                	unimp
    223a:	8006                	c.mv	zero,ra
    223c:	0000                	unimp
    223e:	0100                	addi	s0,sp,128
    2240:	0801                	addi	a6,a6,0
    2242:	00000097          	auipc	ra,0x0
    2246:	00055003          	lhu	zero,0(a0)
    224a:	0600                	addi	s0,sp,768
    224c:	008c                	addi	a1,sp,64
    224e:	0000                	unimp
    2250:	00054703          	lbu	a4,0(a0)
    2254:	0700                	addi	s0,sp,896
    2256:	008c                	addi	a1,sp,64
    2258:	0000                	unimp
    225a:	0004be07          	fld	ft8,0(s1)
    225e:	0100                	addi	s0,sp,128
    2260:	2104                	fld	fs1,0(a0)
    2262:	1e78                	addi	a4,sp,828
    2264:	8000                	.insn	2, 0x8000
    2266:	0000                	unimp
    2268:	0000                	unimp
    226a:	0022                	c.slli	zero,0x8
    226c:	0000                	unimp
    226e:	0000                	unimp
    2270:	0000                	unimp
    2272:	9c01                	subw	s0,s0,s0
    2274:	2208                	fld	fa0,0(a2)
    2276:	0001                	nop
    2278:	0100                	addi	s0,sp,128
    227a:	2b04                	fld	fs1,16(a4)
    227c:	003c                	addi	a5,sp,8
    227e:	0000                	unimp
    2280:	5a01                	li	s4,-32
    2282:	6309                	lui	t1,0x2
    2284:	646d                	lui	s0,0x1b
    2286:	0100                	addi	s0,sp,128
    2288:	0e06                	slli	t3,t3,0x1
    228a:	0080                	addi	s0,sp,64
    228c:	0000                	unimp
    228e:	5f01                	li	t5,-32
	...

Disassembly of section .debug_abbrev:

0000000000000000 <.debug_abbrev>:
   0:	0501                	addi	a0,a0,0
   2:	3100                	fld	fs0,32(a0)
   4:	00170213          	addi	tp,a4,1 # fffffffffffe6001 <__heap_end+0xffffffff7ffc3001>
   8:	0200                	addi	s0,sp,256
   a:	0049                	c.nop	18
   c:	1802                	slli	a6,a6,0x20
   e:	187e                	slli	a6,a6,0x3f
  10:	0000                	unimp
  12:	31011d03          	lh	s10,784(sp)
  16:	55015213          	.insn	4, 0x55015213
  1a:	590b5817          	auipc	a6,0x590b5
  1e:	010b570b          	.insn	4, 0x010b570b
  22:	04000013          	li	zero,64
  26:	1755010b          	.insn	4, 0x1755010b
  2a:	0000                	unimp
  2c:	3405                	addiw	s0,s0,-31 # 1afe1 <__stack_size+0x12fe1>
  2e:	3100                	fld	fs0,32(a0)
  30:	00170213          	addi	tp,a4,1
  34:	0600                	addi	s0,sp,768
  36:	0005                	c.nop	1
  38:	1331                	addi	t1,t1,-20 # 1fec <__stack_align+0x1fdc>
  3a:	0000                	unimp
  3c:	7d014807          	.insn	4, 0x7d014807
  40:	7f01                	lui	t5,0xfffe0
  42:	00130113          	addi	sp,t1,1
  46:	0800                	addi	s0,sp,16
  48:	0034                	addi	a3,sp,8
  4a:	1331                	addi	t1,t1,-20
  4c:	0000                	unimp
  4e:	0d09                	addi	s10,s10,2
  50:	0300                	addi	s0,sp,384
  52:	3a0e                	fld	fs4,224(sp)
  54:	0121                	addi	sp,sp,8
  56:	21390b3b          	.insn	4, 0x21390b3b
  5a:	4910                	lw	a2,16(a0)
  5c:	6b0b0d13          	addi	s10,s6,1712
  60:	0a00000b          	.insn	4, 0x0a00000b
  64:	0024                	addi	s1,sp,8
  66:	0b3e0b0b          	.insn	4, 0x0b3e0b0b
  6a:	00000e03          	lb	t3,0(zero) # 0 <__boot_hart>
  6e:	31011d0b          	.insn	4, 0x31011d0b
  72:	12011113          	.insn	4, 0x12011113
  76:	590b5807          	.insn	4, 0x590b5807
  7a:	0221570b          	.insn	4, 0x0221570b
  7e:	1301                	addi	t1,t1,-32
  80:	0000                	unimp
  82:	050c                	addi	a1,sp,640
  84:	0300                	addi	s0,sp,384
  86:	3a0e                	fld	fs4,224(sp)
  88:	0121                	addi	sp,sp,8
  8a:	0b390b3b          	.insn	4, 0x0b390b3b
  8e:	1349                	addi	t1,t1,-14
  90:	1702                	slli	a4,a4,0x20
  92:	0000                	unimp
  94:	160d                	addi	a2,a2,-29
  96:	0300                	addi	s0,sp,384
  98:	3a0e                	fld	fs4,224(sp)
  9a:	390b3b0b          	.insn	4, 0x390b3b0b
  9e:	0013490b          	.insn	4, 0x0013490b
  a2:	0e00                	addi	s0,sp,784
  a4:	011d                	addi	sp,sp,7
  a6:	1331                	addi	t1,t1,-20
  a8:	0152                	slli	sp,sp,0x14
  aa:	1755                	addi	a4,a4,-11
  ac:	2158                	fld	fa4,128(a0)
  ae:	5901                	li	s2,-32
  b0:	0221570b          	.insn	4, 0x0221570b
  b4:	0000                	unimp
  b6:	31011d0f          	.insn	4, 0x31011d0f
  ba:	12011113          	.insn	4, 0x12011113
  be:	01215807          	.insn	4, 0x01215807
  c2:	0b59                	addi	s6,s6,22
  c4:	00022157          	.insn	4, 0x00022157
  c8:	1000                	addi	s0,sp,32
  ca:	0034                	addi	a3,sp,8
  cc:	0b3a0e03          	lb	t3,179(s4)
  d0:	0b390b3b          	.insn	4, 0x0b390b3b
  d4:	1349                	addi	t1,t1,-14
  d6:	1702                	slli	a4,a4,0x20
  d8:	0000                	unimp
  da:	0511                	addi	a0,a0,4
  dc:	0300                	addi	s0,sp,384
  de:	3a0e                	fld	fs4,224(sp)
  e0:	390b3b0b          	.insn	4, 0x390b3b0b
  e4:	0013490b          	.insn	4, 0x0013490b
  e8:	1200                	addi	s0,sp,288
  ea:	000d                	c.nop	3
  ec:	213a0e03          	lb	t3,531(s4)
  f0:	3b01                	addiw	s6,s6,-32
  f2:	490b390b          	.insn	4, 0x490b390b
  f6:	13000013          	li	zero,304
  fa:	210b000f          	.insn	4, 0x210b000f
  fe:	4908                	lw	a0,16(a0)
 100:	14000013          	li	zero,320
 104:	012e                	slli	sp,sp,0xb
 106:	0e03193f 0b3b0b3a 	.insn	8, 0x0b3b0b3a0e03193f
 10e:	2139                	addiw	sp,sp,14
 110:	2705                	addiw	a4,a4,1
 112:	4919                	li	s2,6
 114:	12011113          	.insn	4, 0x12011113
 118:	7a184007          	.insn	4, 0x7a184007
 11c:	0119                	addi	sp,sp,6
 11e:	15000013          	li	zero,336
 122:	0148                	addi	a0,sp,132
 124:	017d                	addi	sp,sp,31
 126:	0000137f 03003416 	.insn	12, 0x01213a08030034160000137f
 12e:	01213a08 
 132:	21390b3b          	.insn	4, 0x21390b3b
 136:	0213490b          	.insn	4, 0x0213490b
 13a:	17000017          	auipc	zero,0x17000
 13e:	0034                	addi	a3,sp,8
 140:	0b3a0803          	lb	a6,179(s4)
 144:	0b390b3b          	.insn	4, 0x0b390b3b
 148:	1349                	addi	t1,t1,-14
 14a:	0000                	unimp
 14c:	1318                	addi	a4,sp,416
 14e:	0b01                	addi	s6,s6,0
 150:	0421                	addi	s0,s0,8
 152:	213a                	fld	ft2,392(sp)
 154:	3b01                	addiw	s6,s6,-32
 156:	0221390b          	.insn	4, 0x0221390b
 15a:	1301                	addi	t1,t1,-32
 15c:	0000                	unimp
 15e:	1719                	addi	a4,a4,-26
 160:	0b01                	addi	s6,s6,0
 162:	0421                	addi	s0,s0,8
 164:	213a                	fld	ft2,392(sp)
 166:	3b01                	addiw	s6,s6,-32
 168:	0921390b          	.insn	4, 0x0921390b
 16c:	1301                	addi	t1,t1,-32
 16e:	0000                	unimp
 170:	051a                	slli	a0,a0,0x6
 172:	0300                	addi	s0,sp,384
 174:	3a08                	fld	fa0,48(a2)
 176:	0121                	addi	sp,sp,8
 178:	0b390b3b          	.insn	4, 0x0b390b3b
 17c:	1349                	addi	t1,t1,-14
 17e:	1702                	slli	a4,a4,0x20
 180:	0000                	unimp
 182:	3f012e1b          	.insn	4, 0x3f012e1b
 186:	0319                	addi	t1,t1,6
 188:	3a0e                	fld	fs4,224(sp)
 18a:	0121                	addi	sp,sp,8
 18c:	21390b3b          	.insn	4, 0x21390b3b
 190:	2706                	fld	fa4,64(sp)
 192:	2019                	.insn	2, 0x2019
 194:	0121                	addi	sp,sp,8
 196:	1301                	addi	t1,t1,-32
 198:	0000                	unimp
 19a:	111c                	addi	a5,sp,160
 19c:	2501                	sext.w	a0,a0
 19e:	130e                	slli	t1,t1,0x23
 1a0:	1b1f030b          	.insn	4, 0x1b1f030b
 1a4:	551f 1117 1001      	.insn	6, 0x10011117551f
 1aa:	1d000017          	auipc	zero,0x1d000
 1ae:	0024                	addi	s1,sp,8
 1b0:	0b3e0b0b          	.insn	4, 0x0b3e0b0b
 1b4:	00000803          	lb	a6,0(zero) # 0 <__boot_hart>
 1b8:	261e                	fld	fa2,448(sp)
 1ba:	4900                	lw	s0,16(a0)
 1bc:	1f000013          	li	zero,496
 1c0:	13490037          	lui	zero,0x13490
 1c4:	0000                	unimp
 1c6:	3520                	fld	fs0,104(a0)
 1c8:	4900                	lw	s0,16(a0)
 1ca:	21000013          	li	zero,528
 1ce:	0101                	addi	sp,sp,0
 1d0:	1349                	addi	t1,t1,-14
 1d2:	1301                	addi	t1,t1,-32
 1d4:	0000                	unimp
 1d6:	2122                	fld	ft2,8(sp)
 1d8:	4900                	lw	s0,16(a0)
 1da:	000b2f13          	slti	t5,s6,0
 1de:	2300                	fld	fs0,0(a4)
 1e0:	0034                	addi	a3,sp,8
 1e2:	0b3a0e03          	lb	t3,179(s4)
 1e6:	0b390b3b          	.insn	4, 0x0b390b3b
 1ea:	1349                	addi	t1,t1,-14
 1ec:	1802                	slli	a6,a6,0x20
 1ee:	0000                	unimp
 1f0:	3424                	fld	fs1,104(s0)
 1f2:	0300                	addi	s0,sp,384
 1f4:	3a0e                	fld	fs4,224(sp)
 1f6:	390b3b0b          	.insn	4, 0x390b3b0b
 1fa:	0013490b          	.insn	4, 0x0013490b
 1fe:	2500                	fld	fs0,8(a0)
 200:	000d                	c.nop	3
 202:	0b3a0803          	lb	a6,179(s4)
 206:	0b390b3b          	.insn	4, 0x0b390b3b
 20a:	1349                	addi	t1,t1,-14
 20c:	0b0d                	addi	s6,s6,3
 20e:	00000b6b          	.insn	4, 0x0b6b
 212:	2e26                	fld	ft8,72(sp)
 214:	3f01                	addiw	t5,t5,-32 # fffffffffffdffe0 <__heap_end+0xffffffff7ffbcfe0>
 216:	0319                	addi	t1,t1,6
 218:	3a0e                	fld	fs4,224(sp)
 21a:	390b3b0b          	.insn	4, 0x390b3b0b
 21e:	4919270b          	.insn	4, 0x4919270b
 222:	01193c13          	sltiu	s8,s2,17
 226:	27000013          	li	zero,624
 22a:	0005                	c.nop	1
 22c:	1349                	addi	t1,t1,-14
 22e:	0000                	unimp
 230:	1828                	addi	a0,sp,56
 232:	0000                	unimp
 234:	2900                	fld	fs0,16(a0)
 236:	012e                	slli	sp,sp,0xb
 238:	0e03193f 0b3b0b3a 	.insn	8, 0x0b3b0b3a0e03193f
 240:	0b39                	addi	s6,s6,14
 242:	01111927          	.insn	4, 0x01111927
 246:	0712                	slli	a4,a4,0x4
 248:	1840                	addi	s0,sp,52
 24a:	197a                	slli	s2,s2,0x3e
 24c:	1301                	addi	t1,t1,-32
 24e:	0000                	unimp
 250:	052a                	slli	a0,a0,0xa
 252:	0300                	addi	s0,sp,384
 254:	3a08                	fld	fa0,48(a2)
 256:	390b3b0b          	.insn	4, 0x390b3b0b
 25a:	0213490b          	.insn	4, 0x0213490b
 25e:	0018                	.insn	2, 0x0018
 260:	2b00                	fld	fs0,16(a4)
 262:	012e                	slli	sp,sp,0xb
 264:	0b3a0e03          	lb	t3,179(s4)
 268:	0b390b3b          	.insn	4, 0x0b390b3b
 26c:	13491927          	.insn	4, 0x13491927
 270:	0b20                	addi	s0,sp,408
 272:	1301                	addi	t1,t1,-32
 274:	0000                	unimp
 276:	2e2c                	fld	fa1,88(a2)
 278:	0301                	addi	t1,t1,0
 27a:	3a0e                	fld	fs4,224(sp)
 27c:	390b3b0b          	.insn	4, 0x390b3b0b
 280:	2019270b          	.insn	4, 0x2019270b
 284:	0013010b          	.insn	4, 0x0013010b
 288:	2d00                	fld	fs0,24(a0)
 28a:	012e                	slli	sp,sp,0xb
 28c:	1331                	addi	t1,t1,-20
 28e:	0111                	addi	sp,sp,4
 290:	0712                	slli	a4,a4,0x4
 292:	1840                	addi	s0,sp,52
 294:	197a                	slli	s2,s2,0x3e
 296:	1301                	addi	t1,t1,-32
 298:	0000                	unimp
 29a:	2e2e                	fld	ft8,200(sp)
 29c:	3101                	addiw	sp,sp,-32
 29e:	12011113          	.insn	4, 0x12011113
 2a2:	7a184007          	.insn	4, 0x7a184007
 2a6:	0019                	c.nop	6
 2a8:	2f00                	fld	fs0,24(a4)
 2aa:	0005                	c.nop	1
 2ac:	1331                	addi	t1,t1,-20
 2ae:	1802                	slli	a6,a6,0x20
 2b0:	0000                	unimp
 2b2:	0100                	addi	s0,sp,128
 2b4:	0024                	addi	s1,sp,8
 2b6:	0b3e0b0b          	.insn	4, 0x0b3e0b0b
 2ba:	00000e03          	lb	t3,0(zero) # 0 <__boot_hart>
 2be:	1102                	slli	sp,sp,0x20
 2c0:	2501                	sext.w	a0,a0
 2c2:	130e                	slli	t1,t1,0x23
 2c4:	1b1f030b          	.insn	4, 0x1b1f030b
 2c8:	111f 1201 1007      	.insn	6, 0x10071201111f
 2ce:	03000017          	auipc	zero,0x3000
 2d2:	0024                	addi	s1,sp,8
 2d4:	0b3e0b0b          	.insn	4, 0x0b3e0b0b
 2d8:	00000803          	lb	a6,0(zero) # 0 <__boot_hart>
 2dc:	2e04                	fld	fs1,24(a2)
 2de:	3f00                	fld	fs0,56(a4)
 2e0:	0319                	addi	t1,t1,6
 2e2:	3a0e                	fld	fs4,224(sp)
 2e4:	390b3b0b          	.insn	4, 0x390b3b0b
 2e8:	4919270b          	.insn	4, 0x4919270b
 2ec:	00193c13          	seqz	s8,s2
 2f0:	0500                	addi	s0,sp,640
 2f2:	0b0b000f          	.insn	4, 0x0b0b000f
 2f6:	1349                	addi	t1,t1,-14
 2f8:	0000                	unimp
 2fa:	2e06                	fld	ft8,64(sp)
 2fc:	3f01                	addiw	t5,t5,-32
 2fe:	0319                	addi	t1,t1,6
 300:	3a0e                	fld	fs4,224(sp)
 302:	390b3b0b          	.insn	4, 0x390b3b0b
 306:	4919270b          	.insn	4, 0x4919270b
 30a:	12011113          	.insn	4, 0x12011113
 30e:	7a184007          	.insn	4, 0x7a184007
 312:	0019                	c.nop	6
 314:	0700                	addi	s0,sp,896
 316:	0005                	c.nop	1
 318:	0b3a0e03          	lb	t3,179(s4)
 31c:	0b390b3b          	.insn	4, 0x0b390b3b
 320:	1349                	addi	t1,t1,-14
 322:	1702                	slli	a4,a4,0x20
 324:	0000                	unimp
 326:	4808                	lw	a0,16(s0)
 328:	7d00                	ld	s0,56(a0)
 32a:	7f01                	lui	t5,0xfffe0
 32c:	00000013          	nop
 330:	1601                	addi	a2,a2,-32
 332:	0300                	addi	s0,sp,384
 334:	3a0e                	fld	fs4,224(sp)
 336:	390b3b0b          	.insn	4, 0x390b3b0b
 33a:	0013490b          	.insn	4, 0x0013490b
 33e:	0200                	addi	s0,sp,256
 340:	000d                	c.nop	3
 342:	0b3a0e03          	lb	t3,179(s4)
 346:	0b390b3b          	.insn	4, 0x0b390b3b
 34a:	1349                	addi	t1,t1,-14
 34c:	0b38                	addi	a4,sp,408
 34e:	0000                	unimp
 350:	0b002403          	lw	s0,176(zero) # b0 <__stack_align+0xa0>
 354:	030b3e0b          	.insn	4, 0x030b3e0b
 358:	000e                	c.slli	zero,0x3
 35a:	0400                	addi	s0,sp,512
 35c:	0e030113          	addi	sp,t1,224
 360:	0b3a0b0b          	.insn	4, 0x0b3a0b0b
 364:	21390b3b          	.insn	4, 0x21390b3b
 368:	0108                	addi	a0,sp,128
 36a:	05000013          	li	zero,80
 36e:	210b000f          	.insn	4, 0x210b000f
 372:	4908                	lw	a0,16(a0)
 374:	06000013          	li	zero,96
 378:	0111                	addi	sp,sp,4
 37a:	0e25                	addi	t3,t3,9
 37c:	1f030b13          	addi	s6,t1,496
 380:	01111f1b          	slliw	t5,sp,0x11
 384:	0712                	slli	a4,a4,0x4
 386:	1710                	addi	a2,sp,928
 388:	0000                	unimp
 38a:	0b002407          	flw	fs0,176(zero) # b0 <__stack_align+0xa0>
 38e:	030b3e0b          	.insn	4, 0x030b3e0b
 392:	0008                	.insn	2, 0x0008
 394:	0800                	addi	s0,sp,16
 396:	0101                	addi	sp,sp,0
 398:	1349                	addi	t1,t1,-14
 39a:	1301                	addi	t1,t1,-32
 39c:	0000                	unimp
 39e:	2109                	addiw	sp,sp,2
 3a0:	4900                	lw	s0,16(a0)
 3a2:	000b2f13          	slti	t5,s6,0
 3a6:	0a00                	addi	s0,sp,272
 3a8:	002e                	c.slli	zero,0xb
 3aa:	0e03193f 0b3b0b3a 	.insn	8, 0x0b3b0b3a0e03193f
 3b2:	0b39                	addi	s6,s6,14
 3b4:	13491927          	.insn	4, 0x13491927
 3b8:	193c                	addi	a5,sp,184
 3ba:	0000                	unimp
 3bc:	3f012e0b          	.insn	4, 0x3f012e0b
 3c0:	0319                	addi	t1,t1,6
 3c2:	3a0e                	fld	fs4,224(sp)
 3c4:	390b3b0b          	.insn	4, 0x390b3b0b
 3c8:	4919270b          	.insn	4, 0x4919270b
 3cc:	12011113          	.insn	4, 0x12011113
 3d0:	7a184007          	.insn	4, 0x7a184007
 3d4:	0119                	addi	sp,sp,6
 3d6:	0c000013          	li	zero,192
 3da:	0005                	c.nop	1
 3dc:	0b3a0e03          	lb	t3,179(s4)
 3e0:	0b390b3b          	.insn	4, 0x0b390b3b
 3e4:	1349                	addi	t1,t1,-14
 3e6:	1702                	slli	a4,a4,0x20
 3e8:	0000                	unimp
 3ea:	050d                	addi	a0,a0,3
 3ec:	0300                	addi	s0,sp,384
 3ee:	3a08                	fld	fa0,48(a2)
 3f0:	390b3b0b          	.insn	4, 0x390b3b0b
 3f4:	0213490b          	.insn	4, 0x0213490b
 3f8:	0e000017          	auipc	zero,0xe000
 3fc:	0048                	addi	a0,sp,4
 3fe:	017d                	addi	sp,sp,31
 400:	0000137f 00240100 	.insn	12, 0x0b3e0b0b002401000000137f
 408:	0b3e0b0b 
 40c:	00000e03          	lb	t3,0(zero) # 0 <__boot_hart>
 410:	1102                	slli	sp,sp,0x20
 412:	2501                	sext.w	a0,a0
 414:	130e                	slli	t1,t1,0x23
 416:	1b1f030b          	.insn	4, 0x1b1f030b
 41a:	111f 1201 1007      	.insn	6, 0x10071201111f
 420:	03000017          	auipc	zero,0x3000
 424:	0024                	addi	s1,sp,8
 426:	0b3e0b0b          	.insn	4, 0x0b3e0b0b
 42a:	00000803          	lb	a6,0(zero) # 0 <__boot_hart>
 42e:	2e04                	fld	fs1,24(a2)
 430:	3f01                	addiw	t5,t5,-32 # fffffffffffdffe0 <__heap_end+0xffffffff7ffbcfe0>
 432:	0319                	addi	t1,t1,6
 434:	3a0e                	fld	fs4,224(sp)
 436:	390b3b0b          	.insn	4, 0x390b3b0b
 43a:	4919270b          	.insn	4, 0x4919270b
 43e:	12011113          	.insn	4, 0x12011113
 442:	7a184007          	.insn	4, 0x7a184007
 446:	0019                	c.nop	6
 448:	0500                	addi	s0,sp,640
 44a:	0005                	c.nop	1
 44c:	0b3a0e03          	lb	t3,179(s4)
 450:	0b390b3b          	.insn	4, 0x0b390b3b
 454:	1349                	addi	t1,t1,-14
 456:	1702                	slli	a4,a4,0x20
 458:	0000                	unimp
 45a:	0100                	addi	s0,sp,128
 45c:	0024                	addi	s1,sp,8
 45e:	0b3e0b0b          	.insn	4, 0x0b3e0b0b
 462:	00000e03          	lb	t3,0(zero) # 0 <__boot_hart>
 466:	1602                	slli	a2,a2,0x20
 468:	0300                	addi	s0,sp,384
 46a:	3a0e                	fld	fs4,224(sp)
 46c:	390b3b0b          	.insn	4, 0x390b3b0b
 470:	0013490b          	.insn	4, 0x0013490b
 474:	0300                	addi	s0,sp,384
 476:	0005                	c.nop	1
 478:	213a0803          	lb	a6,531(s4)
 47c:	3b01                	addiw	s6,s6,-32
 47e:	0521                	addi	a0,a0,8
 480:	0b39                	addi	s6,s6,14
 482:	1349                	addi	t1,t1,-14
 484:	1702                	slli	a4,a4,0x20
 486:	0000                	unimp
 488:	1104                	addi	s1,sp,160
 48a:	2501                	sext.w	a0,a0
 48c:	130e                	slli	t1,t1,0x23
 48e:	1b1f030b          	.insn	4, 0x1b1f030b
 492:	111f 1201 1007      	.insn	6, 0x10071201111f
 498:	05000017          	auipc	zero,0x5000
 49c:	0024                	addi	s1,sp,8
 49e:	0b3e0b0b          	.insn	4, 0x0b3e0b0b
 4a2:	00000803          	lb	a6,0(zero) # 0 <__boot_hart>
 4a6:	2e06                	fld	ft8,64(sp)
 4a8:	3f00                	fld	fs0,56(a4)
 4aa:	0319                	addi	t1,t1,6
 4ac:	3a0e                	fld	fs4,224(sp)
 4ae:	390b3b0b          	.insn	4, 0x390b3b0b
 4b2:	4919270b          	.insn	4, 0x4919270b
 4b6:	00193c13          	seqz	s8,s2
 4ba:	0700                	addi	s0,sp,896
 4bc:	0b0b000f          	.insn	4, 0x0b0b000f
 4c0:	1349                	addi	t1,t1,-14
 4c2:	0000                	unimp
 4c4:	2e08                	fld	fa0,24(a2)
 4c6:	3f01                	addiw	t5,t5,-32
 4c8:	0319                	addi	t1,t1,6
 4ca:	3a0e                	fld	fs4,224(sp)
 4cc:	390b3b0b          	.insn	4, 0x390b3b0b
 4d0:	4919270b          	.insn	4, 0x4919270b
 4d4:	12011113          	.insn	4, 0x12011113
 4d8:	7a184007          	.insn	4, 0x7a184007
 4dc:	0019                	c.nop	6
 4de:	0900                	addi	s0,sp,144
 4e0:	0005                	c.nop	1
 4e2:	0b3a0e03          	lb	t3,179(s4)
 4e6:	0b390b3b          	.insn	4, 0x0b390b3b
 4ea:	1349                	addi	t1,t1,-14
 4ec:	1702                	slli	a4,a4,0x20
 4ee:	0000                	unimp
 4f0:	480a                	lw	a6,128(sp)
 4f2:	7d00                	ld	s0,56(a0)
 4f4:	7f01                	lui	t5,0xfffe0
 4f6:	00000013          	nop
 4fa:	2401                	sext.w	s0,s0
 4fc:	0b00                	addi	s0,sp,400
 4fe:	030b3e0b          	.insn	4, 0x030b3e0b
 502:	000e                	c.slli	zero,0x3
 504:	0200                	addi	s0,sp,256
 506:	0016                	c.slli	zero,0x5
 508:	0b3a0e03          	lb	t3,179(s4)
 50c:	0b390b3b          	.insn	4, 0x0b390b3b
 510:	1349                	addi	t1,t1,-14
 512:	0000                	unimp
 514:	03000503          	lb	a0,48(zero) # 30 <__stack_align+0x20>
 518:	3a08                	fld	fa0,48(a2)
 51a:	0121                	addi	sp,sp,8
 51c:	3905213b          	.insn	4, 0x3905213b
 520:	0213490b          	.insn	4, 0x0213490b
 524:	04000017          	auipc	zero,0x4000
 528:	0111                	addi	sp,sp,4
 52a:	0e25                	addi	t3,t3,9
 52c:	1f030b13          	addi	s6,t1,496
 530:	01111f1b          	slliw	t5,sp,0x11
 534:	0712                	slli	a4,a4,0x4
 536:	1710                	addi	a2,sp,928
 538:	0000                	unimp
 53a:	2405                	addiw	s0,s0,1
 53c:	0b00                	addi	s0,sp,400
 53e:	030b3e0b          	.insn	4, 0x030b3e0b
 542:	0008                	.insn	2, 0x0008
 544:	0600                	addi	s0,sp,768
 546:	0b0b000f          	.insn	4, 0x0b0b000f
 54a:	0000                	unimp
 54c:	3f002e07          	flw	ft8,1008(zero) # 3f0 <__stack_align+0x3e0>
 550:	0319                	addi	t1,t1,6
 552:	3a0e                	fld	fs4,224(sp)
 554:	390b3b0b          	.insn	4, 0x390b3b0b
 558:	4919270b          	.insn	4, 0x4919270b
 55c:	00193c13          	seqz	s8,s2
 560:	0800                	addi	s0,sp,16
 562:	0b0b000f          	.insn	4, 0x0b0b000f
 566:	1349                	addi	t1,t1,-14
 568:	0000                	unimp
 56a:	2e09                	addiw	t3,t3,2
 56c:	3f01                	addiw	t5,t5,-32 # fffffffffffdffe0 <__heap_end+0xffffffff7ffbcfe0>
 56e:	0319                	addi	t1,t1,6
 570:	3a0e                	fld	fs4,224(sp)
 572:	390b3b0b          	.insn	4, 0x390b3b0b
 576:	4919270b          	.insn	4, 0x4919270b
 57a:	12011113          	.insn	4, 0x12011113
 57e:	7a184007          	.insn	4, 0x7a184007
 582:	0019                	c.nop	6
 584:	0a00                	addi	s0,sp,272
 586:	0005                	c.nop	1
 588:	0b3a0e03          	lb	t3,179(s4)
 58c:	0b390b3b          	.insn	4, 0x0b390b3b
 590:	1349                	addi	t1,t1,-14
 592:	1702                	slli	a4,a4,0x20
 594:	0000                	unimp
 596:	7d00480b          	.insn	4, 0x7d00480b
 59a:	7f01                	lui	t5,0xfffe0
 59c:	00000013          	nop
 5a0:	2401                	sext.w	s0,s0
 5a2:	0b00                	addi	s0,sp,400
 5a4:	030b3e0b          	.insn	4, 0x030b3e0b
 5a8:	000e                	c.slli	zero,0x3
 5aa:	0200                	addi	s0,sp,256
 5ac:	210b000f          	.insn	4, 0x210b000f
 5b0:	4908                	lw	a0,16(a0)
 5b2:	03000013          	li	zero,48
 5b6:	0034                	addi	a3,sp,8
 5b8:	213a0e03          	lb	t3,531(s4)
 5bc:	3b01                	addiw	s6,s6,-32
 5be:	490b390b          	.insn	4, 0x490b390b
 5c2:	3c193f13          	sltiu	t5,s2,961
 5c6:	0019                	c.nop	6
 5c8:	0400                	addi	s0,sp,512
 5ca:	0034                	addi	a3,sp,8
 5cc:	213a0e03          	lb	t3,531(s4)
 5d0:	3b01                	addiw	s6,s6,-32
 5d2:	0b21390b          	.insn	4, 0x0b21390b
 5d6:	1349                	addi	t1,t1,-14
 5d8:	1702                	slli	a4,a4,0x20
 5da:	0000                	unimp
 5dc:	1105                	addi	sp,sp,-31
 5de:	2501                	sext.w	a0,a0
 5e0:	130e                	slli	t1,t1,0x23
 5e2:	1b1f030b          	.insn	4, 0x1b1f030b
 5e6:	111f 1201 1007      	.insn	6, 0x10071201111f
 5ec:	06000017          	auipc	zero,0x6000
 5f0:	0016                	c.slli	zero,0x5
 5f2:	0b3a0e03          	lb	t3,179(s4)
 5f6:	0b390b3b          	.insn	4, 0x0b390b3b
 5fa:	1349                	addi	t1,t1,-14
 5fc:	0000                	unimp
 5fe:	0b002407          	flw	fs0,176(zero) # b0 <__stack_align+0xa0>
 602:	030b3e0b          	.insn	4, 0x030b3e0b
 606:	0008                	.insn	2, 0x0008
 608:	0800                	addi	s0,sp,16
 60a:	0b0b000f          	.insn	4, 0x0b0b000f
 60e:	0000                	unimp
 610:	0109                	addi	sp,sp,2
 612:	4901                	li	s2,0
 614:	00130113          	addi	sp,t1,1
 618:	0a00                	addi	s0,sp,272
 61a:	0021                	c.nop	8
 61c:	0000                	unimp
 61e:	0300340b          	.insn	4, 0x0300340b
 622:	3a0e                	fld	fs4,224(sp)
 624:	390b3b0b          	.insn	4, 0x390b3b0b
 628:	0213490b          	.insn	4, 0x0213490b
 62c:	0018                	.insn	2, 0x0018
 62e:	0c00                	addi	s0,sp,528
 630:	002e                	c.slli	zero,0xb
 632:	0e03193f 0b3b0b3a 	.insn	8, 0x0b3b0b3a0e03193f
 63a:	0b39                	addi	s6,s6,14
 63c:	13491927          	.insn	4, 0x13491927
 640:	193c                	addi	a5,sp,184
 642:	0000                	unimp
 644:	2e0d                	addiw	t3,t3,3
 646:	3f01                	addiw	t5,t5,-32 # fffffffffffdffe0 <__heap_end+0xffffffff7ffbcfe0>
 648:	0319                	addi	t1,t1,6
 64a:	3a0e                	fld	fs4,224(sp)
 64c:	390b3b0b          	.insn	4, 0x390b3b0b
 650:	4919270b          	.insn	4, 0x4919270b
 654:	12011113          	.insn	4, 0x12011113
 658:	7a184007          	.insn	4, 0x7a184007
 65c:	0019                	c.nop	6
 65e:	0e00                	addi	s0,sp,784
 660:	0005                	c.nop	1
 662:	0b3a0e03          	lb	t3,179(s4)
 666:	0b390b3b          	.insn	4, 0x0b390b3b
 66a:	1349                	addi	t1,t1,-14
 66c:	1702                	slli	a4,a4,0x20
 66e:	0000                	unimp
 670:	7d00480f          	.insn	4, 0x7d00480f
 674:	7f01                	lui	t5,0xfffe0
 676:	00000013          	nop
 67a:	2401                	sext.w	s0,s0
 67c:	0b00                	addi	s0,sp,400
 67e:	030b3e0b          	.insn	4, 0x030b3e0b
 682:	000e                	c.slli	zero,0x3
 684:	0200                	addi	s0,sp,256
 686:	0016                	c.slli	zero,0x5
 688:	0b3a0e03          	lb	t3,179(s4)
 68c:	0b390b3b          	.insn	4, 0x0b390b3b
 690:	1349                	addi	t1,t1,-14
 692:	0000                	unimp
 694:	49000503          	lb	a0,1168(zero) # 490 <__stack_align+0x480>
 698:	04000013          	li	zero,64
 69c:	0049                	c.nop	18
 69e:	1802                	slli	a6,a6,0x20
 6a0:	187e                	slli	a6,a6,0x3f
 6a2:	0000                	unimp
 6a4:	0505                	addi	a0,a0,1
 6a6:	0300                	addi	s0,sp,384
 6a8:	3a08                	fld	fa0,48(a2)
 6aa:	0121                	addi	sp,sp,8
 6ac:	3906213b          	.insn	4, 0x3906213b
 6b0:	0213490b          	.insn	4, 0x0213490b
 6b4:	06000017          	auipc	zero,0x6000
 6b8:	0111                	addi	sp,sp,4
 6ba:	0e25                	addi	t3,t3,9
 6bc:	1f030b13          	addi	s6,t1,496
 6c0:	01111f1b          	slliw	t5,sp,0x11
 6c4:	0712                	slli	a4,a4,0x4
 6c6:	1710                	addi	a2,sp,928
 6c8:	0000                	unimp
 6ca:	0b002407          	flw	fs0,176(zero) # b0 <__stack_align+0xa0>
 6ce:	030b3e0b          	.insn	4, 0x030b3e0b
 6d2:	0008                	.insn	2, 0x0008
 6d4:	0800                	addi	s0,sp,16
 6d6:	012e                	slli	sp,sp,0xb
 6d8:	0e03193f 0b3b0b3a 	.insn	8, 0x0b3b0b3a0e03193f
 6e0:	0b39                	addi	s6,s6,14
 6e2:	13491927          	.insn	4, 0x13491927
 6e6:	193c                	addi	a5,sp,184
 6e8:	1301                	addi	t1,t1,-32
 6ea:	0000                	unimp
 6ec:	2e09                	addiw	t3,t3,2
 6ee:	3f01                	addiw	t5,t5,-32 # fffffffffffdffe0 <__heap_end+0xffffffff7ffbcfe0>
 6f0:	0319                	addi	t1,t1,6
 6f2:	3a0e                	fld	fs4,224(sp)
 6f4:	390b3b0b          	.insn	4, 0x390b3b0b
 6f8:	4919270b          	.insn	4, 0x4919270b
 6fc:	12011113          	.insn	4, 0x12011113
 700:	7a184007          	.insn	4, 0x7a184007
 704:	0119                	addi	sp,sp,6
 706:	0a000013          	li	zero,160
 70a:	0148                	addi	a0,sp,132
 70c:	017d                	addi	sp,sp,31
 70e:	0182                	c.slli64	gp
 710:	7f19                	lui	t5,0xfffe6
 712:	0b000013          	li	zero,176
 716:	0b0b000f          	.insn	4, 0x0b0b000f
 71a:	1349                	addi	t1,t1,-14
 71c:	0000                	unimp
 71e:	260c                	fld	fa1,8(a2)
 720:	0000                	unimp
 722:	0000                	unimp
 724:	1101                	addi	sp,sp,-32
 726:	1000                	addi	s0,sp,32
 728:	12011117          	auipc	sp,0x12011
 72c:	1b0e030f          	.insn	4, 0x1b0e030f
 730:	250e                	fld	fa0,192(sp)
 732:	130e                	slli	t1,t1,0x23
 734:	0005                	c.nop	1
 736:	0000                	unimp
 738:	1101                	addi	sp,sp,-32 # 12011708 <__heap_size+0x11ff1708>
 73a:	1000                	addi	s0,sp,32
 73c:	12011117          	auipc	sp,0x12011
 740:	1b0e030f          	.insn	4, 0x1b0e030f
 744:	250e                	fld	fa0,192(sp)
 746:	130e                	slli	t1,t1,0x23
 748:	0005                	c.nop	1
 74a:	0000                	unimp
 74c:	2401                	sext.w	s0,s0
 74e:	0b00                	addi	s0,sp,400
 750:	030b3e0b          	.insn	4, 0x030b3e0b
 754:	000e                	c.slli	zero,0x3
 756:	0200                	addi	s0,sp,256
 758:	0016                	c.slli	zero,0x5
 75a:	0b3a0e03          	lb	t3,179(s4)
 75e:	0b390b3b          	.insn	4, 0x0b390b3b
 762:	1349                	addi	t1,t1,-14
 764:	0000                	unimp
 766:	03000503          	lb	a0,48(zero) # 30 <__stack_align+0x20>
 76a:	3a0e                	fld	fs4,224(sp)
 76c:	0121                	addi	sp,sp,8 # 12011744 <__heap_size+0x11ff1744>
 76e:	3904213b          	.insn	4, 0x3904213b
 772:	0213490b          	.insn	4, 0x0213490b
 776:	04000017          	auipc	zero,0x4000
 77a:	0111                	addi	sp,sp,4
 77c:	0e25                	addi	t3,t3,9
 77e:	1f030b13          	addi	s6,t1,496
 782:	01111f1b          	slliw	t5,sp,0x11
 786:	0712                	slli	a4,a4,0x4
 788:	1710                	addi	a2,sp,928
 78a:	0000                	unimp
 78c:	2405                	addiw	s0,s0,1
 78e:	0b00                	addi	s0,sp,400
 790:	030b3e0b          	.insn	4, 0x030b3e0b
 794:	0008                	.insn	2, 0x0008
 796:	0600                	addi	s0,sp,768
 798:	012e                	slli	sp,sp,0xb
 79a:	0e03193f 0b3b0b3a 	.insn	8, 0x0b3b0b3a0e03193f
 7a2:	0b39                	addi	s6,s6,14
 7a4:	01871927          	.insn	4, 0x01871927
 7a8:	3c19                	addiw	s8,s8,-26
 7aa:	0119                	addi	sp,sp,6
 7ac:	07000013          	li	zero,112
 7b0:	0005                	c.nop	1
 7b2:	1349                	addi	t1,t1,-14
 7b4:	0000                	unimp
 7b6:	2e08                	fld	fa0,24(a2)
 7b8:	3f01                	addiw	t5,t5,-32 # fffffffffffe5fe0 <__heap_end+0xffffffff7ffc2fe0>
 7ba:	0319                	addi	t1,t1,6
 7bc:	3a0e                	fld	fs4,224(sp)
 7be:	390b3b0b          	.insn	4, 0x390b3b0b
 7c2:	1119270b          	.insn	4, 0x1119270b
 7c6:	1201                	addi	tp,tp,-32 # ffffffffffffffe0 <__heap_end+0xffffffff7ffdcfe0>
 7c8:	7a184007          	.insn	4, 0x7a184007
 7cc:	0119                	addi	sp,sp,6
 7ce:	09000013          	li	zero,144
 7d2:	0005                	c.nop	1
 7d4:	0b3a0803          	lb	a6,179(s4)
 7d8:	0b390b3b          	.insn	4, 0x0b390b3b
 7dc:	1349                	addi	t1,t1,-14
 7de:	1702                	slli	a4,a4,0x20
 7e0:	0000                	unimp
 7e2:	340a                	fld	fs0,160(sp)
 7e4:	0300                	addi	s0,sp,384
 7e6:	3a0e                	fld	fs4,224(sp)
 7e8:	390b3b0b          	.insn	4, 0x390b3b0b
 7ec:	0213490b          	.insn	4, 0x0213490b
 7f0:	0b000017          	auipc	zero,0xb000
 7f4:	0048                	addi	a0,sp,4
 7f6:	017d                	addi	sp,sp,31
 7f8:	0000137f 0b000f0c 	.insn	12, 0x0013490b0b000f0c0000137f
 800:	0013490b 
 804:	0000                	unimp
 806:	2401                	sext.w	s0,s0
 808:	0b00                	addi	s0,sp,400
 80a:	030b3e0b          	.insn	4, 0x030b3e0b
 80e:	000e                	c.slli	zero,0x3
 810:	0200                	addi	s0,sp,256
 812:	0005                	c.nop	1
 814:	1349                	addi	t1,t1,-14
 816:	0000                	unimp
 818:	03003403          	ld	s0,48(zero) # 30 <__stack_align+0x20>
 81c:	3a0e                	fld	fs4,224(sp)
 81e:	0121                	addi	sp,sp,8
 820:	21390b3b          	.insn	4, 0x21390b3b
 824:	4911                	li	s2,4
 826:	3c193f13          	sltiu	t5,s2,961
 82a:	0019                	c.nop	6
 82c:	0400                	addi	s0,sp,512
 82e:	13490037          	lui	zero,0x13490
 832:	0000                	unimp
 834:	0f05                	addi	t5,t5,1
 836:	0b00                	addi	s0,sp,400
 838:	0821                	addi	a6,a6,8 # 590b5022 <__heap_size+0x59095022>
 83a:	1349                	addi	t1,t1,-14
 83c:	0000                	unimp
 83e:	2e06                	fld	ft8,64(sp)
 840:	3f01                	addiw	t5,t5,-32
 842:	0319                	addi	t1,t1,6
 844:	3a0e                	fld	fs4,224(sp)
 846:	0221                	addi	tp,tp,8 # 8 <__boot_hart+0x8>
 848:	21390b3b          	.insn	4, 0x21390b3b
 84c:	2709                	addiw	a4,a4,2
 84e:	4919                	li	s2,6
 850:	01193c13          	sltiu	s8,s2,17
 854:	07000013          	li	zero,112
 858:	0049                	c.nop	18
 85a:	1802                	slli	a6,a6,0x20
 85c:	187e                	slli	a6,a6,0x3f
 85e:	0000                	unimp
 860:	1108                	addi	a0,sp,160
 862:	2501                	sext.w	a0,a0
 864:	130e                	slli	t1,t1,0x23
 866:	1b1f030b          	.insn	4, 0x1b1f030b
 86a:	111f 1201 1007      	.insn	6, 0x10071201111f
 870:	09000017          	auipc	zero,0x9000
 874:	0016                	c.slli	zero,0x5
 876:	0b3a0e03          	lb	t3,179(s4)
 87a:	0b390b3b          	.insn	4, 0x0b390b3b
 87e:	1349                	addi	t1,t1,-14
 880:	0000                	unimp
 882:	240a                	fld	fs0,128(sp)
 884:	0b00                	addi	s0,sp,400
 886:	030b3e0b          	.insn	4, 0x030b3e0b
 88a:	0008                	.insn	2, 0x0008
 88c:	0b00                	addi	s0,sp,400
 88e:	0b0b000f          	.insn	4, 0x0b0b000f
 892:	0000                	unimp
 894:	260c                	fld	fa1,8(a2)
 896:	0000                	unimp
 898:	0d00                	addi	s0,sp,656
 89a:	012e                	slli	sp,sp,0xb
 89c:	0e03193f 0b3b0b3a 	.insn	8, 0x0b3b0b3a0e03193f
 8a4:	0b39                	addi	s6,s6,14
 8a6:	01111927          	.insn	4, 0x01111927
 8aa:	0712                	slli	a4,a4,0x4
 8ac:	1840                	addi	s0,sp,52
 8ae:	197a                	slli	s2,s2,0x3e
 8b0:	1301                	addi	t1,t1,-32
 8b2:	0000                	unimp
 8b4:	340e                	fld	fs0,224(sp)
 8b6:	0300                	addi	s0,sp,384
 8b8:	3a0e                	fld	fs4,224(sp)
 8ba:	390b3b0b          	.insn	4, 0x390b3b0b
 8be:	0213490b          	.insn	4, 0x0213490b
 8c2:	0018                	.insn	2, 0x0018
 8c4:	0f00                	addi	s0,sp,912
 8c6:	0148                	addi	a0,sp,132
 8c8:	017d                	addi	sp,sp,31
 8ca:	1301137f 48100000 	.insn	12, 0x82017d01481000001301137f
 8d2:	82017d01 
 8d6:	1901                	addi	s2,s2,-32
 8d8:	0000137f 49010111 	.insn	12, 0x12000013490101110000137f
 8e0:	12000013 
 8e4:	0021                	c.nop	8
 8e6:	0000                	unimp
 8e8:	0100                	addi	s0,sp,128
 8ea:	0111                	addi	sp,sp,4
 8ec:	0e25                	addi	t3,t3,9
 8ee:	1f030b13          	addi	s6,t1,496
 8f2:	01111f1b          	slliw	t5,sp,0x11
 8f6:	0712                	slli	a4,a4,0x4
 8f8:	1710                	addi	a2,sp,928
 8fa:	0000                	unimp
 8fc:	2e02                	fld	ft8,0(sp)
 8fe:	3f00                	fld	fs0,56(a4)
 900:	0319                	addi	t1,t1,6
 902:	3a0e                	fld	fs4,224(sp)
 904:	390b3b0b          	.insn	4, 0x390b3b0b
 908:	8719270b          	.insn	4, 0x8719270b
 90c:	1901                	addi	s2,s2,-32
 90e:	0111                	addi	sp,sp,4
 910:	0712                	slli	a4,a4,0x4
 912:	1840                	addi	s0,sp,52
 914:	197a                	slli	s2,s2,0x3e
 916:	0000                	unimp
 918:	0100                	addi	s0,sp,128
 91a:	0016                	c.slli	zero,0x5
 91c:	0b3a0e03          	lb	t3,179(s4)
 920:	0b390b3b          	.insn	4, 0x0b390b3b
 924:	1349                	addi	t1,t1,-14
 926:	0000                	unimp
 928:	2402                	fld	fs0,0(sp)
 92a:	0b00                	addi	s0,sp,400
 92c:	030b3e0b          	.insn	4, 0x030b3e0b
 930:	000e                	c.slli	zero,0x3
 932:	0300                	addi	s0,sp,384
 934:	0005                	c.nop	1
 936:	1331                	addi	t1,t1,-20
 938:	1702                	slli	a4,a4,0x20
 93a:	0000                	unimp
 93c:	0504                	addi	s1,sp,640
 93e:	0300                	addi	s0,sp,384
 940:	3a08                	fld	fa0,48(a2)
 942:	0221                	addi	tp,tp,8 # 8 <__boot_hart+0x8>
 944:	0b390b3b          	.insn	4, 0x0b390b3b
 948:	1349                	addi	t1,t1,-14
 94a:	0000                	unimp
 94c:	0505                	addi	a0,a0,1
 94e:	0300                	addi	s0,sp,384
 950:	3a08                	fld	fa0,48(a2)
 952:	0121                	addi	sp,sp,8
 954:	390c213b          	.insn	4, 0x390c213b
 958:	0213490b          	.insn	4, 0x0213490b
 95c:	06000017          	auipc	zero,0x6000
 960:	012e                	slli	sp,sp,0xb
 962:	0b3a0e03          	lb	t3,179(s4)
 966:	21390b3b          	.insn	4, 0x21390b3b
 96a:	2714                	fld	fa3,8(a4)
 96c:	2019                	.insn	2, 0x2019
 96e:	0321                	addi	t1,t1,8
 970:	1301                	addi	t1,t1,-32
 972:	0000                	unimp
 974:	0b000f07          	.insn	4, 0x0b000f07
 978:	0821                	addi	a6,a6,8
 97a:	1349                	addi	t1,t1,-14
 97c:	0000                	unimp
 97e:	3508                	fld	fa0,40(a0)
 980:	4900                	lw	s0,16(a0)
 982:	09000013          	li	zero,144
 986:	0034                	addi	a3,sp,8
 988:	213a0e03          	lb	t3,531(s4)
 98c:	3b06                	fld	fs6,96(sp)
 98e:	1a21390b          	.insn	4, 0x1a21390b
 992:	1349                	addi	t1,t1,-14
 994:	193c193f 340a0000 	.insn	8, 0x340a0000193c193f
 99c:	4700                	lw	s0,8(a4)
 99e:	01213a13          	sltiu	s4,sp,18
 9a2:	21390b3b          	.insn	4, 0x21390b3b
 9a6:	00180213          	addi	tp,a6,1
 9aa:	0b00                	addi	s0,sp,400
 9ac:	0034                	addi	a3,sp,8
 9ae:	213a0803          	lb	a6,531(s4)
 9b2:	3b01                	addiw	s6,s6,-32
 9b4:	490b390b          	.insn	4, 0x490b390b
 9b8:	00180213          	addi	tp,a6,1
 9bc:	0c00                	addi	s0,sp,528
 9be:	011d                	addi	sp,sp,7
 9c0:	1331                	addi	t1,t1,-20
 9c2:	0111                	addi	sp,sp,4
 9c4:	0712                	slli	a4,a4,0x4
 9c6:	2158                	fld	fa4,128(a0)
 9c8:	5901                	li	s2,-32
 9ca:	0521570b          	.insn	4, 0x0521570b
 9ce:	1301                	addi	t1,t1,-32
 9d0:	0000                	unimp
 9d2:	1d0d                	addi	s10,s10,-29
 9d4:	3101                	addiw	sp,sp,-32
 9d6:	12011113          	.insn	4, 0x12011113
 9da:	03215807          	.insn	4, 0x03215807
 9de:	0b59                	addi	s6,s6,22
 9e0:	00000b57          	.insn	4, 0x0b57
 9e4:	1d0e                	slli	s10,s10,0x23
 9e6:	3100                	fld	fs0,32(a0)
 9e8:	12011113          	.insn	4, 0x12011113
 9ec:	01215807          	.insn	4, 0x01215807
 9f0:	0b59                	addi	s6,s6,22
 9f2:	00052157          	.insn	4, 0x00052157
 9f6:	0f00                	addi	s0,sp,912
 9f8:	0005                	c.nop	1
 9fa:	213a0e03          	lb	t3,531(s4)
 9fe:	390b3b03          	ld	s6,912(s6)
 a02:	0013490b          	.insn	4, 0x0013490b
 a06:	1000                	addi	s0,sp,32
 a08:	012e                	slli	sp,sp,0xb
 a0a:	213a0e03          	lb	t3,531(s4)
 a0e:	3b02                	fld	fs6,32(sp)
 a10:	1421390b          	.insn	4, 0x1421390b
 a14:	13491927          	.insn	4, 0x13491927
 a18:	2120                	fld	fs0,64(a0)
 a1a:	00130103          	lb	sp,1(t1)
 a1e:	1100                	addi	s0,sp,160
 a20:	002e                	c.slli	zero,0xb
 a22:	213a0803          	lb	a6,531(s4)
 a26:	3b02                	fld	fs6,32(sp)
 a28:	1421390b          	.insn	4, 0x1421390b
 a2c:	21201927          	.insn	4, 0x21201927
 a30:	12000003          	lb	zero,288(zero) # 120 <__stack_align+0x110>
 a34:	0111                	addi	sp,sp,4
 a36:	0e25                	addi	t3,t3,9
 a38:	1f030b13          	addi	s6,t1,496
 a3c:	01111f1b          	slliw	t5,sp,0x11
 a40:	0712                	slli	a4,a4,0x4
 a42:	1710                	addi	a2,sp,928
 a44:	0000                	unimp
 a46:	0b002413          	slti	s0,zero,176
 a4a:	030b3e0b          	.insn	4, 0x030b3e0b
 a4e:	0008                	.insn	2, 0x0008
 a50:	1400                	addi	s0,sp,544
 a52:	0026                	c.slli	zero,0x9
 a54:	1349                	addi	t1,t1,-14
 a56:	0000                	unimp
 a58:	1315                	addi	t1,t1,-27
 a5a:	0b01                	addi	s6,s6,0
 a5c:	3b0b3a0b          	.insn	4, 0x3b0b3a0b
 a60:	010b390b          	.insn	4, 0x010b390b
 a64:	16000013          	li	zero,352
 a68:	000d                	c.nop	3
 a6a:	0b3a0e03          	lb	t3,179(s4)
 a6e:	0b390b3b          	.insn	4, 0x0b390b3b
 a72:	1349                	addi	t1,t1,-14
 a74:	0b38                	addi	a4,sp,408
 a76:	0000                	unimp
 a78:	03003417          	auipc	s0,0x3003
 a7c:	3a0e                	fld	fs4,224(sp)
 a7e:	390b3b0b          	.insn	4, 0x390b3b0b
 a82:	0213490b          	.insn	4, 0x0213490b
 a86:	0018                	.insn	2, 0x0018
 a88:	1800                	addi	s0,sp,48
 a8a:	012e                	slli	sp,sp,0xb
 a8c:	0e03193f 0b3b0b3a 	.insn	8, 0x0b3b0b3a0e03193f
 a94:	0b39                	addi	s6,s6,14
 a96:	13491927          	.insn	4, 0x13491927
 a9a:	0111                	addi	sp,sp,4
 a9c:	0712                	slli	a4,a4,0x4
 a9e:	1840                	addi	s0,sp,52
 aa0:	197a                	slli	s2,s2,0x3e
 aa2:	1301                	addi	t1,t1,-32
 aa4:	0000                	unimp
 aa6:	0519                	addi	a0,a0,6
 aa8:	0300                	addi	s0,sp,384
 aaa:	3a08                	fld	fa0,48(a2)
 aac:	390b3b0b          	.insn	4, 0x390b3b0b
 ab0:	0213490b          	.insn	4, 0x0213490b
 ab4:	0018                	.insn	2, 0x0018
 ab6:	1a00                	addi	s0,sp,304
 ab8:	011d                	addi	sp,sp,7
 aba:	1331                	addi	t1,t1,-20
 abc:	0152                	slli	sp,sp,0x14
 abe:	1755                	addi	a4,a4,-11
 ac0:	0b58                	addi	a4,sp,404
 ac2:	0b59                	addi	s6,s6,22
 ac4:	13010b57          	.insn	4, 0x13010b57
 ac8:	0000                	unimp
 aca:	55010b1b          	addiw	s6,sp,1360
 ace:	1c000017          	auipc	zero,0x1c000
 ad2:	0034                	addi	a3,sp,8
 ad4:	1331                	addi	t1,t1,-20
 ad6:	0000                	unimp
 ad8:	051d                	addi	a0,a0,7
 ada:	3100                	fld	fs0,32(a0)
 adc:	1e000013          	li	zero,480
 ae0:	0101                	addi	sp,sp,0
 ae2:	1349                	addi	t1,t1,-14
 ae4:	1301                	addi	t1,t1,-32
 ae6:	0000                	unimp
 ae8:	211f 4900 2f13      	.insn	6, 0x2f134900211f
 aee:	2000000b          	.insn	4, 0x2000000b
 af2:	0034                	addi	a3,sp,8
 af4:	0b3a0803          	lb	a6,179(s4)
 af8:	0b390b3b          	.insn	4, 0x0b390b3b
 afc:	1349                	addi	t1,t1,-14
 afe:	0000                	unimp
 b00:	0100                	addi	s0,sp,128
 b02:	0024                	addi	s1,sp,8
 b04:	0b3e0b0b          	.insn	4, 0x0b3e0b0b
 b08:	00000e03          	lb	t3,0(zero) # 0 <__boot_hart>
 b0c:	1602                	slli	a2,a2,0x20
 b0e:	0300                	addi	s0,sp,384
 b10:	3a0e                	fld	fs4,224(sp)
 b12:	390b3b0b          	.insn	4, 0x390b3b0b
 b16:	0013490b          	.insn	4, 0x0013490b
 b1a:	0300                	addi	s0,sp,384
 b1c:	0034                	addi	a3,sp,8
 b1e:	213a0e03          	lb	t3,531(s4)
 b22:	3b04                	fld	fs1,48(a4)
 b24:	1a21390b          	.insn	4, 0x1a21390b
 b28:	1349                	addi	t1,t1,-14
 b2a:	193c193f 11040000 	.insn	8, 0x11040000193c193f
 b32:	2501                	sext.w	a0,a0
 b34:	130e                	slli	t1,t1,0x23
 b36:	1b1f030b          	.insn	4, 0x1b1f030b
 b3a:	111f 1201 1007      	.insn	6, 0x10071201111f
 b40:	05000017          	auipc	zero,0x5000
 b44:	0024                	addi	s1,sp,8
 b46:	0b3e0b0b          	.insn	4, 0x0b3e0b0b
 b4a:	00000803          	lb	a6,0(zero) # 0 <__boot_hart>
 b4e:	3506                	fld	fa0,96(sp)
 b50:	4900                	lw	s0,16(a0)
 b52:	07000013          	li	zero,112
 b56:	012e                	slli	sp,sp,0xb
 b58:	0e03193f 0b3b0b3a 	.insn	8, 0x0b3b0b3a0e03193f
 b60:	0b39                	addi	s6,s6,14
 b62:	01871927          	.insn	4, 0x01871927
 b66:	1119                	addi	sp,sp,-26
 b68:	1201                	addi	tp,tp,-32 # ffffffffffffffe0 <__heap_end+0xffffffff7ffdcfe0>
 b6a:	7a184007          	.insn	4, 0x7a184007
 b6e:	0019                	c.nop	6
 b70:	0800                	addi	s0,sp,16
 b72:	0005                	c.nop	1
 b74:	0b3a0e03          	lb	t3,179(s4)
 b78:	0b390b3b          	.insn	4, 0x0b390b3b
 b7c:	1349                	addi	t1,t1,-14
 b7e:	1802                	slli	a6,a6,0x20
 b80:	0000                	unimp
 b82:	3409                	addiw	s0,s0,-30 # 3003a5a <__heap_size+0x2fe3a5a>
 b84:	0300                	addi	s0,sp,384
 b86:	3a08                	fld	fa0,48(a2)
 b88:	390b3b0b          	.insn	4, 0x390b3b0b
 b8c:	0213490b          	.insn	4, 0x0213490b
 b90:	0018                	.insn	2, 0x0018
	...

Disassembly of section .debug_loclists:

0000000000000000 <.debug_loclists>:
   0:	08a1                	addi	a7,a7,8
   2:	0000                	unimp
   4:	0005                	c.nop	1
   6:	0008                	.insn	2, 0x0008
   8:	0000                	unimp
   a:	0000                	unimp
   c:	3006                	fld	ft0,96(sp)
   e:	0002                	c.slli64	zero
  10:	0080                	addi	s0,sp,64
  12:	0000                	unimp
  14:	0400                	addi	s0,sp,512
  16:	5800                	lw	s0,48(s0)
  18:	3129                	addiw	sp,sp,-22
  1a:	9d9f 0001 9f34      	.insn	6, 0x9f3400019d9f
  20:	039d                	addi	t2,t2,7
  22:	3000                	fld	fs0,32(s0)
  24:	9d9f 0004 9f30      	.insn	6, 0x9f3000049d9f
  2a:	029d                	addi	t0,t0,7
  2c:	3000                	fld	fs0,32(s0)
  2e:	9d9f 0002 9f30      	.insn	6, 0x9f3000029d9f
  34:	029d                	addi	t0,t0,7
  36:	9d00                	.insn	2, 0x9d00
  38:	0002                	c.slli64	zero
  3a:	01939f43          	fmadd.s	ft10,ft7,fs9,ft0,rtz
  3e:	9f30                	.insn	2, 0x9f30
  40:	58040193          	addi	gp,s0,1408
  44:	145c                	addi	a5,sp,548
  46:	9f31                	addw	a4,a4,a2
  48:	019d                	addi	gp,gp,7 # 80002cd7 <__global_pointer$+0x7>
  4a:	9d00                	.insn	2, 0x9d00
  4c:	9f300007          	.insn	4, 0x9f300007
  50:	029d                	addi	t0,t0,7
  52:	9d00                	.insn	2, 0x9d00
  54:	000e                	c.slli	zero,0x3
  56:	9f30                	.insn	2, 0x9f30
  58:	74040193          	addi	gp,s0,1856
  5c:	0180                	addi	s0,sp,192
  5e:	3129                	addiw	sp,sp,-22
  60:	9d9f 0001 9f34      	.insn	6, 0x9f3400019d9f
  66:	039d                	addi	t2,t2,7
  68:	3000                	fld	fs0,32(s0)
  6a:	9d9f 0004 9f30      	.insn	6, 0x9f3000049d9f
  70:	029d                	addi	t0,t0,7
  72:	3000                	fld	fs0,32(s0)
  74:	9d9f 0002 9f30      	.insn	6, 0x9f3000029d9f
  7a:	029d                	addi	t0,t0,7
  7c:	9d00                	.insn	2, 0x9d00
  7e:	0002                	c.slli64	zero
  80:	01939f43          	fmadd.s	ft10,ft7,fs9,ft0,rtz
  84:	9f30                	.insn	2, 0x9f30
  86:	80040193          	addi	gp,s0,-2048
  8a:	c001                	beqz	s0,8a <__stack_align+0x7a>
  8c:	2901                	sext.w	s2,s2
  8e:	9f31                	addw	a4,a4,a2
  90:	019d                	addi	gp,gp,7 # 80002cd7 <__global_pointer$+0x7>
  92:	3300                	fld	fs0,32(a4)
  94:	9d9f 0003 9f30      	.insn	6, 0x9f3000039d9f
  9a:	049d                	addi	s1,s1,7
  9c:	3000                	fld	fs0,32(s0)
  9e:	9d9f 0002 9f30      	.insn	6, 0x9f3000029d9f
  a4:	029d                	addi	t0,t0,7
  a6:	3000                	fld	fs0,32(s0)
  a8:	9d9f 0002 029d      	.insn	6, 0x029d00029d9f
  ae:	3300                	fld	fs0,32(a4)
  b0:	939f 3001 939f      	.insn	6, 0x939f3001939f
  b6:	0401                	addi	s0,s0,0
  b8:	01c0                	addi	s0,sp,196
  ba:	01f8                	addi	a4,sp,204
  bc:	3129                	addiw	sp,sp,-22
  be:	9d9f 0001 9f33      	.insn	6, 0x9f3300019d9f
  c4:	039d                	addi	t2,t2,7
  c6:	3800                	fld	fs0,48(s0)
  c8:	9d9f 0004 9f30      	.insn	6, 0x9f3000049d9f
  ce:	029d                	addi	t0,t0,7
  d0:	3000                	fld	fs0,32(s0)
  d2:	9d9f 0002 9f30      	.insn	6, 0x9f3000029d9f
  d8:	029d                	addi	t0,t0,7
  da:	9d00                	.insn	2, 0x9d00
  dc:	0002                	c.slli64	zero
  de:	01939f3b          	sllw	t5,t2,s9
  e2:	9f30                	.insn	2, 0x9f30
  e4:	f8040193          	addi	gp,s0,-128
  e8:	b401                	j	fffffffffffffae8 <__heap_end+0xffffffff7ffdcae8>
  ea:	2902                	fld	fs2,0(sp)
  ec:	9f31                	addw	a4,a4,a2
  ee:	019d                	addi	gp,gp,7 # 80002cd7 <__global_pointer$+0x7>
  f0:	3400                	fld	fs0,40(s0)
  f2:	9d9f 0003 9f38      	.insn	6, 0x9f3800039d9f
  f8:	049d                	addi	s1,s1,7
  fa:	3000                	fld	fs0,32(s0)
  fc:	9d9f 0002 9f30      	.insn	6, 0x9f3000029d9f
 102:	029d                	addi	t0,t0,7
 104:	3000                	fld	fs0,32(s0)
 106:	9d9f 0002 029d      	.insn	6, 0x029d00029d9f
 10c:	3c00                	fld	fs0,56(s0)
 10e:	939f 3001 939f      	.insn	6, 0x939f3001939f
 114:	0401                	addi	s0,s0,0
 116:	02b4                	addi	a3,sp,328
 118:	02f0                	addi	a2,sp,332
 11a:	312a                	fld	ft2,168(sp)
 11c:	9d9f 0001 9f34      	.insn	6, 0x9f3400019d9f
 122:	039d                	addi	t2,t2,7
 124:	3800                	fld	fs0,48(s0)
 126:	9d9f 0004 9f30      	.insn	6, 0x9f3000049d9f
 12c:	029d                	addi	t0,t0,7
 12e:	3000                	fld	fs0,32(s0)
 130:	9d9f 0002 9f32      	.insn	6, 0x9f3200029d9f
 136:	029d                	addi	t0,t0,7
 138:	9d00                	.insn	2, 0x9d00
 13a:	0002                	c.slli64	zero
 13c:	6c08                	ld	a0,24(s0)
 13e:	939f 3001 939f      	.insn	6, 0x939f3001939f
 144:	0401                	addi	s0,s0,0
 146:	02f0                	addi	a2,sp,332
 148:	03ac                	addi	a1,sp,456
 14a:	312a                	fld	ft2,168(sp)
 14c:	9d9f 0001 9f33      	.insn	6, 0x9f3300019d9f
 152:	039d                	addi	t2,t2,7
 154:	3800                	fld	fs0,48(s0)
 156:	9d9f 0004 9f30      	.insn	6, 0x9f3000049d9f
 15c:	029d                	addi	t0,t0,7
 15e:	3000                	fld	fs0,32(s0)
 160:	9d9f 0002 9f32      	.insn	6, 0x9f3200029d9f
 166:	029d                	addi	t0,t0,7
 168:	9d00                	.insn	2, 0x9d00
 16a:	0002                	c.slli64	zero
 16c:	6b08                	ld	a0,16(a4)
 16e:	939f 3001 939f      	.insn	6, 0x939f3001939f
 174:	0401                	addi	s0,s0,0
 176:	03ac                	addi	a1,sp,456
 178:	03e8                	addi	a0,sp,460
 17a:	312a                	fld	ft2,168(sp)
 17c:	9d9f 0001 9f33      	.insn	6, 0x9f3300019d9f
 182:	039d                	addi	t2,t2,7
 184:	3800                	fld	fs0,48(s0)
 186:	9d9f 0004 9f30      	.insn	6, 0x9f3000049d9f
 18c:	029d                	addi	t0,t0,7
 18e:	3200                	fld	fs0,32(a2)
 190:	9d9f 0002 9f32      	.insn	6, 0x9f3200029d9f
 196:	029d                	addi	t0,t0,7
 198:	9d00                	.insn	2, 0x9d00
 19a:	0002                	c.slli64	zero
 19c:	eb09                	bnez	a4,1ae <__stack_align+0x19e>
 19e:	939f 3001 939f      	.insn	6, 0x939f3001939f
 1a4:	0401                	addi	s0,s0,0
 1a6:	03e8                	addi	a0,sp,460
 1a8:	04f8                	addi	a4,sp,588
 1aa:	312a                	fld	ft2,168(sp)
 1ac:	9d9f 0001 9f34      	.insn	6, 0x9f3400019d9f
 1b2:	039d                	addi	t2,t2,7
 1b4:	3800                	fld	fs0,48(s0)
 1b6:	9d9f 0004 9f30      	.insn	6, 0x9f3000049d9f
 1bc:	029d                	addi	t0,t0,7
 1be:	3200                	fld	fs0,32(a2)
 1c0:	9d9f 0002 9f32      	.insn	6, 0x9f3200029d9f
 1c6:	029d                	addi	t0,t0,7
 1c8:	9d00                	.insn	2, 0x9d00
 1ca:	0002                	c.slli64	zero
 1cc:	ec09                	bnez	s0,1e6 <__stack_align+0x1d6>
 1ce:	939f 3001 939f      	.insn	6, 0x939f3001939f
 1d4:	0001                	nop
 1d6:	6808                	ld	a0,16(s0)
 1d8:	0002                	c.slli64	zero
 1da:	0080                	addi	s0,sp,64
 1dc:	0000                	unimp
 1de:	1800                	addi	s0,sp,48
 1e0:	04935f03          	lhu	t5,73(t1)
 1e4:	0800                	addi	s0,sp,16
 1e6:	0268                	addi	a0,sp,268
 1e8:	8000                	.insn	2, 0x8000
 1ea:	0000                	unimp
 1ec:	0000                	unimp
 1ee:	0108                	addi	a0,sp,128
 1f0:	005f 6808 0002      	.insn	6, 0x00026808005f
 1f6:	0080                	addi	s0,sp,64
 1f8:	0000                	unimp
 1fa:	0800                	addi	s0,sp,16
 1fc:	0c06                	slli	s8,s8,0x1
 1fe:	0064                	addi	s1,sp,12
 200:	009f1003          	lh	zero,9(t5)
 204:	7008                	ld	a0,32(s0)
 206:	0002                	c.slli64	zero
 208:	0080                	addi	s0,sp,64
 20a:	0000                	unimp
 20c:	1000                	addi	s0,sp,32
 20e:	3102                	fld	ft2,32(sp)
 210:	009f 7008 0002      	.insn	6, 0x00027008009f
 216:	0080                	addi	s0,sp,64
 218:	0000                	unimp
 21a:	1000                	addi	s0,sp,32
 21c:	0c06                	slli	s8,s8,0x1
 21e:	0060                	addi	s0,sp,12
 220:	009f1003          	lh	zero,9(t5)
 224:	c408                	sw	a0,8(s0)
 226:	0002                	c.slli64	zero
 228:	0080                	addi	s0,sp,64
 22a:	0000                	unimp
 22c:	1400                	addi	s0,sp,544
 22e:	04935f03          	lhu	t5,73(t1)
 232:	0800                	addi	s0,sp,16
 234:	02c4                	addi	s1,sp,324
 236:	8000                	.insn	2, 0x8000
 238:	0000                	unimp
 23a:	0000                	unimp
 23c:	0104                	addi	s1,sp,128
 23e:	005f c408 0002      	.insn	6, 0x0002c408005f
 244:	0080                	addi	s0,sp,64
 246:	0000                	unimp
 248:	0400                	addi	s0,sp,512
 24a:	0c06                	slli	s8,s8,0x1
 24c:	0064                	addi	s1,sp,12
 24e:	009f1003          	lh	zero,9(t5)
 252:	c808                	sw	a0,16(s0)
 254:	0002                	c.slli64	zero
 256:	0080                	addi	s0,sp,64
 258:	0000                	unimp
 25a:	1000                	addi	s0,sp,32
 25c:	3102                	fld	ft2,32(sp)
 25e:	009f c808 0002      	.insn	6, 0x0002c808009f
 264:	0080                	addi	s0,sp,64
 266:	0000                	unimp
 268:	1000                	addi	s0,sp,32
 26a:	0c06                	slli	s8,s8,0x1
 26c:	0060                	addi	s0,sp,12
 26e:	009f1003          	lh	zero,9(t5)
 272:	0008                	.insn	2, 0x0008
 274:	00800003          	lb	zero,8(zero) # 8 <__boot_hart+0x8>
 278:	0000                	unimp
 27a:	0800                	addi	s0,sp,16
 27c:	04935f03          	lhu	t5,73(t1)
 280:	0800                	addi	s0,sp,16
 282:	0300                	addi	s0,sp,384
 284:	8000                	.insn	2, 0x8000
 286:	0000                	unimp
 288:	0000                	unimp
 28a:	0104                	addi	s1,sp,128
 28c:	005f 0008 0003      	.insn	6, 0x00030008005f
 292:	0080                	addi	s0,sp,64
 294:	0000                	unimp
 296:	0400                	addi	s0,sp,512
 298:	0c06                	slli	s8,s8,0x1
 29a:	0064                	addi	s1,sp,12
 29c:	009f1003          	lh	zero,9(t5)
 2a0:	0408                	addi	a0,sp,512
 2a2:	00800003          	lb	zero,8(zero) # 8 <__boot_hart+0x8>
 2a6:	0000                	unimp
 2a8:	0400                	addi	s0,sp,512
 2aa:	3102                	fld	ft2,32(sp)
 2ac:	009f 0408 0003      	.insn	6, 0x00030408009f
 2b2:	0080                	addi	s0,sp,64
 2b4:	0000                	unimp
 2b6:	0400                	addi	s0,sp,512
 2b8:	0c06                	slli	s8,s8,0x1
 2ba:	0060                	addi	s0,sp,12
 2bc:	009f1003          	lh	zero,9(t5)
 2c0:	3808                	fld	fa0,48(s0)
 2c2:	00800003          	lb	zero,8(zero) # 8 <__boot_hart+0x8>
 2c6:	0000                	unimp
 2c8:	0c00                	addi	s0,sp,528
 2ca:	04935f03          	lhu	t5,73(t1)
 2ce:	0800                	addi	s0,sp,16
 2d0:	0338                	addi	a4,sp,392
 2d2:	8000                	.insn	2, 0x8000
 2d4:	0000                	unimp
 2d6:	0000                	unimp
 2d8:	0104                	addi	s1,sp,128
 2da:	005f 3808 0003      	.insn	6, 0x00033808005f
 2e0:	0080                	addi	s0,sp,64
 2e2:	0000                	unimp
 2e4:	0400                	addi	s0,sp,512
 2e6:	0c06                	slli	s8,s8,0x1
 2e8:	0064                	addi	s1,sp,12
 2ea:	009f1003          	lh	zero,9(t5)
 2ee:	3c08                	fld	fa0,56(s0)
 2f0:	00800003          	lb	zero,8(zero) # 8 <__boot_hart+0x8>
 2f4:	0000                	unimp
 2f6:	0800                	addi	s0,sp,16
 2f8:	3102                	fld	ft2,32(sp)
 2fa:	009f 3c08 0003      	.insn	6, 0x00033c08009f
 300:	0080                	addi	s0,sp,64
 302:	0000                	unimp
 304:	0800                	addi	s0,sp,16
 306:	0c06                	slli	s8,s8,0x1
 308:	0060                	addi	s0,sp,12
 30a:	009f1003          	lh	zero,9(t5)
 30e:	7408                	ld	a0,40(s0)
 310:	00800003          	lb	zero,8(zero) # 8 <__boot_hart+0x8>
 314:	0000                	unimp
 316:	0c00                	addi	s0,sp,528
 318:	04935f03          	lhu	t5,73(t1)
 31c:	0800                	addi	s0,sp,16
 31e:	0374                	addi	a3,sp,396
 320:	8000                	.insn	2, 0x8000
 322:	0000                	unimp
 324:	0000                	unimp
 326:	0104                	addi	s1,sp,128
 328:	005f 7408 0003      	.insn	6, 0x00037408005f
 32e:	0080                	addi	s0,sp,64
 330:	0000                	unimp
 332:	0400                	addi	s0,sp,512
 334:	0c06                	slli	s8,s8,0x1
 336:	0064                	addi	s1,sp,12
 338:	009f1003          	lh	zero,9(t5)
 33c:	7808                	ld	a0,48(s0)
 33e:	00800003          	lb	zero,8(zero) # 8 <__boot_hart+0x8>
 342:	0000                	unimp
 344:	0800                	addi	s0,sp,16
 346:	3102                	fld	ft2,32(sp)
 348:	009f 7808 0003      	.insn	6, 0x00037808009f
 34e:	0080                	addi	s0,sp,64
 350:	0000                	unimp
 352:	0800                	addi	s0,sp,16
 354:	0c06                	slli	s8,s8,0x1
 356:	0060                	addi	s0,sp,12
 358:	009f1003          	lh	zero,9(t5)
 35c:	b008                	fsd	fa0,32(s0)
 35e:	00800003          	lb	zero,8(zero) # 8 <__boot_hart+0x8>
 362:	0000                	unimp
 364:	0c00                	addi	s0,sp,528
 366:	04935f03          	lhu	t5,73(t1)
 36a:	0800                	addi	s0,sp,16
 36c:	03b0                	addi	a2,sp,456
 36e:	8000                	.insn	2, 0x8000
 370:	0000                	unimp
 372:	0000                	unimp
 374:	0104                	addi	s1,sp,128
 376:	005f b008 0003      	.insn	6, 0x0003b008005f
 37c:	0080                	addi	s0,sp,64
 37e:	0000                	unimp
 380:	0400                	addi	s0,sp,512
 382:	0c06                	slli	s8,s8,0x1
 384:	0064                	addi	s1,sp,12
 386:	009f1003          	lh	zero,9(t5)
 38a:	b408                	fsd	fa0,40(s0)
 38c:	00800003          	lb	zero,8(zero) # 8 <__boot_hart+0x8>
 390:	0000                	unimp
 392:	0800                	addi	s0,sp,16
 394:	3102                	fld	ft2,32(sp)
 396:	009f b408 0003      	.insn	6, 0x0003b408009f
 39c:	0080                	addi	s0,sp,64
 39e:	0000                	unimp
 3a0:	0800                	addi	s0,sp,16
 3a2:	0c06                	slli	s8,s8,0x1
 3a4:	0060                	addi	s0,sp,12
 3a6:	009f1003          	lh	zero,9(t5)
 3aa:	ec08                	sd	a0,24(s0)
 3ac:	00800003          	lb	zero,8(zero) # 8 <__boot_hart+0x8>
 3b0:	0000                	unimp
 3b2:	0c00                	addi	s0,sp,528
 3b4:	04935f03          	lhu	t5,73(t1)
 3b8:	0800                	addi	s0,sp,16
 3ba:	03ec                	addi	a1,sp,460
 3bc:	8000                	.insn	2, 0x8000
 3be:	0000                	unimp
 3c0:	0000                	unimp
 3c2:	0104                	addi	s1,sp,128
 3c4:	005f ec08 0003      	.insn	6, 0x0003ec08005f
 3ca:	0080                	addi	s0,sp,64
 3cc:	0000                	unimp
 3ce:	0400                	addi	s0,sp,512
 3d0:	0c06                	slli	s8,s8,0x1
 3d2:	0064                	addi	s1,sp,12
 3d4:	009f1003          	lh	zero,9(t5)
 3d8:	f008                	sd	a0,32(s0)
 3da:	00800003          	lb	zero,8(zero) # 8 <__boot_hart+0x8>
 3de:	0000                	unimp
 3e0:	0800                	addi	s0,sp,16
 3e2:	3102                	fld	ft2,32(sp)
 3e4:	009f f008 0003      	.insn	6, 0x0003f008009f
 3ea:	0080                	addi	s0,sp,64
 3ec:	0000                	unimp
 3ee:	0800                	addi	s0,sp,16
 3f0:	0c06                	slli	s8,s8,0x1
 3f2:	0060                	addi	s0,sp,12
 3f4:	009f1003          	lh	zero,9(t5)
 3f8:	2408                	fld	fa0,8(s0)
 3fa:	0004                	.insn	2, 0x0004
 3fc:	0080                	addi	s0,sp,64
 3fe:	0000                	unimp
 400:	0800                	addi	s0,sp,16
 402:	04935f03          	lhu	t5,73(t1)
 406:	0800                	addi	s0,sp,16
 408:	0424                	addi	s1,sp,520
 40a:	8000                	.insn	2, 0x8000
 40c:	0000                	unimp
 40e:	0000                	unimp
 410:	0104                	addi	s1,sp,128
 412:	005f 2408 0004      	.insn	6, 0x00042408005f
 418:	0080                	addi	s0,sp,64
 41a:	0000                	unimp
 41c:	0400                	addi	s0,sp,512
 41e:	0c06                	slli	s8,s8,0x1
 420:	0064                	addi	s1,sp,12
 422:	009f1003          	lh	zero,9(t5)
 426:	2808                	fld	fa0,16(s0)
 428:	0004                	.insn	2, 0x0004
 42a:	0080                	addi	s0,sp,64
 42c:	0000                	unimp
 42e:	0400                	addi	s0,sp,512
 430:	3102                	fld	ft2,32(sp)
 432:	009f 2808 0004      	.insn	6, 0x00042808009f
 438:	0080                	addi	s0,sp,64
 43a:	0000                	unimp
 43c:	0400                	addi	s0,sp,512
 43e:	0c06                	slli	s8,s8,0x1
 440:	0060                	addi	s0,sp,12
 442:	009f1003          	lh	zero,9(t5)
 446:	7006                	.insn	2, 0x7006
 448:	0006                	c.slli	zero,0x1
 44a:	0080                	addi	s0,sp,64
 44c:	0000                	unimp
 44e:	0400                	addi	s0,sp,512
 450:	5800                	lw	s0,48(s0)
 452:	5a01                	li	s4,-32
 454:	5804                	lw	s1,48(s0)
 456:	0470                	addi	a2,sp,524
 458:	9f5a01a3          	sb	s5,-1565(s4)
 45c:	7004                	ld	s1,32(s0)
 45e:	0174                	addi	a3,sp,140
 460:	045a                	slli	s0,s0,0x16
 462:	7874                	ld	a3,240(s0)
 464:	a304                	fsd	fs1,0(a4)
 466:	5a01                	li	s4,-32
 468:	009f 7006 0006      	.insn	6, 0x00067006009f
 46e:	0080                	addi	s0,sp,64
 470:	0000                	unimp
 472:	0400                	addi	s0,sp,512
 474:	5000                	lw	s0,32(s0)
 476:	5b01                	li	s6,-32
 478:	5004                	lw	s1,32(s0)
 47a:	0470                	addi	a2,sp,524
 47c:	9f5b01a3          	sb	s5,-1565(s6)
 480:	7004                	ld	s1,32(s0)
 482:	0178                	addi	a4,sp,140
 484:	7006005b          	.insn	4, 0x7006005b
 488:	0006                	c.slli	zero,0x1
 48a:	0080                	addi	s0,sp,64
 48c:	0000                	unimp
 48e:	0400                	addi	s0,sp,512
 490:	1800                	addi	s0,sp,48
 492:	5c01                	li	s8,-32
 494:	1804                	addi	s1,sp,48
 496:	015f 0456 785f      	.insn	6, 0x785f0456015f
 49c:	a304                	fsd	fs1,0(a4)
 49e:	5c01                	li	s8,-32
 4a0:	009f 7006 0006      	.insn	6, 0x00067006009f
 4a6:	0080                	addi	s0,sp,64
 4a8:	0000                	unimp
 4aa:	0400                	addi	s0,sp,512
 4ac:	1800                	addi	s0,sp,48
 4ae:	3002                	fld	ft0,32(sp)
 4b0:	049f 1c18 6001      	.insn	6, 0x60011c18049f
 4b6:	2004                	fld	fs1,0(s0)
 4b8:	015f 0060 8806      	.insn	6, 0x88060060015f
 4be:	0006                	c.slli	zero,0x1
 4c0:	0080                	addi	s0,sp,64
 4c2:	0000                	unimp
 4c4:	0400                	addi	s0,sp,512
 4c6:	0800                	addi	s0,sp,16
 4c8:	5c01                	li	s8,-32
 4ca:	2c04                	fld	fs1,24(s0)
 4cc:	005c0147          	fmsub.s	ft2,fs8,ft5,ft0,rne
 4d0:	8806                	mv	a6,ra
 4d2:	0006                	c.slli	zero,0x1
 4d4:	0080                	addi	s0,sp,64
 4d6:	0000                	unimp
 4d8:	0400                	addi	s0,sp,512
 4da:	0800                	addi	s0,sp,16
 4dc:	5d01                	li	s10,-32
 4de:	2c04                	fld	fs1,24(s0)
 4e0:	005d0147          	fmsub.s	ft2,fs10,ft5,ft0,rne
 4e4:	9008                	.insn	2, 0x9008
 4e6:	0006                	c.slli	zero,0x1
 4e8:	0080                	addi	s0,sp,64
 4ea:	0000                	unimp
 4ec:	2400                	fld	fs0,8(s0)
 4ee:	7610                	ld	a2,40(a2)
 4f0:	8000                	.insn	2, 0x8000
 4f2:	2200                	fld	fs0,0(a2)
 4f4:	4940                	lw	s0,20(a0)
 4f6:	2224                	fld	fs1,64(a2)
 4f8:	ff0c                	sd	a1,56(a4)
 4fa:	ffff                	.insn	2, 0xffff
 4fc:	009f1aff 0006a408 	.insn	12, 0x00800006a408009f1aff
 504:	00000080 
 508:	0800                	addi	s0,sp,16
 50a:	5e01                	li	t3,-32
 50c:	0600                	addi	s0,sp,768
 50e:	05fc                	addi	a5,sp,716
 510:	8000                	.insn	2, 0x8000
 512:	0000                	unimp
 514:	0000                	unimp
 516:	0004                	.insn	2, 0x0004
 518:	0118                	addi	a4,sp,128
 51a:	045a                	slli	s0,s0,0x16
 51c:	7418                	ld	a4,40(s0)
 51e:	a304                	fsd	fs1,0(a4)
 520:	5a01                	li	s4,-32
 522:	009f fc06 0005      	.insn	6, 0x0005fc06009f
 528:	0080                	addi	s0,sp,64
 52a:	0000                	unimp
 52c:	0400                	addi	s0,sp,512
 52e:	0400                	addi	s0,sp,512
 530:	5b01                	li	s6,-32
 532:	0404                	addi	s1,sp,512
 534:	0474                	addi	a3,sp,524
 536:	9f5b01a3          	sb	s5,-1565(s6)
 53a:	0600                	addi	s0,sp,768
 53c:	05fc                	addi	a5,sp,716
 53e:	8000                	.insn	2, 0x8000
 540:	0000                	unimp
 542:	0000                	unimp
 544:	0004                	.insn	2, 0x0004
 546:	0118                	addi	a4,sp,128
 548:	045c                	addi	a5,sp,516
 54a:	4418                	lw	a4,8(s0)
 54c:	5e01                	li	t3,-32
 54e:	4404                	lw	s1,8(s0)
 550:	044c                	addi	a1,sp,516
 552:	9f5c01a3          	sb	s5,-1565(s8)
 556:	4c04                	lw	s1,24(s0)
 558:	045e0163          	beq	t3,t0,59a <__stack_align+0x58a>
 55c:	a3047463          	bgeu	s0,a6,fffffffffffff784 <__heap_end+0xffffffff7ffdc784>
 560:	5c01                	li	s8,-32
 562:	009f fc06 0005      	.insn	6, 0x0005fc06009f
 568:	0080                	addi	s0,sp,64
 56a:	0000                	unimp
 56c:	0400                	addi	s0,sp,512
 56e:	4000                	lw	s0,0(s0)
 570:	5a01                	li	s4,-32
 572:	4c04                	lw	s1,24(s0)
 574:	015c                	addi	a5,sp,132
 576:	005a                	c.slli	zero,0x16
 578:	2c06                	fld	fs8,64(sp)
 57a:	0006                	c.slli	zero,0x1
 57c:	0080                	addi	s0,sp,64
 57e:	0000                	unimp
 580:	0400                	addi	s0,sp,512
 582:	1400                	addi	s0,sp,544
 584:	5c01                	li	s8,-32
 586:	1c04                	addi	s1,sp,560
 588:	005c0133          	add	sp,s8,t0
 58c:	2c06                	fld	fs8,64(sp)
 58e:	0006                	c.slli	zero,0x1
 590:	0080                	addi	s0,sp,64
 592:	0000                	unimp
 594:	0400                	addi	s0,sp,512
 596:	0800                	addi	s0,sp,16
 598:	3002                	fld	ft0,32(sp)
 59a:	049f 1408 5d01      	.insn	6, 0x5d011408049f
 5a0:	1c04                	addi	s1,sp,560
 5a2:	005d0133          	add	sp,s10,t0
 5a6:	1408                	addi	a0,sp,544
 5a8:	0006                	c.slli	zero,0x1
 5aa:	0080                	addi	s0,sp,64
 5ac:	0000                	unimp
 5ae:	1800                	addi	s0,sp,48
 5b0:	7a0d                	lui	s4,0xfffe3
 5b2:	8080                	.insn	2, 0x8080
 5b4:	8080                	.insn	2, 0x8080
 5b6:	0c02                	c.slli64	s8
 5b8:	ffff                	.insn	2, 0xffff
 5ba:	ffff                	.insn	2, 0xffff
 5bc:	9f1a                	add	t5,t5,t1
 5be:	0800                	addi	s0,sp,16
 5c0:	0620                	addi	s0,sp,776
 5c2:	8000                	.insn	2, 0x8000
 5c4:	0000                	unimp
 5c6:	0000                	unimp
 5c8:	010c                	addi	a1,sp,128
 5ca:	005f e006 0004      	.insn	6, 0x0004e006005f
 5d0:	0080                	addi	s0,sp,64
 5d2:	0000                	unimp
 5d4:	0400                	addi	s0,sp,512
 5d6:	d400                	sw	s0,40(s0)
 5d8:	0101                	addi	sp,sp,0
 5da:	045a                	slli	s0,s0,0x16
 5dc:	01d4                	addi	a3,sp,196
 5de:	029c                	addi	a5,sp,320
 5e0:	a304                	fsd	fs1,0(a4)
 5e2:	5a01                	li	s4,-32
 5e4:	009f e006 0004      	.insn	6, 0x0004e006009f
 5ea:	0080                	addi	s0,sp,64
 5ec:	0000                	unimp
 5ee:	0400                	addi	s0,sp,512
 5f0:	c800                	sw	s0,16(s0)
 5f2:	0101                	addi	sp,sp,0
 5f4:	045c                	addi	a5,sp,516
 5f6:	01c8                	addi	a0,sp,196
 5f8:	029c                	addi	a5,sp,320
 5fa:	a304                	fsd	fs1,0(a4)
 5fc:	5c01                	li	s8,-32
 5fe:	009f e006 0004      	.insn	6, 0x0004e006009f
 604:	0080                	addi	s0,sp,64
 606:	0000                	unimp
 608:	0400                	addi	s0,sp,512
 60a:	3c00                	fld	fs0,56(s0)
 60c:	5d01                	li	s10,-32
 60e:	3c04                	fld	fs1,56(s0)
 610:	029c                	addi	a5,sp,320
 612:	a304                	fsd	fs1,0(a4)
 614:	5d01                	li	s10,-32
 616:	009f e006 0004      	.insn	6, 0x0004e006009f
 61c:	0080                	addi	s0,sp,64
 61e:	0000                	unimp
 620:	0400                	addi	s0,sp,512
 622:	7000                	ld	s0,32(s0)
 624:	5e01                	li	t3,-32
 626:	7004                	ld	s1,32(s0)
 628:	029c                	addi	a5,sp,320
 62a:	a304                	fsd	fs1,0(a4)
 62c:	5e01                	li	t3,-32
 62e:	009f e006 0004      	.insn	6, 0x0004e006009f
 634:	0080                	addi	s0,sp,64
 636:	0000                	unimp
 638:	0400                	addi	s0,sp,512
 63a:	5400                	lw	s0,40(s0)
 63c:	5f01                	li	t5,-32
 63e:	5404                	lw	s1,40(s0)
 640:	029c                	addi	a5,sp,320
 642:	a304                	fsd	fs1,0(a4)
 644:	5f01                	li	t5,-32
 646:	009f e006 0004      	.insn	6, 0x0004e006009f
 64c:	0080                	addi	s0,sp,64
 64e:	0000                	unimp
 650:	0400                	addi	s0,sp,512
 652:	b000                	fsd	fs0,32(s0)
 654:	0101                	addi	sp,sp,0
 656:	0460                	addi	s0,sp,524
 658:	01b0                	addi	a2,sp,200
 65a:	029c                	addi	a5,sp,320
 65c:	a304                	fsd	fs1,0(a4)
 65e:	6001                	.insn	2, 0x6001
 660:	009f 2006 0005      	.insn	6, 0x00052006009f
 666:	0080                	addi	s0,sp,64
 668:	0000                	unimp
 66a:	0400                	addi	s0,sp,512
 66c:	0400                	addi	s0,sp,512
 66e:	3002                	fld	ft0,32(sp)
 670:	049f 3428 6101      	.insn	6, 0x61013428049f
 676:	3c04                	fld	fs1,56(s0)
 678:	0354                	addi	a3,sp,388
 67a:	0181                	addi	gp,gp,0 # 80002cd0 <__global_pointer$>
 67c:	049f 5854 6101      	.insn	6, 0x61015854049f
 682:	5c04                	lw	s1,56(s0)
 684:	0260                	addi	s0,sp,268
 686:	9f30                	.insn	2, 0x9f30
 688:	8004                	.insn	2, 0x8004
 68a:	9401                	srai	s0,s0,0x20
 68c:	0201                	addi	tp,tp,0 # 0 <__boot_hart>
 68e:	9f30                	.insn	2, 0x9f30
 690:	9404                	.insn	2, 0x9404
 692:	a801                	j	6a2 <__stack_align+0x692>
 694:	0701                	addi	a4,a4,0
 696:	007a                	c.slli	zero,0x1e
 698:	1c5a01a3          	sb	t0,451(s4) # fffffffffffe31c3 <__heap_end+0xffffffff7ffc01c3>
 69c:	049f 01a8 01ac      	.insn	6, 0x01ac01a8049f
 6a2:	7a09                	lui	s4,0xfffe2
 6a4:	a300                	fsd	fs0,0(a4)
 6a6:	5a01                	li	s4,-32
 6a8:	231c                	fld	fa5,0(a4)
 6aa:	9f01                	subw	a4,a4,s0
 6ac:	ac04                	fsd	fs1,24(s0)
 6ae:	b001                	j	fffffffffffffeae <__heap_end+0xffffffff7ffdceae>
 6b0:	0901                	addi	s2,s2,0
 6b2:	7f7a                	ld	t5,440(sp)
 6b4:	1c5a01a3          	sb	t0,451(s4) # fffffffffffe21c3 <__heap_end+0xffffffff7ffbf1c3>
 6b8:	049f0123          	sb	s1,66(t5)
 6bc:	01b0                	addi	a2,sp,200
 6be:	01b4                	addi	a3,sp,200
 6c0:	3002                	fld	ft0,32(sp)
 6c2:	009f ec08 0004      	.insn	6, 0x0004ec08009f
 6c8:	0080                	addi	s0,sp,64
 6ca:	0000                	unimp
 6cc:	0800                	addi	s0,sp,16
 6ce:	3002                	fld	ft0,32(sp)
 6d0:	009f ec08 0004      	.insn	6, 0x0004ec08009f
 6d6:	0080                	addi	s0,sp,64
 6d8:	0000                	unimp
 6da:	0800                	addi	s0,sp,16
 6dc:	0c06                	slli	s8,s8,0x1
 6de:	0060                	addi	s0,sp,12
 6e0:	009f1003          	lh	zero,9(t5)
 6e4:	f808                	sd	a0,48(s0)
 6e6:	0004                	.insn	2, 0x0004
 6e8:	0080                	addi	s0,sp,64
 6ea:	0000                	unimp
 6ec:	0400                	addi	s0,sp,512
 6ee:	6f01                	.insn	2, 0x6f01
 6f0:	0800                	addi	s0,sp,16
 6f2:	04f8                	addi	a4,sp,588
 6f4:	8000                	.insn	2, 0x8000
 6f6:	0000                	unimp
 6f8:	0000                	unimp
 6fa:	0604                	addi	s1,sp,768
 6fc:	400c                	lw	a1,0(s0)
 6fe:	0300                	addi	s0,sp,384
 700:	9f10                	.insn	2, 0x9f10
 702:	0800                	addi	s0,sp,16
 704:	04fc                	addi	a5,sp,588
 706:	8000                	.insn	2, 0x8000
 708:	0000                	unimp
 70a:	0000                	unimp
 70c:	0210                	addi	a2,sp,256
 70e:	9f32                	add	t5,t5,a2
 710:	0800                	addi	s0,sp,16
 712:	04fc                	addi	a5,sp,588
 714:	8000                	.insn	2, 0x8000
 716:	0000                	unimp
 718:	0000                	unimp
 71a:	0610                	addi	a2,sp,768
 71c:	180c                	addi	a1,sp,48
 71e:	0300                	addi	s0,sp,384
 720:	9f10                	.insn	2, 0x9f10
 722:	0600                	addi	s0,sp,768
 724:	050c                	addi	a1,sp,640
 726:	8000                	.insn	2, 0x8000
 728:	0000                	unimp
 72a:	0000                	unimp
 72c:	0004                	.insn	2, 0x0004
 72e:	0110                	addi	a2,sp,128
 730:	045d                	addi	s0,s0,23
 732:	1410                	addi	a2,sp,544
 734:	a304                	fsd	fs1,0(a4)
 736:	5d01                	li	s10,-32
 738:	009f 1c08 0005      	.insn	6, 0x00051c08009f
 73e:	0080                	addi	s0,sp,64
 740:	0000                	unimp
 742:	0400                	addi	s0,sp,512
 744:	5d01                	li	s10,-32
 746:	0800                	addi	s0,sp,16
 748:	051c                	addi	a5,sp,640
 74a:	8000                	.insn	2, 0x8000
 74c:	0000                	unimp
 74e:	0000                	unimp
 750:	0604                	addi	s1,sp,768
 752:	480c                	lw	a1,16(s0)
 754:	0300                	addi	s0,sp,384
 756:	9f10                	.insn	2, 0x9f10
 758:	0800                	addi	s0,sp,16
 75a:	0564                	addi	s1,sp,652
 75c:	8000                	.insn	2, 0x8000
 75e:	0000                	unimp
 760:	0000                	unimp
 762:	0110                	addi	a2,sp,128
 764:	005d                	c.nop	23
 766:	7008                	ld	a0,32(s0)
 768:	0005                	c.nop	1
 76a:	0080                	addi	s0,sp,64
 76c:	0000                	unimp
 76e:	0400                	addi	s0,sp,512
 770:	5f01                	li	t5,-32
 772:	0800                	addi	s0,sp,16
 774:	0570                	addi	a2,sp,652
 776:	8000                	.insn	2, 0x8000
 778:	0000                	unimp
 77a:	0000                	unimp
 77c:	0604                	addi	s1,sp,768
 77e:	480c                	lw	a1,16(s0)
 780:	0300                	addi	s0,sp,384
 782:	9f10                	.insn	2, 0x9f10
 784:	0800                	addi	s0,sp,16
 786:	059c                	addi	a5,sp,704
 788:	8000                	.insn	2, 0x8000
 78a:	0000                	unimp
 78c:	0000                	unimp
 78e:	0104                	addi	s1,sp,128
 790:	005f 9c08 0005      	.insn	6, 0x00059c08005f
 796:	0080                	addi	s0,sp,64
 798:	0000                	unimp
 79a:	0400                	addi	s0,sp,512
 79c:	0c06                	slli	s8,s8,0x1
 79e:	0040                	addi	s0,sp,4
 7a0:	009f1003          	lh	zero,9(t5)
 7a4:	b808                	fsd	fa0,48(s0)
 7a6:	0005                	c.nop	1
 7a8:	0080                	addi	s0,sp,64
 7aa:	0000                	unimp
 7ac:	1000                	addi	s0,sp,32
 7ae:	5d01                	li	s10,-32
 7b0:	0800                	addi	s0,sp,16
 7b2:	05c4                	addi	s1,sp,708
 7b4:	8000                	.insn	2, 0x8000
 7b6:	0000                	unimp
 7b8:	0000                	unimp
 7ba:	0104                	addi	s1,sp,128
 7bc:	005f c408 0005      	.insn	6, 0x0005c408005f
 7c2:	0080                	addi	s0,sp,64
 7c4:	0000                	unimp
 7c6:	0400                	addi	s0,sp,512
 7c8:	0c06                	slli	s8,s8,0x1
 7ca:	0048                	addi	a0,sp,4
 7cc:	009f1003          	lh	zero,9(t5)
 7d0:	e008                	sd	a0,0(s0)
 7d2:	0005                	c.nop	1
 7d4:	0080                	addi	s0,sp,64
 7d6:	0000                	unimp
 7d8:	0c00                	addi	s0,sp,528
 7da:	3302                	fld	ft6,32(sp)
 7dc:	009f e008 0005      	.insn	6, 0x0005e008009f
 7e2:	0080                	addi	s0,sp,64
 7e4:	0000                	unimp
 7e6:	0c00                	addi	s0,sp,528
 7e8:	0c06                	slli	s8,s8,0x1
 7ea:	0018                	.insn	2, 0x0018
 7ec:	009f1003          	lh	zero,9(t5)
 7f0:	ec08                	sd	a0,24(s0)
 7f2:	0005                	c.nop	1
 7f4:	0080                	addi	s0,sp,64
 7f6:	0000                	unimp
 7f8:	0c00                	addi	s0,sp,528
 7fa:	3102                	fld	ft2,32(sp)
 7fc:	009f ec08 0005      	.insn	6, 0x0005ec08009f
 802:	0080                	addi	s0,sp,64
 804:	0000                	unimp
 806:	0c00                	addi	s0,sp,528
 808:	0c06                	slli	s8,s8,0x1
 80a:	0060                	addi	s0,sp,12
 80c:	009f1003          	lh	zero,9(t5)
 810:	a806                	fsd	ft1,16(sp)
 812:	0004                	.insn	2, 0x0004
 814:	0080                	addi	s0,sp,64
 816:	0000                	unimp
 818:	0400                	addi	s0,sp,512
 81a:	1400                	addi	s0,sp,544
 81c:	5a01                	li	s4,-32
 81e:	1404                	addi	s1,sp,544
 820:	041c                	addi	a5,sp,512
 822:	9f5a01a3          	sb	s5,-1565(s4)
 826:	0800                	addi	s0,sp,16
 828:	04bc                	addi	a5,sp,584
 82a:	8000                	.insn	2, 0x8000
 82c:	0000                	unimp
 82e:	0000                	unimp
 830:	0104                	addi	s1,sp,128
 832:	005a                	c.slli	zero,0x16
 834:	bc08                	fsd	fa0,56(s0)
 836:	0004                	.insn	2, 0x0004
 838:	0080                	addi	s0,sp,64
 83a:	0000                	unimp
 83c:	0400                	addi	s0,sp,512
 83e:	0c06                	slli	s8,s8,0x1
 840:	0048                	addi	a0,sp,4
 842:	009f1003          	lh	zero,9(t5)
 846:	c408                	sw	a0,8(s0)
 848:	0004                	.insn	2, 0x0004
 84a:	0080                	addi	s0,sp,64
 84c:	0000                	unimp
 84e:	0c00                	addi	s0,sp,528
 850:	3002                	fld	ft0,32(sp)
 852:	009f c408 0004      	.insn	6, 0x0004c408009f
 858:	0080                	addi	s0,sp,64
 85a:	0000                	unimp
 85c:	0c00                	addi	s0,sp,528
 85e:	0c06                	slli	s8,s8,0x1
 860:	0060                	addi	s0,sp,12
 862:	009f1003          	lh	zero,9(t5)
 866:	d008                	sw	a0,32(s0)
 868:	0004                	.insn	2, 0x0004
 86a:	0080                	addi	s0,sp,64
 86c:	0000                	unimp
 86e:	0400                	addi	s0,sp,512
 870:	5a01                	li	s4,-32
 872:	0800                	addi	s0,sp,16
 874:	04d0                	addi	a2,sp,580
 876:	8000                	.insn	2, 0x8000
 878:	0000                	unimp
 87a:	0000                	unimp
 87c:	0604                	addi	s1,sp,768
 87e:	640c                	ld	a1,8(s0)
 880:	0300                	addi	s0,sp,384
 882:	9f10                	.insn	2, 0x9f10
 884:	0800                	addi	s0,sp,16
 886:	04d4                	addi	a3,sp,580
 888:	8000                	.insn	2, 0x8000
 88a:	0000                	unimp
 88c:	0000                	unimp
 88e:	0208                	addi	a0,sp,256
 890:	9f31                	addw	a4,a4,a2
 892:	0800                	addi	s0,sp,16
 894:	04d4                	addi	a3,sp,580
 896:	8000                	.insn	2, 0x8000
 898:	0000                	unimp
 89a:	0000                	unimp
 89c:	0608                	addi	a0,sp,768
 89e:	600c                	ld	a1,0(s0)
 8a0:	0300                	addi	s0,sp,384
 8a2:	9f10                	.insn	2, 0x9f10
 8a4:	1600                	addi	s0,sp,800
 8a6:	0000                	unimp
 8a8:	0500                	addi	s0,sp,640
 8aa:	0800                	addi	s0,sp,16
 8ac:	0000                	unimp
 8ae:	0000                	unimp
 8b0:	0400                	addi	s0,sp,512
 8b2:	0700                	addi	s0,sp,896
 8b4:	5a01                	li	s4,-32
 8b6:	0704                	addi	s1,sp,896
 8b8:	0414                	addi	a3,sp,512
 8ba:	9f5a01a3          	sb	s5,-1565(s4)
 8be:	2400                	fld	fs0,8(s0)
 8c0:	0000                	unimp
 8c2:	0500                	addi	s0,sp,640
 8c4:	0800                	addi	s0,sp,16
 8c6:	0000                	unimp
 8c8:	0000                	unimp
 8ca:	0400                	addi	s0,sp,512
 8cc:	0700                	addi	s0,sp,896
 8ce:	5a01                	li	s4,-32
 8d0:	0704                	addi	s1,sp,896
 8d2:	0414                	addi	a3,sp,512
 8d4:	9f5a01a3          	sb	s5,-1565(s4)
 8d8:	0400                	addi	s0,sp,512
 8da:	0700                	addi	s0,sp,896
 8dc:	5b01                	li	s6,-32
 8de:	0704                	addi	s1,sp,896
 8e0:	0414                	addi	a3,sp,512
 8e2:	9f5b01a3          	sb	s5,-1565(s6)
 8e6:	1600                	addi	s0,sp,800
 8e8:	0000                	unimp
 8ea:	0500                	addi	s0,sp,640
 8ec:	0800                	addi	s0,sp,16
 8ee:	0000                	unimp
 8f0:	0000                	unimp
 8f2:	0400                	addi	s0,sp,512
 8f4:	0200                	addi	s0,sp,256
 8f6:	5a01                	li	s4,-32
 8f8:	0204                	addi	s1,sp,256
 8fa:	0408                	addi	a0,sp,512
 8fc:	9f5a01a3          	sb	s5,-1565(s4)
 900:	3200                	fld	fs0,32(a2)
 902:	0000                	unimp
 904:	0500                	addi	s0,sp,640
 906:	0800                	addi	s0,sp,16
 908:	0000                	unimp
 90a:	0000                	unimp
 90c:	0400                	addi	s0,sp,512
 90e:	0700                	addi	s0,sp,896
 910:	5a01                	li	s4,-32
 912:	0704                	addi	s1,sp,896
 914:	0414                	addi	a3,sp,512
 916:	9f5a01a3          	sb	s5,-1565(s4)
 91a:	0400                	addi	s0,sp,512
 91c:	0700                	addi	s0,sp,896
 91e:	5b01                	li	s6,-32
 920:	0704                	addi	s1,sp,896
 922:	0414                	addi	a3,sp,512
 924:	9f5b01a3          	sb	s5,-1565(s6)
 928:	0400                	addi	s0,sp,512
 92a:	0700                	addi	s0,sp,896
 92c:	5c01                	li	s8,-32
 92e:	0704                	addi	s1,sp,896
 930:	0414                	addi	a3,sp,512
 932:	9f5c01a3          	sb	s5,-1565(s8)
 936:	3200                	fld	fs0,32(a2)
 938:	0000                	unimp
 93a:	0500                	addi	s0,sp,640
 93c:	0800                	addi	s0,sp,16
 93e:	0000                	unimp
 940:	0000                	unimp
 942:	0400                	addi	s0,sp,512
 944:	0700                	addi	s0,sp,896
 946:	5a01                	li	s4,-32
 948:	0704                	addi	s1,sp,896
 94a:	0416                	slli	s0,s0,0x5
 94c:	9f5a01a3          	sb	s5,-1565(s4)
 950:	0400                	addi	s0,sp,512
 952:	0700                	addi	s0,sp,896
 954:	5b01                	li	s6,-32
 956:	0704                	addi	s1,sp,896
 958:	0416                	slli	s0,s0,0x5
 95a:	9f5b01a3          	sb	s5,-1565(s6)
 95e:	0400                	addi	s0,sp,512
 960:	0700                	addi	s0,sp,896
 962:	5c01                	li	s8,-32
 964:	0704                	addi	s1,sp,896
 966:	0416                	slli	s0,s0,0x5
 968:	9f5c01a3          	sb	s5,-1565(s8)
 96c:	3400                	fld	fs0,40(s0)
 96e:	0000                	unimp
 970:	0500                	addi	s0,sp,640
 972:	0800                	addi	s0,sp,16
 974:	0000                	unimp
 976:	0000                	unimp
 978:	0400                	addi	s0,sp,512
 97a:	1000                	addi	s0,sp,32
 97c:	5a01                	li	s4,-32
 97e:	1004                	addi	s1,sp,32
 980:	043c                	addi	a5,sp,520
 982:	9f5a01a3          	sb	s5,-1565(s4)
 986:	0400                	addi	s0,sp,512
 988:	2410                	fld	fa2,8(s0)
 98a:	5a01                	li	s4,-32
 98c:	2404                	fld	fs1,8(s0)
 98e:	0926                	slli	s2,s2,0x9
 990:	0024d803          	lhu	a6,2(s1)
 994:	0080                	addi	s0,sp,64
 996:	0000                	unimp
 998:	0400                	addi	s0,sp,512
 99a:	2d26                	fld	fs10,72(sp)
 99c:	5a01                	li	s4,-32
 99e:	0400                	addi	s0,sp,512
 9a0:	2d0a                	fld	fs10,128(sp)
 9a2:	5f01                	li	t5,-32
 9a4:	3200                	fld	fs0,32(a2)
 9a6:	0000                	unimp
 9a8:	0500                	addi	s0,sp,640
 9aa:	0800                	addi	s0,sp,16
 9ac:	0000                	unimp
 9ae:	0000                	unimp
 9b0:	0400                	addi	s0,sp,512
 9b2:	0500                	addi	s0,sp,640
 9b4:	5a01                	li	s4,-32
 9b6:	0504                	addi	s1,sp,640
 9b8:	0406                	slli	s0,s0,0x1
 9ba:	9f5a01a3          	sb	s5,-1565(s4)
 9be:	0400                	addi	s0,sp,512
 9c0:	0500                	addi	s0,sp,640
 9c2:	5b01                	li	s6,-32
 9c4:	0504                	addi	s1,sp,640
 9c6:	0406                	slli	s0,s0,0x1
 9c8:	9f5b01a3          	sb	s5,-1565(s6)
 9cc:	0400                	addi	s0,sp,512
 9ce:	0500                	addi	s0,sp,640
 9d0:	5c01                	li	s8,-32
 9d2:	0504                	addi	s1,sp,640
 9d4:	0406                	slli	s0,s0,0x1
 9d6:	9f5c01a3          	sb	s5,-1565(s8)
 9da:	4600                	lw	s0,8(a2)
 9dc:	0000                	unimp
 9de:	0500                	addi	s0,sp,640
 9e0:	0800                	addi	s0,sp,16
 9e2:	0000                	unimp
 9e4:	0000                	unimp
 9e6:	0400                	addi	s0,sp,512
 9e8:	0600                	addi	s0,sp,768
 9ea:	5a01                	li	s4,-32
 9ec:	0604                	addi	s1,sp,768
 9ee:	0416                	slli	s0,s0,0x5
 9f0:	9f5a01a3          	sb	s5,-1565(s4)
 9f4:	0400                	addi	s0,sp,512
 9f6:	1500                	addi	s0,sp,672
 9f8:	5b01                	li	s6,-32
 9fa:	1504                	addi	s1,sp,672
 9fc:	0416                	slli	s0,s0,0x5
 9fe:	9f5b01a3          	sb	s5,-1565(s6)
 a02:	0400                	addi	s0,sp,512
 a04:	1500                	addi	s0,sp,672
 a06:	5c01                	li	s8,-32
 a08:	1504                	addi	s1,sp,672
 a0a:	0416                	slli	s0,s0,0x5
 a0c:	9f5c01a3          	sb	s5,-1565(s8)
 a10:	0400                	addi	s0,sp,512
 a12:	1500                	addi	s0,sp,672
 a14:	5d01                	li	s10,-32
 a16:	1504                	addi	s1,sp,672
 a18:	0416                	slli	s0,s0,0x5
 a1a:	9f5d01a3          	sb	s5,-1565(s10)
 a1e:	0400                	addi	s0,sp,512
 a20:	150a                	slli	a0,a0,0x22
 a22:	5a01                	li	s4,-32
 a24:	6d00                	ld	s0,24(a0)
 a26:	0000                	unimp
 a28:	0500                	addi	s0,sp,640
 a2a:	0800                	addi	s0,sp,16
 a2c:	0000                	unimp
 a2e:	0000                	unimp
 a30:	0400                	addi	s0,sp,512
 a32:	4800                	lw	s0,16(s0)
 a34:	5a01                	li	s4,-32
 a36:	4804                	lw	s1,16(s0)
 a38:	044c                	addi	a1,sp,516
 a3a:	9f5a01a3          	sb	s5,-1565(s4)
 a3e:	0400                	addi	s0,sp,512
 a40:	1200                	addi	s0,sp,288
 a42:	5c01                	li	s8,-32
 a44:	1204                	addi	s1,sp,288
 a46:	0232                	slli	tp,tp,0xc
 a48:	5891                	li	a7,-28
 a4a:	3204                	fld	fs1,32(a2)
 a4c:	044c                	addi	a1,sp,516
 a4e:	9f5c01a3          	sb	s5,-1565(s8)
 a52:	0400                	addi	s0,sp,512
 a54:	1a00                	addi	s0,sp,304
 a56:	5d01                	li	s10,-32
 a58:	1a04                	addi	s1,sp,304
 a5a:	044c                	addi	a1,sp,516
 a5c:	9f5d01a3          	sb	s5,-1565(s10)
 a60:	0400                	addi	s0,sp,512
 a62:	2414                	fld	fa3,8(s0)
 a64:	030a                	slli	t1,t1,0x2
 a66:	2510                	fld	fa2,8(a0)
 a68:	8000                	.insn	2, 0x8000
 a6a:	0000                	unimp
 a6c:	0000                	unimp
 a6e:	009f 1e04 0322      	.insn	6, 0x03221e04009f
 a74:	ff09                	bnez	a4,98e <__stack_align+0x97e>
 a76:	009f 1e04 0a22      	.insn	6, 0x0a221e04009f
 a7c:	00251003          	lh	zero,2(a0)
 a80:	0080                	addi	s0,sp,64
 a82:	0000                	unimp
 a84:	9f00                	.insn	2, 0x9f00
 a86:	0400                	addi	s0,sp,512
 a88:	423e                	lw	tp,204(sp)
 a8a:	030a                	slli	t1,t1,0x2
 a8c:	2510                	fld	fa2,8(a0)
 a8e:	8000                	.insn	2, 0x8000
 a90:	0000                	unimp
 a92:	0000                	unimp
 a94:	Address 0xa94 is out of bounds.


Disassembly of section .debug_aranges:

0000000000000000 <.debug_aranges>:
   0:	003c                	addi	a5,sp,8
   2:	0000                	unimp
   4:	0002                	c.slli64	zero
   6:	0000                	unimp
   8:	0000                	unimp
   a:	0008                	.insn	2, 0x0008
   c:	0000                	unimp
   e:	0000                	unimp
  10:	04a8                	addi	a0,sp,584
  12:	8000                	.insn	2, 0x8000
  14:	0000                	unimp
  16:	0000                	unimp
  18:	0240                	addi	s0,sp,260
  1a:	0000                	unimp
  1c:	0000                	unimp
  1e:	0000                	unimp
  20:	0230                	addi	a2,sp,264
  22:	8000                	.insn	2, 0x8000
  24:	0000                	unimp
  26:	0000                	unimp
  28:	0278                	addi	a4,sp,268
	...
  3e:	0000                	unimp
  40:	002c                	addi	a1,sp,8
  42:	0000                	unimp
  44:	0002                	c.slli64	zero
  46:	1205                	addi	tp,tp,-31 # ffffffffffffffe1 <__heap_end+0xffffffff7ffdcfe1>
  48:	0000                	unimp
  4a:	0008                	.insn	2, 0x0008
  4c:	0000                	unimp
  4e:	0000                	unimp
  50:	1d44                	addi	s1,sp,692
  52:	8000                	.insn	2, 0x8000
  54:	0000                	unimp
  56:	0000                	unimp
  58:	0014                	.insn	2, 0x0014
	...
  6e:	0000                	unimp
  70:	002c                	addi	a1,sp,8
  72:	0000                	unimp
  74:	0002                	c.slli64	zero
  76:	12d6                	slli	t0,t0,0x35
  78:	0000                	unimp
  7a:	0008                	.insn	2, 0x0008
  7c:	0000                	unimp
  7e:	0000                	unimp
  80:	1d58                	addi	a4,sp,692
  82:	8000                	.insn	2, 0x8000
  84:	0000                	unimp
  86:	0000                	unimp
  88:	0014                	.insn	2, 0x0014
	...
  9e:	0000                	unimp
  a0:	002c                	addi	a1,sp,8
  a2:	0000                	unimp
  a4:	0002                	c.slli64	zero
  a6:	15b4                	addi	a3,sp,744
  a8:	0000                	unimp
  aa:	0008                	.insn	2, 0x0008
  ac:	0000                	unimp
  ae:	0000                	unimp
  b0:	1d6c                	addi	a1,sp,700
  b2:	8000                	.insn	2, 0x8000
  b4:	0000                	unimp
  b6:	0000                	unimp
  b8:	0008                	.insn	2, 0x0008
	...
  ce:	0000                	unimp
  d0:	002c                	addi	a1,sp,8
  d2:	0000                	unimp
  d4:	0002                	c.slli64	zero
  d6:	165f 0000 0008      	.insn	6, 0x00080000165f
  dc:	0000                	unimp
  de:	0000                	unimp
  e0:	1d74                	addi	a3,sp,700
  e2:	8000                	.insn	2, 0x8000
  e4:	0000                	unimp
  e6:	0000                	unimp
  e8:	0014                	.insn	2, 0x0014
	...
  fe:	0000                	unimp
 100:	002c                	addi	a1,sp,8
 102:	0000                	unimp
 104:	0002                	c.slli64	zero
 106:	1770                	addi	a2,sp,940
 108:	0000                	unimp
 10a:	0008                	.insn	2, 0x0008
 10c:	0000                	unimp
 10e:	0000                	unimp
 110:	1d88                	addi	a0,sp,752
 112:	8000                	.insn	2, 0x8000
 114:	0000                	unimp
 116:	0000                	unimp
 118:	0016                	c.slli	zero,0x5
	...
 12e:	0000                	unimp
 130:	002c                	addi	a1,sp,8
 132:	0000                	unimp
 134:	0002                	c.slli64	zero
 136:	00001883          	lh	a7,0(zero) # 0 <__boot_hart>
 13a:	0008                	.insn	2, 0x0008
 13c:	0000                	unimp
 13e:	0000                	unimp
 140:	1d9e                	slli	s11,s11,0x27
 142:	8000                	.insn	2, 0x8000
 144:	0000                	unimp
 146:	0000                	unimp
 148:	003c                	addi	a5,sp,8
	...
 15e:	0000                	unimp
 160:	002c                	addi	a1,sp,8
 162:	0000                	unimp
 164:	0002                	c.slli64	zero
 166:	19b9                	addi	s3,s3,-18
 168:	0000                	unimp
 16a:	0008                	.insn	2, 0x0008
 16c:	0000                	unimp
 16e:	0000                	unimp
 170:	1dda                	slli	s11,s11,0x36
 172:	8000                	.insn	2, 0x8000
 174:	0000                	unimp
 176:	0000                	unimp
 178:	0006                	c.slli	zero,0x1
	...
 18e:	0000                	unimp
 190:	002c                	addi	a1,sp,8
 192:	0000                	unimp
 194:	0002                	c.slli64	zero
 196:	1b31                	addi	s6,s6,-20
 198:	0000                	unimp
 19a:	0008                	.insn	2, 0x0008
 19c:	0000                	unimp
 19e:	0000                	unimp
 1a0:	0000                	unimp
 1a2:	8000                	.insn	2, 0x8000
 1a4:	0000                	unimp
 1a6:	0000                	unimp
 1a8:	01ee                	slli	gp,gp,0x1b
	...
 1be:	0000                	unimp
 1c0:	002c                	addi	a1,sp,8
 1c2:	0000                	unimp
 1c4:	0002                	c.slli64	zero
 1c6:	1b5a                	slli	s6,s6,0x36
 1c8:	0000                	unimp
 1ca:	0008                	.insn	2, 0x0008
 1cc:	0000                	unimp
 1ce:	0000                	unimp
 1d0:	01ee                	slli	gp,gp,0x1b
 1d2:	8000                	.insn	2, 0x8000
 1d4:	0000                	unimp
 1d6:	0000                	unimp
 1d8:	0042                	c.slli	zero,0x10
	...
 1ee:	0000                	unimp
 1f0:	002c                	addi	a1,sp,8
 1f2:	0000                	unimp
 1f4:	0002                	c.slli64	zero
 1f6:	1b82                	slli	s7,s7,0x20
 1f8:	0000                	unimp
 1fa:	0008                	.insn	2, 0x0008
 1fc:	0000                	unimp
 1fe:	0000                	unimp
 200:	1de0                	addi	s0,sp,764
 202:	8000                	.insn	2, 0x8000
 204:	0000                	unimp
 206:	0000                	unimp
 208:	0016                	c.slli	zero,0x5
	...
 21e:	0000                	unimp
 220:	002c                	addi	a1,sp,8
 222:	0000                	unimp
 224:	0002                	c.slli64	zero
 226:	1cbc                	addi	a5,sp,632
 228:	0000                	unimp
 22a:	0008                	.insn	2, 0x0008
 22c:	0000                	unimp
 22e:	0000                	unimp
 230:	1df6                	slli	s11,s11,0x3d
 232:	8000                	.insn	2, 0x8000
 234:	0000                	unimp
 236:	0000                	unimp
 238:	0030                	addi	a2,sp,8
	...
 24e:	0000                	unimp
 250:	002c                	addi	a1,sp,8
 252:	0000                	unimp
 254:	0002                	c.slli64	zero
 256:	1e25                	addi	t3,t3,-23
 258:	0000                	unimp
 25a:	0008                	.insn	2, 0x0008
 25c:	0000                	unimp
 25e:	0000                	unimp
 260:	1e26                	slli	t3,t3,0x29
 262:	8000                	.insn	2, 0x8000
 264:	0000                	unimp
 266:	0000                	unimp
 268:	0006                	c.slli	zero,0x1
	...
 27e:	0000                	unimp
 280:	002c                	addi	a1,sp,8
 282:	0000                	unimp
 284:	0002                	c.slli64	zero
 286:	1e6e                	slli	t3,t3,0x3b
 288:	0000                	unimp
 28a:	0008                	.insn	2, 0x0008
 28c:	0000                	unimp
 28e:	0000                	unimp
 290:	1e2c                	addi	a1,sp,824
 292:	8000                	.insn	2, 0x8000
 294:	0000                	unimp
 296:	0000                	unimp
 298:	004c                	addi	a1,sp,4
	...
 2ae:	0000                	unimp
 2b0:	002c                	addi	a1,sp,8
 2b2:	0000                	unimp
 2b4:	0002                	c.slli64	zero
 2b6:	21ae                	fld	ft3,200(sp)
 2b8:	0000                	unimp
 2ba:	0008                	.insn	2, 0x0008
 2bc:	0000                	unimp
 2be:	0000                	unimp
 2c0:	1e78                	addi	a4,sp,828
 2c2:	8000                	.insn	2, 0x8000
 2c4:	0000                	unimp
 2c6:	0000                	unimp
 2c8:	0022                	c.slli	zero,0x8
	...

Disassembly of section .debug_rnglists:

0000000000000000 <.debug_rnglists>:
   0:	000002e3          	beqz	zero,804 <__stack_align+0x7f4>
   4:	0005                	c.nop	1
   6:	0008                	.insn	2, 0x0008
   8:	0000                	unimp
   a:	0000                	unimp
   c:	a805                	j	3c <__stack_align+0x2c>
   e:	0004                	.insn	2, 0x0004
  10:	0080                	addi	s0,sp,64
  12:	0000                	unimp
  14:	0400                	addi	s0,sp,512
  16:	0800                	addi	s0,sp,16
  18:	0804                	addi	s1,sp,16
  1a:	000c                	.insn	2, 0x000c
  1c:	c405                	beqz	s0,44 <__stack_align+0x34>
  1e:	0004                	.insn	2, 0x0004
  20:	0080                	addi	s0,sp,64
  22:	0000                	unimp
  24:	0400                	addi	s0,sp,512
  26:	0400                	addi	s0,sp,512
  28:	0804                	addi	s1,sp,16
  2a:	000c                	.insn	2, 0x000c
  2c:	c805                	beqz	s0,5c <__stack_align+0x4c>
  2e:	0004                	.insn	2, 0x0004
  30:	0080                	addi	s0,sp,64
  32:	0000                	unimp
  34:	0400                	addi	s0,sp,512
  36:	0400                	addi	s0,sp,512
  38:	0804                	addi	s1,sp,16
  3a:	000c                	.insn	2, 0x000c
  3c:	e405                	bnez	s0,64 <__stack_align+0x54>
  3e:	0004                	.insn	2, 0x0004
  40:	0080                	addi	s0,sp,64
  42:	0000                	unimp
  44:	0400                	addi	s0,sp,512
  46:	0400                	addi	s0,sp,512
  48:	0804                	addi	s1,sp,16
  4a:	0408                	addi	a0,sp,512
  4c:	100c                	addi	a1,sp,32
  4e:	0500                	addi	s0,sp,640
  50:	04ec                	addi	a1,sp,588
  52:	8000                	.insn	2, 0x8000
  54:	0000                	unimp
  56:	0000                	unimp
  58:	0004                	.insn	2, 0x0004
  5a:	0404                	addi	s1,sp,512
  5c:	100c                	addi	a1,sp,32
  5e:	0500                	addi	s0,sp,640
  60:	04fc                	addi	a5,sp,588
  62:	8000                	.insn	2, 0x8000
  64:	0000                	unimp
  66:	0000                	unimp
  68:	0004                	.insn	2, 0x0004
  6a:	0404                	addi	s1,sp,512
  6c:	1008                	addi	a0,sp,32
  6e:	0500                	addi	s0,sp,640
  70:	0500                	addi	s0,sp,640
  72:	8000                	.insn	2, 0x8000
  74:	0000                	unimp
  76:	0000                	unimp
  78:	0004                	.insn	2, 0x0004
  7a:	0404                	addi	s1,sp,512
  7c:	200c                	fld	fa1,0(s0)
  7e:	2004                	fld	fs1,0(s0)
  80:	0424                	addi	s1,sp,520
  82:	807c                	.insn	2, 0x807c
  84:	0401                	addi	s0,s0,0
  86:	01d0                	addi	a2,sp,196
  88:	01d4                	addi	a3,sp,196
  8a:	0500                	addi	s0,sp,640
  8c:	0500                	addi	s0,sp,640
  8e:	8000                	.insn	2, 0x8000
  90:	0000                	unimp
  92:	0000                	unimp
  94:	0004                	.insn	2, 0x0004
  96:	0404                	addi	s1,sp,512
  98:	100c                	addi	a1,sp,32
  9a:	1004                	addi	s1,sp,32
  9c:	0014                	.insn	2, 0x0014
  9e:	1c05                	addi	s8,s8,-31
  a0:	0005                	c.nop	1
  a2:	0080                	addi	s0,sp,64
  a4:	0000                	unimp
  a6:	0400                	addi	s0,sp,512
  a8:	0400                	addi	s0,sp,512
  aa:	0404                	addi	s1,sp,512
  ac:	0408                	addi	a0,sp,512
  ae:	6460                	ld	s0,200(s0)
  b0:	b404                	fsd	fs1,40(s0)
  b2:	b801                	j	fffffffffffff8c2 <__heap_end+0xffffffff7ffdc8c2>
  b4:	0001                	nop
  b6:	3805                	addiw	a6,a6,-31
  b8:	0005                	c.nop	1
  ba:	0080                	addi	s0,sp,64
  bc:	0000                	unimp
  be:	0400                	addi	s0,sp,512
  c0:	0800                	addi	s0,sp,16
  c2:	0c04                	addi	s1,sp,528
  c4:	000c                	.insn	2, 0x000c
  c6:	4c05                	li	s8,1
  c8:	0005                	c.nop	1
  ca:	0080                	addi	s0,sp,64
  cc:	0000                	unimp
  ce:	0400                	addi	s0,sp,512
  d0:	0c00                	addi	s0,sp,528
  d2:	1804                	addi	s1,sp,48
  d4:	0028                	addi	a0,sp,8
  d6:	4c05                	li	s8,1
  d8:	0005                	c.nop	1
  da:	0080                	addi	s0,sp,64
  dc:	0000                	unimp
  de:	0400                	addi	s0,sp,512
  e0:	0c00                	addi	s0,sp,528
  e2:	1804                	addi	s1,sp,48
  e4:	001c                	.insn	2, 0x001c
  e6:	9405                	srai	s0,s0,0x21
  e8:	0005                	c.nop	1
  ea:	0080                	addi	s0,sp,64
  ec:	0000                	unimp
  ee:	0400                	addi	s0,sp,512
  f0:	0400                	addi	s0,sp,512
  f2:	0804                	addi	s1,sp,16
  f4:	000c                	.insn	2, 0x000c
  f6:	b005                	j	fffffffffffff916 <__heap_end+0xffffffff7ffdc916>
  f8:	0005                	c.nop	1
  fa:	0080                	addi	s0,sp,64
  fc:	0000                	unimp
  fe:	0400                	addi	s0,sp,512
 100:	0400                	addi	s0,sp,512
 102:	0804                	addi	s1,sp,16
 104:	0018                	.insn	2, 0x0018
 106:	b005                	j	fffffffffffff926 <__heap_end+0xffffffff7ffdc926>
 108:	0005                	c.nop	1
 10a:	0080                	addi	s0,sp,64
 10c:	0000                	unimp
 10e:	0400                	addi	s0,sp,512
 110:	0400                	addi	s0,sp,512
 112:	0804                	addi	s1,sp,16
 114:	000c                	.insn	2, 0x000c
 116:	0405                	addi	s0,s0,1
 118:	0006                	c.slli	zero,0x1
 11a:	0080                	addi	s0,sp,64
 11c:	0000                	unimp
 11e:	0400                	addi	s0,sp,512
 120:	1000                	addi	s0,sp,32
 122:	1004                	addi	s1,sp,32
 124:	0434                	addi	a3,sp,520
 126:	4444                	lw	s1,12(s0)
 128:	4804                	lw	s1,16(s0)
 12a:	0454                	addi	a3,sp,516
 12c:	5c58                	lw	a4,60(s0)
 12e:	6004                	ld	s1,0(s0)
 130:	0064                	addi	s1,sp,12
 132:	1405                	addi	s0,s0,-31
 134:	0006                	c.slli	zero,0x1
 136:	0080                	addi	s0,sp,64
 138:	0000                	unimp
 13a:	0400                	addi	s0,sp,512
 13c:	0000                	unimp
 13e:	0c04                	addi	s1,sp,528
 140:	0410                	addi	a2,sp,512
 142:	1814                	addi	a3,sp,48
 144:	0500                	addi	s0,sp,640
 146:	0674                	addi	a3,sp,780
 148:	8000                	.insn	2, 0x8000
 14a:	0000                	unimp
 14c:	0000                	unimp
 14e:	0004                	.insn	2, 0x0004
 150:	0408                	addi	a0,sp,512
 152:	140c                	addi	a1,sp,544
 154:	1c04                	addi	s1,sp,560
 156:	041c                	addi	a5,sp,512
 158:	441c                	lw	a5,8(s0)
 15a:	4804                	lw	s1,16(s0)
 15c:	0454                	addi	a3,sp,516
 15e:	5c58                	lw	a4,60(s0)
 160:	6004                	ld	s1,0(s0)
 162:	0064                	addi	s1,sp,12
 164:	9005                	srli	s0,s0,0x21
 166:	0006                	c.slli	zero,0x1
 168:	0080                	addi	s0,sp,64
 16a:	0000                	unimp
 16c:	0400                	addi	s0,sp,512
 16e:	0000                	unimp
 170:	1404                	addi	s1,sp,544
 172:	0414                	addi	a3,sp,512
 174:	1c18                	addi	a4,sp,560
 176:	2004                	fld	fs1,0(s0)
 178:	0024                	addi	s1,sp,8
 17a:	5405                	li	s0,-31
 17c:	0002                	c.slli64	zero
 17e:	0080                	addi	s0,sp,64
 180:	0000                	unimp
 182:	0400                	addi	s0,sp,512
 184:	1c00                	addi	s0,sp,560
 186:	2804                	fld	fs1,16(s0)
 188:	002c                	addi	a1,sp,8
 18a:	5405                	li	s0,-31
 18c:	0002                	c.slli64	zero
 18e:	0080                	addi	s0,sp,64
 190:	0000                	unimp
 192:	0400                	addi	s0,sp,512
 194:	0c00                	addi	s0,sp,528
 196:	1404                	addi	s1,sp,544
 198:	0014                	.insn	2, 0x0014
 19a:	6005                	c.lui	zero,0x1
 19c:	0002                	c.slli64	zero
 19e:	0080                	addi	s0,sp,64
 1a0:	0000                	unimp
 1a2:	0400                	addi	s0,sp,512
 1a4:	0800                	addi	s0,sp,16
 1a6:	0804                	addi	s1,sp,16
 1a8:	0408                	addi	a0,sp,512
 1aa:	100c                	addi	a1,sp,32
 1ac:	0500                	addi	s0,sp,640
 1ae:	0268                	addi	a0,sp,268
 1b0:	8000                	.insn	2, 0x8000
 1b2:	0000                	unimp
 1b4:	0000                	unimp
 1b6:	0004                	.insn	2, 0x0004
 1b8:	0404                	addi	s1,sp,512
 1ba:	0808                	addi	a0,sp,16
 1bc:	1404                	addi	s1,sp,544
 1be:	0018                	.insn	2, 0x0018
 1c0:	b805                	j	fffffffffffff9f0 <__heap_end+0xffffffff7ffdc9f0>
 1c2:	0002                	c.slli64	zero
 1c4:	0080                	addi	s0,sp,64
 1c6:	0000                	unimp
 1c8:	0400                	addi	s0,sp,512
 1ca:	1000                	addi	s0,sp,32
 1cc:	1c04                	addi	s1,sp,560
 1ce:	0020                	addi	s0,sp,8
 1d0:	b805                	j	fffffffffffffa00 <__heap_end+0xffffffff7ffdca00>
 1d2:	0002                	c.slli64	zero
 1d4:	0080                	addi	s0,sp,64
 1d6:	0000                	unimp
 1d8:	0400                	addi	s0,sp,512
 1da:	0c00                	addi	s0,sp,528
 1dc:	0c04                	addi	s1,sp,528
 1de:	000c                	.insn	2, 0x000c
 1e0:	c805                	beqz	s0,210 <__stack_align+0x200>
 1e2:	0002                	c.slli64	zero
 1e4:	0080                	addi	s0,sp,64
 1e6:	0000                	unimp
 1e8:	0400                	addi	s0,sp,512
 1ea:	0000                	unimp
 1ec:	0c04                	addi	s1,sp,528
 1ee:	0010                	.insn	2, 0x0010
 1f0:	f805                	bnez	s0,120 <__stack_align+0x110>
 1f2:	0002                	c.slli64	zero
 1f4:	0080                	addi	s0,sp,64
 1f6:	0000                	unimp
 1f8:	0400                	addi	s0,sp,512
 1fa:	0800                	addi	s0,sp,16
 1fc:	0804                	addi	s1,sp,16
 1fe:	0008                	.insn	2, 0x0008
 200:	3005                	.insn	2, 0x3005
 202:	00800003          	lb	zero,8(zero) # 8 <__boot_hart+0x8>
 206:	0000                	unimp
 208:	0400                	addi	s0,sp,512
 20a:	0c00                	addi	s0,sp,528
 20c:	1004                	addi	s1,sp,32
 20e:	0014                	.insn	2, 0x0014
 210:	3005                	.insn	2, 0x3005
 212:	00800003          	lb	zero,8(zero) # 8 <__boot_hart+0x8>
 216:	0000                	unimp
 218:	0400                	addi	s0,sp,512
 21a:	0800                	addi	s0,sp,16
 21c:	0804                	addi	s1,sp,16
 21e:	0008                	.insn	2, 0x0008
 220:	3c05                	addiw	s8,s8,-31
 222:	00800003          	lb	zero,8(zero) # 8 <__boot_hart+0x8>
 226:	0000                	unimp
 228:	0400                	addi	s0,sp,512
 22a:	0000                	unimp
 22c:	0404                	addi	s1,sp,512
 22e:	0008                	.insn	2, 0x0008
 230:	6c05                	lui	s8,0x1
 232:	00800003          	lb	zero,8(zero) # 8 <__boot_hart+0x8>
 236:	0000                	unimp
 238:	0400                	addi	s0,sp,512
 23a:	0c00                	addi	s0,sp,528
 23c:	1004                	addi	s1,sp,32
 23e:	0014                	.insn	2, 0x0014
 240:	6c05                	lui	s8,0x1
 242:	00800003          	lb	zero,8(zero) # 8 <__boot_hart+0x8>
 246:	0000                	unimp
 248:	0400                	addi	s0,sp,512
 24a:	0800                	addi	s0,sp,16
 24c:	0804                	addi	s1,sp,16
 24e:	0008                	.insn	2, 0x0008
 250:	7805                	lui	a6,0xfffe1
 252:	00800003          	lb	zero,8(zero) # 8 <__boot_hart+0x8>
 256:	0000                	unimp
 258:	0400                	addi	s0,sp,512
 25a:	0000                	unimp
 25c:	0404                	addi	s1,sp,512
 25e:	0008                	.insn	2, 0x0008
 260:	a805                	j	290 <__stack_align+0x280>
 262:	00800003          	lb	zero,8(zero) # 8 <__boot_hart+0x8>
 266:	0000                	unimp
 268:	0400                	addi	s0,sp,512
 26a:	0c00                	addi	s0,sp,528
 26c:	1004                	addi	s1,sp,32
 26e:	0014                	.insn	2, 0x0014
 270:	a805                	j	2a0 <__stack_align+0x290>
 272:	00800003          	lb	zero,8(zero) # 8 <__boot_hart+0x8>
 276:	0000                	unimp
 278:	0400                	addi	s0,sp,512
 27a:	0800                	addi	s0,sp,16
 27c:	0804                	addi	s1,sp,16
 27e:	0008                	.insn	2, 0x0008
 280:	b405                	j	fffffffffffffca0 <__heap_end+0xffffffff7ffdcca0>
 282:	00800003          	lb	zero,8(zero) # 8 <__boot_hart+0x8>
 286:	0000                	unimp
 288:	0400                	addi	s0,sp,512
 28a:	0000                	unimp
 28c:	0404                	addi	s1,sp,512
 28e:	0008                	.insn	2, 0x0008
 290:	e405                	bnez	s0,2b8 <__stack_align+0x2a8>
 292:	00800003          	lb	zero,8(zero) # 8 <__boot_hart+0x8>
 296:	0000                	unimp
 298:	0400                	addi	s0,sp,512
 29a:	0c00                	addi	s0,sp,528
 29c:	1004                	addi	s1,sp,32
 29e:	0014                	.insn	2, 0x0014
 2a0:	e405                	bnez	s0,2c8 <__stack_align+0x2b8>
 2a2:	00800003          	lb	zero,8(zero) # 8 <__boot_hart+0x8>
 2a6:	0000                	unimp
 2a8:	0400                	addi	s0,sp,512
 2aa:	0800                	addi	s0,sp,16
 2ac:	0804                	addi	s1,sp,16
 2ae:	0008                	.insn	2, 0x0008
 2b0:	f005                	bnez	s0,1d0 <__stack_align+0x1c0>
 2b2:	00800003          	lb	zero,8(zero) # 8 <__boot_hart+0x8>
 2b6:	0000                	unimp
 2b8:	0400                	addi	s0,sp,512
 2ba:	0000                	unimp
 2bc:	0404                	addi	s1,sp,512
 2be:	0008                	.insn	2, 0x0008
 2c0:	1c05                	addi	s8,s8,-31 # fe1 <__stack_align+0xfd1>
 2c2:	0004                	.insn	2, 0x0004
 2c4:	0080                	addi	s0,sp,64
 2c6:	0000                	unimp
 2c8:	0400                	addi	s0,sp,512
 2ca:	0800                	addi	s0,sp,16
 2cc:	0804                	addi	s1,sp,16
 2ce:	0008                	.insn	2, 0x0008
 2d0:	0004a807          	flw	fa6,0(s1)
 2d4:	0080                	addi	s0,sp,64
 2d6:	0000                	unimp
 2d8:	c000                	sw	s0,0(s0)
 2da:	0704                	addi	s1,sp,896
 2dc:	0230                	addi	a2,sp,264
 2de:	8000                	.insn	2, 0x8000
 2e0:	0000                	unimp
 2e2:	0000                	unimp
 2e4:	04f8                	addi	a4,sp,588
 2e6:	0f00                	addi	s0,sp,912
 2e8:	0000                	unimp
 2ea:	0500                	addi	s0,sp,640
 2ec:	0800                	addi	s0,sp,16
 2ee:	0000                	unimp
 2f0:	0000                	unimp
 2f2:	0400                	addi	s0,sp,512
 2f4:	1a18                	addi	a4,sp,304
 2f6:	1e04                	addi	s1,sp,816
 2f8:	0022                	c.slli	zero,0x8

Disassembly of section .debug_line:

0000000000000000 <.debug_line>:
       0:	0e61                	addi	t3,t3,24
       2:	0000                	unimp
       4:	0005                	c.nop	1
       6:	0008                	.insn	2, 0x0008
       8:	00000053          	fadd.s	ft0,ft0,ft0,rne
       c:	0101                	addi	sp,sp,0
       e:	fb01                	bnez	a4,ffffffffffffff1e <__heap_end+0xffffffff7ffdcf1e>
      10:	0d0e                	slli	s10,s10,0x3
      12:	0100                	addi	s0,sp,128
      14:	0101                	addi	sp,sp,0
      16:	0001                	nop
      18:	0000                	unimp
      1a:	0001                	nop
      1c:	0100                	addi	s0,sp,128
      1e:	0101                	addi	sp,sp,0
      20:	051f 0043 0000      	.insn	6, 0x0043051f
      26:	00000077          	.insn	4, 0x0077
      2a:	000000ab          	.insn	4, 0x00ab
      2e:	0114                	addi	a3,sp,128
      30:	0000                	unimp
      32:	0179                	addi	sp,sp,30
      34:	0000                	unimp
      36:	0102                	c.slli64	sp
      38:	021f 070f 0034      	.insn	6, 0x0034070f021f
      3e:	0000                	unimp
      40:	da01                	beqz	a2,ffffffffffffff50 <__heap_end+0xffffffff7ffdcf50>
      42:	0001                	nop
      44:	0100                	addi	s0,sp,128
      46:	01e5                	addi	gp,gp,25 # 80002ce9 <__global_pointer$+0x19>
      48:	0000                	unimp
      4a:	3401                	addiw	s0,s0,-32
      4c:	0000                	unimp
      4e:	0100                	addi	s0,sp,128
      50:	01ec                	addi	a1,sp,204
      52:	0000                	unimp
      54:	fd02                	sd	zero,184(sp)
      56:	0001                	nop
      58:	0300                	addi	s0,sp,384
      5a:	00000207          	.insn	4, 0x0207
      5e:	0504                	addi	s1,sp,640
      60:	0001                	nop
      62:	0209                	addi	tp,tp,2 # 2 <__boot_hart+0x2>
      64:	04a8                	addi	a0,sp,584
      66:	8000                	.insn	2, 0x8000
      68:	0000                	unimp
      6a:	0000                	unimp
      6c:	0100c603          	lbu	a2,16(ra) # 2252 <__stack_align+0x2242>
      70:	0205                	addi	tp,tp,1 # 1 <__boot_hart+0x1>
      72:	00090103          	lb	sp,0(s2)
      76:	0100                	addi	s0,sp,128
      78:	0204                	addi	s1,sp,256
      7a:	0905                	addi	s2,s2,1
      7c:	0306                	slli	t1,t1,0x1
      7e:	095f 0000 0401      	.insn	6, 0x04010000095f
      84:	0501                	addi	a0,a0,0
      86:	0402003f 21030601 	.insn	8, 0x210306010402003f
      8e:	0809                	addi	a6,a6,2 # fffffffffffe1002 <__heap_end+0xffffffff7ffbe002>
      90:	0100                	addi	s0,sp,128
      92:	0204                	addi	s1,sp,256
      94:	0205                	addi	tp,tp,1 # 1 <__boot_hart+0x1>
      96:	00095e03          	lhu	t3,0(s2)
      9a:	0100                	addi	s0,sp,128
      9c:	00090103          	lb	sp,0(s2)
      a0:	0100                	addi	s0,sp,128
      a2:	0905                	addi	s2,s2,1
      a4:	0306                	slli	t1,t1,0x1
      a6:	0900                	addi	s0,sp,144
      a8:	0000                	unimp
      aa:	0401                	addi	s0,s0,0
      ac:	0501                	addi	a0,a0,0
      ae:	0402003f 09210301 	.insn	8, 0x092103010402003f
      b6:	0004                	.insn	2, 0x0004
      b8:	0501                	addi	a0,a0,0
      ba:	0602                	c.slli64	a2
      bc:	04090103          	lb	sp,64(s2)
      c0:	0100                	addi	s0,sp,128
      c2:	0204                	addi	s1,sp,256
      c4:	04095703          	lhu	a4,64(s2)
      c8:	0100                	addi	s0,sp,128
      ca:	00090103          	lb	sp,0(s2)
      ce:	0100                	addi	s0,sp,128
      d0:	0705                	addi	a4,a4,1
      d2:	0306                	slli	t1,t1,0x1
      d4:	0900                	addi	s0,sp,144
      d6:	0000                	unimp
      d8:	0401                	addi	s0,s0,0
      da:	0501                	addi	a0,a0,0
      dc:	0301                	addi	t1,t1,0
      de:	0929                	addi	s2,s2,10
      e0:	0004                	.insn	2, 0x0004
      e2:	0601                	addi	a2,a2,0
      e4:	04090403          	lb	s0,64(s2)
      e8:	0100                	addi	s0,sp,128
      ea:	0205                	addi	tp,tp,1 # 1 <__boot_hart+0x1>
      ec:	00090103          	lb	sp,0(s2)
      f0:	0100                	addi	s0,sp,128
      f2:	0204                	addi	s1,sp,256
      f4:	00095103          	lhu	sp,0(s2)
      f8:	0100                	addi	s0,sp,128
      fa:	00090103          	lb	sp,0(s2)
      fe:	0100                	addi	s0,sp,128
     100:	0705                	addi	a4,a4,1
     102:	0306                	slli	t1,t1,0x1
     104:	0900                	addi	s0,sp,144
     106:	0000                	unimp
     108:	0401                	addi	s0,s0,0
     10a:	0501                	addi	a0,a0,0
     10c:	0602                	c.slli64	a2
     10e:	0c092f03          	lw	t5,192(s2)
     112:	0100                	addi	s0,sp,128
     114:	0204                	addi	s1,sp,256
     116:	00095003          	lhu	zero,0(s2)
     11a:	0100                	addi	s0,sp,128
     11c:	00090103          	lb	sp,0(s2)
     120:	0100                	addi	s0,sp,128
     122:	0705                	addi	a4,a4,1
     124:	0306                	slli	t1,t1,0x1
     126:	0900                	addi	s0,sp,144
     128:	0000                	unimp
     12a:	0401                	addi	s0,s0,0
     12c:	0501                	addi	a0,a0,0
     12e:	0602                	c.slli64	a2
     130:	04093003          	ld	zero,64(s2)
     134:	0100                	addi	s0,sp,128
     136:	0204                	addi	s1,sp,256
     138:	00094f03          	lbu	t5,0(s2)
     13c:	0100                	addi	s0,sp,128
     13e:	00090103          	lb	sp,0(s2)
     142:	0100                	addi	s0,sp,128
     144:	0705                	addi	a4,a4,1
     146:	0306                	slli	t1,t1,0x1
     148:	0900                	addi	s0,sp,144
     14a:	0000                	unimp
     14c:	0401                	addi	s0,s0,0
     14e:	0501                	addi	a0,a0,0
     150:	0301                	addi	t1,t1,0
     152:	0931                	addi	s2,s2,12
     154:	0008                	.insn	2, 0x0008
     156:	0601                	addi	a2,a2,0
     158:	04090403          	lb	s0,64(s2)
     15c:	0100                	addi	s0,sp,128
     15e:	0205                	addi	tp,tp,1 # 1 <__boot_hart+0x1>
     160:	00090203          	lb	tp,0(s2)
     164:	0100                	addi	s0,sp,128
     166:	00090103          	lb	sp,0(s2)
     16a:	0100                	addi	s0,sp,128
     16c:	00090103          	lb	sp,0(s2)
     170:	0100                	addi	s0,sp,128
     172:	00090103          	lb	sp,0(s2)
     176:	0100                	addi	s0,sp,128
     178:	00090103          	lb	sp,0(s2)
     17c:	0100                	addi	s0,sp,128
     17e:	1305                	addi	t1,t1,-31
     180:	0306                	slli	t1,t1,0x1
     182:	097d                	addi	s2,s2,31
     184:	0000                	unimp
     186:	0401                	addi	s0,s0,0
     188:	0502                	c.slli64	a0
     18a:	09480307          	.insn	4, 0x09480307
     18e:	0004                	.insn	2, 0x0004
     190:	0401                	addi	s0,s0,0
     192:	0501                	addi	a0,a0,0
     194:	09380313          	addi	t1,a6,147
     198:	0004                	.insn	2, 0x0004
     19a:	0501                	addi	a0,a0,0
     19c:	0602                	c.slli64	a2
     19e:	04090503          	lb	a0,64(s2)
     1a2:	0100                	addi	s0,sp,128
     1a4:	00090303          	lb	t1,0(s2)
     1a8:	0100                	addi	s0,sp,128
     1aa:	0204                	addi	s1,sp,256
     1ac:	097fbf03          	ld	t5,151(t6)
     1b0:	0000                	unimp
     1b2:	0301                	addi	t1,t1,0
     1b4:	0901                	addi	s2,s2,0
     1b6:	0000                	unimp
     1b8:	0501                	addi	a0,a0,0
     1ba:	00030607          	.insn	4, 0x00030607
     1be:	0009                	c.nop	2
     1c0:	0100                	addi	s0,sp,128
     1c2:	0104                	addi	s1,sp,128
     1c4:	0205                	addi	tp,tp,1 # 1 <__boot_hart+0x1>
     1c6:	0306                	slli	t1,t1,0x1
     1c8:	00c2                	slli	ra,ra,0x10
     1ca:	0809                	addi	a6,a6,2
     1cc:	0100                	addi	s0,sp,128
     1ce:	0204                	addi	s1,sp,256
     1d0:	097fbd03          	ld	s10,151(t6)
     1d4:	0004                	.insn	2, 0x0004
     1d6:	0301                	addi	t1,t1,0
     1d8:	0901                	addi	s2,s2,0
     1da:	0000                	unimp
     1dc:	0501                	addi	a0,a0,0
     1de:	00030607          	.insn	4, 0x00030607
     1e2:	0009                	c.nop	2
     1e4:	0100                	addi	s0,sp,128
     1e6:	0104                	addi	s1,sp,128
     1e8:	0205                	addi	tp,tp,1 # 1 <__boot_hart+0x1>
     1ea:	0306                	slli	t1,t1,0x1
     1ec:	040900c3          	.insn	4, 0x040900c3
     1f0:	0100                	addi	s0,sp,128
     1f2:	0204                	addi	s1,sp,256
     1f4:	097fbc03          	ld	s8,151(t6)
     1f8:	0000                	unimp
     1fa:	0301                	addi	t1,t1,0
     1fc:	0901                	addi	s2,s2,0
     1fe:	0000                	unimp
     200:	0501                	addi	a0,a0,0
     202:	00030607          	.insn	4, 0x00030607
     206:	0009                	c.nop	2
     208:	0100                	addi	s0,sp,128
     20a:	0905                	addi	s2,s2,1
     20c:	04090603          	lb	a2,64(s2)
     210:	0100                	addi	s0,sp,128
     212:	0705                	addi	a4,a4,1
     214:	04097a03          	.insn	4, 0x04097a03
     218:	0100                	addi	s0,sp,128
     21a:	0104                	addi	s1,sp,128
     21c:	0205                	addi	tp,tp,1 # 1 <__boot_hart+0x1>
     21e:	0306                	slli	t1,t1,0x1
     220:	00c5                	addi	ra,ra,17
     222:	0809                	addi	a6,a6,2
     224:	0100                	addi	s0,sp,128
     226:	00096203          	lwu	tp,0(s2)
     22a:	0100                	addi	s0,sp,128
     22c:	0204                	addi	s1,sp,256
     22e:	0905                	addi	s2,s2,1
     230:	0306                	slli	t1,t1,0x1
     232:	095f 0000 0401      	.insn	6, 0x04010000095f
     238:	0501                	addi	a0,a0,0
     23a:	0402003f 21030601 	.insn	8, 0x210306010402003f
     242:	0409                	addi	s0,s0,2
     244:	0100                	addi	s0,sp,128
     246:	0204                	addi	s1,sp,256
     248:	0205                	addi	tp,tp,1 # 1 <__boot_hart+0x1>
     24a:	00095e03          	lhu	t3,0(s2)
     24e:	0100                	addi	s0,sp,128
     250:	00090103          	lb	sp,0(s2)
     254:	0100                	addi	s0,sp,128
     256:	0905                	addi	s2,s2,1
     258:	0306                	slli	t1,t1,0x1
     25a:	0900                	addi	s0,sp,144
     25c:	0000                	unimp
     25e:	0401                	addi	s0,s0,0
     260:	0501                	addi	a0,a0,0
     262:	0402003f 09210301 	.insn	8, 0x092103010402003f
     26a:	0004                	.insn	2, 0x0004
     26c:	0501                	addi	a0,a0,0
     26e:	0602                	c.slli64	a2
     270:	04090103          	lb	sp,64(s2)
     274:	0100                	addi	s0,sp,128
     276:	0204                	addi	s1,sp,256
     278:	04095703          	lhu	a4,64(s2)
     27c:	0100                	addi	s0,sp,128
     27e:	00090103          	lb	sp,0(s2)
     282:	0100                	addi	s0,sp,128
     284:	0705                	addi	a4,a4,1
     286:	0306                	slli	t1,t1,0x1
     288:	0900                	addi	s0,sp,144
     28a:	0000                	unimp
     28c:	0401                	addi	s0,s0,0
     28e:	0501                	addi	a0,a0,0
     290:	0602                	c.slli64	a2
     292:	0900c803          	lbu	a6,144(ra)
     296:	0004                	.insn	2, 0x0004
     298:	0501                	addi	a0,a0,0
     29a:	0402000f          	.insn	4, 0x0402000f
     29e:	0301                	addi	t1,t1,0
     2a0:	0900                	addi	s0,sp,144
     2a2:	0000                	unimp
     2a4:	0401                	addi	s0,s0,0
     2a6:	0502                	c.slli64	a0
     2a8:	b8030607          	.insn	4, 0xb8030607
     2ac:	097f 0000 0401 0501 	.insn	10, 0x001d050104010000097f
     2b4:	001d 
     2b6:	0402                	c.slli64	s0
     2b8:	c8030603          	lb	a2,-896(t1)
     2bc:	0900                	addi	s0,sp,144
     2be:	0004                	.insn	2, 0x0004
     2c0:	0501                	addi	a0,a0,0
     2c2:	0019                	c.nop	6
     2c4:	0402                	c.slli64	s0
     2c6:	09000303          	lb	t1,144(zero) # 90 <__stack_align+0x80>
     2ca:	0004                	.insn	2, 0x0004
     2cc:	0501                	addi	a0,a0,0
     2ce:	0402000f          	.insn	4, 0x0402000f
     2d2:	0301                	addi	t1,t1,0
     2d4:	0900                	addi	s0,sp,144
     2d6:	0000                	unimp
     2d8:	0501                	addi	a0,a0,0
     2da:	0302                	c.slli64	t1
     2dc:	0902                	c.slli64	s2
     2de:	0008                	.insn	2, 0x0008
     2e0:	0501                	addi	a0,a0,0
     2e2:	00030613          	mv	a2,t1
     2e6:	0009                	c.nop	2
     2e8:	0100                	addi	s0,sp,128
     2ea:	0205                	addi	tp,tp,1 # 1 <__boot_hart+0x1>
     2ec:	04090103          	lb	sp,64(s2)
     2f0:	0100                	addi	s0,sp,128
     2f2:	0204                	addi	s1,sp,256
     2f4:	0705                	addi	a4,a4,1
     2f6:	097fb503          	ld	a0,151(t6)
     2fa:	0004                	.insn	2, 0x0004
     2fc:	0401                	addi	s0,s0,0
     2fe:	0501                	addi	a0,a0,0
     300:	00ca0313          	addi	t1,s4,12
     304:	0809                	addi	a6,a6,2
     306:	0100                	addi	s0,sp,128
     308:	0205                	addi	tp,tp,1 # 1 <__boot_hart+0x1>
     30a:	0306                	slli	t1,t1,0x1
     30c:	0901                	addi	s2,s2,0
     30e:	0004                	.insn	2, 0x0004
     310:	0401                	addi	s0,s0,0
     312:	0302                	c.slli64	t1
     314:	7fb4                	ld	a3,120(a5)
     316:	0009                	c.nop	2
     318:	0100                	addi	s0,sp,128
     31a:	00090103          	lb	sp,0(s2)
     31e:	0100                	addi	s0,sp,128
     320:	0104                	addi	s1,sp,128
     322:	0900cd03          	lbu	s10,144(ra)
     326:	0000                	unimp
     328:	0501                	addi	a0,a0,0
     32a:	0609                	addi	a2,a2,2
     32c:	00090003          	lb	zero,0(s2)
     330:	0100                	addi	s0,sp,128
     332:	1505                	addi	a0,a0,-31
     334:	0200                	addi	s0,sp,256
     336:	0104                	addi	s1,sp,128
     338:	0306                	slli	t1,t1,0x1
     33a:	0900                	addi	s0,sp,144
     33c:	0004                	.insn	2, 0x0004
     33e:	0401                	addi	s0,s0,0
     340:	0502                	c.slli64	a0
     342:	0609                	addi	a2,a2,2
     344:	097fb903          	ld	s2,151(t6)
     348:	0004                	.insn	2, 0x0004
     34a:	0401                	addi	s0,s0,0
     34c:	0501                	addi	a0,a0,0
     34e:	0015                	c.nop	5
     350:	0402                	c.slli64	s0
     352:	0301                	addi	t1,t1,0
     354:	0c0900c7          	.insn	4, 0x0c0900c7
     358:	0100                	addi	s0,sp,128
     35a:	0305                	addi	t1,t1,1
     35c:	0306                	slli	t1,t1,0x1
     35e:	0902                	c.slli64	s2
     360:	0004                	.insn	2, 0x0004
     362:	0501                	addi	a0,a0,0
     364:	0621                	addi	a2,a2,8
     366:	00090003          	lb	zero,0(s2)
     36a:	0100                	addi	s0,sp,128
     36c:	0205                	addi	tp,tp,1 # 1 <__boot_hart+0x1>
     36e:	0306                	slli	t1,t1,0x1
     370:	0958                	addi	a4,sp,148
     372:	0008                	.insn	2, 0x0008
     374:	0501                	addi	a0,a0,0
     376:	0402003f 09000301 	.insn	8, 0x090003010402003f
     37e:	0000                	unimp
     380:	0401                	addi	s0,s0,0
     382:	0502                	c.slli64	a0
     384:	0302                	c.slli64	t1
     386:	095e                	slli	s2,s2,0x17
     388:	0000                	unimp
     38a:	0301                	addi	t1,t1,0
     38c:	0901                	addi	s2,s2,0
     38e:	0000                	unimp
     390:	0501                	addi	a0,a0,0
     392:	0609                	addi	a2,a2,2
     394:	00090003          	lb	zero,0(s2)
     398:	0100                	addi	s0,sp,128
     39a:	0104                	addi	s1,sp,128
     39c:	3f05                	addiw	t5,t5,-31
     39e:	0200                	addi	s0,sp,256
     3a0:	0104                	addi	s1,sp,128
     3a2:	04092103          	lw	sp,64(s2)
     3a6:	0100                	addi	s0,sp,128
     3a8:	0205                	addi	tp,tp,1 # 1 <__boot_hart+0x1>
     3aa:	0306                	slli	t1,t1,0x1
     3ac:	0901                	addi	s2,s2,0
     3ae:	0004                	.insn	2, 0x0004
     3b0:	0401                	addi	s0,s0,0
     3b2:	0302                	c.slli64	t1
     3b4:	00040957          	.insn	4, 0x00040957
     3b8:	0301                	addi	t1,t1,0
     3ba:	0901                	addi	s2,s2,0
     3bc:	0000                	unimp
     3be:	0501                	addi	a0,a0,0
     3c0:	00030607          	.insn	4, 0x00030607
     3c4:	0009                	c.nop	2
     3c6:	0100                	addi	s0,sp,128
     3c8:	0104                	addi	s1,sp,128
     3ca:	1b05                	addi	s6,s6,-31
     3cc:	0200                	addi	s0,sp,256
     3ce:	0304                	addi	s1,sp,384
     3d0:	0306                	slli	t1,t1,0x1
     3d2:	00cd                	addi	ra,ra,19
     3d4:	0409                	addi	s0,s0,2
     3d6:	0100                	addi	s0,sp,128
     3d8:	1505                	addi	a0,a0,-31
     3da:	0200                	addi	s0,sp,256
     3dc:	0104                	addi	s1,sp,128
     3de:	00090003          	lb	zero,0(s2)
     3e2:	0100                	addi	s0,sp,128
     3e4:	0f05                	addi	t5,t5,1
     3e6:	0200                	addi	s0,sp,256
     3e8:	0104                	addi	s1,sp,128
     3ea:	08090603          	lb	a2,128(s2)
     3ee:	0100                	addi	s0,sp,128
     3f0:	0204                	addi	s1,sp,256
     3f2:	0705                	addi	a4,a4,1
     3f4:	0306                	slli	t1,t1,0x1
     3f6:	7fad                	lui	t6,0xfffeb
     3f8:	0009                	c.nop	2
     3fa:	0100                	addi	s0,sp,128
     3fc:	0104                	addi	s1,sp,128
     3fe:	1d05                	addi	s10,s10,-31
     400:	0200                	addi	s0,sp,256
     402:	0304                	addi	s1,sp,384
     404:	0306                	slli	t1,t1,0x1
     406:	040900d3          	.insn	4, 0x040900d3
     40a:	0100                	addi	s0,sp,128
     40c:	1905                	addi	s2,s2,-31
     40e:	0200                	addi	s0,sp,256
     410:	0304                	addi	s1,sp,384
     412:	04090003          	lb	zero,64(s2)
     416:	0100                	addi	s0,sp,128
     418:	0f05                	addi	t5,t5,1
     41a:	0200                	addi	s0,sp,256
     41c:	0104                	addi	s1,sp,128
     41e:	00090003          	lb	zero,0(s2)
     422:	0100                	addi	s0,sp,128
     424:	0205                	addi	tp,tp,1 # 1 <__boot_hart+0x1>
     426:	08090203          	lb	tp,128(s2)
     42a:	0100                	addi	s0,sp,128
     42c:	00090103          	lb	sp,0(s2)
     430:	0100                	addi	s0,sp,128
     432:	1305                	addi	t1,t1,-31
     434:	0306                	slli	t1,t1,0x1
     436:	097f 0000 0401 0502 	.insn	10, 0x0307050204010000097f
     43e:	0307 
     440:	08097fab          	.insn	4, 0x08097fab
     444:	0100                	addi	s0,sp,128
     446:	0104                	addi	s1,sp,128
     448:	0205                	addi	tp,tp,1 # 1 <__boot_hart+0x1>
     44a:	0900d603          	lhu	a2,144(ra)
     44e:	0004                	.insn	2, 0x0004
     450:	0401                	addi	s0,s0,0
     452:	0602                	c.slli64	a2
     454:	097fa903          	lw	s2,151(t6) # fffffffffffeb097 <__heap_end+0xffffffff7ffc8097>
     458:	0004                	.insn	2, 0x0004
     45a:	0301                	addi	t1,t1,0
     45c:	0901                	addi	s2,s2,0
     45e:	0000                	unimp
     460:	0501                	addi	a0,a0,0
     462:	00030607          	.insn	4, 0x00030607
     466:	0009                	c.nop	2
     468:	0100                	addi	s0,sp,128
     46a:	0104                	addi	s1,sp,128
     46c:	0205                	addi	tp,tp,1 # 1 <__boot_hart+0x1>
     46e:	0306                	slli	t1,t1,0x1
     470:	00d8                	addi	a4,sp,68
     472:	0409                	addi	s0,s0,2
     474:	0100                	addi	s0,sp,128
     476:	1005                	c.nop	-31
     478:	0200                	addi	s0,sp,256
     47a:	0104                	addi	s1,sp,128
     47c:	00090003          	lb	zero,0(s2)
     480:	0100                	addi	s0,sp,128
     482:	0204                	addi	s1,sp,256
     484:	0905                	addi	s2,s2,1
     486:	0306                	slli	t1,t1,0x1
     488:	7fae                	ld	t6,232(sp)
     48a:	1009                	c.nop	-30
     48c:	0100                	addi	s0,sp,128
     48e:	0104                	addi	s1,sp,128
     490:	0305                	addi	t1,t1,1
     492:	0306                	slli	t1,t1,0x1
     494:	00d4                	addi	a3,sp,68
     496:	0409                	addi	s0,s0,2
     498:	0100                	addi	s0,sp,128
     49a:	0205                	addi	tp,tp,1 # 1 <__boot_hart+0x1>
     49c:	04094d03          	lbu	s10,64(s2)
     4a0:	0100                	addi	s0,sp,128
     4a2:	3f05                	addiw	t5,t5,-31
     4a4:	0200                	addi	s0,sp,256
     4a6:	0104                	addi	s1,sp,128
     4a8:	00090003          	lb	zero,0(s2)
     4ac:	0100                	addi	s0,sp,128
     4ae:	0204                	addi	s1,sp,256
     4b0:	0205                	addi	tp,tp,1 # 1 <__boot_hart+0x1>
     4b2:	00095e03          	lhu	t3,0(s2)
     4b6:	0100                	addi	s0,sp,128
     4b8:	00090103          	lb	sp,0(s2)
     4bc:	0100                	addi	s0,sp,128
     4be:	0905                	addi	s2,s2,1
     4c0:	0306                	slli	t1,t1,0x1
     4c2:	0900                	addi	s0,sp,144
     4c4:	0000                	unimp
     4c6:	0401                	addi	s0,s0,0
     4c8:	0501                	addi	a0,a0,0
     4ca:	0402003f 09210301 	.insn	8, 0x092103010402003f
     4d2:	0004                	.insn	2, 0x0004
     4d4:	0501                	addi	a0,a0,0
     4d6:	0602                	c.slli64	a2
     4d8:	04090103          	lb	sp,64(s2)
     4dc:	0100                	addi	s0,sp,128
     4de:	0204                	addi	s1,sp,256
     4e0:	04095703          	lhu	a4,64(s2)
     4e4:	0100                	addi	s0,sp,128
     4e6:	00090103          	lb	sp,0(s2)
     4ea:	0100                	addi	s0,sp,128
     4ec:	0705                	addi	a4,a4,1
     4ee:	0306                	slli	t1,t1,0x1
     4f0:	0900                	addi	s0,sp,144
     4f2:	0000                	unimp
     4f4:	0401                	addi	s0,s0,0
     4f6:	0501                	addi	a0,a0,0
     4f8:	0018                	.insn	2, 0x0018
     4fa:	0402                	c.slli64	s0
     4fc:	d8030603          	lb	a2,-640(t1)
     500:	0900                	addi	s0,sp,144
     502:	0004                	.insn	2, 0x0004
     504:	0501                	addi	a0,a0,0
     506:	0010                	.insn	2, 0x0010
     508:	0402                	c.slli64	s0
     50a:	0301                	addi	t1,t1,0
     50c:	0900                	addi	s0,sp,144
     50e:	0000                	unimp
     510:	0501                	addi	a0,a0,0
     512:	0402000f          	.insn	4, 0x0402000f
     516:	0301                	addi	t1,t1,0
     518:	0906                	slli	s2,s2,0x1
     51a:	0008                	.insn	2, 0x0008
     51c:	0401                	addi	s0,s0,0
     51e:	0502                	c.slli64	a0
     520:	a2030607          	.insn	4, 0xa2030607
     524:	097f 0000 0401 0501 	.insn	10, 0x001d050104010000097f
     52c:	001d 
     52e:	0402                	c.slli64	s0
     530:	de030603          	lb	a2,-544(t1)
     534:	0900                	addi	s0,sp,144
     536:	0004                	.insn	2, 0x0004
     538:	0501                	addi	a0,a0,0
     53a:	0019                	c.nop	6
     53c:	0402                	c.slli64	s0
     53e:	09000303          	lb	t1,144(zero) # 90 <__stack_align+0x80>
     542:	0004                	.insn	2, 0x0004
     544:	0501                	addi	a0,a0,0
     546:	0402000f          	.insn	4, 0x0402000f
     54a:	0301                	addi	t1,t1,0
     54c:	0900                	addi	s0,sp,144
     54e:	0000                	unimp
     550:	0501                	addi	a0,a0,0
     552:	0302                	c.slli64	t1
     554:	0902                	c.slli64	s2
     556:	0008                	.insn	2, 0x0008
     558:	0401                	addi	s0,s0,0
     55a:	0302                	c.slli64	t1
     55c:	7f9f 0009 0100      	.insn	6, 0x010000097f9f
     562:	00090103          	lb	sp,0(s2)
     566:	0100                	addi	s0,sp,128
     568:	0705                	addi	a4,a4,1
     56a:	0306                	slli	t1,t1,0x1
     56c:	0900                	addi	s0,sp,144
     56e:	0000                	unimp
     570:	0401                	addi	s0,s0,0
     572:	0501                	addi	a0,a0,0
     574:	0602                	c.slli64	a2
     576:	0900e303          	lwu	t1,144(ra)
     57a:	000c                	.insn	2, 0x000c
     57c:	0401                	addi	s0,s0,0
     57e:	0302                	c.slli64	t1
     580:	7f9c                	ld	a5,56(a5)
     582:	0009                	c.nop	2
     584:	0100                	addi	s0,sp,128
     586:	00090103          	lb	sp,0(s2)
     58a:	0100                	addi	s0,sp,128
     58c:	0705                	addi	a4,a4,1
     58e:	0306                	slli	t1,t1,0x1
     590:	0900                	addi	s0,sp,144
     592:	0000                	unimp
     594:	0401                	addi	s0,s0,0
     596:	0501                	addi	a0,a0,0
     598:	0301                	addi	t1,t1,0
     59a:	00e5                	addi	ra,ra,25
     59c:	0c09                	addi	s8,s8,2
     59e:	0100                	addi	s0,sp,128
     5a0:	0306                	slli	t1,t1,0x1
     5a2:	0904                	addi	s1,sp,144
     5a4:	0004                	.insn	2, 0x0004
     5a6:	0501                	addi	a0,a0,0
     5a8:	0302                	c.slli64	t1
     5aa:	0901                	addi	s2,s2,0
     5ac:	0000                	unimp
     5ae:	0301                	addi	t1,t1,0
     5b0:	0902                	c.slli64	s2
     5b2:	0000                	unimp
     5b4:	0501                	addi	a0,a0,0
     5b6:	0014                	.insn	2, 0x0014
     5b8:	0402                	c.slli64	s0
     5ba:	0301                	addi	t1,t1,0
     5bc:	0900                	addi	s0,sp,144
     5be:	0000                	unimp
     5c0:	0501                	addi	a0,a0,0
     5c2:	001d                	c.nop	7
     5c4:	0402                	c.slli64	s0
     5c6:	0601                	addi	a2,a2,0
     5c8:	00090003          	lb	zero,0(s2)
     5cc:	0100                	addi	s0,sp,128
     5ce:	1405                	addi	s0,s0,-31
     5d0:	0200                	addi	s0,sp,256
     5d2:	0104                	addi	s1,sp,128
     5d4:	04090003          	lb	zero,64(s2)
     5d8:	0100                	addi	s0,sp,128
     5da:	0200                	addi	s0,sp,256
     5dc:	0104                	addi	s1,sp,128
     5de:	04090403          	lb	s0,64(s2)
     5e2:	0100                	addi	s0,sp,128
     5e4:	3005                	.insn	2, 0x3005
     5e6:	08097e03          	.insn	4, 0x08097e03
     5ea:	0100                	addi	s0,sp,128
     5ec:	1405                	addi	s0,s0,-31
     5ee:	0200                	addi	s0,sp,256
     5f0:	0104                	addi	s1,sp,128
     5f2:	04090203          	lb	tp,64(s2)
     5f6:	0100                	addi	s0,sp,128
     5f8:	0305                	addi	t1,t1,1
     5fa:	0306                	slli	t1,t1,0x1
     5fc:	097e                	slli	s2,s2,0x1f
     5fe:	0004                	.insn	2, 0x0004
     600:	0401                	addi	s0,s0,0
     602:	0502                	c.slli64	a0
     604:	0302                	c.slli64	t1
     606:	00097f97          	auipc	t6,0x97
     60a:	0100                	addi	s0,sp,128
     60c:	0104                	addi	s1,sp,128
     60e:	0e05                	addi	t3,t3,1
     610:	0200                	addi	s0,sp,256
     612:	0104                	addi	s1,sp,128
     614:	0900eb03          	lwu	s6,144(ra)
     618:	0000                	unimp
     61a:	0501                	addi	a0,a0,0
     61c:	0028                	addi	a0,sp,8
     61e:	0402                	c.slli64	s0
     620:	0302                	c.slli64	t1
     622:	097c                	addi	a5,sp,156
     624:	0000                	unimp
     626:	0501                	addi	a0,a0,0
     628:	0630                	addi	a2,sp,776
     62a:	00090203          	lb	tp,0(s2)
     62e:	0100                	addi	s0,sp,128
     630:	1305                	addi	t1,t1,-31
     632:	04090003          	lb	zero,64(s2)
     636:	0100                	addi	s0,sp,128
     638:	0204                	addi	s1,sp,256
     63a:	0205                	addi	tp,tp,1 # 1 <__boot_hart+0x1>
     63c:	0306                	slli	t1,t1,0x1
     63e:	7f98                	ld	a4,56(a5)
     640:	0809                	addi	a6,a6,2
     642:	0100                	addi	s0,sp,128
     644:	0905                	addi	s2,s2,1
     646:	0306                	slli	t1,t1,0x1
     648:	0900                	addi	s0,sp,144
     64a:	0000                	unimp
     64c:	0401                	addi	s0,s0,0
     64e:	0501                	addi	a0,a0,0
     650:	030c                	addi	a1,sp,384
     652:	00e9                	addi	ra,ra,26
     654:	0409                	addi	s0,s0,2
     656:	0100                	addi	s0,sp,128
     658:	0204                	addi	s1,sp,256
     65a:	0905                	addi	s2,s2,1
     65c:	097f9703          	lh	a4,151(t6) # 9769d <__heap_size+0x7769d>
     660:	0004                	.insn	2, 0x0004
     662:	0401                	addi	s0,s0,0
     664:	0501                	addi	a0,a0,0
     666:	e9030603          	lb	a2,-368(t1)
     66a:	0900                	addi	s0,sp,144
     66c:	0004                	.insn	2, 0x0004
     66e:	0301                	addi	t1,t1,0
     670:	0901                	addi	s2,s2,0
     672:	0000                	unimp
     674:	0501                	addi	a0,a0,0
     676:	0606                	slli	a2,a2,0x1
     678:	00090003          	lb	zero,0(s2)
     67c:	0100                	addi	s0,sp,128
     67e:	1405                	addi	s0,s0,-31
     680:	0200                	addi	s0,sp,256
     682:	0104                	addi	s1,sp,128
     684:	04090003          	lb	zero,64(s2)
     688:	0100                	addi	s0,sp,128
     68a:	0305                	addi	t1,t1,1
     68c:	0306                	slli	t1,t1,0x1
     68e:	0901                	addi	s2,s2,0
     690:	0004                	.insn	2, 0x0004
     692:	0501                	addi	a0,a0,0
     694:	0605                	addi	a2,a2,1
     696:	00090003          	lb	zero,0(s2)
     69a:	0100                	addi	s0,sp,128
     69c:	2805                	addiw	a6,a6,1
     69e:	0200                	addi	s0,sp,256
     6a0:	0204                	addi	s1,sp,256
     6a2:	04097b03          	.insn	4, 0x04097b03
     6a6:	0100                	addi	s0,sp,128
     6a8:	1405                	addi	s0,s0,-31
     6aa:	0200                	addi	s0,sp,256
     6ac:	0104                	addi	s1,sp,128
     6ae:	0306                	slli	t1,t1,0x1
     6b0:	0900                	addi	s0,sp,144
     6b2:	0004                	.insn	2, 0x0004
     6b4:	0501                	addi	a0,a0,0
     6b6:	0609                	addi	a2,a2,2
     6b8:	04090c03          	lb	s8,64(s2)
     6bc:	0100                	addi	s0,sp,128
     6be:	0105                	addi	sp,sp,1
     6c0:	04090103          	lb	sp,64(s2)
     6c4:	0100                	addi	s0,sp,128
     6c6:	0405                	addi	s0,s0,1
     6c8:	0306                	slli	t1,t1,0x1
     6ca:	097a                	slli	s2,s2,0x1e
     6cc:	0004                	.insn	2, 0x0004
     6ce:	0501                	addi	a0,a0,0
     6d0:	0601                	addi	a2,a2,0
     6d2:	00097603          	.insn	4, 0x00097603
     6d6:	0100                	addi	s0,sp,128
     6d8:	0405                	addi	s0,s0,1
     6da:	04090a03          	lb	s4,64(s2)
     6de:	0100                	addi	s0,sp,128
     6e0:	0105                	addi	sp,sp,1
     6e2:	0c097603          	.insn	4, 0x0c097603
     6e6:	0100                	addi	s0,sp,128
     6e8:	0405                	addi	s0,s0,1
     6ea:	04090a03          	lb	s4,64(s2)
     6ee:	0100                	addi	s0,sp,128
     6f0:	0306                	slli	t1,t1,0x1
     6f2:	0901                	addi	s2,s2,0
     6f4:	0004                	.insn	2, 0x0004
     6f6:	0501                	addi	a0,a0,0
     6f8:	0601                	addi	a2,a2,0
     6fa:	00090503          	lb	a0,0(s2)
     6fe:	0100                	addi	s0,sp,128
     700:	0b05                	addi	s6,s6,1
     702:	04097b03          	.insn	4, 0x04097b03
     706:	0100                	addi	s0,sp,128
     708:	0105                	addi	sp,sp,1
     70a:	04090503          	lb	a0,64(s2)
     70e:	0100                	addi	s0,sp,128
     710:	0306                	slli	t1,t1,0x1
     712:	0904                	addi	s1,sp,144
     714:	0008                	.insn	2, 0x0008
     716:	0501                	addi	a0,a0,0
     718:	0302                	c.slli64	t1
     71a:	0901                	addi	s2,s2,0
     71c:	0000                	unimp
     71e:	0301                	addi	t1,t1,0
     720:	0901                	addi	s2,s2,0
     722:	0000                	unimp
     724:	0501                	addi	a0,a0,0
     726:	0010                	.insn	2, 0x0010
     728:	0402                	c.slli64	s0
     72a:	0301                	addi	t1,t1,0
     72c:	0900                	addi	s0,sp,144
     72e:	0000                	unimp
     730:	0501                	addi	a0,a0,0
     732:	02030637          	lui	a2,0x2030
     736:	0409                	addi	s0,s0,2
     738:	0100                	addi	s0,sp,128
     73a:	0905                	addi	s2,s2,1
     73c:	08097e03          	.insn	4, 0x08097e03
     740:	0100                	addi	s0,sp,128
     742:	3705                	addiw	a4,a4,-31
     744:	04090203          	lb	tp,64(s2)
     748:	0100                	addi	s0,sp,128
     74a:	1905                	addi	s2,s2,-31
     74c:	0200                	addi	s0,sp,256
     74e:	0204                	addi	s1,sp,256
     750:	08097e03          	.insn	4, 0x08097e03
     754:	0100                	addi	s0,sp,128
     756:	1005                	c.nop	-31
     758:	0200                	addi	s0,sp,256
     75a:	0104                	addi	s1,sp,128
     75c:	0306                	slli	t1,t1,0x1
     75e:	0900                	addi	s0,sp,144
     760:	0004                	.insn	2, 0x0004
     762:	0501                	addi	a0,a0,0
     764:	09020303          	lb	t1,144(tp) # 90 <__stack_align+0x80>
     768:	0004                	.insn	2, 0x0004
     76a:	0401                	addi	s0,s0,0
     76c:	0502                	c.slli64	a0
     76e:	0302                	c.slli64	t1
     770:	7f84                	ld	s1,56(a5)
     772:	0009                	c.nop	2
     774:	0100                	addi	s0,sp,128
     776:	0104                	addi	s1,sp,128
     778:	1905                	addi	s2,s2,-31
     77a:	0200                	addi	s0,sp,256
     77c:	0204                	addi	s1,sp,256
     77e:	0900fa03          	.insn	4, 0x0900fa03
     782:	0000                	unimp
     784:	0501                	addi	a0,a0,0
     786:	0303062b          	.insn	4, 0x0303062b
     78a:	0009                	c.nop	2
     78c:	0100                	addi	s0,sp,128
     78e:	3705                	addiw	a4,a4,-31
     790:	04097f03          	.insn	4, 0x04097f03
     794:	0100                	addi	s0,sp,128
     796:	0c05                	addi	s8,s8,1
     798:	04090103          	lb	sp,64(s2)
     79c:	0100                	addi	s0,sp,128
     79e:	1305                	addi	t1,t1,-31
     7a0:	04097f03          	.insn	4, 0x04097f03
     7a4:	0100                	addi	s0,sp,128
     7a6:	0204                	addi	s1,sp,256
     7a8:	0205                	addi	tp,tp,1 # 1 <__boot_hart+0x1>
     7aa:	0306                	slli	t1,t1,0x1
     7ac:	7f85                	lui	t6,0xfffe1
     7ae:	0809                	addi	a6,a6,2
     7b0:	0100                	addi	s0,sp,128
     7b2:	0104                	addi	s1,sp,128
     7b4:	0c05                	addi	s8,s8,1
     7b6:	0306                	slli	t1,t1,0x1
     7b8:	00fc                	addi	a5,sp,76
     7ba:	0009                	c.nop	2
     7bc:	0100                	addi	s0,sp,128
     7be:	0204                	addi	s1,sp,256
     7c0:	0905                	addi	s2,s2,1
     7c2:	097f8403          	lb	s0,151(t6) # fffffffffffe1097 <__heap_end+0xffffffff7ffbe097>
     7c6:	0004                	.insn	2, 0x0004
     7c8:	0401                	addi	s0,s0,0
     7ca:	0501                	addi	a0,a0,0
     7cc:	030c                	addi	a1,sp,384
     7ce:	00fc                	addi	a5,sp,76
     7d0:	0409                	addi	s0,s0,2
     7d2:	0100                	addi	s0,sp,128
     7d4:	0204                	addi	s1,sp,256
     7d6:	0905                	addi	s2,s2,1
     7d8:	097f8403          	lb	s0,151(t6)
     7dc:	0004                	.insn	2, 0x0004
     7de:	0401                	addi	s0,s0,0
     7e0:	0501                	addi	a0,a0,0
     7e2:	fc030603          	lb	a2,-64(t1)
     7e6:	0900                	addi	s0,sp,144
     7e8:	0004                	.insn	2, 0x0004
     7ea:	0301                	addi	t1,t1,0
     7ec:	0901                	addi	s2,s2,0
     7ee:	0000                	unimp
     7f0:	0501                	addi	a0,a0,0
     7f2:	0605                	addi	a2,a2,1 # 2030001 <__heap_size+0x2010001>
     7f4:	00090003          	lb	zero,0(s2)
     7f8:	0100                	addi	s0,sp,128
     7fa:	0405                	addi	s0,s0,1
     7fc:	0306                	slli	t1,t1,0x1
     7fe:	0902                	c.slli64	s2
     800:	0004                	.insn	2, 0x0004
     802:	0501                	addi	a0,a0,0
     804:	0601                	addi	a2,a2,0
     806:	00097803          	.insn	4, 0x00097803
     80a:	0100                	addi	s0,sp,128
     80c:	0405                	addi	s0,s0,1
     80e:	04090803          	lb	a6,64(s2)
     812:	0100                	addi	s0,sp,128
     814:	0105                	addi	sp,sp,1
     816:	0c097803          	.insn	4, 0x0c097803
     81a:	0100                	addi	s0,sp,128
     81c:	0405                	addi	s0,s0,1
     81e:	04090803          	lb	a6,64(s2)
     822:	0100                	addi	s0,sp,128
     824:	0306                	slli	t1,t1,0x1
     826:	0901                	addi	s2,s2,0
     828:	0004                	.insn	2, 0x0004
     82a:	0501                	addi	a0,a0,0
     82c:	0601                	addi	a2,a2,0
     82e:	00090503          	lb	a0,0(s2)
     832:	0100                	addi	s0,sp,128
     834:	0b05                	addi	s6,s6,1
     836:	04097b03          	.insn	4, 0x04097b03
     83a:	0100                	addi	s0,sp,128
     83c:	0105                	addi	sp,sp,1
     83e:	04090503          	lb	a0,64(s2)
     842:	0100                	addi	s0,sp,128
     844:	0905                	addi	s2,s2,1
     846:	08097f03          	.insn	4, 0x08097f03
     84a:	0100                	addi	s0,sp,128
     84c:	0105                	addi	sp,sp,1
     84e:	04090103          	lb	sp,64(s2)
     852:	0100                	addi	s0,sp,128
     854:	0409                	addi	s0,s0,2
     856:	0000                	unimp
     858:	0101                	addi	sp,sp,0
     85a:	0304                	addi	s1,sp,384
     85c:	0105                	addi	sp,sp,1
     85e:	0900                	addi	s0,sp,144
     860:	3002                	fld	ft0,32(sp)
     862:	0002                	c.slli64	zero
     864:	0080                	addi	s0,sp,64
     866:	0000                	unimp
     868:	1900                	addi	s0,sp,176
     86a:	0205                	addi	tp,tp,1 # 1 <__boot_hart+0x1>
     86c:	00090103          	lb	sp,0(s2)
     870:	0100                	addi	s0,sp,128
     872:	00090103          	lb	sp,0(s2)
     876:	0100                	addi	s0,sp,128
     878:	00090103          	lb	sp,0(s2)
     87c:	0100                	addi	s0,sp,128
     87e:	00090103          	lb	sp,0(s2)
     882:	0100                	addi	s0,sp,128
     884:	00090103          	lb	sp,0(s2)
     888:	0100                	addi	s0,sp,128
     88a:	00090103          	lb	sp,0(s2)
     88e:	0100                	addi	s0,sp,128
     890:	00090103          	lb	sp,0(s2)
     894:	0100                	addi	s0,sp,128
     896:	00090103          	lb	sp,0(s2)
     89a:	0100                	addi	s0,sp,128
     89c:	00090103          	lb	sp,0(s2)
     8a0:	0100                	addi	s0,sp,128
     8a2:	00090203          	lb	tp,0(s2)
     8a6:	0100                	addi	s0,sp,128
     8a8:	0105                	addi	sp,sp,1
     8aa:	0306                	slli	t1,t1,0x1
     8ac:	0975                	addi	s2,s2,29
     8ae:	0000                	unimp
     8b0:	0501                	addi	a0,a0,0
     8b2:	0302                	c.slli64	t1
     8b4:	0004090b          	.insn	4, 0x0004090b
     8b8:	0501                	addi	a0,a0,0
     8ba:	0301                	addi	t1,t1,0
     8bc:	0975                	addi	s2,s2,29
     8be:	0008                	.insn	2, 0x0008
     8c0:	0501                	addi	a0,a0,0
     8c2:	0302                	c.slli64	t1
     8c4:	0010090b          	.insn	4, 0x0010090b
     8c8:	0601                	addi	a2,a2,0
     8ca:	04090103          	lb	sp,64(s2)
     8ce:	0100                	addi	s0,sp,128
     8d0:	0204                	addi	s1,sp,256
     8d2:	0705                	addi	a4,a4,1
     8d4:	0306                	slli	t1,t1,0x1
     8d6:	090d                	addi	s2,s2,3
     8d8:	0004                	.insn	2, 0x0004
     8da:	0401                	addi	s0,s0,0
     8dc:	0501                	addi	a0,a0,0
     8de:	0602                	c.slli64	a2
     8e0:	14092e03          	lw	t3,320(s2)
     8e4:	0100                	addi	s0,sp,128
     8e6:	0204                	addi	s1,sp,256
     8e8:	00095103          	lhu	sp,0(s2)
     8ec:	0100                	addi	s0,sp,128
     8ee:	00090103          	lb	sp,0(s2)
     8f2:	0100                	addi	s0,sp,128
     8f4:	0104                	addi	s1,sp,128
     8f6:	00092f03          	lw	t5,0(s2)
     8fa:	0100                	addi	s0,sp,128
     8fc:	0204                	addi	s1,sp,256
     8fe:	00095003          	lhu	zero,0(s2)
     902:	0100                	addi	s0,sp,128
     904:	00090103          	lb	sp,0(s2)
     908:	0100                	addi	s0,sp,128
     90a:	0705                	addi	a4,a4,1
     90c:	0306                	slli	t1,t1,0x1
     90e:	0900                	addi	s0,sp,144
     910:	0000                	unimp
     912:	0401                	addi	s0,s0,0
     914:	0501                	addi	a0,a0,0
     916:	0602                	c.slli64	a2
     918:	08093003          	ld	zero,128(s2)
     91c:	0100                	addi	s0,sp,128
     91e:	0204                	addi	s1,sp,256
     920:	00094f03          	lbu	t5,0(s2)
     924:	0100                	addi	s0,sp,128
     926:	00090103          	lb	sp,0(s2)
     92a:	0100                	addi	s0,sp,128
     92c:	0304                	addi	s1,sp,384
     92e:	0605                	addi	a2,a2,1
     930:	0306                	slli	t1,t1,0x1
     932:	0974                	addi	a3,sp,156
     934:	0000                	unimp
     936:	0401                	addi	s0,s0,0
     938:	0502                	c.slli64	a0
     93a:	090c0307          	.insn	4, 0x090c0307
     93e:	000c                	.insn	2, 0x000c
     940:	0401                	addi	s0,s0,0
     942:	06020503          	lb	a0,96(tp) # 60 <__stack_align+0x50>
     946:	04097403          	.insn	4, 0x04097403
     94a:	0100                	addi	s0,sp,128
     94c:	0605                	addi	a2,a2,1
     94e:	0306                	slli	t1,t1,0x1
     950:	0900                	addi	s0,sp,144
     952:	0000                	unimp
     954:	0501                	addi	a0,a0,0
     956:	0005                	c.nop	1
     958:	0402                	c.slli64	s0
     95a:	0301                	addi	t1,t1,0
     95c:	0900                	addi	s0,sp,144
     95e:	0004                	.insn	2, 0x0004
     960:	0501                	addi	a0,a0,0
     962:	0402002b          	.insn	4, 0x0402002b
     966:	0301                	addi	t1,t1,0
     968:	0900                	addi	s0,sp,144
     96a:	0004                	.insn	2, 0x0004
     96c:	0501                	addi	a0,a0,0
     96e:	0301                	addi	t1,t1,0
     970:	0938                	addi	a4,sp,152
     972:	0004                	.insn	2, 0x0004
     974:	0501                	addi	a0,a0,0
     976:	0602                	c.slli64	a2
     978:	18094a03          	lbu	s4,384(s2)
     97c:	0100                	addi	s0,sp,128
     97e:	0c090103          	lb	sp,192(s2)
     982:	0100                	addi	s0,sp,128
     984:	00090103          	lb	sp,0(s2)
     988:	0100                	addi	s0,sp,128
     98a:	00090103          	lb	sp,0(s2)
     98e:	0100                	addi	s0,sp,128
     990:	0204                	addi	s1,sp,256
     992:	0705                	addi	a4,a4,1
     994:	0306                	slli	t1,t1,0x1
     996:	00080907          	.insn	4, 0x00080907
     99a:	0401                	addi	s0,s0,0
     99c:	0501                	addi	a0,a0,0
     99e:	0602                	c.slli64	a2
     9a0:	0c092e03          	lw	t3,192(s2)
     9a4:	0100                	addi	s0,sp,128
     9a6:	0204                	addi	s1,sp,256
     9a8:	00095103          	lhu	sp,0(s2)
     9ac:	0100                	addi	s0,sp,128
     9ae:	00090103          	lb	sp,0(s2)
     9b2:	0100                	addi	s0,sp,128
     9b4:	0104                	addi	s1,sp,128
     9b6:	00092f03          	lw	t5,0(s2)
     9ba:	0100                	addi	s0,sp,128
     9bc:	0204                	addi	s1,sp,256
     9be:	00095003          	lhu	zero,0(s2)
     9c2:	0100                	addi	s0,sp,128
     9c4:	00090103          	lb	sp,0(s2)
     9c8:	0100                	addi	s0,sp,128
     9ca:	0705                	addi	a4,a4,1
     9cc:	0306                	slli	t1,t1,0x1
     9ce:	0900                	addi	s0,sp,144
     9d0:	0000                	unimp
     9d2:	0401                	addi	s0,s0,0
     9d4:	0501                	addi	a0,a0,0
     9d6:	0602                	c.slli64	a2
     9d8:	04093003          	ld	zero,64(s2)
     9dc:	0100                	addi	s0,sp,128
     9de:	0204                	addi	s1,sp,256
     9e0:	00094f03          	lbu	t5,0(s2)
     9e4:	0100                	addi	s0,sp,128
     9e6:	00090103          	lb	sp,0(s2)
     9ea:	0100                	addi	s0,sp,128
     9ec:	0304                	addi	s1,sp,384
     9ee:	0605                	addi	a2,a2,1
     9f0:	0306                	slli	t1,t1,0x1
     9f2:	097a                	slli	s2,s2,0x1e
     9f4:	0000                	unimp
     9f6:	0401                	addi	s0,s0,0
     9f8:	0502                	c.slli64	a0
     9fa:	09060307          	.insn	4, 0x09060307
     9fe:	000c                	.insn	2, 0x000c
     a00:	0401                	addi	s0,s0,0
     a02:	06020503          	lb	a0,96(tp) # 60 <__stack_align+0x50>
     a06:	04097a03          	.insn	4, 0x04097a03
     a0a:	0100                	addi	s0,sp,128
     a0c:	0605                	addi	a2,a2,1
     a0e:	0306                	slli	t1,t1,0x1
     a10:	0900                	addi	s0,sp,144
     a12:	0004                	.insn	2, 0x0004
     a14:	0501                	addi	a0,a0,0
     a16:	0005                	c.nop	1
     a18:	0402                	c.slli64	s0
     a1a:	0301                	addi	t1,t1,0
     a1c:	0900                	addi	s0,sp,144
     a1e:	0004                	.insn	2, 0x0004
     a20:	0501                	addi	a0,a0,0
     a22:	0602                	c.slli64	a2
     a24:	04090203          	lb	tp,64(s2)
     a28:	0100                	addi	s0,sp,128
     a2a:	0c090103          	lb	sp,192(s2)
     a2e:	0100                	addi	s0,sp,128
     a30:	00090103          	lb	sp,0(s2)
     a34:	0100                	addi	s0,sp,128
     a36:	00090103          	lb	sp,0(s2)
     a3a:	0100                	addi	s0,sp,128
     a3c:	0204                	addi	s1,sp,256
     a3e:	0705                	addi	a4,a4,1
     a40:	0306                	slli	t1,t1,0x1
     a42:	0901                	addi	s2,s2,0
     a44:	0008                	.insn	2, 0x0008
     a46:	0401                	addi	s0,s0,0
     a48:	0501                	addi	a0,a0,0
     a4a:	0602                	c.slli64	a2
     a4c:	08092e03          	lw	t3,128(s2)
     a50:	0100                	addi	s0,sp,128
     a52:	0204                	addi	s1,sp,256
     a54:	00095103          	lhu	sp,0(s2)
     a58:	0100                	addi	s0,sp,128
     a5a:	00090103          	lb	sp,0(s2)
     a5e:	0100                	addi	s0,sp,128
     a60:	0104                	addi	s1,sp,128
     a62:	00092f03          	lw	t5,0(s2)
     a66:	0100                	addi	s0,sp,128
     a68:	0204                	addi	s1,sp,256
     a6a:	00095003          	lhu	zero,0(s2)
     a6e:	0100                	addi	s0,sp,128
     a70:	00090103          	lb	sp,0(s2)
     a74:	0100                	addi	s0,sp,128
     a76:	0705                	addi	a4,a4,1
     a78:	0306                	slli	t1,t1,0x1
     a7a:	0900                	addi	s0,sp,144
     a7c:	0000                	unimp
     a7e:	0401                	addi	s0,s0,0
     a80:	0501                	addi	a0,a0,0
     a82:	0602                	c.slli64	a2
     a84:	04093003          	ld	zero,64(s2)
     a88:	0100                	addi	s0,sp,128
     a8a:	0204                	addi	s1,sp,256
     a8c:	00094f03          	lbu	t5,0(s2)
     a90:	0100                	addi	s0,sp,128
     a92:	00090103          	lb	sp,0(s2)
     a96:	0100                	addi	s0,sp,128
     a98:	0705                	addi	a4,a4,1
     a9a:	0306                	slli	t1,t1,0x1
     a9c:	0900                	addi	s0,sp,144
     a9e:	0000                	unimp
     aa0:	0401                	addi	s0,s0,0
     aa2:	06020503          	lb	a0,96(tp) # 60 <__stack_align+0x50>
     aa6:	04090003          	lb	zero,64(s2)
     aaa:	0100                	addi	s0,sp,128
     aac:	0605                	addi	a2,a2,1
     aae:	0306                	slli	t1,t1,0x1
     ab0:	0900                	addi	s0,sp,144
     ab2:	0000                	unimp
     ab4:	0501                	addi	a0,a0,0
     ab6:	0005                	c.nop	1
     ab8:	0402                	c.slli64	s0
     aba:	0301                	addi	t1,t1,0
     abc:	0900                	addi	s0,sp,144
     abe:	0010                	.insn	2, 0x0010
     ac0:	0501                	addi	a0,a0,0
     ac2:	0602                	c.slli64	a2
     ac4:	04090203          	lb	tp,64(s2)
     ac8:	0100                	addi	s0,sp,128
     aca:	0c090103          	lb	sp,192(s2)
     ace:	0100                	addi	s0,sp,128
     ad0:	00090103          	lb	sp,0(s2)
     ad4:	0100                	addi	s0,sp,128
     ad6:	00090103          	lb	sp,0(s2)
     ada:	0100                	addi	s0,sp,128
     adc:	0204                	addi	s1,sp,256
     ade:	0705                	addi	a4,a4,1
     ae0:	0306                	slli	t1,t1,0x1
     ae2:	0008097b          	.insn	4, 0x0008097b
     ae6:	0401                	addi	s0,s0,0
     ae8:	0501                	addi	a0,a0,0
     aea:	0602                	c.slli64	a2
     aec:	08092e03          	lw	t3,128(s2)
     af0:	0100                	addi	s0,sp,128
     af2:	0204                	addi	s1,sp,256
     af4:	00095103          	lhu	sp,0(s2)
     af8:	0100                	addi	s0,sp,128
     afa:	00090103          	lb	sp,0(s2)
     afe:	0100                	addi	s0,sp,128
     b00:	0104                	addi	s1,sp,128
     b02:	00092f03          	lw	t5,0(s2)
     b06:	0100                	addi	s0,sp,128
     b08:	0204                	addi	s1,sp,256
     b0a:	00095003          	lhu	zero,0(s2)
     b0e:	0100                	addi	s0,sp,128
     b10:	00090103          	lb	sp,0(s2)
     b14:	0100                	addi	s0,sp,128
     b16:	0705                	addi	a4,a4,1
     b18:	0306                	slli	t1,t1,0x1
     b1a:	0900                	addi	s0,sp,144
     b1c:	0000                	unimp
     b1e:	0401                	addi	s0,s0,0
     b20:	0501                	addi	a0,a0,0
     b22:	0602                	c.slli64	a2
     b24:	04093003          	ld	zero,64(s2)
     b28:	0100                	addi	s0,sp,128
     b2a:	0204                	addi	s1,sp,256
     b2c:	00094f03          	lbu	t5,0(s2)
     b30:	0100                	addi	s0,sp,128
     b32:	00090103          	lb	sp,0(s2)
     b36:	0100                	addi	s0,sp,128
     b38:	0304                	addi	s1,sp,384
     b3a:	0605                	addi	a2,a2,1
     b3c:	0306                	slli	t1,t1,0x1
     b3e:	0906                	slli	s2,s2,0x1
     b40:	0000                	unimp
     b42:	0401                	addi	s0,s0,0
     b44:	0502                	c.slli64	a0
     b46:	097a0307          	.insn	4, 0x097a0307
     b4a:	0004                	.insn	2, 0x0004
     b4c:	0401                	addi	s0,s0,0
     b4e:	06020503          	lb	a0,96(tp) # 60 <__stack_align+0x50>
     b52:	04090603          	lb	a2,64(s2)
     b56:	0100                	addi	s0,sp,128
     b58:	0605                	addi	a2,a2,1
     b5a:	0306                	slli	t1,t1,0x1
     b5c:	0900                	addi	s0,sp,144
     b5e:	0000                	unimp
     b60:	0501                	addi	a0,a0,0
     b62:	0005                	c.nop	1
     b64:	0402                	c.slli64	s0
     b66:	0301                	addi	t1,t1,0
     b68:	0900                	addi	s0,sp,144
     b6a:	0010                	.insn	2, 0x0010
     b6c:	0501                	addi	a0,a0,0
     b6e:	0602                	c.slli64	a2
     b70:	04090203          	lb	tp,64(s2)
     b74:	0100                	addi	s0,sp,128
     b76:	0c090103          	lb	sp,192(s2)
     b7a:	0100                	addi	s0,sp,128
     b7c:	00090103          	lb	sp,0(s2)
     b80:	0100                	addi	s0,sp,128
     b82:	00090103          	lb	sp,0(s2)
     b86:	0100                	addi	s0,sp,128
     b88:	0204                	addi	s1,sp,256
     b8a:	0705                	addi	a4,a4,1
     b8c:	0306                	slli	t1,t1,0x1
     b8e:	0975                	addi	s2,s2,29
     b90:	0008                	.insn	2, 0x0008
     b92:	0401                	addi	s0,s0,0
     b94:	0501                	addi	a0,a0,0
     b96:	0602                	c.slli64	a2
     b98:	08092e03          	lw	t3,128(s2)
     b9c:	0100                	addi	s0,sp,128
     b9e:	0204                	addi	s1,sp,256
     ba0:	00095103          	lhu	sp,0(s2)
     ba4:	0100                	addi	s0,sp,128
     ba6:	00090103          	lb	sp,0(s2)
     baa:	0100                	addi	s0,sp,128
     bac:	0104                	addi	s1,sp,128
     bae:	00092f03          	lw	t5,0(s2)
     bb2:	0100                	addi	s0,sp,128
     bb4:	0204                	addi	s1,sp,256
     bb6:	00095003          	lhu	zero,0(s2)
     bba:	0100                	addi	s0,sp,128
     bbc:	00090103          	lb	sp,0(s2)
     bc0:	0100                	addi	s0,sp,128
     bc2:	0705                	addi	a4,a4,1
     bc4:	0306                	slli	t1,t1,0x1
     bc6:	0900                	addi	s0,sp,144
     bc8:	0000                	unimp
     bca:	0401                	addi	s0,s0,0
     bcc:	0501                	addi	a0,a0,0
     bce:	0602                	c.slli64	a2
     bd0:	04093003          	ld	zero,64(s2)
     bd4:	0100                	addi	s0,sp,128
     bd6:	0204                	addi	s1,sp,256
     bd8:	00094f03          	lbu	t5,0(s2)
     bdc:	0100                	addi	s0,sp,128
     bde:	00090103          	lb	sp,0(s2)
     be2:	0100                	addi	s0,sp,128
     be4:	0304                	addi	s1,sp,384
     be6:	0605                	addi	a2,a2,1
     be8:	0306                	slli	t1,t1,0x1
     bea:	090c                	addi	a1,sp,144
     bec:	0000                	unimp
     bee:	0401                	addi	s0,s0,0
     bf0:	0502                	c.slli64	a0
     bf2:	09740307          	.insn	4, 0x09740307
     bf6:	0004                	.insn	2, 0x0004
     bf8:	0401                	addi	s0,s0,0
     bfa:	06020503          	lb	a0,96(tp) # 60 <__stack_align+0x50>
     bfe:	04090c03          	lb	s8,64(s2)
     c02:	0100                	addi	s0,sp,128
     c04:	0605                	addi	a2,a2,1
     c06:	0306                	slli	t1,t1,0x1
     c08:	0900                	addi	s0,sp,144
     c0a:	0000                	unimp
     c0c:	0501                	addi	a0,a0,0
     c0e:	0005                	c.nop	1
     c10:	0402                	c.slli64	s0
     c12:	0301                	addi	t1,t1,0
     c14:	0900                	addi	s0,sp,144
     c16:	0010                	.insn	2, 0x0010
     c18:	0501                	addi	a0,a0,0
     c1a:	0602                	c.slli64	a2
     c1c:	04090203          	lb	tp,64(s2)
     c20:	0100                	addi	s0,sp,128
     c22:	0c090103          	lb	sp,192(s2)
     c26:	0100                	addi	s0,sp,128
     c28:	00090103          	lb	sp,0(s2)
     c2c:	0100                	addi	s0,sp,128
     c2e:	00090103          	lb	sp,0(s2)
     c32:	0100                	addi	s0,sp,128
     c34:	0204                	addi	s1,sp,256
     c36:	0705                	addi	a4,a4,1
     c38:	0306                	slli	t1,t1,0x1
     c3a:	0008096f          	jal	s2,80c3a <__heap_size+0x60c3a>
     c3e:	0401                	addi	s0,s0,0
     c40:	0501                	addi	a0,a0,0
     c42:	0602                	c.slli64	a2
     c44:	08092e03          	lw	t3,128(s2)
     c48:	0100                	addi	s0,sp,128
     c4a:	0204                	addi	s1,sp,256
     c4c:	00095103          	lhu	sp,0(s2)
     c50:	0100                	addi	s0,sp,128
     c52:	00090103          	lb	sp,0(s2)
     c56:	0100                	addi	s0,sp,128
     c58:	0104                	addi	s1,sp,128
     c5a:	00092f03          	lw	t5,0(s2)
     c5e:	0100                	addi	s0,sp,128
     c60:	0204                	addi	s1,sp,256
     c62:	00095003          	lhu	zero,0(s2)
     c66:	0100                	addi	s0,sp,128
     c68:	00090103          	lb	sp,0(s2)
     c6c:	0100                	addi	s0,sp,128
     c6e:	0705                	addi	a4,a4,1
     c70:	0306                	slli	t1,t1,0x1
     c72:	0900                	addi	s0,sp,144
     c74:	0000                	unimp
     c76:	0401                	addi	s0,s0,0
     c78:	0501                	addi	a0,a0,0
     c7a:	0602                	c.slli64	a2
     c7c:	04093003          	ld	zero,64(s2)
     c80:	0100                	addi	s0,sp,128
     c82:	0204                	addi	s1,sp,256
     c84:	00094f03          	lbu	t5,0(s2)
     c88:	0100                	addi	s0,sp,128
     c8a:	00090103          	lb	sp,0(s2)
     c8e:	0100                	addi	s0,sp,128
     c90:	0304                	addi	s1,sp,384
     c92:	0605                	addi	a2,a2,1
     c94:	0306                	slli	t1,t1,0x1
     c96:	0912                	slli	s2,s2,0x4
     c98:	0000                	unimp
     c9a:	0401                	addi	s0,s0,0
     c9c:	0502                	c.slli64	a0
     c9e:	096e0307          	.insn	4, 0x096e0307
     ca2:	0004                	.insn	2, 0x0004
     ca4:	0401                	addi	s0,s0,0
     ca6:	06020503          	lb	a0,96(tp) # 60 <__stack_align+0x50>
     caa:	04091203          	lh	tp,64(s2)
     cae:	0100                	addi	s0,sp,128
     cb0:	0605                	addi	a2,a2,1
     cb2:	0306                	slli	t1,t1,0x1
     cb4:	0900                	addi	s0,sp,144
     cb6:	0000                	unimp
     cb8:	0501                	addi	a0,a0,0
     cba:	0005                	c.nop	1
     cbc:	0402                	c.slli64	s0
     cbe:	0301                	addi	t1,t1,0
     cc0:	0900                	addi	s0,sp,144
     cc2:	0010                	.insn	2, 0x0010
     cc4:	0501                	addi	a0,a0,0
     cc6:	0602                	c.slli64	a2
     cc8:	04090203          	lb	tp,64(s2)
     ccc:	0100                	addi	s0,sp,128
     cce:	0c090103          	lb	sp,192(s2)
     cd2:	0100                	addi	s0,sp,128
     cd4:	00090103          	lb	sp,0(s2)
     cd8:	0100                	addi	s0,sp,128
     cda:	00090103          	lb	sp,0(s2)
     cde:	0100                	addi	s0,sp,128
     ce0:	0204                	addi	s1,sp,256
     ce2:	0705                	addi	a4,a4,1
     ce4:	0306                	slli	t1,t1,0x1
     ce6:	0969                	addi	s2,s2,26
     ce8:	0008                	.insn	2, 0x0008
     cea:	0401                	addi	s0,s0,0
     cec:	0501                	addi	a0,a0,0
     cee:	0602                	c.slli64	a2
     cf0:	08092e03          	lw	t3,128(s2)
     cf4:	0100                	addi	s0,sp,128
     cf6:	0204                	addi	s1,sp,256
     cf8:	00095103          	lhu	sp,0(s2)
     cfc:	0100                	addi	s0,sp,128
     cfe:	00090103          	lb	sp,0(s2)
     d02:	0100                	addi	s0,sp,128
     d04:	0104                	addi	s1,sp,128
     d06:	00092f03          	lw	t5,0(s2)
     d0a:	0100                	addi	s0,sp,128
     d0c:	0204                	addi	s1,sp,256
     d0e:	00095003          	lhu	zero,0(s2)
     d12:	0100                	addi	s0,sp,128
     d14:	00090103          	lb	sp,0(s2)
     d18:	0100                	addi	s0,sp,128
     d1a:	0705                	addi	a4,a4,1
     d1c:	0306                	slli	t1,t1,0x1
     d1e:	0900                	addi	s0,sp,144
     d20:	0000                	unimp
     d22:	0401                	addi	s0,s0,0
     d24:	0501                	addi	a0,a0,0
     d26:	0602                	c.slli64	a2
     d28:	04093003          	ld	zero,64(s2)
     d2c:	0100                	addi	s0,sp,128
     d2e:	0204                	addi	s1,sp,256
     d30:	00094f03          	lbu	t5,0(s2)
     d34:	0100                	addi	s0,sp,128
     d36:	00090103          	lb	sp,0(s2)
     d3a:	0100                	addi	s0,sp,128
     d3c:	0304                	addi	s1,sp,384
     d3e:	0605                	addi	a2,a2,1
     d40:	0306                	slli	t1,t1,0x1
     d42:	0918                	addi	a4,sp,144
     d44:	0000                	unimp
     d46:	0401                	addi	s0,s0,0
     d48:	0502                	c.slli64	a0
     d4a:	09680307          	.insn	4, 0x09680307
     d4e:	0004                	.insn	2, 0x0004
     d50:	0401                	addi	s0,s0,0
     d52:	06020503          	lb	a0,96(tp) # 60 <__stack_align+0x50>
     d56:	04091803          	lh	a6,64(s2)
     d5a:	0100                	addi	s0,sp,128
     d5c:	0605                	addi	a2,a2,1
     d5e:	0306                	slli	t1,t1,0x1
     d60:	0900                	addi	s0,sp,144
     d62:	0000                	unimp
     d64:	0501                	addi	a0,a0,0
     d66:	0005                	c.nop	1
     d68:	0402                	c.slli64	s0
     d6a:	0301                	addi	t1,t1,0
     d6c:	0900                	addi	s0,sp,144
     d6e:	0010                	.insn	2, 0x0010
     d70:	0501                	addi	a0,a0,0
     d72:	0602                	c.slli64	a2
     d74:	04090203          	lb	tp,64(s2)
     d78:	0100                	addi	s0,sp,128
     d7a:	0c090103          	lb	sp,192(s2)
     d7e:	0100                	addi	s0,sp,128
     d80:	00090103          	lb	sp,0(s2)
     d84:	0100                	addi	s0,sp,128
     d86:	00090103          	lb	sp,0(s2)
     d8a:	0100                	addi	s0,sp,128
     d8c:	0204                	addi	s1,sp,256
     d8e:	0705                	addi	a4,a4,1
     d90:	0306                	slli	t1,t1,0x1
     d92:	00040963          	beqz	s0,da4 <__stack_align+0xd94>
     d96:	0401                	addi	s0,s0,0
     d98:	0501                	addi	a0,a0,0
     d9a:	0602                	c.slli64	a2
     d9c:	08092e03          	lw	t3,128(s2)
     da0:	0100                	addi	s0,sp,128
     da2:	0204                	addi	s1,sp,256
     da4:	00095103          	lhu	sp,0(s2)
     da8:	0100                	addi	s0,sp,128
     daa:	00090103          	lb	sp,0(s2)
     dae:	0100                	addi	s0,sp,128
     db0:	0104                	addi	s1,sp,128
     db2:	00092f03          	lw	t5,0(s2)
     db6:	0100                	addi	s0,sp,128
     db8:	0204                	addi	s1,sp,256
     dba:	00095003          	lhu	zero,0(s2)
     dbe:	0100                	addi	s0,sp,128
     dc0:	00090103          	lb	sp,0(s2)
     dc4:	0100                	addi	s0,sp,128
     dc6:	0705                	addi	a4,a4,1
     dc8:	0306                	slli	t1,t1,0x1
     dca:	0900                	addi	s0,sp,144
     dcc:	0000                	unimp
     dce:	0401                	addi	s0,s0,0
     dd0:	0501                	addi	a0,a0,0
     dd2:	0602                	c.slli64	a2
     dd4:	04093003          	ld	zero,64(s2)
     dd8:	0100                	addi	s0,sp,128
     dda:	0204                	addi	s1,sp,256
     ddc:	00094f03          	lbu	t5,0(s2)
     de0:	0100                	addi	s0,sp,128
     de2:	00090103          	lb	sp,0(s2)
     de6:	0100                	addi	s0,sp,128
     de8:	0705                	addi	a4,a4,1
     dea:	0306                	slli	t1,t1,0x1
     dec:	0900                	addi	s0,sp,144
     dee:	0000                	unimp
     df0:	0401                	addi	s0,s0,0
     df2:	06020503          	lb	a0,96(tp) # 60 <__stack_align+0x50>
     df6:	04091e03          	lh	t3,64(s2)
     dfa:	0100                	addi	s0,sp,128
     dfc:	0605                	addi	a2,a2,1
     dfe:	0306                	slli	t1,t1,0x1
     e00:	0900                	addi	s0,sp,144
     e02:	0000                	unimp
     e04:	0501                	addi	a0,a0,0
     e06:	0005                	c.nop	1
     e08:	0402                	c.slli64	s0
     e0a:	0301                	addi	t1,t1,0
     e0c:	0900                	addi	s0,sp,144
     e0e:	0010                	.insn	2, 0x0010
     e10:	0501                	addi	a0,a0,0
     e12:	0602                	c.slli64	a2
     e14:	04090203          	lb	tp,64(s2)
     e18:	0100                	addi	s0,sp,128
     e1a:	0c090303          	lb	t1,192(s2)
     e1e:	0100                	addi	s0,sp,128
     e20:	0605                	addi	a2,a2,1
     e22:	0306                	slli	t1,t1,0x1
     e24:	0900                	addi	s0,sp,144
     e26:	0000                	unimp
     e28:	0501                	addi	a0,a0,0
     e2a:	0005                	c.nop	1
     e2c:	0402                	c.slli64	s0
     e2e:	0301                	addi	t1,t1,0
     e30:	0900                	addi	s0,sp,144
     e32:	0010                	.insn	2, 0x0010
     e34:	0501                	addi	a0,a0,0
     e36:	0602                	c.slli64	a2
     e38:	04090303          	lb	t1,64(s2)
     e3c:	0100                	addi	s0,sp,128
     e3e:	0c090103          	lb	sp,192(s2)
     e42:	0100                	addi	s0,sp,128
     e44:	24090103          	lb	sp,576(s2)
     e48:	0100                	addi	s0,sp,128
     e4a:	0605                	addi	a2,a2,1
     e4c:	0306                	slli	t1,t1,0x1
     e4e:	0900                	addi	s0,sp,144
     e50:	0000                	unimp
     e52:	0501                	addi	a0,a0,0
     e54:	0005                	c.nop	1
     e56:	0402                	c.slli64	s0
     e58:	0301                	addi	t1,t1,0
     e5a:	0900                	addi	s0,sp,144
     e5c:	0010                	.insn	2, 0x0010
     e5e:	0901                	addi	s2,s2,0
     e60:	0008                	.insn	2, 0x0008
     e62:	0100                	addi	s0,sp,128
     e64:	9201                	srli	a2,a2,0x20
     e66:	0000                	unimp
     e68:	0500                	addi	s0,sp,640
     e6a:	0800                	addi	s0,sp,16
     e6c:	3700                	fld	fs0,40(a4)
     e6e:	0000                	unimp
     e70:	0100                	addi	s0,sp,128
     e72:	0101                	addi	sp,sp,0
     e74:	000d0efb          	.insn	4, 0x000d0efb
     e78:	0101                	addi	sp,sp,0
     e7a:	0101                	addi	sp,sp,0
     e7c:	0000                	unimp
     e7e:	0100                	addi	s0,sp,128
     e80:	0000                	unimp
     e82:	0101                	addi	sp,sp,0
     e84:	1f01                	addi	t5,t5,-32
     e86:	00020f03          	lb	t5,0(tp) # 0 <__boot_hart>
     e8a:	6600                	ld	s0,8(a2)
     e8c:	0002                	c.slli64	zero
     e8e:	1400                	addi	s0,sp,544
     e90:	0001                	nop
     e92:	0200                	addi	s0,sp,256
     e94:	1f01                	addi	t5,t5,-32
     e96:	0f02                	c.slli64	t5
     e98:	00025e03          	lhu	t3,0(tp) # 0 <__boot_hart>
     e9c:	0100                	addi	s0,sp,128
     e9e:	025e                	slli	tp,tp,0x17
     ea0:	0000                	unimp
     ea2:	6d01                	.insn	2, 0x6d01
     ea4:	0002                	c.slli64	zero
     ea6:	0200                	addi	s0,sp,256
     ea8:	0105                	addi	sp,sp,1
     eaa:	0900                	addi	s0,sp,144
     eac:	4402                	lw	s0,0(sp)
     eae:	001d                	c.nop	7
     eb0:	0080                	addi	s0,sp,64
     eb2:	0000                	unimp
     eb4:	1600                	addi	s0,sp,800
     eb6:	0505                	addi	a0,a0,1
     eb8:	00090103          	lb	sp,0(s2)
     ebc:	0100                	addi	s0,sp,128
     ebe:	0105                	addi	sp,sp,1
     ec0:	0306                	slli	t1,t1,0x1
     ec2:	097f 0000 0501 0305 	.insn	10, 0x0901030505010000097f
     eca:	0901 
     ecc:	0004                	.insn	2, 0x0004
     ece:	0501                	addi	a0,a0,0
     ed0:	0301                	addi	t1,t1,0
     ed2:	0902                	c.slli64	s2
     ed4:	0004                	.insn	2, 0x0004
     ed6:	0501                	addi	a0,a0,0
     ed8:	0402000b          	.insn	4, 0x0402000b
     edc:	0301                	addi	t1,t1,0
     ede:	097e                	slli	s2,s2,0x1f
     ee0:	0002                	c.slli64	zero
     ee2:	0501                	addi	a0,a0,0
     ee4:	0605                	addi	a2,a2,1
     ee6:	04090103          	lb	sp,64(s2)
     eea:	0100                	addi	s0,sp,128
     eec:	0105                	addi	sp,sp,1
     eee:	0306                	slli	t1,t1,0x1
     ef0:	0901                	addi	s2,s2,0
     ef2:	0000                	unimp
     ef4:	0901                	addi	s2,s2,0
     ef6:	0006                	c.slli	zero,0x1
     ef8:	0100                	addi	s0,sp,128
     efa:	af01                	j	160a <__stack_align+0x15fa>
     efc:	0000                	unimp
     efe:	0500                	addi	s0,sp,640
     f00:	0800                	addi	s0,sp,16
     f02:	5400                	lw	s0,40(s0)
     f04:	0000                	unimp
     f06:	0100                	addi	s0,sp,128
     f08:	0101                	addi	sp,sp,0
     f0a:	000d0efb          	.insn	4, 0x000d0efb
     f0e:	0101                	addi	sp,sp,0
     f10:	0101                	addi	sp,sp,0
     f12:	0000                	unimp
     f14:	0100                	addi	s0,sp,128
     f16:	0000                	unimp
     f18:	0101                	addi	sp,sp,0
     f1a:	1f01                	addi	t5,t5,-32
     f1c:	0f04                	addi	s1,sp,912
     f1e:	0002                	c.slli64	zero
     f20:	6600                	ld	s0,8(a2)
     f22:	0002                	c.slli64	zero
     f24:	ab00                	fsd	fs0,16(a4)
     f26:	0000                	unimp
     f28:	1400                	addi	s0,sp,544
     f2a:	0001                	nop
     f2c:	0200                	addi	s0,sp,256
     f2e:	1f01                	addi	t5,t5,-32
     f30:	0f02                	c.slli64	t5
     f32:	7c08                	ld	a0,56(s0)
     f34:	0002                	c.slli64	zero
     f36:	0100                	addi	s0,sp,128
     f38:	027c                	addi	a5,sp,268
     f3a:	0000                	unimp
     f3c:	ec01                	bnez	s0,f54 <__stack_align+0xf44>
     f3e:	0001                	nop
     f40:	0200                	addi	s0,sp,256
     f42:	01f4                	addi	a3,sp,204
     f44:	0000                	unimp
     f46:	0001f503          	.insn	4, 0x0001f503
     f4a:	0300                	addi	s0,sp,384
     f4c:	0284                	addi	s1,sp,320
     f4e:	0000                	unimp
     f50:	00029003          	lh	zero,0(t0)
     f54:	0300                	addi	s0,sp,384
     f56:	026d                	addi	tp,tp,27 # 1b <__stack_align+0xb>
     f58:	0000                	unimp
     f5a:	00010503          	lb	a0,0(sp)
     f5e:	0209                	addi	tp,tp,2 # 2 <__boot_hart+0x2>
     f60:	1d58                	addi	a4,sp,692
     f62:	8000                	.insn	2, 0x8000
     f64:	0000                	unimp
     f66:	0000                	unimp
     f68:	03050517          	auipc	a0,0x3050
     f6c:	0901                	addi	s2,s2,0
     f6e:	0000                	unimp
     f70:	0501                	addi	a0,a0,0 # 3050f68 <__heap_size+0x3030f68>
     f72:	0601                	addi	a2,a2,0
     f74:	00097f03          	.insn	4, 0x00097f03
     f78:	0100                	addi	s0,sp,128
     f7a:	0505                	addi	a0,a0,1
     f7c:	04090103          	lb	sp,64(s2)
     f80:	0100                	addi	s0,sp,128
     f82:	0105                	addi	sp,sp,1
     f84:	04090203          	lb	tp,64(s2)
     f88:	0100                	addi	s0,sp,128
     f8a:	0b05                	addi	s6,s6,1
     f8c:	0200                	addi	s0,sp,256
     f8e:	0104                	addi	s1,sp,128
     f90:	02097e03          	.insn	4, 0x02097e03
     f94:	0100                	addi	s0,sp,128
     f96:	0505                	addi	a0,a0,1
     f98:	0306                	slli	t1,t1,0x1
     f9a:	0901                	addi	s2,s2,0
     f9c:	0004                	.insn	2, 0x0004
     f9e:	0501                	addi	a0,a0,0
     fa0:	0601                	addi	a2,a2,0
     fa2:	00090103          	lb	sp,0(s2)
     fa6:	0100                	addi	s0,sp,128
     fa8:	0609                	addi	a2,a2,2
     faa:	0000                	unimp
     fac:	0101                	addi	sp,sp,0
     fae:	00000063          	beqz	zero,fae <__stack_align+0xf9e>
     fb2:	0005                	c.nop	1
     fb4:	0008                	.insn	2, 0x0008
     fb6:	002e                	c.slli	zero,0xb
     fb8:	0000                	unimp
     fba:	0101                	addi	sp,sp,0
     fbc:	fb01                	bnez	a4,ecc <__stack_align+0xebc>
     fbe:	0d0e                	slli	s10,s10,0x3
     fc0:	0100                	addi	s0,sp,128
     fc2:	0101                	addi	sp,sp,0
     fc4:	0001                	nop
     fc6:	0000                	unimp
     fc8:	0001                	nop
     fca:	0100                	addi	s0,sp,128
     fcc:	0101                	addi	sp,sp,0
     fce:	021f 020f 0000      	.insn	6, 0x020f021f
     fd4:	0266                	slli	tp,tp,0x19
     fd6:	0000                	unimp
     fd8:	0102                	c.slli64	sp
     fda:	021f 020f 029e      	.insn	6, 0x029e020f021f
     fe0:	0000                	unimp
     fe2:	9e01                	subw	a2,a2,s0
     fe4:	0002                	c.slli64	zero
     fe6:	0100                	addi	s0,sp,128
     fe8:	0105                	addi	sp,sp,1
     fea:	0900                	addi	s0,sp,144
     fec:	6c02                	ld	s8,0(sp)
     fee:	001d                	c.nop	7
     ff0:	0080                	addi	s0,sp,64
     ff2:	0000                	unimp
     ff4:	1600                	addi	s0,sp,800
     ff6:	0505                	addi	a0,a0,1
     ff8:	00090103          	lb	sp,0(s2)
     ffc:	0100                	addi	s0,sp,128
     ffe:	2305                	addiw	t1,t1,1
    1000:	0306                	slli	t1,t1,0x1
    1002:	0900                	addi	s0,sp,144
    1004:	0000                	unimp
    1006:	0501                	addi	a0,a0,0
    1008:	0301                	addi	t1,t1,0
    100a:	0901                	addi	s2,s2,0
    100c:	0002                	c.slli64	zero
    100e:	0901                	addi	s2,s2,0
    1010:	0006                	c.slli	zero,0x1
    1012:	0100                	addi	s0,sp,128
    1014:	9c01                	subw	s0,s0,s0
    1016:	0000                	unimp
    1018:	0500                	addi	s0,sp,640
    101a:	0800                	addi	s0,sp,16
    101c:	4100                	lw	s0,0(a0)
    101e:	0000                	unimp
    1020:	0100                	addi	s0,sp,128
    1022:	0101                	addi	sp,sp,0
    1024:	000d0efb          	.insn	4, 0x000d0efb
    1028:	0101                	addi	sp,sp,0
    102a:	0101                	addi	sp,sp,0
    102c:	0000                	unimp
    102e:	0100                	addi	s0,sp,128
    1030:	0000                	unimp
    1032:	0101                	addi	sp,sp,0
    1034:	1f01                	addi	t5,t5,-32
    1036:	00020f03          	lb	t5,0(tp) # 0 <__boot_hart>
    103a:	6600                	ld	s0,8(a2)
    103c:	0002                	c.slli64	zero
    103e:	1400                	addi	s0,sp,544
    1040:	0001                	nop
    1042:	0200                	addi	s0,sp,256
    1044:	1f01                	addi	t5,t5,-32
    1046:	0f02                	c.slli64	t5
    1048:	ae05                	j	1378 <__stack_align+0x1368>
    104a:	0002                	c.slli64	zero
    104c:	0100                	addi	s0,sp,128
    104e:	02ae                	slli	t0,t0,0xb
    1050:	0000                	unimp
    1052:	f401                	bnez	s0,f5a <__stack_align+0xf4a>
    1054:	0001                	nop
    1056:	0200                	addi	s0,sp,256
    1058:	01f5                	addi	gp,gp,29 # 80002ced <__global_pointer$+0x1d>
    105a:	0000                	unimp
    105c:	6d02                	ld	s10,0(sp)
    105e:	0002                	c.slli64	zero
    1060:	0200                	addi	s0,sp,256
    1062:	0105                	addi	sp,sp,1
    1064:	0900                	addi	s0,sp,144
    1066:	7402                	ld	s0,32(sp)
    1068:	001d                	c.nop	7
    106a:	0080                	addi	s0,sp,64
    106c:	0000                	unimp
    106e:	1700                	addi	s0,sp,928
    1070:	0505                	addi	a0,a0,1
    1072:	00090103          	lb	sp,0(s2)
    1076:	0100                	addi	s0,sp,128
    1078:	0105                	addi	sp,sp,1
    107a:	0306                	slli	t1,t1,0x1
    107c:	097f 0000 0501 0305 	.insn	10, 0x0901030505010000097f
    1084:	0901 
    1086:	0004                	.insn	2, 0x0004
    1088:	0501                	addi	a0,a0,0
    108a:	0301                	addi	t1,t1,0
    108c:	0902                	c.slli64	s2
    108e:	0004                	.insn	2, 0x0004
    1090:	0501                	addi	a0,a0,0
    1092:	0402000b          	.insn	4, 0x0402000b
    1096:	0301                	addi	t1,t1,0
    1098:	097e                	slli	s2,s2,0x1f
    109a:	0002                	c.slli64	zero
    109c:	0501                	addi	a0,a0,0
    109e:	0605                	addi	a2,a2,1
    10a0:	04090103          	lb	sp,64(s2)
    10a4:	0100                	addi	s0,sp,128
    10a6:	0105                	addi	sp,sp,1
    10a8:	0306                	slli	t1,t1,0x1
    10aa:	0901                	addi	s2,s2,0
    10ac:	0000                	unimp
    10ae:	0901                	addi	s2,s2,0
    10b0:	0006                	c.slli	zero,0x1
    10b2:	0100                	addi	s0,sp,128
    10b4:	a501                	j	16b4 <__stack_align+0x16a4>
    10b6:	0000                	unimp
    10b8:	0500                	addi	s0,sp,640
    10ba:	0800                	addi	s0,sp,16
    10bc:	4a00                	lw	s0,16(a2)
    10be:	0000                	unimp
    10c0:	0100                	addi	s0,sp,128
    10c2:	0101                	addi	sp,sp,0
    10c4:	000d0efb          	.insn	4, 0x000d0efb
    10c8:	0101                	addi	sp,sp,0
    10ca:	0101                	addi	sp,sp,0
    10cc:	0000                	unimp
    10ce:	0100                	addi	s0,sp,128
    10d0:	0000                	unimp
    10d2:	0101                	addi	sp,sp,0
    10d4:	1f01                	addi	t5,t5,-32
    10d6:	0f04                	addi	s1,sp,912
    10d8:	0002                	c.slli64	zero
    10da:	6600                	ld	s0,8(a2)
    10dc:	0002                	c.slli64	zero
    10de:	c400                	sw	s0,8(s0)
    10e0:	0002                	c.slli64	zero
    10e2:	1400                	addi	s0,sp,544
    10e4:	0001                	nop
    10e6:	0200                	addi	s0,sp,256
    10e8:	1f01                	addi	t5,t5,-32
    10ea:	0f02                	c.slli64	t5
    10ec:	bd06                	fsd	ft1,184(sp)
    10ee:	0002                	c.slli64	zero
    10f0:	0100                	addi	s0,sp,128
    10f2:	02bd                	addi	t0,t0,15
    10f4:	0000                	unimp
    10f6:	3401                	addiw	s0,s0,-32
    10f8:	02000003          	lb	zero,32(zero) # 20 <__stack_align+0x10>
    10fc:	01f4                	addi	a3,sp,204
    10fe:	0000                	unimp
    1100:	0001f503          	.insn	4, 0x0001f503
    1104:	0300                	addi	s0,sp,384
    1106:	026d                	addi	tp,tp,27 # 1b <__stack_align+0xb>
    1108:	0000                	unimp
    110a:	00010503          	lb	a0,0(sp)
    110e:	0209                	addi	tp,tp,2 # 2 <__boot_hart+0x2>
    1110:	1d88                	addi	a0,sp,752
    1112:	8000                	.insn	2, 0x8000
    1114:	0000                	unimp
    1116:	0000                	unimp
    1118:	03050517          	auipc	a0,0x3050
    111c:	0901                	addi	s2,s2,0
    111e:	0000                	unimp
    1120:	0501                	addi	a0,a0,0 # 3051118 <__heap_size+0x3031118>
    1122:	0601                	addi	a2,a2,0
    1124:	00097f03          	.insn	4, 0x00097f03
    1128:	0100                	addi	s0,sp,128
    112a:	0505                	addi	a0,a0,1
    112c:	04090103          	lb	sp,64(s2)
    1130:	0100                	addi	s0,sp,128
    1132:	0105                	addi	sp,sp,1
    1134:	04090203          	lb	tp,64(s2)
    1138:	0100                	addi	s0,sp,128
    113a:	0b05                	addi	s6,s6,1
    113c:	0200                	addi	s0,sp,256
    113e:	0104                	addi	s1,sp,128
    1140:	02097e03          	.insn	4, 0x02097e03
    1144:	0100                	addi	s0,sp,128
    1146:	0505                	addi	a0,a0,1
    1148:	0306                	slli	t1,t1,0x1
    114a:	0901                	addi	s2,s2,0
    114c:	0006                	c.slli	zero,0x1
    114e:	0501                	addi	a0,a0,0
    1150:	0601                	addi	a2,a2,0
    1152:	00090103          	lb	sp,0(s2)
    1156:	0100                	addi	s0,sp,128
    1158:	0609                	addi	a2,a2,2
    115a:	0000                	unimp
    115c:	0101                	addi	sp,sp,0
    115e:	0121                	addi	sp,sp,8
    1160:	0000                	unimp
    1162:	0005                	c.nop	1
    1164:	0008                	.insn	2, 0x0008
    1166:	0040                	addi	s0,sp,4
    1168:	0000                	unimp
    116a:	0101                	addi	sp,sp,0
    116c:	fb01                	bnez	a4,107c <__stack_align+0x106c>
    116e:	0d0e                	slli	s10,s10,0x3
    1170:	0100                	addi	s0,sp,128
    1172:	0101                	addi	sp,sp,0
    1174:	0001                	nop
    1176:	0000                	unimp
    1178:	0001                	nop
    117a:	0100                	addi	s0,sp,128
    117c:	0101                	addi	sp,sp,0
    117e:	041f 020f 0000      	.insn	6, 0x020f041f
    1184:	0266                	slli	tp,tp,0x19
    1186:	0000                	unimp
    1188:	02c4                	addi	s1,sp,324
    118a:	0000                	unimp
    118c:	0114                	addi	a3,sp,128
    118e:	0000                	unimp
    1190:	0102                	c.slli64	sp
    1192:	021f 040f 0344      	.insn	6, 0x0344040f021f
    1198:	0000                	unimp
    119a:	4401                	li	s0,0
    119c:	01000003          	lb	zero,16(zero) # 10 <__stack_align>
    11a0:	0334                	addi	a3,sp,392
    11a2:	0000                	unimp
    11a4:	6d02                	ld	s10,0(sp)
    11a6:	0002                	c.slli64	zero
    11a8:	0300                	addi	s0,sp,384
    11aa:	0105                	addi	sp,sp,1
    11ac:	0900                	addi	s0,sp,144
    11ae:	9e02                	jalr	t3
    11b0:	001d                	c.nop	7
    11b2:	0080                	addi	s0,sp,64
    11b4:	0000                	unimp
    11b6:	0300                	addi	s0,sp,384
    11b8:	0109                	addi	sp,sp,2
    11ba:	0505                	addi	a0,a0,1
    11bc:	00090103          	lb	sp,0(s2)
    11c0:	0100                	addi	s0,sp,128
    11c2:	00090103          	lb	sp,0(s2)
    11c6:	0100                	addi	s0,sp,128
    11c8:	00090103          	lb	sp,0(s2)
    11cc:	0100                	addi	s0,sp,128
    11ce:	00090203          	lb	tp,0(s2)
    11d2:	0100                	addi	s0,sp,128
    11d4:	0c05                	addi	s8,s8,1
    11d6:	0306                	slli	t1,t1,0x1
    11d8:	0900                	addi	s0,sp,144
    11da:	0000                	unimp
    11dc:	0501                	addi	a0,a0,0
    11de:	0605                	addi	a2,a2,1
    11e0:	0a090103          	lb	sp,160(s2)
    11e4:	0100                	addi	s0,sp,128
    11e6:	0805                	addi	a6,a6,1
    11e8:	0200                	addi	s0,sp,256
    11ea:	0104                	addi	s1,sp,128
    11ec:	0306                	slli	t1,t1,0x1
    11ee:	0901                	addi	s2,s2,0
    11f0:	0000                	unimp
    11f2:	0501                	addi	a0,a0,0
    11f4:	030c                	addi	a1,sp,384
    11f6:	097f 0004 0501 0605 	.insn	10, 0x0103060505010004097f
    11fe:	0103 
    1200:	0209                	addi	tp,tp,2 # 2 <__boot_hart+0x2>
    1202:	0100                	addi	s0,sp,128
    1204:	0805                	addi	a6,a6,1
    1206:	0200                	addi	s0,sp,256
    1208:	0104                	addi	s1,sp,128
    120a:	0306                	slli	t1,t1,0x1
    120c:	0900                	addi	s0,sp,144
    120e:	0000                	unimp
    1210:	0501                	addi	a0,a0,0
    1212:	0605                	addi	a2,a2,1
    1214:	10090503          	lb	a0,256(s2)
    1218:	0100                	addi	s0,sp,128
    121a:	0c05                	addi	s8,s8,1
    121c:	0306                	slli	t1,t1,0x1
    121e:	0900                	addi	s0,sp,144
    1220:	0000                	unimp
    1222:	0501                	addi	a0,a0,0
    1224:	0605                	addi	a2,a2,1
    1226:	02090103          	lb	sp,32(s2)
    122a:	0100                	addi	s0,sp,128
    122c:	0105                	addi	sp,sp,1
    122e:	0306                	slli	t1,t1,0x1
    1230:	0901                	addi	s2,s2,0
    1232:	0000                	unimp
    1234:	0501                	addi	a0,a0,0
    1236:	0609                	addi	a2,a2,2
    1238:	04097a03          	.insn	4, 0x04097a03
    123c:	0100                	addi	s0,sp,128
    123e:	0105                	addi	sp,sp,1
    1240:	0306                	slli	t1,t1,0x1
    1242:	0978                	addi	a4,sp,156
    1244:	0000                	unimp
    1246:	0501                	addi	a0,a0,0
    1248:	0309                	addi	t1,t1,2
    124a:	0908                	addi	a0,sp,144
    124c:	0004                	.insn	2, 0x0004
    124e:	0501                	addi	a0,a0,0
    1250:	0301                	addi	t1,t1,0
    1252:	0906                	slli	s2,s2,0x1
    1254:	0004                	.insn	2, 0x0004
    1256:	0501                	addi	a0,a0,0
    1258:	0402000f          	.insn	4, 0x0402000f
    125c:	0301                	addi	t1,t1,0
    125e:	097a                	slli	s2,s2,0x1e
    1260:	0002                	c.slli64	zero
    1262:	0501                	addi	a0,a0,0
    1264:	0609                	addi	a2,a2,2
    1266:	04090103          	lb	sp,64(s2)
    126a:	0100                	addi	s0,sp,128
    126c:	1005                	c.nop	-31
    126e:	0306                	slli	t1,t1,0x1
    1270:	0900                	addi	s0,sp,144
    1272:	0000                	unimp
    1274:	0501                	addi	a0,a0,0
    1276:	0301                	addi	t1,t1,0
    1278:	0905                	addi	s2,s2,1
    127a:	0002                	c.slli64	zero
    127c:	0901                	addi	s2,s2,0
    127e:	0006                	c.slli	zero,0x1
    1280:	0100                	addi	s0,sp,128
    1282:	8901                	andi	a0,a0,0
    1284:	0000                	unimp
    1286:	0500                	addi	s0,sp,640
    1288:	0800                	addi	s0,sp,16
    128a:	5c00                	lw	s0,56(s0)
    128c:	0000                	unimp
    128e:	0100                	addi	s0,sp,128
    1290:	0101                	addi	sp,sp,0
    1292:	000d0efb          	.insn	4, 0x000d0efb
    1296:	0101                	addi	sp,sp,0
    1298:	0101                	addi	sp,sp,0
    129a:	0000                	unimp
    129c:	0100                	addi	s0,sp,128
    129e:	0000                	unimp
    12a0:	0101                	addi	sp,sp,0
    12a2:	1f01                	addi	t5,t5,-32
    12a4:	0f06                	slli	t5,t5,0x1
    12a6:	0002                	c.slli64	zero
    12a8:	6600                	ld	s0,8(a2)
    12aa:	0002                	c.slli64	zero
    12ac:	c400                	sw	s0,8(s0)
    12ae:	0002                	c.slli64	zero
    12b0:	ab00                	fsd	fs0,16(a4)
    12b2:	0000                	unimp
    12b4:	1400                	addi	s0,sp,544
    12b6:	0001                	nop
    12b8:	5a00                	lw	s0,48(a2)
    12ba:	02000003          	lb	zero,32(zero) # 20 <__stack_align+0x10>
    12be:	1f01                	addi	t5,t5,-32
    12c0:	0f02                	c.slli64	t5
    12c2:	5208                	lw	a0,32(a2)
    12c4:	01000003          	lb	zero,16(zero) # 10 <__stack_align>
    12c8:	0352                	slli	t1,t1,0x14
    12ca:	0000                	unimp
    12cc:	3401                	addiw	s0,s0,-32
    12ce:	02000003          	lb	zero,32(zero) # 20 <__stack_align+0x10>
    12d2:	01ec                	addi	a1,sp,204
    12d4:	0000                	unimp
    12d6:	0001f403          	.insn	4, 0x0001f403
    12da:	0400                	addi	s0,sp,512
    12dc:	01fd                	addi	gp,gp,31 # 80002cef <__global_pointer$+0x1f>
    12de:	0000                	unimp
    12e0:	f504                	sd	s1,40(a0)
    12e2:	0001                	nop
    12e4:	0400                	addi	s0,sp,512
    12e6:	0365                	addi	t1,t1,25
    12e8:	0000                	unimp
    12ea:	0505                	addi	a0,a0,1
    12ec:	0001                	nop
    12ee:	0209                	addi	tp,tp,2 # 2 <__boot_hart+0x2>
    12f0:	1dda                	slli	s11,s11,0x36
    12f2:	8000                	.insn	2, 0x8000
    12f4:	0000                	unimp
    12f6:	0000                	unimp
    12f8:	0518                	addi	a4,sp,640
    12fa:	0305                	addi	t1,t1,1
    12fc:	0901                	addi	s2,s2,0
    12fe:	0000                	unimp
    1300:	0501                	addi	a0,a0,0
    1302:	060c                	addi	a1,sp,768
    1304:	00090003          	lb	zero,0(s2)
    1308:	0100                	addi	s0,sp,128
    130a:	0609                	addi	a2,a2,2
    130c:	0000                	unimp
    130e:	0101                	addi	sp,sp,0
    1310:	042e                	slli	s0,s0,0xb
    1312:	0000                	unimp
    1314:	0005                	c.nop	1
    1316:	0008                	.insn	2, 0x0008
    1318:	002e                	c.slli	zero,0xb
    131a:	0000                	unimp
    131c:	0101                	addi	sp,sp,0
    131e:	fb01                	bnez	a4,122e <__stack_align+0x121e>
    1320:	0d0e                	slli	s10,s10,0x3
    1322:	0100                	addi	s0,sp,128
    1324:	0101                	addi	sp,sp,0
    1326:	0001                	nop
    1328:	0000                	unimp
    132a:	0001                	nop
    132c:	0100                	addi	s0,sp,128
    132e:	0101                	addi	sp,sp,0
    1330:	021f 020f 0000      	.insn	6, 0x020f021f
    1336:	036c                	addi	a1,sp,396
    1338:	0000                	unimp
    133a:	0102                	c.slli64	sp
    133c:	021f 020f 0374      	.insn	6, 0x0374020f021f
    1342:	0000                	unimp
    1344:	7401                	lui	s0,0xfffe0
    1346:	01000003          	lb	zero,16(zero) # 10 <__stack_align>
    134a:	0900                	addi	s0,sp,144
    134c:	0002                	c.slli64	zero
    134e:	0000                	unimp
    1350:	0080                	addi	s0,sp,64
    1352:	0000                	unimp
    1354:	0300                	addi	s0,sp,384
    1356:	0109                	addi	sp,sp,2
    1358:	02090103          	lb	sp,32(s2)
    135c:	0100                	addi	s0,sp,128
    135e:	02090103          	lb	sp,32(s2)
    1362:	0100                	addi	s0,sp,128
    1364:	02090103          	lb	sp,32(s2)
    1368:	0100                	addi	s0,sp,128
    136a:	02090103          	lb	sp,32(s2)
    136e:	0100                	addi	s0,sp,128
    1370:	02090103          	lb	sp,32(s2)
    1374:	0100                	addi	s0,sp,128
    1376:	02090103          	lb	sp,32(s2)
    137a:	0100                	addi	s0,sp,128
    137c:	02090103          	lb	sp,32(s2)
    1380:	0100                	addi	s0,sp,128
    1382:	02090103          	lb	sp,32(s2)
    1386:	0100                	addi	s0,sp,128
    1388:	02090103          	lb	sp,32(s2)
    138c:	0100                	addi	s0,sp,128
    138e:	02090103          	lb	sp,32(s2)
    1392:	0100                	addi	s0,sp,128
    1394:	02090103          	lb	sp,32(s2)
    1398:	0100                	addi	s0,sp,128
    139a:	02090103          	lb	sp,32(s2)
    139e:	0100                	addi	s0,sp,128
    13a0:	02090103          	lb	sp,32(s2)
    13a4:	0100                	addi	s0,sp,128
    13a6:	02090103          	lb	sp,32(s2)
    13aa:	0100                	addi	s0,sp,128
    13ac:	02090103          	lb	sp,32(s2)
    13b0:	0100                	addi	s0,sp,128
    13b2:	02090103          	lb	sp,32(s2)
    13b6:	0100                	addi	s0,sp,128
    13b8:	02090103          	lb	sp,32(s2)
    13bc:	0100                	addi	s0,sp,128
    13be:	02090103          	lb	sp,32(s2)
    13c2:	0100                	addi	s0,sp,128
    13c4:	02090103          	lb	sp,32(s2)
    13c8:	0100                	addi	s0,sp,128
    13ca:	02090103          	lb	sp,32(s2)
    13ce:	0100                	addi	s0,sp,128
    13d0:	02090103          	lb	sp,32(s2)
    13d4:	0100                	addi	s0,sp,128
    13d6:	02090103          	lb	sp,32(s2)
    13da:	0100                	addi	s0,sp,128
    13dc:	02090103          	lb	sp,32(s2)
    13e0:	0100                	addi	s0,sp,128
    13e2:	02090103          	lb	sp,32(s2)
    13e6:	0100                	addi	s0,sp,128
    13e8:	02090103          	lb	sp,32(s2)
    13ec:	0100                	addi	s0,sp,128
    13ee:	02090103          	lb	sp,32(s2)
    13f2:	0100                	addi	s0,sp,128
    13f4:	02090103          	lb	sp,32(s2)
    13f8:	0100                	addi	s0,sp,128
    13fa:	02090103          	lb	sp,32(s2)
    13fe:	0100                	addi	s0,sp,128
    1400:	02090103          	lb	sp,32(s2)
    1404:	0100                	addi	s0,sp,128
    1406:	02090103          	lb	sp,32(s2)
    140a:	0100                	addi	s0,sp,128
    140c:	02090203          	lb	tp,32(s2)
    1410:	0100                	addi	s0,sp,128
    1412:	06090103          	lb	sp,96(s2)
    1416:	0100                	addi	s0,sp,128
    1418:	04090403          	lb	s0,64(s2)
    141c:	0100                	addi	s0,sp,128
    141e:	08090103          	lb	sp,128(s2)
    1422:	0100                	addi	s0,sp,128
    1424:	04090203          	lb	tp,64(s2)
    1428:	0100                	addi	s0,sp,128
    142a:	04090103          	lb	sp,64(s2)
    142e:	0100                	addi	s0,sp,128
    1430:	04090103          	lb	sp,64(s2)
    1434:	0100                	addi	s0,sp,128
    1436:	04090103          	lb	sp,64(s2)
    143a:	0100                	addi	s0,sp,128
    143c:	04090103          	lb	sp,64(s2)
    1440:	0100                	addi	s0,sp,128
    1442:	04090103          	lb	sp,64(s2)
    1446:	0100                	addi	s0,sp,128
    1448:	04090103          	lb	sp,64(s2)
    144c:	0100                	addi	s0,sp,128
    144e:	04090103          	lb	sp,64(s2)
    1452:	0100                	addi	s0,sp,128
    1454:	04090103          	lb	sp,64(s2)
    1458:	0100                	addi	s0,sp,128
    145a:	04090103          	lb	sp,64(s2)
    145e:	0100                	addi	s0,sp,128
    1460:	04090103          	lb	sp,64(s2)
    1464:	0100                	addi	s0,sp,128
    1466:	04090103          	lb	sp,64(s2)
    146a:	0100                	addi	s0,sp,128
    146c:	04090103          	lb	sp,64(s2)
    1470:	0100                	addi	s0,sp,128
    1472:	04090103          	lb	sp,64(s2)
    1476:	0100                	addi	s0,sp,128
    1478:	04090103          	lb	sp,64(s2)
    147c:	0100                	addi	s0,sp,128
    147e:	04090103          	lb	sp,64(s2)
    1482:	0100                	addi	s0,sp,128
    1484:	04090103          	lb	sp,64(s2)
    1488:	0100                	addi	s0,sp,128
    148a:	04090103          	lb	sp,64(s2)
    148e:	0100                	addi	s0,sp,128
    1490:	04090103          	lb	sp,64(s2)
    1494:	0100                	addi	s0,sp,128
    1496:	04090103          	lb	sp,64(s2)
    149a:	0100                	addi	s0,sp,128
    149c:	04090103          	lb	sp,64(s2)
    14a0:	0100                	addi	s0,sp,128
    14a2:	04090103          	lb	sp,64(s2)
    14a6:	0100                	addi	s0,sp,128
    14a8:	04090103          	lb	sp,64(s2)
    14ac:	0100                	addi	s0,sp,128
    14ae:	04090103          	lb	sp,64(s2)
    14b2:	0100                	addi	s0,sp,128
    14b4:	04090103          	lb	sp,64(s2)
    14b8:	0100                	addi	s0,sp,128
    14ba:	04090103          	lb	sp,64(s2)
    14be:	0100                	addi	s0,sp,128
    14c0:	04090103          	lb	sp,64(s2)
    14c4:	0100                	addi	s0,sp,128
    14c6:	04090103          	lb	sp,64(s2)
    14ca:	0100                	addi	s0,sp,128
    14cc:	04090103          	lb	sp,64(s2)
    14d0:	0100                	addi	s0,sp,128
    14d2:	04090103          	lb	sp,64(s2)
    14d6:	0100                	addi	s0,sp,128
    14d8:	04090103          	lb	sp,64(s2)
    14dc:	0100                	addi	s0,sp,128
    14de:	04090103          	lb	sp,64(s2)
    14e2:	0100                	addi	s0,sp,128
    14e4:	04090103          	lb	sp,64(s2)
    14e8:	0100                	addi	s0,sp,128
    14ea:	04090803          	lb	a6,64(s2)
    14ee:	0100                	addi	s0,sp,128
    14f0:	08090403          	lb	s0,128(s2)
    14f4:	0100                	addi	s0,sp,128
    14f6:	04090103          	lb	sp,64(s2)
    14fa:	0100                	addi	s0,sp,128
    14fc:	00090103          	lb	sp,0(s2)
    1500:	0100                	addi	s0,sp,128
    1502:	04090103          	lb	sp,64(s2)
    1506:	0100                	addi	s0,sp,128
    1508:	08090103          	lb	sp,128(s2)
    150c:	0100                	addi	s0,sp,128
    150e:	04090103          	lb	sp,64(s2)
    1512:	0100                	addi	s0,sp,128
    1514:	02090303          	lb	t1,32(s2)
    1518:	0100                	addi	s0,sp,128
    151a:	02090103          	lb	sp,32(s2)
    151e:	0100                	addi	s0,sp,128
    1520:	04090103          	lb	sp,64(s2)
    1524:	0100                	addi	s0,sp,128
    1526:	04090303          	lb	t1,64(s2)
    152a:	0100                	addi	s0,sp,128
    152c:	08090103          	lb	sp,128(s2)
    1530:	0100                	addi	s0,sp,128
    1532:	04090303          	lb	t1,64(s2)
    1536:	0100                	addi	s0,sp,128
    1538:	04090303          	lb	t1,64(s2)
    153c:	0100                	addi	s0,sp,128
    153e:	04090103          	lb	sp,64(s2)
    1542:	0100                	addi	s0,sp,128
    1544:	08090303          	lb	t1,128(s2)
    1548:	0100                	addi	s0,sp,128
    154a:	04090103          	lb	sp,64(s2)
    154e:	0100                	addi	s0,sp,128
    1550:	04090103          	lb	sp,64(s2)
    1554:	0100                	addi	s0,sp,128
    1556:	04090203          	lb	tp,64(s2)
    155a:	0100                	addi	s0,sp,128
    155c:	04090103          	lb	sp,64(s2)
    1560:	0100                	addi	s0,sp,128
    1562:	02090103          	lb	sp,32(s2)
    1566:	0100                	addi	s0,sp,128
    1568:	04090403          	lb	s0,64(s2)
    156c:	0100                	addi	s0,sp,128
    156e:	08090103          	lb	sp,128(s2)
    1572:	0100                	addi	s0,sp,128
    1574:	04090103          	lb	sp,64(s2)
    1578:	0100                	addi	s0,sp,128
    157a:	04090303          	lb	t1,64(s2)
    157e:	0100                	addi	s0,sp,128
    1580:	02090703          	lb	a4,32(s2)
    1584:	0100                	addi	s0,sp,128
    1586:	04090103          	lb	sp,64(s2)
    158a:	0100                	addi	s0,sp,128
    158c:	02090303          	lb	t1,32(s2)
    1590:	0100                	addi	s0,sp,128
    1592:	02090103          	lb	sp,32(s2)
    1596:	0100                	addi	s0,sp,128
    1598:	04090103          	lb	sp,64(s2)
    159c:	0100                	addi	s0,sp,128
    159e:	02090103          	lb	sp,32(s2)
    15a2:	0100                	addi	s0,sp,128
    15a4:	02090103          	lb	sp,32(s2)
    15a8:	0100                	addi	s0,sp,128
    15aa:	02090103          	lb	sp,32(s2)
    15ae:	0100                	addi	s0,sp,128
    15b0:	02090103          	lb	sp,32(s2)
    15b4:	0100                	addi	s0,sp,128
    15b6:	02090103          	lb	sp,32(s2)
    15ba:	0100                	addi	s0,sp,128
    15bc:	02090103          	lb	sp,32(s2)
    15c0:	0100                	addi	s0,sp,128
    15c2:	02090103          	lb	sp,32(s2)
    15c6:	0100                	addi	s0,sp,128
    15c8:	02090103          	lb	sp,32(s2)
    15cc:	0100                	addi	s0,sp,128
    15ce:	02090103          	lb	sp,32(s2)
    15d2:	0100                	addi	s0,sp,128
    15d4:	02090103          	lb	sp,32(s2)
    15d8:	0100                	addi	s0,sp,128
    15da:	02090103          	lb	sp,32(s2)
    15de:	0100                	addi	s0,sp,128
    15e0:	02090103          	lb	sp,32(s2)
    15e4:	0100                	addi	s0,sp,128
    15e6:	02090103          	lb	sp,32(s2)
    15ea:	0100                	addi	s0,sp,128
    15ec:	02090103          	lb	sp,32(s2)
    15f0:	0100                	addi	s0,sp,128
    15f2:	02090103          	lb	sp,32(s2)
    15f6:	0100                	addi	s0,sp,128
    15f8:	02090103          	lb	sp,32(s2)
    15fc:	0100                	addi	s0,sp,128
    15fe:	02090103          	lb	sp,32(s2)
    1602:	0100                	addi	s0,sp,128
    1604:	02090103          	lb	sp,32(s2)
    1608:	0100                	addi	s0,sp,128
    160a:	02090103          	lb	sp,32(s2)
    160e:	0100                	addi	s0,sp,128
    1610:	02090103          	lb	sp,32(s2)
    1614:	0100                	addi	s0,sp,128
    1616:	02090103          	lb	sp,32(s2)
    161a:	0100                	addi	s0,sp,128
    161c:	02090103          	lb	sp,32(s2)
    1620:	0100                	addi	s0,sp,128
    1622:	02090103          	lb	sp,32(s2)
    1626:	0100                	addi	s0,sp,128
    1628:	02090103          	lb	sp,32(s2)
    162c:	0100                	addi	s0,sp,128
    162e:	02090103          	lb	sp,32(s2)
    1632:	0100                	addi	s0,sp,128
    1634:	02090103          	lb	sp,32(s2)
    1638:	0100                	addi	s0,sp,128
    163a:	02090103          	lb	sp,32(s2)
    163e:	0100                	addi	s0,sp,128
    1640:	02090103          	lb	sp,32(s2)
    1644:	0100                	addi	s0,sp,128
    1646:	02090103          	lb	sp,32(s2)
    164a:	0100                	addi	s0,sp,128
    164c:	02090303          	lb	t1,32(s2)
    1650:	0100                	addi	s0,sp,128
    1652:	04090103          	lb	sp,64(s2)
    1656:	0100                	addi	s0,sp,128
    1658:	04090103          	lb	sp,64(s2)
    165c:	0100                	addi	s0,sp,128
    165e:	04090103          	lb	sp,64(s2)
    1662:	0100                	addi	s0,sp,128
    1664:	02090103          	lb	sp,32(s2)
    1668:	0100                	addi	s0,sp,128
    166a:	04090103          	lb	sp,64(s2)
    166e:	0100                	addi	s0,sp,128
    1670:	04090303          	lb	t1,64(s2)
    1674:	0100                	addi	s0,sp,128
    1676:	06090103          	lb	sp,96(s2)
    167a:	0100                	addi	s0,sp,128
    167c:	04090203          	lb	tp,64(s2)
    1680:	0100                	addi	s0,sp,128
    1682:	02090103          	lb	sp,32(s2)
    1686:	0100                	addi	s0,sp,128
    1688:	02090103          	lb	sp,32(s2)
    168c:	0100                	addi	s0,sp,128
    168e:	02090103          	lb	sp,32(s2)
    1692:	0100                	addi	s0,sp,128
    1694:	02090103          	lb	sp,32(s2)
    1698:	0100                	addi	s0,sp,128
    169a:	02090103          	lb	sp,32(s2)
    169e:	0100                	addi	s0,sp,128
    16a0:	02090103          	lb	sp,32(s2)
    16a4:	0100                	addi	s0,sp,128
    16a6:	02090103          	lb	sp,32(s2)
    16aa:	0100                	addi	s0,sp,128
    16ac:	02090103          	lb	sp,32(s2)
    16b0:	0100                	addi	s0,sp,128
    16b2:	02090103          	lb	sp,32(s2)
    16b6:	0100                	addi	s0,sp,128
    16b8:	02090103          	lb	sp,32(s2)
    16bc:	0100                	addi	s0,sp,128
    16be:	02090103          	lb	sp,32(s2)
    16c2:	0100                	addi	s0,sp,128
    16c4:	02090103          	lb	sp,32(s2)
    16c8:	0100                	addi	s0,sp,128
    16ca:	02090103          	lb	sp,32(s2)
    16ce:	0100                	addi	s0,sp,128
    16d0:	02090103          	lb	sp,32(s2)
    16d4:	0100                	addi	s0,sp,128
    16d6:	02090103          	lb	sp,32(s2)
    16da:	0100                	addi	s0,sp,128
    16dc:	02090103          	lb	sp,32(s2)
    16e0:	0100                	addi	s0,sp,128
    16e2:	02090103          	lb	sp,32(s2)
    16e6:	0100                	addi	s0,sp,128
    16e8:	02090103          	lb	sp,32(s2)
    16ec:	0100                	addi	s0,sp,128
    16ee:	02090103          	lb	sp,32(s2)
    16f2:	0100                	addi	s0,sp,128
    16f4:	02090103          	lb	sp,32(s2)
    16f8:	0100                	addi	s0,sp,128
    16fa:	02090103          	lb	sp,32(s2)
    16fe:	0100                	addi	s0,sp,128
    1700:	02090103          	lb	sp,32(s2)
    1704:	0100                	addi	s0,sp,128
    1706:	02090103          	lb	sp,32(s2)
    170a:	0100                	addi	s0,sp,128
    170c:	02090103          	lb	sp,32(s2)
    1710:	0100                	addi	s0,sp,128
    1712:	02090103          	lb	sp,32(s2)
    1716:	0100                	addi	s0,sp,128
    1718:	02090103          	lb	sp,32(s2)
    171c:	0100                	addi	s0,sp,128
    171e:	02090103          	lb	sp,32(s2)
    1722:	0100                	addi	s0,sp,128
    1724:	02090103          	lb	sp,32(s2)
    1728:	0100                	addi	s0,sp,128
    172a:	02090103          	lb	sp,32(s2)
    172e:	0100                	addi	s0,sp,128
    1730:	02090203          	lb	tp,32(s2)
    1734:	0100                	addi	s0,sp,128
    1736:	02090203          	lb	tp,32(s2)
    173a:	0100                	addi	s0,sp,128
    173c:	0409                	addi	s0,s0,2 # fffffffffffe0002 <__heap_end+0xffffffff7ffbd002>
    173e:	0000                	unimp
    1740:	0101                	addi	sp,sp,0
    1742:	005c                	addi	a5,sp,4
    1744:	0000                	unimp
    1746:	0005                	c.nop	1
    1748:	0008                	.insn	2, 0x0008
    174a:	002e                	c.slli	zero,0xb
    174c:	0000                	unimp
    174e:	0101                	addi	sp,sp,0
    1750:	fb01                	bnez	a4,1660 <__stack_align+0x1650>
    1752:	0d0e                	slli	s10,s10,0x3
    1754:	0100                	addi	s0,sp,128
    1756:	0101                	addi	sp,sp,0
    1758:	0001                	nop
    175a:	0000                	unimp
    175c:	0001                	nop
    175e:	0100                	addi	s0,sp,128
    1760:	0101                	addi	sp,sp,0
    1762:	021f 020f 0000      	.insn	6, 0x020f021f
    1768:	036c                	addi	a1,sp,396
    176a:	0000                	unimp
    176c:	0102                	c.slli64	sp
    176e:	021f 020f 037b      	.insn	6, 0x037b020f021f
    1774:	0000                	unimp
    1776:	7b01                	lui	s6,0xfffe0
    1778:	01000003          	lb	zero,16(zero) # 10 <__stack_align>
    177c:	0900                	addi	s0,sp,144
    177e:	ee02                	sd	zero,280(sp)
    1780:	0001                	nop
    1782:	0080                	addi	s0,sp,64
    1784:	0000                	unimp
    1786:	0300                	addi	s0,sp,384
    1788:	0110                	addi	a2,sp,128
    178a:	0a090103          	lb	sp,160(s2)
    178e:	0100                	addi	s0,sp,128
    1790:	16090603          	lb	a2,352(s2)
    1794:	0100                	addi	s0,sp,128
    1796:	0c090103          	lb	sp,192(s2)
    179a:	0100                	addi	s0,sp,128
    179c:	1609                	addi	a2,a2,-30
    179e:	0000                	unimp
    17a0:	0101                	addi	sp,sp,0
    17a2:	000000b3          	add	ra,zero,zero
    17a6:	0005                	c.nop	1
    17a8:	0008                	.insn	2, 0x0008
    17aa:	0049                	c.nop	18
    17ac:	0000                	unimp
    17ae:	0101                	addi	sp,sp,0
    17b0:	fb01                	bnez	a4,16c0 <__stack_align+0x16b0>
    17b2:	0d0e                	slli	s10,s10,0x3
    17b4:	0100                	addi	s0,sp,128
    17b6:	0101                	addi	sp,sp,0
    17b8:	0001                	nop
    17ba:	0000                	unimp
    17bc:	0001                	nop
    17be:	0100                	addi	s0,sp,128
    17c0:	0101                	addi	sp,sp,0
    17c2:	051f 020f 0000      	.insn	6, 0x020f051f
    17c8:	036c                	addi	a1,sp,396
    17ca:	0000                	unimp
    17cc:	000000ab          	.insn	4, 0x00ab
    17d0:	0114                	addi	a3,sp,128
    17d2:	0000                	unimp
    17d4:	035a                	slli	t1,t1,0x16
    17d6:	0000                	unimp
    17d8:	0102                	c.slli64	sp
    17da:	021f 050f 038d      	.insn	6, 0x038d050f021f
    17e0:	0000                	unimp
    17e2:	8d01                	sub	a0,a0,s0
    17e4:	01000003          	lb	zero,16(zero) # 10 <__stack_align>
    17e8:	01ec                	addi	a1,sp,204
    17ea:	0000                	unimp
    17ec:	fd02                	sd	zero,184(sp)
    17ee:	0001                	nop
    17f0:	0300                	addi	s0,sp,384
    17f2:	0395                	addi	t2,t2,5
    17f4:	0000                	unimp
    17f6:	0504                	addi	s1,sp,640
    17f8:	0001                	nop
    17fa:	0209                	addi	tp,tp,2 # 2 <__boot_hart+0x2>
    17fc:	1de0                	addi	s0,sp,764
    17fe:	8000                	.insn	2, 0x8000
    1800:	0000                	unimp
    1802:	0000                	unimp
    1804:	0516                	slli	a0,a0,0x5
    1806:	0305                	addi	t1,t1,1
    1808:	0902                	c.slli64	s2
    180a:	0000                	unimp
    180c:	0501                	addi	a0,a0,0
    180e:	0601                	addi	a2,a2,0
    1810:	00097e03          	.insn	4, 0x00097e03
    1814:	0100                	addi	s0,sp,128
    1816:	0905                	addi	s2,s2,1
    1818:	02090203          	lb	tp,32(s2)
    181c:	0100                	addi	s0,sp,128
    181e:	0105                	addi	sp,sp,1
    1820:	04097e03          	.insn	4, 0x04097e03
    1824:	0100                	addi	s0,sp,128
    1826:	0905                	addi	s2,s2,1
    1828:	02090203          	lb	tp,32(s2)
    182c:	0100                	addi	s0,sp,128
    182e:	0505                	addi	a0,a0,1
    1830:	0306                	slli	t1,t1,0x1
    1832:	0902                	c.slli64	s2
    1834:	0002                	c.slli64	zero
    1836:	0501                	addi	a0,a0,0
    1838:	062a                	slli	a2,a2,0xa
    183a:	00090003          	lb	zero,0(s2)
    183e:	0100                	addi	s0,sp,128
    1840:	0200                	addi	s0,sp,256
    1842:	0104                	addi	s1,sp,128
    1844:	04090003          	lb	zero,64(s2)
    1848:	0100                	addi	s0,sp,128
    184a:	0505                	addi	a0,a0,1
    184c:	0306                	slli	t1,t1,0x1
    184e:	0901                	addi	s2,s2,0
    1850:	0004                	.insn	2, 0x0004
    1852:	0901                	addi	s2,s2,0
    1854:	0004                	.insn	2, 0x0004
    1856:	0100                	addi	s0,sp,128
    1858:	db01                	beqz	a4,1768 <__stack_align+0x1758>
    185a:	0000                	unimp
    185c:	0500                	addi	s0,sp,640
    185e:	0800                	addi	s0,sp,16
    1860:	4000                	lw	s0,0(s0)
    1862:	0000                	unimp
    1864:	0100                	addi	s0,sp,128
    1866:	0101                	addi	sp,sp,0
    1868:	000d0efb          	.insn	4, 0x000d0efb
    186c:	0101                	addi	sp,sp,0
    186e:	0101                	addi	sp,sp,0
    1870:	0000                	unimp
    1872:	0100                	addi	s0,sp,128
    1874:	0000                	unimp
    1876:	0101                	addi	sp,sp,0
    1878:	1f01                	addi	t5,t5,-32
    187a:	0f04                	addi	s1,sp,912
    187c:	0002                	c.slli64	zero
    187e:	6c00                	ld	s0,24(s0)
    1880:	79000003          	lb	zero,1936(zero) # 790 <__stack_align+0x780>
    1884:	0001                	nop
    1886:	c400                	sw	s0,8(s0)
    1888:	0002                	c.slli64	zero
    188a:	0200                	addi	s0,sp,256
    188c:	1f01                	addi	t5,t5,-32
    188e:	0f02                	c.slli64	t5
    1890:	a704                	fsd	fs1,8(a4)
    1892:	01000003          	lb	zero,16(zero) # 10 <__stack_align>
    1896:	000003a7          	.insn	4, 0x03a7
    189a:	ad01                	j	1eaa <__stack_align+0x1e9a>
    189c:	02000003          	lb	zero,32(zero) # 20 <__stack_align+0x10>
    18a0:	0334                	addi	a3,sp,392
    18a2:	0000                	unimp
    18a4:	00010503          	lb	a0,0(sp)
    18a8:	0209                	addi	tp,tp,2 # 2 <__boot_hart+0x2>
    18aa:	1df6                	slli	s11,s11,0x3d
    18ac:	8000                	.insn	2, 0x8000
    18ae:	0000                	unimp
    18b0:	0000                	unimp
    18b2:	0515                	addi	a0,a0,5
    18b4:	0305                	addi	t1,t1,1
    18b6:	0901                	addi	s2,s2,0
    18b8:	0000                	unimp
    18ba:	0301                	addi	t1,t1,0
    18bc:	0901                	addi	s2,s2,0
    18be:	0000                	unimp
    18c0:	0301                	addi	t1,t1,0
    18c2:	0901                	addi	s2,s2,0
    18c4:	0000                	unimp
    18c6:	0301                	addi	t1,t1,0
    18c8:	0901                	addi	s2,s2,0
    18ca:	0000                	unimp
    18cc:	0301                	addi	t1,t1,0
    18ce:	0901                	addi	s2,s2,0
    18d0:	0000                	unimp
    18d2:	0301                	addi	t1,t1,0
    18d4:	0902                	c.slli64	s2
    18d6:	0000                	unimp
    18d8:	0501                	addi	a0,a0,0
    18da:	0601                	addi	a2,a2,0
    18dc:	00097903          	.insn	4, 0x00097903
    18e0:	0100                	addi	s0,sp,128
    18e2:	0505                	addi	a0,a0,1
    18e4:	02090703          	lb	a4,32(s2)
    18e8:	0100                	addi	s0,sp,128
    18ea:	0105                	addi	sp,sp,1
    18ec:	0e097903          	.insn	4, 0x0e097903
    18f0:	0100                	addi	s0,sp,128
    18f2:	0505                	addi	a0,a0,1
    18f4:	04090703          	lb	a4,64(s2)
    18f8:	0100                	addi	s0,sp,128
    18fa:	0306                	slli	t1,t1,0x1
    18fc:	0901                	addi	s2,s2,0
    18fe:	0006                	c.slli	zero,0x1
    1900:	0501                	addi	a0,a0,0
    1902:	0601                	addi	a2,a2,0
    1904:	06090103          	lb	sp,96(s2)
    1908:	0100                	addi	s0,sp,128
    190a:	0505                	addi	a0,a0,1
    190c:	04097f03          	.insn	4, 0x04097f03
    1910:	0100                	addi	s0,sp,128
    1912:	0105                	addi	sp,sp,1
    1914:	04090103          	lb	sp,64(s2)
    1918:	0100                	addi	s0,sp,128
    191a:	0505                	addi	a0,a0,1
    191c:	00097f03          	.insn	4, 0x00097f03
    1920:	0100                	addi	s0,sp,128
    1922:	0105                	addi	sp,sp,1
    1924:	02090103          	lb	sp,32(s2)
    1928:	0100                	addi	s0,sp,128
    192a:	0505                	addi	a0,a0,1
    192c:	02097f03          	.insn	4, 0x02097f03
    1930:	0100                	addi	s0,sp,128
    1932:	0409                	addi	s0,s0,2
    1934:	0000                	unimp
    1936:	0101                	addi	sp,sp,0
    1938:	0066                	c.slli	zero,0x19
    193a:	0000                	unimp
    193c:	0005                	c.nop	1
    193e:	0008                	.insn	2, 0x0008
    1940:	002e                	c.slli	zero,0xb
    1942:	0000                	unimp
    1944:	0101                	addi	sp,sp,0
    1946:	fb01                	bnez	a4,1856 <__stack_align+0x1846>
    1948:	0d0e                	slli	s10,s10,0x3
    194a:	0100                	addi	s0,sp,128
    194c:	0101                	addi	sp,sp,0
    194e:	0001                	nop
    1950:	0000                	unimp
    1952:	0001                	nop
    1954:	0100                	addi	s0,sp,128
    1956:	0101                	addi	sp,sp,0
    1958:	021f 020f 0000      	.insn	6, 0x020f021f
    195e:	036c                	addi	a1,sp,396
    1960:	0000                	unimp
    1962:	0102                	c.slli64	sp
    1964:	021f 020f 03be      	.insn	6, 0x03be020f021f
    196a:	0000                	unimp
    196c:	be01                	j	147c <__stack_align+0x146c>
    196e:	01000003          	lb	zero,16(zero) # 10 <__stack_align>
    1972:	0105                	addi	sp,sp,1
    1974:	0900                	addi	s0,sp,144
    1976:	2602                	fld	fa2,0(sp)
    1978:	001e                	c.slli	zero,0x7
    197a:	0080                	addi	s0,sp,64
    197c:	0000                	unimp
    197e:	1900                	addi	s0,sp,176
    1980:	0505                	addi	a0,a0,1
    1982:	00090103          	lb	sp,0(s2)
    1986:	0100                	addi	s0,sp,128
    1988:	0905                	addi	s2,s2,1
    198a:	0200                	addi	s0,sp,256
    198c:	0104                	addi	s1,sp,128
    198e:	00090103          	lb	sp,0(s2)
    1992:	0100                	addi	s0,sp,128
    1994:	0505                	addi	a0,a0,1
    1996:	04097f03          	.insn	4, 0x04097f03
    199a:	0100                	addi	s0,sp,128
    199c:	0209                	addi	tp,tp,2 # 2 <__boot_hart+0x2>
    199e:	0000                	unimp
    19a0:	0101                	addi	sp,sp,0
    19a2:	01f2                	slli	gp,gp,0x1c
    19a4:	0000                	unimp
    19a6:	0005                	c.nop	1
    19a8:	0008                	.insn	2, 0x0008
    19aa:	00000053          	fadd.s	ft0,ft0,ft0,rne
    19ae:	0101                	addi	sp,sp,0
    19b0:	fb01                	bnez	a4,18c0 <__stack_align+0x18b0>
    19b2:	0d0e                	slli	s10,s10,0x3
    19b4:	0100                	addi	s0,sp,128
    19b6:	0101                	addi	sp,sp,0
    19b8:	0001                	nop
    19ba:	0000                	unimp
    19bc:	0001                	nop
    19be:	0100                	addi	s0,sp,128
    19c0:	0101                	addi	sp,sp,0
    19c2:	051f 020f 0000      	.insn	6, 0x020f051f
    19c8:	036c                	addi	a1,sp,396
    19ca:	0000                	unimp
    19cc:	035a                	slli	t1,t1,0x16
    19ce:	0000                	unimp
    19d0:	000000ab          	.insn	4, 0x00ab
    19d4:	0114                	addi	a3,sp,128
    19d6:	0000                	unimp
    19d8:	0102                	c.slli64	sp
    19da:	021f 070f 03cd      	.insn	6, 0x03cd070f021f
    19e0:	0000                	unimp
    19e2:	cd01                	beqz	a0,19fa <__stack_align+0x19ea>
    19e4:	01000003          	lb	zero,16(zero) # 10 <__stack_align>
    19e8:	03d4                	addi	a3,sp,452
    19ea:	0000                	unimp
    19ec:	dd02                	sw	zero,184(sp)
    19ee:	02000003          	lb	zero,32(zero) # 20 <__stack_align+0x10>
    19f2:	01ec                	addi	a1,sp,204
    19f4:	0000                	unimp
    19f6:	0001fd03          	.insn	4, 0x0001fd03
    19fa:	0400                	addi	s0,sp,512
    19fc:	0365                	addi	t1,t1,25
    19fe:	0000                	unimp
    1a00:	0502                	c.slli64	a0
    1a02:	0001                	nop
    1a04:	0209                	addi	tp,tp,2 # 2 <__boot_hart+0x2>
    1a06:	1e2c                	addi	a1,sp,824
    1a08:	8000                	.insn	2, 0x8000
    1a0a:	0000                	unimp
    1a0c:	0000                	unimp
    1a0e:	05010c03          	lb	s8,80(sp)
    1a12:	0305                	addi	t1,t1,1
    1a14:	0901                	addi	s2,s2,0
    1a16:	0000                	unimp
    1a18:	0301                	addi	t1,t1,0
    1a1a:	0901                	addi	s2,s2,0
    1a1c:	0000                	unimp
    1a1e:	0301                	addi	t1,t1,0
    1a20:	0902                	c.slli64	s2
    1a22:	0000                	unimp
    1a24:	0501                	addi	a0,a0,0
    1a26:	0601                	addi	a2,a2,0
    1a28:	00097c03          	.insn	4, 0x00097c03
    1a2c:	0100                	addi	s0,sp,128
    1a2e:	0c05                	addi	s8,s8,1
    1a30:	02090403          	lb	s0,32(s2)
    1a34:	0100                	addi	s0,sp,128
    1a36:	0505                	addi	a0,a0,1
    1a38:	0306                	slli	t1,t1,0x1
    1a3a:	0901                	addi	s2,s2,0
    1a3c:	0002                	c.slli64	zero
    1a3e:	0501                	addi	a0,a0,0
    1a40:	060c                	addi	a1,sp,768
    1a42:	00090003          	lb	zero,0(s2)
    1a46:	0100                	addi	s0,sp,128
    1a48:	0505                	addi	a0,a0,1
    1a4a:	0306                	slli	t1,t1,0x1
    1a4c:	0901                	addi	s2,s2,0
    1a4e:	0002                	c.slli64	zero
    1a50:	0501                	addi	a0,a0,0
    1a52:	0608                	addi	a0,sp,768
    1a54:	00090303          	lb	t1,0(s2)
    1a58:	0100                	addi	s0,sp,128
    1a5a:	0c05                	addi	s8,s8,1
    1a5c:	04097d03          	.insn	4, 0x04097d03
    1a60:	0100                	addi	s0,sp,128
    1a62:	0505                	addi	a0,a0,1
    1a64:	0306                	slli	t1,t1,0x1
    1a66:	0901                	addi	s2,s2,0
    1a68:	0002                	c.slli64	zero
    1a6a:	0501                	addi	a0,a0,0
    1a6c:	0608                	addi	a0,sp,768
    1a6e:	00090203          	lb	tp,0(s2)
    1a72:	0100                	addi	s0,sp,128
    1a74:	0c05                	addi	s8,s8,1
    1a76:	02097e03          	.insn	4, 0x02097e03
    1a7a:	0100                	addi	s0,sp,128
    1a7c:	0505                	addi	a0,a0,1
    1a7e:	0306                	slli	t1,t1,0x1
    1a80:	0902                	c.slli64	s2
    1a82:	0002                	c.slli64	zero
    1a84:	0501                	addi	a0,a0,0
    1a86:	0608                	addi	a0,sp,768
    1a88:	00090003          	lb	zero,0(s2)
    1a8c:	0100                	addi	s0,sp,128
    1a8e:	0505                	addi	a0,a0,1
    1a90:	0306                	slli	t1,t1,0x1
    1a92:	0901                	addi	s2,s2,0
    1a94:	0004                	.insn	2, 0x0004
    1a96:	0401                	addi	s0,s0,0
    1a98:	0602                	c.slli64	a2
    1a9a:	04091503          	lh	a0,64(s2)
    1a9e:	0100                	addi	s0,sp,128
    1aa0:	0304                	addi	s1,sp,384
    1aa2:	1005                	c.nop	-31
    1aa4:	0200                	addi	s0,sp,256
    1aa6:	0104                	addi	s1,sp,128
    1aa8:	0306                	slli	t1,t1,0x1
    1aaa:	0964                	addi	s1,sp,156
    1aac:	0002                	c.slli64	zero
    1aae:	0401                	addi	s0,s0,0
    1ab0:	0502                	c.slli64	a0
    1ab2:	0305                	addi	t1,t1,1
    1ab4:	0910                	addi	a2,sp,144
    1ab6:	0000                	unimp
    1ab8:	0501                	addi	a0,a0,0
    1aba:	060c                	addi	a1,sp,768
    1abc:	00090003          	lb	zero,0(s2)
    1ac0:	0100                	addi	s0,sp,128
    1ac2:	0304                	addi	s1,sp,384
    1ac4:	1005                	c.nop	-31
    1ac6:	0200                	addi	s0,sp,256
    1ac8:	0104                	addi	s1,sp,128
    1aca:	02097003          	.insn	4, 0x02097003
    1ace:	0100                	addi	s0,sp,128
    1ad0:	0e05                	addi	t3,t3,1
    1ad2:	0306                	slli	t1,t1,0x1
    1ad4:	0902                	c.slli64	s2
    1ad6:	0002                	c.slli64	zero
    1ad8:	0401                	addi	s0,s0,0
    1ada:	0502                	c.slli64	a0
    1adc:	0305                	addi	t1,t1,1
    1ade:	0918                	addi	a4,sp,144
    1ae0:	0000                	unimp
    1ae2:	0301                	addi	t1,t1,0
    1ae4:	0902                	c.slli64	s2
    1ae6:	0000                	unimp
    1ae8:	0301                	addi	t1,t1,0
    1aea:	090d                	addi	s2,s2,3
    1aec:	0004                	.insn	2, 0x0004
    1aee:	0401                	addi	s0,s0,0
    1af0:	000e0503          	lb	a0,0(t3)
    1af4:	0402                	c.slli64	s0
    1af6:	0601                	addi	a2,a2,0
    1af8:	00095903          	lhu	s2,0(s2)
    1afc:	0100                	addi	s0,sp,128
    1afe:	0104                	addi	s1,sp,128
    1b00:	0505                	addi	a0,a0,1
    1b02:	0306                	slli	t1,t1,0x1
    1b04:	0906                	slli	s2,s2,0x1
    1b06:	0002                	c.slli64	zero
    1b08:	0401                	addi	s0,s0,0
    1b0a:	0502                	c.slli64	a0
    1b0c:	0320                	addi	s0,sp,392
    1b0e:	097e                	slli	s2,s2,0x1f
    1b10:	0000                	unimp
    1b12:	0401                	addi	s0,s0,0
    1b14:	0501                	addi	a0,a0,0
    1b16:	0305                	addi	t1,t1,1
    1b18:	00040903          	lb	s2,0(s0)
    1b1c:	0501                	addi	a0,a0,0
    1b1e:	060c                	addi	a1,sp,768
    1b20:	00090003          	lb	zero,0(s2)
    1b24:	0100                	addi	s0,sp,128
    1b26:	0505                	addi	a0,a0,1
    1b28:	0306                	slli	t1,t1,0x1
    1b2a:	0901                	addi	s2,s2,0
    1b2c:	000a                	c.slli	zero,0x2
    1b2e:	0501                	addi	a0,a0,0
    1b30:	0015                	c.nop	5
    1b32:	0402                	c.slli64	s0
    1b34:	0301                	addi	t1,t1,0
    1b36:	0900                	addi	s0,sp,144
    1b38:	0000                	unimp
    1b3a:	0501                	addi	a0,a0,0
    1b3c:	0305                	addi	t1,t1,1
    1b3e:	0901                	addi	s2,s2,0
    1b40:	0004                	.insn	2, 0x0004
    1b42:	0501                	addi	a0,a0,0
    1b44:	060e                	slli	a2,a2,0x3
    1b46:	00090003          	lb	zero,0(s2)
    1b4a:	0100                	addi	s0,sp,128
    1b4c:	0505                	addi	a0,a0,1
    1b4e:	0306                	slli	t1,t1,0x1
    1b50:	0901                	addi	s2,s2,0
    1b52:	0008                	.insn	2, 0x0008
    1b54:	0401                	addi	s0,s0,0
    1b56:	097b0303          	lb	t1,151(s6) # fffffffffffe0097 <__heap_end+0xffffffff7ffbd097>
    1b5a:	0000                	unimp
    1b5c:	0401                	addi	s0,s0,0
    1b5e:	0302                	c.slli64	t1
    1b60:	0928                	addi	a0,sp,152
    1b62:	0000                	unimp
    1b64:	0401                	addi	s0,s0,0
    1b66:	0301                	addi	t1,t1,0
    1b68:	095f 0004 0401      	.insn	6, 0x04010004095f
    1b6e:	0502                	c.slli64	a0
    1b70:	0320                	addi	s0,sp,392
    1b72:	00000977          	.insn	4, 0x0977
    1b76:	0401                	addi	s0,s0,0
    1b78:	0501                	addi	a0,a0,0
    1b7a:	0305                	addi	t1,t1,1
    1b7c:	090a                	slli	s2,s2,0x2
    1b7e:	0004                	.insn	2, 0x0004
    1b80:	0501                	addi	a0,a0,0
    1b82:	0003060f          	.insn	4, 0x0003060f
    1b86:	0009                	c.nop	2
    1b88:	0100                	addi	s0,sp,128
    1b8a:	0105                	addi	sp,sp,1
    1b8c:	02090103          	lb	sp,32(s2)
    1b90:	0100                	addi	s0,sp,128
    1b92:	0409                	addi	s0,s0,2
    1b94:	0000                	unimp
    1b96:	0101                	addi	sp,sp,0
    1b98:	000000bb          	addw	ra,zero,zero
    1b9c:	0005                	c.nop	1
    1b9e:	0008                	.insn	2, 0x0008
    1ba0:	0049                	c.nop	18
    1ba2:	0000                	unimp
    1ba4:	0101                	addi	sp,sp,0
    1ba6:	fb01                	bnez	a4,1ab6 <__stack_align+0x1aa6>
    1ba8:	0d0e                	slli	s10,s10,0x3
    1baa:	0100                	addi	s0,sp,128
    1bac:	0101                	addi	sp,sp,0
    1bae:	0001                	nop
    1bb0:	0000                	unimp
    1bb2:	0001                	nop
    1bb4:	0100                	addi	s0,sp,128
    1bb6:	0101                	addi	sp,sp,0
    1bb8:	051f 020f 0000      	.insn	6, 0x020f051f
    1bbe:	0266                	slli	tp,tp,0x19
    1bc0:	0000                	unimp
    1bc2:	000000ab          	.insn	4, 0x00ab
    1bc6:	0114                	addi	a3,sp,128
    1bc8:	0000                	unimp
    1bca:	035a                	slli	t1,t1,0x16
    1bcc:	0000                	unimp
    1bce:	0102                	c.slli64	sp
    1bd0:	021f 050f 03ef      	.insn	6, 0x03ef050f021f
    1bd6:	0000                	unimp
    1bd8:	ef01                	bnez	a4,1bf0 <__stack_align+0x1be0>
    1bda:	01000003          	lb	zero,16(zero) # 10 <__stack_align>
    1bde:	01ec                	addi	a1,sp,204
    1be0:	0000                	unimp
    1be2:	fd02                	sd	zero,184(sp)
    1be4:	0001                	nop
    1be6:	0300                	addi	s0,sp,384
    1be8:	0365                	addi	t1,t1,25
    1bea:	0000                	unimp
    1bec:	0504                	addi	s1,sp,640
    1bee:	0001                	nop
    1bf0:	0209                	addi	tp,tp,2 # 2 <__boot_hart+0x2>
    1bf2:	1e78                	addi	a4,sp,828
    1bf4:	8000                	.insn	2, 0x8000
    1bf6:	0000                	unimp
    1bf8:	0000                	unimp
    1bfa:	0516                	slli	a0,a0,0x5
    1bfc:	0305                	addi	t1,t1,1
    1bfe:	0901                	addi	s2,s2,0
    1c00:	0000                	unimp
    1c02:	0501                	addi	a0,a0,0
    1c04:	0614                	addi	a3,sp,768
    1c06:	00090003          	lb	zero,0(s2)
    1c0a:	0100                	addi	s0,sp,128
    1c0c:	0e05                	addi	t3,t3,1
    1c0e:	0a090003          	lb	zero,160(s2)
    1c12:	0100                	addi	s0,sp,128
    1c14:	0505                	addi	a0,a0,1
    1c16:	0306                	slli	t1,t1,0x1
    1c18:	0901                	addi	s2,s2,0
    1c1a:	000c                	.insn	2, 0x000c
    1c1c:	0501                	addi	a0,a0,0
    1c1e:	0309                	addi	t1,t1,2
    1c20:	0901                	addi	s2,s2,0
    1c22:	0000                	unimp
    1c24:	0501                	addi	a0,a0,0
    1c26:	0612                	slli	a2,a2,0x4
    1c28:	00090003          	lb	zero,0(s2)
    1c2c:	0100                	addi	s0,sp,128
    1c2e:	0905                	addi	s2,s2,1
    1c30:	0200                	addi	s0,sp,256
    1c32:	0104                	addi	s1,sp,128
    1c34:	0306                	slli	t1,t1,0x1
    1c36:	0901                	addi	s2,s2,0
    1c38:	0008                	.insn	2, 0x0008
    1c3a:	0501                	addi	a0,a0,0
    1c3c:	0010                	.insn	2, 0x0010
    1c3e:	0402                	c.slli64	s0
    1c40:	0601                	addi	a2,a2,0
    1c42:	00090003          	lb	zero,0(s2)
    1c46:	0100                	addi	s0,sp,128
    1c48:	0505                	addi	a0,a0,1
    1c4a:	0306                	slli	t1,t1,0x1
    1c4c:	097e                	slli	s2,s2,0x1f
    1c4e:	0002                	c.slli64	zero
    1c50:	0901                	addi	s2,s2,0
    1c52:	0002                	c.slli64	zero
    1c54:	0100                	addi	s0,sp,128
    1c56:	Address 0x1c56 is out of bounds.


Disassembly of section .debug_str:

0000000000000000 <.debug_str>:
   0:	6261                	lui	tp,0x18
   2:	7479                	lui	s0,0xffffe
   4:	7365                	lui	t1,0xffff9
   6:	5f00                	lw	s0,56(a4)
   8:	755f 6e69 3874      	.insn	6, 0x38746e69755f
   e:	745f 6600 6569      	.insn	6, 0x65696600745f
  14:	646c                	ld	a1,200(s0)
  16:	5f5f0073          	.insn	4, 0x5f5f0073
  1a:	6975                	lui	s2,0x1d
  1c:	746e                	ld	s0,248(sp)
  1e:	7470                	ld	a2,232(s0)
  20:	5f72                	lw	t5,60(sp)
  22:	0074                	addi	a3,sp,12
  24:	6574                	ld	a3,200(a0)
  26:	6c5f7473          	csrrci	s0,0x6c5,30
  2a:	6e65                	lui	t3,0x19
  2c:	6100                	ld	s0,0(a0)
  2e:	6464                	ld	s1,200(s0)
  30:	5f72                	lw	t5,60(sp)
  32:	656c                	ld	a1,200(a0)
  34:	006e                	c.slli	zero,0x1b
  36:	6572                	ld	a0,280(sp)
  38:	72775f67          	.insn	4, 0x72775f67
  3c:	7469                	lui	s0,0xffffa
  3e:	3365                	addiw	t1,t1,-7 # ffffffffffff8ff9 <__heap_end+0xffffffff7ffd5ff9>
  40:	0032                	c.slli	zero,0xc
  42:	726f6873          	csrrsi	a6,mhpmevent6h,30
  46:	2074                	fld	fa3,192(s0)
  48:	6e69                	lui	t3,0x1a
  4a:	0074                	addi	a3,sp,12
  4c:	63656863          	bltu	a0,s6,67c <__stack_align+0x66c>
  50:	657a006b          	.insn	4, 0x657a006b
  54:	6f72                	ld	t5,280(sp)
  56:	7300                	ld	s0,32(a4)
  58:	6970                	ld	a2,208(a0)
  5a:	665f 746d 6300      	.insn	6, 0x6300746d665f
  60:	646d                	lui	s0,0x1b
  62:	635f 646f 0065      	.insn	6, 0x0065646f635f
  68:	6f69                	lui	t5,0x1a
  6a:	6964                	ld	s1,208(a0)
  6c:	0072                	c.slli	zero,0x1c
  6e:	6574                	ld	a3,200(a0)
  70:	645f7473          	csrrci	s0,hvip,30
  74:	7461                	lui	s0,0xffff8
  76:	0061                	c.nop	24
  78:	5f646d63          	bltu	s0,s6,672 <__stack_align+0x662>
  7c:	6e65                	lui	t3,0x19
  7e:	6100                	ld	s0,0(a0)
  80:	6464                	ld	s1,200(s0)
  82:	0072                	c.slli	zero,0x1c
  84:	5f646d63          	bltu	s0,s6,67e <__stack_align+0x66e>
  88:	7270                	ld	a2,224(a2)
  8a:	006f746f          	jal	s0,f7090 <__heap_size+0xd7090>
  8e:	6e75                	lui	t3,0x1d
  90:	6e676973          	csrrsi	s2,0x6e6,14
  94:	6465                	lui	s0,0x19
  96:	6320                	ld	s0,64(a4)
  98:	6168                	ld	a0,192(a0)
  9a:	0072                	c.slli	zero,0x1c
  9c:	7064                	ld	s1,224(s0)
  9e:	6f72                	ld	t5,280(sp)
  a0:	6f74                	ld	a3,216(a4)
  a2:	5f00                	lw	s0,56(a4)
  a4:	755f 6e69 3374      	.insn	6, 0x33746e69755f
  aa:	5f32                	lw	t5,44(sp)
  ac:	0074                	addi	a3,sp,12
  ae:	6e65                	lui	t3,0x19
  b0:	6964                	ld	s1,208(a0)
  b2:	6e61                	lui	t3,0x18
  b4:	7400                	ld	s0,40(s0)
  b6:	7365                	lui	t1,0xffff9
  b8:	5f74                	lw	a3,124(a4)
  ba:	66697073          	csrci	0x666,18
  be:	616c                	ld	a1,192(a0)
  c0:	70006873          	csrrsi	a6,0x700,0
  c4:	6461                	lui	s0,0x18
  c6:	635f 746e 6c00      	.insn	6, 0x6c00746e635f
  cc:	20676e6f          	jal	t3,762d2 <__heap_size+0x562d2>
  d0:	6f6c                	ld	a1,216(a4)
  d2:	676e                	ld	a4,216(sp)
  d4:	7520                	ld	s0,104(a0)
  d6:	736e                	ld	t1,248(sp)
  d8:	6769                	lui	a4,0x1a
  da:	656e                	ld	a0,216(sp)
  dc:	2064                	fld	fs1,192(s0)
  de:	6e69                	lui	t3,0x1a
  e0:	0074                	addi	a3,sp,12
  e2:	6461                	lui	s0,0x18
  e4:	7264                	ld	s1,224(a2)
  e6:	705f 6f72 6f74      	.insn	6, 0x6f746f72705f
  ec:	7200                	ld	s0,32(a2)
  ee:	6765                	lui	a4,0x19
  f0:	725f 6165 3364      	.insn	6, 0x33646165725f
  f6:	0032                	c.slli	zero,0xc
  f8:	726f6873          	csrrsi	a6,mhpmevent6h,30
  fc:	2074                	fld	fa3,192(s0)
  fe:	6e75                	lui	t3,0x1d
 100:	6e676973          	csrrsi	s2,0x6e6,14
 104:	6465                	lui	s0,0x19
 106:	6920                	ld	s0,80(a0)
 108:	746e                	ld	s0,248(sp)
 10a:	6c00                	ld	s0,24(s0)
 10c:	20676e6f          	jal	t3,76312 <__heap_size+0x56312>
 110:	6f6c                	ld	a1,216(a4)
 112:	676e                	ld	a4,216(sp)
 114:	6920                	ld	s0,80(a0)
 116:	746e                	ld	s0,248(sp)
 118:	6200                	ld	s0,0(a2)
 11a:	7469                	lui	s0,0xffffa
 11c:	61700073          	.insn	4, 0x61700073
 120:	5f64                	lw	s1,124(a4)
 122:	65646f63          	bltu	s0,s6,780 <__stack_align+0x770>
 126:	7300                	ld	s0,32(a4)
 128:	6970                	ld	a2,208(a0)
 12a:	6c66                	ld	s8,88(sp)
 12c:	7361                	lui	t1,0xffff8
 12e:	5f68                	lw	a0,124(a4)
 130:	6666                	ld	a2,88(sp)
 132:	746d                	lui	s0,0xffffb
 134:	7300                	ld	s0,32(a4)
 136:	6970                	ld	a2,208(a0)
 138:	645f 7461 5f61      	.insn	6, 0x5f617461645f
 13e:	74697277          	.insn	4, 0x74697277
 142:	0065                	c.nop	25
 144:	63656863          	bltu	a0,s6,774 <__stack_align+0x764>
 148:	0032336b          	.insn	4, 0x0032336b
 14c:	666e6f63          	bltu	t3,t1,7ca <__stack_align+0x7ba>
 150:	6769                	lui	a4,0x1a
 152:	7275                	lui	tp,0xffffd
 154:	5f65                	li	t5,-7
 156:	66697073          	csrci	0x666,18
 15a:	616c                	ld	a1,192(a0)
 15c:	63006873          	csrrsi	a6,0x630,0
 160:	6568                	ld	a0,200(a0)
 162:	775f6b63          	bltu	t5,s5,8d8 <__stack_align+0x8c8>
 166:	6972                	ld	s2,280(sp)
 168:	6574                	ld	a3,200(a0)
 16a:	7700                	ld	s0,40(a4)
 16c:	6972                	ld	s2,280(sp)
 16e:	6574                	ld	a3,200(a0)
 170:	735f 6970 6c66      	.insn	6, 0x6c666970735f
 176:	7361                	lui	t1,0xffff8
 178:	0068                	addi	a0,sp,12
 17a:	7061                	c.lui	zero,0xffff8
 17c:	6f72                	ld	t5,280(sp)
 17e:	6f74                	ld	a3,216(a4)
 180:	4700                	lw	s0,8(a4)
 182:	554e                	lw	a0,240(sp)
 184:	4320                	lw	s0,64(a4)
 186:	3939                	addiw	s2,s2,-18 # 1cfee <__stack_size+0x14fee>
 188:	3120                	fld	fs0,96(a0)
 18a:	2e322e33          	.insn	4, 0x2e322e33
 18e:	2030                	fld	fa2,64(s0)
 190:	6d2d                	lui	s10,0xb
 192:	646f6d63          	bltu	t5,t1,7ec <__stack_align+0x7dc>
 196:	6c65                	lui	s8,0x19
 198:	6d3d                	lui	s10,0xf
 19a:	6465                	lui	s0,0x19
 19c:	6e61                	lui	t3,0x18
 19e:	2079                	.insn	2, 0x2079
 1a0:	6d2d                	lui	s10,0xb
 1a2:	6261                	lui	tp,0x18
 1a4:	3d69                	addiw	s10,s10,-6 # affa <__stack_size+0x2ffa>
 1a6:	706c                	ld	a1,224(s0)
 1a8:	3436                	fld	fs0,360(sp)
 1aa:	2064                	fld	fs1,192(s0)
 1ac:	6d2d                	lui	s10,0xb
 1ae:	646f6d63          	bltu	t5,t1,808 <__stack_align+0x7f8>
 1b2:	6c65                	lui	s8,0x19
 1b4:	6d3d                	lui	s10,0xf
 1b6:	6465                	lui	s0,0x19
 1b8:	6e61                	lui	t3,0x18
 1ba:	2079                	.insn	2, 0x2079
 1bc:	6d2d                	lui	s10,0xb
 1be:	7574                	ld	a3,232(a0)
 1c0:	656e                	ld	a0,216(sp)
 1c2:	723d                	lui	tp,0xfffef
 1c4:	656b636f          	jal	t1,b681a <__heap_size+0x9681a>
 1c8:	2074                	fld	fa3,192(s0)
 1ca:	6d2d                	lui	s10,0xb
 1cc:	7369                	lui	t1,0xffffa
 1ce:	2d61                	addiw	s10,s10,24 # b018 <__stack_size+0x3018>
 1d0:	63657073          	csrci	0x636,10
 1d4:	323d                	addiw	tp,tp,-17 # fffffffffffeefef <__heap_end+0xffffffff7ffcbfef>
 1d6:	3130                	fld	fa2,96(a0)
 1d8:	3139                	addiw	sp,sp,-18
 1da:	3132                	fld	ft2,296(sp)
 1dc:	6d2d2033          	.insn	4, 0x6d2d2033
 1e0:	7261                	lui	tp,0xffff8
 1e2:	723d6863          	bltu	s10,gp,912 <__stack_align+0x902>
 1e6:	3676                	fld	fa2,376(sp)
 1e8:	6934                	ld	a3,80(a0)
 1ea:	616d                	addi	sp,sp,240
 1ec:	6466                	ld	s0,88(sp)
 1ee:	7a5f 6369 7273      	.insn	6, 0x727363697a5f
 1f4:	2d20                	fld	fs0,88(a0)
 1f6:	4f2d2067          	.insn	4, 0x4f2d2067
 1fa:	2032                	fld	ft0,264(sp)
 1fc:	732d                	lui	t1,0xfffeb
 1fe:	6474                	ld	a3,200(s0)
 200:	673d                	lui	a4,0xf
 202:	756e                	ld	a0,248(sp)
 204:	3939                	addiw	s2,s2,-18
 206:	2d20                	fld	fs0,88(a0)
 208:	6e66                	ld	t3,88(sp)
 20a:	6f632d6f          	jal	s10,32900 <__heap_size+0x12900>
 20e:	6d6d                	lui	s10,0x1b
 210:	2d206e6f          	jal	t3,64e2 <__stack_size_min+0x4e2>
 214:	6e66                	ld	t3,88(sp)
 216:	75622d6f          	jal	s10,2296c <__heap_size+0x296c>
 21a:	6c69                	lui	s8,0x1a
 21c:	6974                	ld	a3,208(a0)
 21e:	2d6e                	fld	fs10,216(sp)
 220:	7270                	ld	a2,224(a2)
 222:	6e69                	lui	t3,0x1a
 224:	6674                	ld	a3,200(a2)
 226:	6400                	ld	s0,8(s0)
 228:	7461                	lui	s0,0xffff8
 22a:	5f61                	li	t5,-8
 22c:	7270                	ld	a2,224(a2)
 22e:	006f746f          	jal	s0,f7234 <__heap_size+0xd7234>
 232:	635f 6f6c 6573      	.insn	6, 0x65736f6c635f
 238:	6600                	ld	s0,8(a2)
 23a:	6c69                	lui	s8,0x1a
 23c:	0065                	c.nop	25
 23e:	20554e47          	fmsub.s	ft8,fa0,ft5,ft4,rmm
 242:	20313143          	fmadd.s	ft2,ft2,ft3,ft4,rup
 246:	3331                	addiw	t1,t1,-20 # fffffffffffeafec <__heap_end+0xffffffff7ffc7fec>
 248:	322e                	fld	ft4,232(sp)
 24a:	302e                	fld	ft0,232(sp)
 24c:	2d20                	fld	fs0,88(a0)
 24e:	636d                	lui	t1,0x1b
 250:	6f6d                	lui	t5,0x1b
 252:	6564                	ld	s1,200(a0)
 254:	3d6c                	fld	fa1,248(a0)
 256:	656d                	lui	a0,0x1b
 258:	6164                	ld	s1,192(a0)
 25a:	796e                	ld	s2,248(sp)
 25c:	2d20                	fld	fs0,88(a0)
 25e:	746d                	lui	s0,0xffffb
 260:	6e75                	lui	t3,0x1d
 262:	3d65                	addiw	s10,s10,-7 # 1aff9 <__stack_size+0x12ff9>
 264:	6f72                	ld	t5,280(sp)
 266:	74656b63          	bltu	a0,t1,9bc <__stack_align+0x9ac>
 26a:	2d20                	fld	fs0,88(a0)
 26c:	616d                	addi	sp,sp,240
 26e:	6962                	ld	s2,24(sp)
 270:	6c3d                	lui	s8,0xf
 272:	3670                	fld	fa2,232(a2)
 274:	6434                	ld	a3,72(s0)
 276:	2d20                	fld	fs0,88(a0)
 278:	696d                	lui	s2,0x1b
 27a:	732d6173          	csrrsi	sp,mhpmevent18h,26
 27e:	6570                	ld	a2,200(a0)
 280:	30323d63          	.insn	4, 0x30323d63
 284:	3931                	addiw	s2,s2,-20 # 1afec <__stack_size+0x12fec>
 286:	3231                	addiw	tp,tp,-20 # ffffffffffff7fec <__heap_end+0xffffffff7ffd4fec>
 288:	3331                	addiw	t1,t1,-20 # 1afec <__stack_size+0x12fec>
 28a:	2d20                	fld	fs0,88(a0)
 28c:	616d                	addi	sp,sp,240
 28e:	6372                	ld	t1,280(sp)
 290:	3d68                	fld	fa0,248(a0)
 292:	7672                	ld	a2,312(sp)
 294:	3436                	fld	fs0,360(sp)
 296:	6d69                	lui	s10,0x1a
 298:	6661                	lui	a2,0x18
 29a:	6364                	ld	s1,192(a4)
 29c:	7a5f 6369 7273      	.insn	6, 0x727363697a5f
 2a2:	2d20                	fld	fs0,88(a0)
 2a4:	4f2d2067          	.insn	4, 0x4f2d2067
 2a8:	2032                	fld	ft0,264(sp)
 2aa:	732d                	lui	t1,0xfffeb
 2ac:	6474                	ld	a3,200(s0)
 2ae:	633d                	lui	t1,0xf
 2b0:	3131                	addiw	sp,sp,-20
 2b2:	2d20                	fld	fs0,88(a0)
 2b4:	6e66                	ld	t3,88(sp)
 2b6:	6f632d6f          	jal	s10,329ac <__heap_size+0x129ac>
 2ba:	6d6d                	lui	s10,0x1b
 2bc:	2d206e6f          	jal	t3,658e <__stack_size_min+0x58e>
 2c0:	6e66                	ld	t3,88(sp)
 2c2:	75622d6f          	jal	s10,22a18 <__heap_size+0x2a18>
 2c6:	6c69                	lui	s8,0x1a
 2c8:	6974                	ld	a3,208(a0)
 2ca:	006e                	c.slli	zero,0x1b
 2cc:	5f5f 7265 6e72      	.insn	6, 0x6e7272655f5f
 2d2:	6f6c006f          	j	c09c8 <__heap_size+0xa09c8>
 2d6:	676e                	ld	a4,216(sp)
 2d8:	6420                	ld	s0,72(s0)
 2da:	6c62756f          	jal	a0,279a0 <__heap_size+0x79a0>
 2de:	0065                	c.nop	25
 2e0:	5f5f 6975 5f64      	.insn	6, 0x5f6469755f5f
 2e6:	0074                	addi	a3,sp,12
 2e8:	6e5f7473          	csrrci	s0,0x6e5,30
 2ec:	696c                	ld	a1,208(a0)
 2ee:	6b6e                	ld	s6,216(sp)
 2f0:	7400                	ld	s0,40(s0)
 2f2:	5f76                	lw	t5,124(sp)
 2f4:	736e                	ld	t1,248(sp)
 2f6:	6365                	lui	t1,0x19
 2f8:	7300                	ld	s0,32(a4)
 2fa:	5f74                	lw	a3,124(a4)
 2fc:	657a6973          	csrrsi	s2,hviprio2h,20
 300:	7300                	ld	s0,32(a4)
 302:	5f74                	lw	a3,124(a4)
 304:	746d                	lui	s0,0xffffb
 306:	6d69                	lui	s10,0x1a
 308:	7300                	ld	s0,32(a4)
 30a:	5f74                	lw	a3,124(a4)
 30c:	6e69                	lui	t3,0x1a
 30e:	7473006f          	j	31254 <__heap_size+0x11254>
 312:	625f 6b6c 6973      	.insn	6, 0x69736b6c625f
 318:	657a                	ld	a0,408(sp)
 31a:	7300                	ld	s0,32(a4)
 31c:	5f74                	lw	a3,124(a4)
 31e:	72617073          	csrci	mhpmevent6h,2
 322:	3465                	addiw	s0,s0,-7 # ffffffffffffaff9 <__heap_end+0xffffffff7ffd7ff9>
 324:	5f00                	lw	s0,56(a4)
 326:	645f 7665 745f      	.insn	6, 0x745f7665645f
 32c:	7300                	ld	s0,32(a4)
 32e:	5f74                	lw	a3,124(a4)
 330:	6c62                	ld	s8,24(sp)
 332:	736b636f          	jal	t1,b6a68 <__heap_size+0x96a68>
 336:	7300                	ld	s0,32(a4)
 338:	5f74                	lw	a3,124(a4)
 33a:	6f6d                	lui	t5,0x1b
 33c:	6564                	ld	s1,200(a0)
 33e:	7300                	ld	s0,32(a4)
 340:	5f74                	lw	a3,124(a4)
 342:	7461                	lui	s0,0xffff8
 344:	6d69                	lui	s10,0x1a
 346:	7400                	ld	s0,40(s0)
 348:	6d69                	lui	s10,0x1a
 34a:	5f65                	li	t5,-7
 34c:	0074                	addi	a3,sp,12
 34e:	5f5f 6c6e 6e69      	.insn	6, 0x6e696c6e5f5f
 354:	00745f6b          	.insn	4, 0x00745f6b
 358:	725f7473          	csrrci	s0,mhpmevent5h,30
 35c:	6564                	ld	s1,200(a0)
 35e:	0076                	c.slli	zero,0x1d
 360:	5f5f 6c62 736b      	.insn	6, 0x736b6c625f5f
 366:	7a69                	lui	s4,0xffffa
 368:	5f65                	li	t5,-7
 36a:	0074                	addi	a3,sp,12
 36c:	5f5f 6c62 636b      	.insn	6, 0x636b6c625f5f
 372:	746e                	ld	s0,248(sp)
 374:	745f 7300 5f74      	.insn	6, 0x5f747300745f
 37a:	6d697463          	bgeu	s2,s6,a42 <__stack_align+0xa32>
 37e:	7300                	ld	s0,32(a4)
 380:	5f74                	lw	a3,124(a4)
 382:	6975                	lui	s2,0x1d
 384:	0064                	addi	s1,sp,12
 386:	5f5f 6967 5f64      	.insn	6, 0x5f6469675f5f
 38c:	0074                	addi	a3,sp,12
 38e:	5f5f 666f 5f66      	.insn	6, 0x5f66666f5f5f
 394:	0074                	addi	a3,sp,12
 396:	7674                	ld	a3,232(a2)
 398:	735f 6365 7400      	.insn	6, 0x74006365735f
 39e:	6d69                	lui	s10,0x1a
 3a0:	7365                	lui	t1,0xffff9
 3a2:	6570                	ld	a2,200(a0)
 3a4:	665f0063          	beq	t5,t0,a04 <__stack_align+0x9f4>
 3a8:	74617473          	csrrci	s0,0x746,2
 3ac:	5f00                	lw	s0,56(a4)
 3ae:	6d5f 646f 5f65      	.insn	6, 0x5f65646f6d5f
 3b4:	0074                	addi	a3,sp,12
 3b6:	5f5f 6e69 5f6f      	.insn	6, 0x5f6f6e695f5f
 3bc:	0074                	addi	a3,sp,12
 3be:	645f7473          	csrrci	s0,hvip,30
 3c2:	7665                	lui	a2,0xffff9
 3c4:	7300                	ld	s0,32(a4)
 3c6:	5f74                	lw	a3,124(a4)
 3c8:	00646967          	.insn	4, 0x00646967
 3cc:	695f 6173 7474      	.insn	6, 0x74746173695f
 3d2:	0079                	c.nop	30
 3d4:	6c5f 6573 6b65      	.insn	6, 0x6b6565736c5f
 3da:	5f00                	lw	s0,56(a4)
 3dc:	6572                	ld	a0,280(sp)
 3de:	6461                	lui	s0,0x18
 3e0:	5f00                	lw	s0,56(a4)
 3e2:	7a697373          	csrrci	t1,0x7a6,18
 3e6:	5f65                	li	t5,-7
 3e8:	0074                	addi	a3,sp,12
 3ea:	7470                	ld	a2,232(s0)
 3ec:	6472                	ld	s0,280(sp)
 3ee:	6669                	lui	a2,0x1a
 3f0:	5f66                	lw	t5,120(sp)
 3f2:	0074                	addi	a3,sp,12
 3f4:	5f5f 6568 7061      	.insn	6, 0x706165685f5f
 3fa:	655f 646e 6300      	.insn	6, 0x6300646e655f
 400:	7275                	lui	tp,0xffffd
 402:	7262                	ld	tp,56(sp)
 404:	735f006b          	.insn	4, 0x735f006b
 408:	7262                	ld	tp,56(sp)
 40a:	6e69006b          	.insn	4, 0x6e69006b
 40e:	6f007263          	bgeu	zero,a6,af2 <__stack_align+0xae2>
 412:	646c                	ld	a1,200(s0)
 414:	7262                	ld	tp,56(sp)
 416:	656e006b          	.insn	4, 0x656e006b
 41a:	6b726277          	.insn	4, 0x6b726277
 41e:	6800                	ld	s0,16(s0)
 420:	6974                	ld	a3,208(a0)
 422:	5f66                	lw	t5,120(sp)
 424:	63737973          	csrrci	s2,0x637,6
 428:	6c61                	lui	s8,0x18
 42a:	006c                	addi	a1,sp,12
 42c:	5f5f 6975 746e      	.insn	6, 0x746e69755f5f
 432:	3436                	fld	fs0,360(sp)
 434:	745f 2e00 2f2e      	.insn	6, 0x2f2e2e00745f
 43a:	696d                	lui	s2,0x1b
 43c:	632f6373          	csrrsi	t1,0x632,30
 440:	7472                	ld	s0,312(sp)
 442:	2e30                	fld	fa2,88(a2)
 444:	682f0053          	.insn	4, 0x682f0053
 448:	2f656d6f          	jal	s10,5673e <__heap_size+0x3673e>
 44c:	7266                	ld	tp,120(sp)
 44e:	6e61                	lui	t3,0x18
 450:	65682f6b          	.insn	4, 0x65682f6b
 454:	742f6c73          	csrrsi	s8,0x742,30
 458:	7365                	lui	t1,0xffff9
 45a:	5f74                	lw	a3,124(a4)
 45c:	6972                	ld	s2,280(sp)
 45e:	2f766373          	csrrsi	t1,0x2f7,12
 462:	70696863          	bltu	s2,t1,b72 <__stack_align+0xb62>
 466:	6179                	addi	sp,sp,464
 468:	6472                	ld	s0,280(sp)
 46a:	6968632f          	.insn	4, 0x6968632f
 46e:	7970                	ld	a2,240(a0)
 470:	7261                	lui	tp,0xffff8
 472:	2f64                	fld	fs1,216(a4)
 474:	6f74                	ld	a3,216(a4)
 476:	68636c6f          	jal	s8,36afc <__heap_size+0x16afc>
 47a:	6961                	lui	s2,0x18
 47c:	736e                	ld	t1,248(sp)
 47e:	62696c2f          	.insn	4, 0x62696c2f
 482:	736f6c67          	.insn	4, 0x736f6c67
 486:	75622f73          	csrrs	t5,0x756,tp
 48a:	6c69                	lui	s8,0x1a
 48c:	0064                	addi	s1,sp,12
 48e:	20554e47          	fmsub.s	ft8,fa0,ft5,ft4,rmm
 492:	5341                	li	t1,-16
 494:	3220                	fld	fs0,96(a2)
 496:	342e                	fld	fs0,232(sp)
 498:	0032                	c.slli	zero,0xc
 49a:	2e2e                	fld	ft8,200(sp)
 49c:	73696d2f          	.insn	4, 0x73696d2f
 4a0:	72632f63          	.insn	4, 0x72632f63
 4a4:	6d74                	ld	a3,216(a0)
 4a6:	6961                	lui	s2,0x18
 4a8:	2e6e                	fld	ft8,216(sp)
 4aa:	61680053          	.insn	4, 0x61680053
 4ae:	646e                	ld	s0,216(sp)
 4b0:	656c                	ld	a1,200(a0)
 4b2:	745f 6172 0070      	.insn	6, 0x00706172745f
 4b8:	73756163          	bltu	a0,s7,bda <__stack_align+0xbca>
 4bc:	0065                	c.nop	25
 4be:	655f 6978 0074      	.insn	6, 0x00746978655f
 4c4:	5f5f 6e69 7074      	.insn	6, 0x70746e695f5f
 4ca:	7274                	ld	a3,224(a2)
 4cc:	745f 7200 6765      	.insn	6, 0x67657200745f
 4d2:	76740073          	.insn	4, 0x76740073
 4d6:	6c61                	lui	s8,0x18
 4d8:	5f00                	lw	s0,56(a4)
 4da:	695f 696e 5f74      	.insn	6, 0x5f74696e695f
 4e0:	6c74                	ld	a3,216(s0)
 4e2:	5f5f0073          	.insn	4, 0x5f5f0073
 4e6:	6474                	ld	a3,200(s0)
 4e8:	7461                	lui	s0,0xffff8
 4ea:	5f61                	li	t5,-8
 4ec:	657a6973          	csrrsi	s2,hviprio2h,20
 4f0:	5f00                	lw	s0,56(a4)
 4f2:	745f 7362 5f73      	.insn	6, 0x5f737362745f
 4f8:	7366666f          	jal	a2,66c2e <__heap_size+0x46c2e>
 4fc:	7465                	lui	s0,0xffff9
 4fe:	5f00                	lw	s0,56(a4)
 500:	745f 7268 6165      	.insn	6, 0x61657268745f
 506:	5f64                	lw	s1,124(a4)
 508:	666c6573          	csrrsi	a0,0x666,24
 50c:	5f00                	lw	s0,56(a4)
 50e:	745f 7362 5f73      	.insn	6, 0x5f737362745f
 514:	657a6973          	csrrsi	s2,hviprio2h,20
 518:	6d00                	ld	s0,24(a0)
 51a:	6d65                	lui	s10,0x19
 51c:	00797063          	bgeu	s2,t2,51c <__stack_align+0x50c>
 520:	5f5f 6474 7461      	.insn	6, 0x746164745f5f
 526:	5f61                	li	t5,-8
 528:	72617473          	csrrci	s0,mhpmevent6h,2
 52c:	0074                	addi	a3,sp,12
 52e:	656d                	lui	a0,0x1b
 530:	736d                	lui	t1,0xffffb
 532:	7465                	lui	s0,0xffff9
 534:	5f00                	lw	s0,56(a4)
 536:	6d5f 6961 006e      	.insn	6, 0x006e69616d5f
 53c:	6e697073          	csrci	0x6e6,18
 540:	6f6c                	ld	a1,216(a4)
 542:	745f6b63          	bltu	t5,t0,c98 <__stack_align+0xc88>
 546:	6600                	ld	s0,8(a2)
 548:	6f72                	ld	t5,280(sp)
 54a:	686d                	lui	a6,0x1b
 54c:	0074736f          	jal	t1,47d52 <__heap_size+0x27d52>
 550:	6f74                	ld	a3,216(a4)
 552:	6f68                	ld	a0,216(a4)
 554:	5f007473          	csrrci	s0,0x5f0,0
 558:	695f 746e 3233      	.insn	6, 0x3233746e695f
 55e:	745f 6800 6974      	.insn	6, 0x69746800745f
 564:	5f66                	lw	t5,120(sp)
 566:	6f6c                	ld	a1,216(a4)
 568:	61006b63          	bltu	zero,a6,b7e <__stack_align+0xb6e>
 56c:	6f74                	ld	a3,216(a4)
 56e:	696d                	lui	s2,0x1b
 570:	77735f63          	bge	t1,s7,cee <__stack_align+0xcde>
 574:	7061                	c.lui	zero,0xffff8
 576:	615f 7163 6975      	.insn	6, 0x69757163615f
 57c:	6572                	ld	a0,280(sp)
 57e:	6100                	ld	s0,0(a0)
 580:	6f74                	ld	a3,216(a4)
 582:	696d                	lui	s2,0x1b
 584:	00745f63          	bge	s0,t2,5a2 <__stack_align+0x592>
 588:	7461                	lui	s0,0xffff8
 58a:	63696d6f          	jal	s10,96bc0 <__heap_size+0x76bc0>
 58e:	6c5f 616f 0064      	.insn	6, 0x0064616f6c5f
 594:	6e697073          	csrci	0x6e6,18
 598:	6c5f 636f 006b      	.insn	6, 0x006b636f6c5f
 59e:	6e697073          	csrci	0x6e6,18
 5a2:	755f 6c6e 636f      	.insn	6, 0x636f6c6e755f
 5a8:	7461006b          	.insn	4, 0x7461006b
 5ac:	63696d6f          	jal	s10,96be2 <__heap_size+0x76be2>
 5b0:	635f 656c 7261      	.insn	6, 0x7261656c635f
 5b6:	725f 6c65 6165      	.insn	6, 0x61656c65725f
 5bc:	Address 0x5bc is out of bounds.


Disassembly of section .debug_line_str:

0000000000000000 <.debug_line_str>:
   0:	6d6f682f          	.insn	4, 0x6d6f682f
   4:	2f65                	addiw	t5,t5,25 # 1b019 <__stack_size+0x13019>
   6:	7266                	ld	tp,120(sp)
   8:	6e61                	lui	t3,0x18
   a:	65682f6b          	.insn	4, 0x65682f6b
   e:	742f6c73          	csrrsi	s8,0x742,30
  12:	7365                	lui	t1,0xffff9
  14:	5f74                	lw	a3,124(a4)
  16:	6972                	ld	s2,280(sp)
  18:	2f766373          	csrrsi	t1,0x2f7,12
  1c:	70696863          	bltu	s2,t1,72c <__stack_align+0x71c>
  20:	6179                	addi	sp,sp,464
  22:	6472                	ld	s0,280(sp)
  24:	6968632f          	.insn	4, 0x6968632f
  28:	7970                	ld	a2,240(a0)
  2a:	7261                	lui	tp,0xffff8
  2c:	2f64                	fld	fs1,216(a4)
  2e:	6574                	ld	a3,200(a0)
  30:	2f737473          	csrrci	s0,0x2f7,6
  34:	66697073          	csrci	0x666,18
  38:	616c                	ld	a1,192(a0)
  3a:	65726873          	csrrsi	a6,hviprio2h,4
  3e:	6461                	lui	s0,0x18
  40:	632e                	ld	t1,200(sp)
  42:	2f00                	fld	fs0,24(a4)
  44:	6f68                	ld	a0,216(a4)
  46:	656d                	lui	a0,0x1b
  48:	6172662f          	.insn	4, 0x6172662f
  4c:	6b6e                	ld	s6,216(sp)
  4e:	7365682f          	.insn	4, 0x7365682f
  52:	2f6c                	fld	fa1,216(a4)
  54:	6574                	ld	a3,200(a0)
  56:	725f7473          	csrrci	s0,mhpmevent5h,30
  5a:	7369                	lui	t1,0xffffa
  5c:	632f7663          	bgeu	t5,s2,688 <__stack_align+0x678>
  60:	6968                	ld	a0,208(a0)
  62:	7970                	ld	a2,240(a0)
  64:	7261                	lui	tp,0xffff8
  66:	2f64                	fld	fs1,216(a4)
  68:	70696863          	bltu	s2,t1,778 <__stack_align+0x768>
  6c:	6179                	addi	sp,sp,464
  6e:	6472                	ld	s0,280(sp)
  70:	6975622f          	.insn	4, 0x6975622f
  74:	646c                	ld	a1,200(s0)
  76:	2f00                	fld	fs0,24(a4)
  78:	6f68                	ld	a0,216(a4)
  7a:	656d                	lui	a0,0x1b
  7c:	6172662f          	.insn	4, 0x6172662f
  80:	6b6e                	ld	s6,216(sp)
  82:	7365682f          	.insn	4, 0x7365682f
  86:	2f6c                	fld	fa1,216(a4)
  88:	6574                	ld	a3,200(a0)
  8a:	725f7473          	csrrci	s0,mhpmevent5h,30
  8e:	7369                	lui	t1,0xffffa
  90:	632f7663          	bgeu	t5,s2,6bc <__stack_align+0x6ac>
  94:	6968                	ld	a0,208(a0)
  96:	7970                	ld	a2,240(a0)
  98:	7261                	lui	tp,0xffff8
  9a:	2f64                	fld	fs1,216(a4)
  9c:	70696863          	bltu	s2,t1,7ac <__stack_align+0x79c>
  a0:	6179                	addi	sp,sp,464
  a2:	6472                	ld	s0,280(sp)
  a4:	7365742f          	.insn	4, 0x7365742f
  a8:	7374                	ld	a3,224(a4)
  aa:	2f00                	fld	fs0,24(a4)
  ac:	6f68                	ld	a0,216(a4)
  ae:	656d                	lui	a0,0x1b
  b0:	6172662f          	.insn	4, 0x6172662f
  b4:	6b6e                	ld	s6,216(sp)
  b6:	7365682f          	.insn	4, 0x7365682f
  ba:	2f6c                	fld	fa1,216(a4)
  bc:	6574                	ld	a3,200(a0)
  be:	725f7473          	csrrci	s0,mhpmevent5h,30
  c2:	7369                	lui	t1,0xffffa
  c4:	632f7663          	bgeu	t5,s2,6f0 <__stack_align+0x6e0>
  c8:	6968                	ld	a0,208(a0)
  ca:	7970                	ld	a2,240(a0)
  cc:	7261                	lui	tp,0xffff8
  ce:	2f64                	fld	fs1,216(a4)
  d0:	70696863          	bltu	s2,t1,7e0 <__stack_align+0x7d0>
  d4:	6179                	addi	sp,sp,464
  d6:	6472                	ld	s0,280(sp)
  d8:	6f632e2f          	.insn	4, 0x6f632e2f
  dc:	646e                	ld	s0,216(sp)
  de:	2d61                	addiw	s10,s10,24 # 19018 <__stack_size+0x11018>
  e0:	6e65                	lui	t3,0x19
  e2:	2f76                	fld	ft10,344(sp)
  e4:	6972                	ld	s2,280(sp)
  e6:	2d766373          	csrrsi	t1,0x2d7,12
  ea:	6f74                	ld	a3,216(a4)
  ec:	2f736c6f          	jal	s8,36be2 <__heap_size+0x16be2>
  f0:	6972                	ld	s2,280(sp)
  f2:	36766373          	csrrsi	t1,0x367,12
  f6:	2d34                	fld	fa3,88(a0)
  f8:	6e75                	lui	t3,0x1d
  fa:	776f6e6b          	.insn	4, 0x776f6e6b
  fe:	2d6e                	fld	fs10,216(sp)
 100:	6c65                	lui	s8,0x19
 102:	2f66                	fld	ft10,88(sp)
 104:	6e69                	lui	t3,0x1a
 106:	64756c63          	bltu	a0,t2,75e <__stack_align+0x74e>
 10a:	2f65                	addiw	t5,t5,25
 10c:	616d                	addi	sp,sp,240
 10e:	6e696863          	bltu	s2,t1,7fe <__stack_align+0x7ee>
 112:	0065                	c.nop	25
 114:	6d6f682f          	.insn	4, 0x6d6f682f
 118:	2f65                	addiw	t5,t5,25
 11a:	7266                	ld	tp,120(sp)
 11c:	6e61                	lui	t3,0x18
 11e:	65682f6b          	.insn	4, 0x65682f6b
 122:	742f6c73          	csrrsi	s8,0x742,30
 126:	7365                	lui	t1,0xffff9
 128:	5f74                	lw	a3,124(a4)
 12a:	6972                	ld	s2,280(sp)
 12c:	2f766373          	csrrsi	t1,0x2f7,12
 130:	70696863          	bltu	s2,t1,840 <__stack_align+0x830>
 134:	6179                	addi	sp,sp,464
 136:	6472                	ld	s0,280(sp)
 138:	6968632f          	.insn	4, 0x6968632f
 13c:	7970                	ld	a2,240(a0)
 13e:	7261                	lui	tp,0xffff8
 140:	2f64                	fld	fs1,216(a4)
 142:	632e                	ld	t1,200(sp)
 144:	61646e6f          	jal	t3,4675a <__heap_size+0x2675a>
 148:	652d                	lui	a0,0xb
 14a:	766e                	ld	a2,248(sp)
 14c:	7369722f          	.insn	4, 0x7369722f
 150:	742d7663          	bgeu	s10,sp,89c <__stack_align+0x88c>
 154:	736c6f6f          	jal	t5,c688a <__heap_size+0xa688a>
 158:	7369722f          	.insn	4, 0x7369722f
 15c:	34367663          	bgeu	a2,gp,4a8 <__stack_align+0x498>
 160:	752d                	lui	a0,0xfffeb
 162:	6b6e                	ld	s6,216(sp)
 164:	6f6e                	ld	t5,216(sp)
 166:	652d6e77          	.insn	4, 0x652d6e77
 16a:	666c                	ld	a1,200(a2)
 16c:	636e692f          	.insn	4, 0x636e692f
 170:	756c                	ld	a1,232(a0)
 172:	6564                	ld	s1,200(a0)
 174:	7379732f          	.insn	4, 0x7379732f
 178:	2f00                	fld	fs0,24(a4)
 17a:	6f68                	ld	a0,216(a4)
 17c:	656d                	lui	a0,0x1b
 17e:	6172662f          	.insn	4, 0x6172662f
 182:	6b6e                	ld	s6,216(sp)
 184:	7365682f          	.insn	4, 0x7365682f
 188:	2f6c                	fld	fa1,216(a4)
 18a:	6574                	ld	a3,200(a0)
 18c:	725f7473          	csrrci	s0,mhpmevent5h,30
 190:	7369                	lui	t1,0xffffa
 192:	632f7663          	bgeu	t5,s2,7be <__stack_align+0x7ae>
 196:	6968                	ld	a0,208(a0)
 198:	7970                	ld	a2,240(a0)
 19a:	7261                	lui	tp,0xffff8
 19c:	2f64                	fld	fs1,216(a4)
 19e:	70696863          	bltu	s2,t1,8ae <__stack_align+0x89e>
 1a2:	6179                	addi	sp,sp,464
 1a4:	6472                	ld	s0,280(sp)
 1a6:	6f632e2f          	.insn	4, 0x6f632e2f
 1aa:	646e                	ld	s0,216(sp)
 1ac:	2d61                	addiw	s10,s10,24
 1ae:	6e65                	lui	t3,0x19
 1b0:	2f76                	fld	ft10,344(sp)
 1b2:	6972                	ld	s2,280(sp)
 1b4:	2d766373          	csrrsi	t1,0x2d7,12
 1b8:	6f74                	ld	a3,216(a4)
 1ba:	2f736c6f          	jal	s8,36cb0 <__heap_size+0x16cb0>
 1be:	6972                	ld	s2,280(sp)
 1c0:	36766373          	csrrsi	t1,0x367,12
 1c4:	2d34                	fld	fa3,88(a0)
 1c6:	6e75                	lui	t3,0x1d
 1c8:	776f6e6b          	.insn	4, 0x776f6e6b
 1cc:	2d6e                	fld	fs10,216(sp)
 1ce:	6c65                	lui	s8,0x19
 1d0:	2f66                	fld	ft10,88(sp)
 1d2:	6e69                	lui	t3,0x1a
 1d4:	64756c63          	bltu	a0,t2,82c <__stack_align+0x81c>
 1d8:	0065                	c.nop	25
 1da:	66697073          	csrci	0x666,18
 1de:	616c                	ld	a1,192(a0)
 1e0:	682e6873          	csrrsi	a6,0x682,28
 1e4:	6d00                	ld	s0,24(a0)
 1e6:	696d                	lui	s2,0x1b
 1e8:	00682e6f          	jal	t3,821ee <__heap_size+0x621ee>
 1ec:	645f 6665 7561      	.insn	6, 0x75616665645f
 1f2:	746c                	ld	a1,232(s0)
 1f4:	745f 7079 7365      	.insn	6, 0x73657079745f
 1fa:	682e                	ld	a6,200(sp)
 1fc:	5f00                	lw	s0,56(a4)
 1fe:	69647473          	csrrci	s0,0x696,8
 202:	746e                	ld	s0,248(sp)
 204:	682e                	ld	a6,200(sp)
 206:	7300                	ld	s0,32(a4)
 208:	6474                	ld	a3,200(s0)
 20a:	6f69                	lui	t5,0x1a
 20c:	682e                	ld	a6,200(sp)
 20e:	2f00                	fld	fs0,24(a4)
 210:	6f68                	ld	a0,216(a4)
 212:	656d                	lui	a0,0x1b
 214:	6172662f          	.insn	4, 0x6172662f
 218:	6b6e                	ld	s6,216(sp)
 21a:	7365682f          	.insn	4, 0x7365682f
 21e:	2f6c                	fld	fa1,216(a4)
 220:	6574                	ld	a3,200(a0)
 222:	725f7473          	csrrci	s0,mhpmevent5h,30
 226:	7369                	lui	t1,0xffffa
 228:	632f7663          	bgeu	t5,s2,854 <__stack_align+0x844>
 22c:	6968                	ld	a0,208(a0)
 22e:	7970                	ld	a2,240(a0)
 230:	7261                	lui	tp,0xffff8
 232:	2f64                	fld	fs1,216(a4)
 234:	70696863          	bltu	s2,t1,944 <__stack_align+0x934>
 238:	6179                	addi	sp,sp,464
 23a:	6472                	ld	s0,280(sp)
 23c:	6f6f742f          	.insn	4, 0x6f6f742f
 240:	636c                	ld	a1,192(a4)
 242:	6168                	ld	a0,192(a0)
 244:	6e69                	lui	t3,0x1a
 246:	696c2f73          	csrrs	t5,0x696,s8
 24a:	6762                	ld	a4,24(sp)
 24c:	6f6c                	ld	a1,216(a4)
 24e:	622f7373          	csrrci	t1,0x622,30
 252:	6975                	lui	s2,0x1d
 254:	646c                	ld	a1,200(s0)
 256:	2e00                	fld	fs0,24(a2)
 258:	2f2e                	fld	ft10,200(sp)
 25a:	2f737973          	csrrci	s2,0x2f7,6
 25e:	736f6c63          	bltu	t5,s6,996 <__stack_align+0x986>
 262:	2e65                	addiw	t3,t3,25 # 1a019 <__stack_size+0x12019>
 264:	2e2e0063          	beq	t3,sp,544 <__stack_align+0x534>
 268:	7379732f          	.insn	4, 0x7379732f
 26c:	6500                	ld	s0,8(a0)
 26e:	7272                	ld	tp,312(sp)
 270:	6f6e                	ld	t5,216(sp)
 272:	682e                	ld	a6,200(sp)
 274:	2e00                	fld	fs0,24(a2)
 276:	2f2e                	fld	ft10,200(sp)
 278:	2f737973          	csrrci	s2,0x2f7,6
 27c:	7366                	ld	t1,120(sp)
 27e:	6174                	ld	a3,192(a0)
 280:	2e74                	fld	fa3,216(a2)
 282:	745f0063          	beq	t5,t0,9c2 <__stack_align+0x9b2>
 286:	6d69                	lui	s10,0x1a
 288:	7365                	lui	t1,0xffff9
 28a:	6570                	ld	a2,200(a0)
 28c:	00682e63          	.insn	4, 0x00682e63
 290:	74617473          	csrrci	s0,0x746,2
 294:	682e                	ld	a6,200(sp)
 296:	2e00                	fld	fs0,24(a2)
 298:	2f2e                	fld	ft10,200(sp)
 29a:	2f737973          	csrrci	s2,0x2f7,6
 29e:	7369                	lui	t1,0xffffa
 2a0:	7461                	lui	s0,0xffff8
 2a2:	7974                	ld	a3,240(a0)
 2a4:	632e                	ld	t1,200(sp)
 2a6:	2e00                	fld	fs0,24(a2)
 2a8:	2f2e                	fld	ft10,200(sp)
 2aa:	2f737973          	csrrci	s2,0x2f7,6
 2ae:	736c                	ld	a1,224(a4)
 2b0:	6565                	lui	a0,0x19
 2b2:	00632e6b          	.insn	4, 0x00632e6b
 2b6:	2e2e                	fld	ft8,200(sp)
 2b8:	7379732f          	.insn	4, 0x7379732f
 2bc:	6165722f          	.insn	4, 0x6165722f
 2c0:	2e64                	fld	fs1,216(a2)
 2c2:	682f0063          	beq	t5,sp,942 <__stack_align+0x932>
 2c6:	2f656d6f          	jal	s10,565bc <__heap_size+0x365bc>
 2ca:	7266                	ld	tp,120(sp)
 2cc:	6e61                	lui	t3,0x18
 2ce:	65682f6b          	.insn	4, 0x65682f6b
 2d2:	742f6c73          	csrrsi	s8,0x742,30
 2d6:	7365                	lui	t1,0xffff9
 2d8:	5f74                	lw	a3,124(a4)
 2da:	6972                	ld	s2,280(sp)
 2dc:	2f766373          	csrrsi	t1,0x2f7,12
 2e0:	70696863          	bltu	s2,t1,9f0 <__stack_align+0x9e0>
 2e4:	6179                	addi	sp,sp,464
 2e6:	6472                	ld	s0,280(sp)
 2e8:	6968632f          	.insn	4, 0x6968632f
 2ec:	7970                	ld	a2,240(a0)
 2ee:	7261                	lui	tp,0xffff8
 2f0:	2f64                	fld	fs1,216(a4)
 2f2:	632e                	ld	t1,200(sp)
 2f4:	61646e6f          	jal	t3,4690a <__heap_size+0x2690a>
 2f8:	652d                	lui	a0,0xb
 2fa:	766e                	ld	a2,248(sp)
 2fc:	7369722f          	.insn	4, 0x7369722f
 300:	742d7663          	bgeu	s10,sp,a4c <__stack_align+0xa3c>
 304:	736c6f6f          	jal	t5,c6a3a <__heap_size+0xa6a3a>
 308:	62696c2f          	.insn	4, 0x62696c2f
 30c:	6363672f          	.insn	4, 0x6363672f
 310:	7369722f          	.insn	4, 0x7369722f
 314:	34367663          	bgeu	a2,gp,660 <__stack_align+0x650>
 318:	752d                	lui	a0,0xfffeb
 31a:	6b6e                	ld	s6,216(sp)
 31c:	6f6e                	ld	t5,216(sp)
 31e:	652d6e77          	.insn	4, 0x652d6e77
 322:	666c                	ld	a1,200(a2)
 324:	2e33312f          	.insn	4, 0x2e33312f
 328:	2e32                	fld	ft8,264(sp)
 32a:	2f30                	fld	fa2,88(a4)
 32c:	6e69                	lui	t3,0x1a
 32e:	64756c63          	bltu	a0,t2,986 <__stack_align+0x976>
 332:	0065                	c.nop	25
 334:	64647473          	csrrci	s0,hviprio1,8
 338:	6665                	lui	a2,0x19
 33a:	682e                	ld	a6,200(sp)
 33c:	2e00                	fld	fs0,24(a2)
 33e:	2f2e                	fld	ft10,200(sp)
 340:	2f737973          	csrrci	s2,0x2f7,6
 344:	6b726273          	csrrsi	tp,0x6b7,4
 348:	632e                	ld	t1,200(sp)
 34a:	2e00                	fld	fs0,24(a2)
 34c:	2f2e                	fld	ft10,200(sp)
 34e:	2f737973          	csrrci	s2,0x2f7,6
 352:	74697277          	.insn	4, 0x74697277
 356:	2e65                	addiw	t3,t3,25 # 1a019 <__stack_size+0x12019>
 358:	2e2e0063          	beq	t3,sp,638 <__stack_align+0x628>
 35c:	636e692f          	.insn	4, 0x636e692f
 360:	756c                	ld	a1,232(a0)
 362:	6564                	ld	s1,200(a0)
 364:	6800                	ld	s0,16(s0)
 366:	6974                	ld	a3,208(a0)
 368:	2e66                	fld	ft8,88(sp)
 36a:	0068                	addi	a0,sp,12
 36c:	2e2e                	fld	ft8,200(sp)
 36e:	73696d2f          	.insn	4, 0x73696d2f
 372:	72630063          	beq	t1,t1,a92 <__stack_align+0xa82>
 376:	3074                	fld	fa3,224(s0)
 378:	532e                	lw	t1,232(sp)
 37a:	6300                	ld	s0,0(a4)
 37c:	7472                	ld	s0,312(sp)
 37e:	616d                	addi	sp,sp,240
 380:	6e69                	lui	t3,0x1a
 382:	532e                	lw	t1,232(sp)
 384:	2e00                	fld	fs0,24(a2)
 386:	2f2e                	fld	ft10,200(sp)
 388:	696d                	lui	s2,0x1b
 38a:	742f6373          	csrrsi	t1,0x742,30
 38e:	6172                	ld	sp,280(sp)
 390:	7370                	ld	a2,224(a4)
 392:	632e                	ld	t1,200(sp)
 394:	7300                	ld	s0,32(a4)
 396:	7379                	lui	t1,0xffffe
 398:	6c6c6163          	bltu	s8,t1,a5a <__stack_align+0xa4a>
 39c:	682e                	ld	a6,200(sp)
 39e:	2e00                	fld	fs0,24(a2)
 3a0:	2f2e                	fld	ft10,200(sp)
 3a2:	696d                	lui	s2,0x1b
 3a4:	742f6373          	csrrsi	t1,0x742,30
 3a8:	736c                	ld	a1,224(a4)
 3aa:	632e                	ld	t1,200(sp)
 3ac:	7300                	ld	s0,32(a4)
 3ae:	7274                	ld	a3,224(a2)
 3b0:	6e69                	lui	t3,0x1a
 3b2:	00682e67          	.insn	4, 0x00682e67
 3b6:	2e2e                	fld	ft8,200(sp)
 3b8:	73696d2f          	.insn	4, 0x73696d2f
 3bc:	616d2f63          	.insn	4, 0x616d2f63
 3c0:	6e69                	lui	t3,0x1a
 3c2:	632e                	ld	t1,200(sp)
 3c4:	2e00                	fld	fs0,24(a2)
 3c6:	2f2e                	fld	ft10,200(sp)
 3c8:	696d                	lui	s2,0x1b
 3ca:	682f6373          	csrrsi	t1,0x682,30
 3ce:	6974                	ld	a3,208(a0)
 3d0:	2e66                	fld	ft8,88(sp)
 3d2:	74610063          	beq	sp,t1,b12 <__stack_align+0xb02>
 3d6:	63696d6f          	jal	s10,96a0c <__heap_size+0x76a0c>
 3da:	682e                	ld	a6,200(sp)
 3dc:	7300                	ld	s0,32(a4)
 3de:	6970                	ld	a2,208(a0)
 3e0:	6c6e                	ld	s8,216(sp)
 3e2:	2e6b636f          	jal	t1,b66c8 <__heap_size+0x966c8>
 3e6:	0068                	addi	a0,sp,12
 3e8:	2e2e                	fld	ft8,200(sp)
 3ea:	7379732f          	.insn	4, 0x7379732f
 3ee:	6978652f          	.insn	4, 0x6978652f
 3f2:	2e74                	fld	fa3,216(a2)
 3f4:	Address 0x3f4 is out of bounds.


Disassembly of section .comment:

0000000000000000 <.comment>:
   0:	3a434347          	fmsub.d	ft6,ft6,ft4,ft7,rmm
   4:	2820                	fld	fs0,80(s0)
   6:	39386367          	.insn	4, 0x39386367
   a:	6431                	lui	s0,0xc
   c:	6438                	ld	a4,72(s0)
   e:	65333263          	.insn	4, 0x65333263
  12:	2029                	.insn	2, 0x2029
  14:	3331                	addiw	t1,t1,-20 # ffffffffffffdfec <__heap_end+0xffffffff7ffdafec>
  16:	322e                	fld	ft4,232(sp)
  18:	302e                	fld	ft0,232(sp)
  1a:	4700                	lw	s0,8(a4)
  1c:	203a4343          	fmadd.s	ft6,fs4,ft3,ft4,rmm
  20:	4728                	lw	a0,72(a4)
  22:	554e                	lw	a0,240(sp)
  24:	2029                	.insn	2, 0x2029
  26:	3331                	addiw	t1,t1,-20
  28:	322e                	fld	ft4,232(sp)
  2a:	302e                	fld	ft0,232(sp)
	...

Disassembly of section .riscv.attributes:

0000000000000000 <.riscv.attributes>:
   0:	4a41                	li	s4,16
   2:	0000                	unimp
   4:	7200                	ld	s0,32(a2)
   6:	7369                	lui	t1,0xffffa
   8:	01007663          	bgeu	zero,a6,14 <__stack_align+0x4>
   c:	0040                	addi	s0,sp,4
   e:	0000                	unimp
  10:	1004                	addi	s1,sp,32
  12:	7205                	lui	tp,0xfffe1
  14:	3676                	fld	fa2,376(sp)
  16:	6934                	ld	a3,80(a0)
  18:	7032                	.insn	2, 0x7032
  1a:	5f31                	li	t5,-20
  1c:	326d                	addiw	tp,tp,-5 # fffffffffffe0ffb <__heap_end+0xffffffff7ffbdffb>
  1e:	3070                	fld	fa2,224(s0)
  20:	615f 7032 5f31      	.insn	6, 0x5f317032615f
  26:	3266                	fld	ft4,120(sp)
  28:	3270                	fld	fa2,224(a2)
  2a:	645f 7032 5f32      	.insn	6, 0x5f327032645f
  30:	30703263          	.insn	4, 0x30703263
  34:	7a5f 6369 7273      	.insn	6, 0x727363697a5f
  3a:	7032                	.insn	2, 0x7032
  3c:	5f30                	lw	a2,120(a4)
  3e:	6d7a                	ld	s10,408(sp)
  40:	756d                	lui	a0,0xffffb
  42:	316c                	fld	fa1,224(a0)
  44:	3070                	fld	fa2,224(s0)
  46:	0800                	addi	s0,sp,16
  48:	0a01                	addi	s4,s4,0 # ffffffffffffa000 <__heap_end+0xffffffff7ffd7000>
  4a:	Address 0x4a is out of bounds.


Disassembly of section .debug_frame:

0000000000000000 <.debug_frame>:
   0:	000c                	.insn	2, 0x000c
   2:	0000                	unimp
   4:	ffff                	.insn	2, 0xffff
   6:	ffff                	.insn	2, 0xffff
   8:	7c010003          	lb	zero,1984(sp)
   c:	0d01                	addi	s10,s10,0 # 1a000 <__stack_size+0x12000>
   e:	0002                	c.slli64	zero
  10:	0014                	.insn	2, 0x0014
  12:	0000                	unimp
  14:	0000                	unimp
  16:	0000                	unimp
  18:	04a8                	addi	a0,sp,584
  1a:	8000                	.insn	2, 0x8000
  1c:	0000                	unimp
  1e:	0000                	unimp
  20:	001c                	.insn	2, 0x001c
  22:	0000                	unimp
  24:	0000                	unimp
  26:	0000                	unimp
  28:	0014                	.insn	2, 0x0014
  2a:	0000                	unimp
  2c:	0000                	unimp
  2e:	0000                	unimp
  30:	04c4                	addi	s1,sp,580
  32:	8000                	.insn	2, 0x8000
  34:	0000                	unimp
  36:	0000                	unimp
  38:	001c                	.insn	2, 0x001c
  3a:	0000                	unimp
  3c:	0000                	unimp
  3e:	0000                	unimp
  40:	0014                	.insn	2, 0x0014
  42:	0000                	unimp
  44:	0000                	unimp
  46:	0000                	unimp
  48:	04e0                	addi	s0,sp,588
  4a:	8000                	.insn	2, 0x8000
  4c:	0000                	unimp
  4e:	0000                	unimp
  50:	011c                	addi	a5,sp,128
  52:	0000                	unimp
  54:	0000                	unimp
  56:	0000                	unimp
  58:	0024                	addi	s1,sp,8
  5a:	0000                	unimp
  5c:	0000                	unimp
  5e:	0000                	unimp
  60:	05fc                	addi	a5,sp,716
  62:	8000                	.insn	2, 0x8000
  64:	0000                	unimp
  66:	0000                	unimp
  68:	0074                	addi	a3,sp,12
  6a:	0000                	unimp
  6c:	0000                	unimp
  6e:	0000                	unimp
  70:	5002                	.insn	2, 0x5002
  72:	100e                	c.slli	zero,0x23
  74:	8150                	.insn	2, 0x8150
  76:	4802                	lw	a6,0(sp)
  78:	48c1                	li	a7,16
  7a:	000e                	c.slli	zero,0x3
  7c:	0000                	unimp
  7e:	0000                	unimp
  80:	0024                	addi	s1,sp,8
  82:	0000                	unimp
  84:	0000                	unimp
  86:	0000                	unimp
  88:	0670                	addi	a2,sp,780
  8a:	8000                	.insn	2, 0x8000
  8c:	0000                	unimp
  8e:	0000                	unimp
  90:	0078                	addi	a4,sp,12
  92:	0000                	unimp
  94:	0000                	unimp
  96:	0000                	unimp
  98:	4c02                	lw	s8,0(sp)
  9a:	100e                	c.slli	zero,0x23
  9c:	8150                	.insn	2, 0x8150
  9e:	4802                	lw	a6,0(sp)
  a0:	48c1                	li	a7,16
  a2:	000e                	c.slli	zero,0x3
  a4:	0000                	unimp
  a6:	0000                	unimp
  a8:	0034                	addi	a3,sp,8
  aa:	0000                	unimp
  ac:	0000                	unimp
  ae:	0000                	unimp
  b0:	0230                	addi	a2,sp,264
  b2:	8000                	.insn	2, 0x8000
  b4:	0000                	unimp
  b6:	0000                	unimp
  b8:	0278                	addi	a4,sp,268
  ba:	0000                	unimp
  bc:	0000                	unimp
  be:	0000                	unimp
  c0:	0e44                	addi	s1,sp,788
  c2:	5820                	lw	s0,112(s0)
  c4:	0488                	addi	a0,sp,576
  c6:	0689                	addi	a3,a3,2
  c8:	0892                	slli	a7,a7,0x4
  ca:	0281                	addi	t0,t0,0
  cc:	4402                	lw	s0,0(sp)
  ce:	c10a                	sw	sp,128(sp)
  d0:	c844                	sw	s1,20(s0)
  d2:	c944                	sw	s1,20(a0)
  d4:	d244                	sw	s1,36(a2)
  d6:	0e44                	addi	s1,sp,788
  d8:	4400                	lw	s0,8(s0)
  da:	0000000b          	.insn	4, 0x000b
  de:	0000                	unimp
  e0:	000c                	.insn	2, 0x000c
  e2:	0000                	unimp
  e4:	ffff                	.insn	2, 0xffff
  e6:	ffff                	.insn	2, 0xffff
  e8:	7c010003          	lb	zero,1984(sp)
  ec:	0d01                	addi	s10,s10,0
  ee:	0002                	c.slli64	zero
  f0:	0024                	addi	s1,sp,8
  f2:	0000                	unimp
  f4:	00e0                	addi	s0,sp,76
  f6:	0000                	unimp
  f8:	1d44                	addi	s1,sp,692
  fa:	8000                	.insn	2, 0x8000
  fc:	0000                	unimp
  fe:	0000                	unimp
 100:	0014                	.insn	2, 0x0014
 102:	0000                	unimp
 104:	0000                	unimp
 106:	0000                	unimp
 108:	0e42                	slli	t3,t3,0x10
 10a:	4210                	lw	a2,0(a2)
 10c:	0281                	addi	t0,t0,0
 10e:	c146                	sw	a7,128(sp)
 110:	0e48                	addi	a0,sp,788
 112:	0000                	unimp
 114:	0000                	unimp
 116:	0000                	unimp
 118:	000c                	.insn	2, 0x000c
 11a:	0000                	unimp
 11c:	ffff                	.insn	2, 0xffff
 11e:	ffff                	.insn	2, 0xffff
 120:	7c010003          	lb	zero,1984(sp)
 124:	0d01                	addi	s10,s10,0
 126:	0002                	c.slli64	zero
 128:	0024                	addi	s1,sp,8
 12a:	0000                	unimp
 12c:	0118                	addi	a4,sp,128
 12e:	0000                	unimp
 130:	1d58                	addi	a4,sp,692
 132:	8000                	.insn	2, 0x8000
 134:	0000                	unimp
 136:	0000                	unimp
 138:	0014                	.insn	2, 0x0014
 13a:	0000                	unimp
 13c:	0000                	unimp
 13e:	0000                	unimp
 140:	0e42                	slli	t3,t3,0x10
 142:	4210                	lw	a2,0(a2)
 144:	0281                	addi	t0,t0,0
 146:	c146                	sw	a7,128(sp)
 148:	0e48                	addi	a0,sp,788
 14a:	0000                	unimp
 14c:	0000                	unimp
 14e:	0000                	unimp
 150:	000c                	.insn	2, 0x000c
 152:	0000                	unimp
 154:	ffff                	.insn	2, 0xffff
 156:	ffff                	.insn	2, 0xffff
 158:	7c010003          	lb	zero,1984(sp)
 15c:	0d01                	addi	s10,s10,0
 15e:	0002                	c.slli64	zero
 160:	0014                	.insn	2, 0x0014
 162:	0000                	unimp
 164:	0150                	addi	a2,sp,132
 166:	0000                	unimp
 168:	1d6c                	addi	a1,sp,700
 16a:	8000                	.insn	2, 0x8000
 16c:	0000                	unimp
 16e:	0000                	unimp
 170:	0008                	.insn	2, 0x0008
 172:	0000                	unimp
 174:	0000                	unimp
 176:	0000                	unimp
 178:	000c                	.insn	2, 0x000c
 17a:	0000                	unimp
 17c:	ffff                	.insn	2, 0xffff
 17e:	ffff                	.insn	2, 0xffff
 180:	7c010003          	lb	zero,1984(sp)
 184:	0d01                	addi	s10,s10,0
 186:	0002                	c.slli64	zero
 188:	0024                	addi	s1,sp,8
 18a:	0000                	unimp
 18c:	0178                	addi	a4,sp,140
 18e:	0000                	unimp
 190:	1d74                	addi	a3,sp,700
 192:	8000                	.insn	2, 0x8000
 194:	0000                	unimp
 196:	0000                	unimp
 198:	0014                	.insn	2, 0x0014
 19a:	0000                	unimp
 19c:	0000                	unimp
 19e:	0000                	unimp
 1a0:	0e42                	slli	t3,t3,0x10
 1a2:	4210                	lw	a2,0(a2)
 1a4:	0281                	addi	t0,t0,0
 1a6:	c146                	sw	a7,128(sp)
 1a8:	0e48                	addi	a0,sp,788
 1aa:	0000                	unimp
 1ac:	0000                	unimp
 1ae:	0000                	unimp
 1b0:	000c                	.insn	2, 0x000c
 1b2:	0000                	unimp
 1b4:	ffff                	.insn	2, 0xffff
 1b6:	ffff                	.insn	2, 0xffff
 1b8:	7c010003          	lb	zero,1984(sp)
 1bc:	0d01                	addi	s10,s10,0
 1be:	0002                	c.slli64	zero
 1c0:	0024                	addi	s1,sp,8
 1c2:	0000                	unimp
 1c4:	01b0                	addi	a2,sp,200
 1c6:	0000                	unimp
 1c8:	1d88                	addi	a0,sp,752
 1ca:	8000                	.insn	2, 0x8000
 1cc:	0000                	unimp
 1ce:	0000                	unimp
 1d0:	0016                	c.slli	zero,0x5
 1d2:	0000                	unimp
 1d4:	0000                	unimp
 1d6:	0000                	unimp
 1d8:	0e42                	slli	t3,t3,0x10
 1da:	4210                	lw	a2,0(a2)
 1dc:	0281                	addi	t0,t0,0
 1de:	c146                	sw	a7,128(sp)
 1e0:	0e4a                	slli	t3,t3,0x12
 1e2:	0000                	unimp
 1e4:	0000                	unimp
 1e6:	0000                	unimp
 1e8:	000c                	.insn	2, 0x000c
 1ea:	0000                	unimp
 1ec:	ffff                	.insn	2, 0xffff
 1ee:	ffff                	.insn	2, 0xffff
 1f0:	7c010003          	lb	zero,1984(sp)
 1f4:	0d01                	addi	s10,s10,0
 1f6:	0002                	c.slli64	zero
 1f8:	0024                	addi	s1,sp,8
 1fa:	0000                	unimp
 1fc:	01e8                	addi	a0,sp,204
 1fe:	0000                	unimp
 200:	1d9e                	slli	s11,s11,0x27
 202:	8000                	.insn	2, 0x8000
 204:	0000                	unimp
 206:	0000                	unimp
 208:	003c                	addi	a5,sp,8
 20a:	0000                	unimp
 20c:	0000                	unimp
 20e:	0000                	unimp
 210:	0e68                	addi	a0,sp,796
 212:	4210                	lw	a2,0(a2)
 214:	0281                	addi	t0,t0,0
 216:	c146                	sw	a7,128(sp)
 218:	0e4a                	slli	t3,t3,0x12
 21a:	0000                	unimp
 21c:	0000                	unimp
 21e:	0000                	unimp
 220:	000c                	.insn	2, 0x000c
 222:	0000                	unimp
 224:	ffff                	.insn	2, 0xffff
 226:	ffff                	.insn	2, 0xffff
 228:	7c010003          	lb	zero,1984(sp)
 22c:	0d01                	addi	s10,s10,0
 22e:	0002                	c.slli64	zero
 230:	0014                	.insn	2, 0x0014
 232:	0000                	unimp
 234:	0220                	addi	s0,sp,264
 236:	0000                	unimp
 238:	1dda                	slli	s11,s11,0x36
 23a:	8000                	.insn	2, 0x8000
 23c:	0000                	unimp
 23e:	0000                	unimp
 240:	0006                	c.slli	zero,0x1
 242:	0000                	unimp
 244:	0000                	unimp
 246:	0000                	unimp
 248:	000c                	.insn	2, 0x000c
 24a:	0000                	unimp
 24c:	ffff                	.insn	2, 0xffff
 24e:	ffff                	.insn	2, 0xffff
 250:	7c010003          	lb	zero,1984(sp)
 254:	0d01                	addi	s10,s10,0
 256:	0002                	c.slli64	zero
 258:	001c                	.insn	2, 0x001c
 25a:	0000                	unimp
 25c:	0248                	addi	a0,sp,260
 25e:	0000                	unimp
 260:	1de0                	addi	s0,sp,764
 262:	8000                	.insn	2, 0x8000
 264:	0000                	unimp
 266:	0000                	unimp
 268:	0016                	c.slli	zero,0x5
 26a:	0000                	unimp
 26c:	0000                	unimp
 26e:	0000                	unimp
 270:	0e42                	slli	t3,t3,0x10
 272:	4610                	lw	a2,8(a2)
 274:	0281                	addi	t0,t0,0
 276:	0000                	unimp
 278:	000c                	.insn	2, 0x000c
 27a:	0000                	unimp
 27c:	ffff                	.insn	2, 0xffff
 27e:	ffff                	.insn	2, 0xffff
 280:	7c010003          	lb	zero,1984(sp)
 284:	0d01                	addi	s10,s10,0
 286:	0002                	c.slli64	zero
 288:	0024                	addi	s1,sp,8
 28a:	0000                	unimp
 28c:	0278                	addi	a4,sp,268
 28e:	0000                	unimp
 290:	1df6                	slli	s11,s11,0x3d
 292:	8000                	.insn	2, 0x8000
 294:	0000                	unimp
 296:	0000                	unimp
 298:	0030                	addi	a2,sp,8
 29a:	0000                	unimp
 29c:	0000                	unimp
 29e:	0000                	unimp
 2a0:	0e42                	slli	t3,t3,0x10
 2a2:	5210                	lw	a2,32(a2)
 2a4:	0488                	addi	a0,sp,576
 2a6:	0281                	addi	t0,t0,0
 2a8:	c84e                	sw	s3,16(sp)
 2aa:	c142                	sw	a6,128(sp)
 2ac:	0e48                	addi	a0,sp,788
 2ae:	0000                	unimp
 2b0:	000c                	.insn	2, 0x000c
 2b2:	0000                	unimp
 2b4:	ffff                	.insn	2, 0xffff
 2b6:	ffff                	.insn	2, 0xffff
 2b8:	7c010003          	lb	zero,1984(sp)
 2bc:	0d01                	addi	s10,s10,0
 2be:	0002                	c.slli64	zero
 2c0:	0014                	.insn	2, 0x0014
 2c2:	0000                	unimp
 2c4:	02b0                	addi	a2,sp,328
 2c6:	0000                	unimp
 2c8:	1e26                	slli	t3,t3,0x29
 2ca:	8000                	.insn	2, 0x8000
 2cc:	0000                	unimp
 2ce:	0000                	unimp
 2d0:	0006                	c.slli	zero,0x1
 2d2:	0000                	unimp
 2d4:	0000                	unimp
 2d6:	0000                	unimp
 2d8:	000c                	.insn	2, 0x000c
 2da:	0000                	unimp
 2dc:	ffff                	.insn	2, 0xffff
 2de:	ffff                	.insn	2, 0xffff
 2e0:	7c010003          	lb	zero,1984(sp)
 2e4:	0d01                	addi	s10,s10,0
 2e6:	0002                	c.slli64	zero
 2e8:	001c                	.insn	2, 0x001c
 2ea:	0000                	unimp
 2ec:	02d8                	addi	a4,sp,324
 2ee:	0000                	unimp
 2f0:	1e2c                	addi	a1,sp,824
 2f2:	8000                	.insn	2, 0x8000
 2f4:	0000                	unimp
 2f6:	0000                	unimp
 2f8:	004c                	addi	a1,sp,4
 2fa:	0000                	unimp
 2fc:	0000                	unimp
 2fe:	0000                	unimp
 300:	0e42                	slli	t3,t3,0x10
 302:	0240                	addi	s0,sp,260
 304:	0e48                	addi	a0,sp,788
 306:	0000                	unimp
 308:	000c                	.insn	2, 0x000c
 30a:	0000                	unimp
 30c:	ffff                	.insn	2, 0xffff
 30e:	ffff                	.insn	2, 0xffff
 310:	7c010003          	lb	zero,1984(sp)
 314:	0d01                	addi	s10,s10,0
 316:	0002                	c.slli64	zero
 318:	0014                	.insn	2, 0x0014
 31a:	0000                	unimp
 31c:	0308                	addi	a0,sp,384
 31e:	0000                	unimp
 320:	1e78                	addi	a4,sp,828
 322:	8000                	.insn	2, 0x8000
 324:	0000                	unimp
 326:	0000                	unimp
 328:	0022                	c.slli	zero,0x8
 32a:	0000                	unimp
 32c:	0000                	unimp
	...
